; Listing generated by Microsoft (R) Optimizing Compiler Version 19.16.27032.1 

	TITLE	G:\网狐\HappyGameWH\服务端\系统模块\服务器组件\登录服务器\ServiceUnits.cpp
	.686P
	.XMM
	include listing.inc
	.model	flat

INCLUDELIB MSVCRTD
INCLUDELIB OLDNAMES

PUBLIC	?OnUIControlRequest@CServiceUnits@@IAEJIJ@Z	; CServiceUnits::OnUIControlRequest
PUBLIC	?g_pServiceUnits@CServiceUnits@@2PAV1@A		; CServiceUnits::g_pServiceUnits
EXTRN	?GetThisMessageMap@CWnd@@KGPBUAFX_MSGMAP@@XZ:PROC ; CWnd::GetThisMessageMap
_BSS	SEGMENT
?g_pServiceUnits@CServiceUnits@@2PAV1@A DD 01H DUP (?)	; CServiceUnits::g_pServiceUnits
_BSS	ENDS
CONST	SEGMENT
?IID_IUnknownEx@@3U_GUID@@B DD 05feec21eH		; IID_IUnknownEx
	DW	0dbf3H
	DW	046f0H
	DB	09fH
	DB	057H
	DB	0d1H
	DB	0cdH
	DB	071H
	DB	01cH
	DB	046H
	DB	0deH
?szCompilation@@3QBDB DB 'ED56BE63-3026-465B-9DFC-17F595145F3D', 00H ; szCompilation
	ORG $+3
?IID_IDataBaseEngine@@3U_GUID@@B DD 047b5a119H		; IID_IDataBaseEngine
	DW	01676H
	DW	049a3H
	DB	0beH
	DB	0aeH
	DB	0caH
	DB	027H
	DB	0ebH
	DB	059H
	DB	097H
	DB	022H
?IID_ITCPNetworkEngine@@3U_GUID@@B DD 07747f683H	; IID_ITCPNetworkEngine
	DW	0c0daH
	DW	04588H
	DB	089H
	DB	0ccH
	DB	015H
	DB	093H
	DB	0acH
	DB	0c0H
	DB	044H
	DB	0c8H
?IID_ITCPSocketService@@3U_GUID@@B DD 0709a4449H	; IID_ITCPSocketService
	DW	0ad77H
	DW	04b3dH
	DB	0b4H
	DB	0d6H
	DB	08dH
	DB	0bH
	DB	028H
	DB	065H
	DB	0ecH
	DB	0aeH
?IID_ITimerEngine@@3U_GUID@@B DD 0496401aeH		; IID_ITimerEngine
	DW	06fb0H
	DW	04e9fH
	DB	090H
	DB	098H
	DB	044H
	DB	09dH
	DB	09cH
	DB	0b2H
	DB	0bdH
	DB	097H
?IID_IDataBaseEngineEvent@@3U_GUID@@B DD 0c29c7131H	; IID_IDataBaseEngineEvent
	DW	0e84bH
	DW	04553H
	DB	0a8H
	DB	038H
	DB	012H
	DB	0eeH
	DB	07H
	DB	0ddH
	DB	0eH
	DB	0a3H
?IID_IAttemperEngine@@3U_GUID@@B DD 0b070b2cH		; IID_IAttemperEngine
	DW	09d72H
	DW	042d2H
	DB	0a5H
	DB	070H
	DB	0baH
	DB	02cH
	DB	0bfH
	DB	06fH
	DB	0bbH
	DB	01cH
?_messageEntries@?1??GetThisMessageMap@CServiceUnits@@KGPBUAFX_MSGMAP@@XZ@4QBUAFX_MSGMAP_ENTRY@@B DD 0464H ; `CServiceUnits::GetThisMessageMap'::`2'::_messageEntries
	DD	00H
	DD	00H
	DD	00H
	DD	0eH
	DD	FLAT:?OnUIControlRequest@CServiceUnits@@IAEJIJ@Z
	DD	00H
	DD	00H
	DD	00H
	DD	00H
	DD	00H
	DD	00H
?messageMap@?1??GetThisMessageMap@CServiceUnits@@KGPBUAFX_MSGMAP@@XZ@4U3@B DD FLAT:?GetThisMessageMap@CWnd@@KGPBUAFX_MSGMAP@@XZ ; `CServiceUnits::GetThisMessageMap'::`2'::messageMap
	DD	FLAT:?_messageEntries@?1??GetThisMessageMap@CServiceUnits@@KGPBUAFX_MSGMAP@@XZ@4QBUAFX_MSGMAP_ENTRY@@B
CONST	ENDS
PUBLIC	??_H@YGXPAXIIP6EPAX0@Z@Z			; `vector constructor iterator'
PUBLIC	?__empty_global_delete@@YAXPAX@Z		; __empty_global_delete
PUBLIC	?__empty_global_delete@@YAXPAXI@Z		; __empty_global_delete
PUBLIC	___local_stdio_printf_options
PUBLIC	__vsnprintf_s_l
PUBLIC	__vsnprintf_s
PUBLIC	?AfxAssertFailedLine@@YGHPBDH@Z			; AfxAssertFailedLine
PUBLIC	??0CRect@@QAE@HHHH@Z				; CRect::CRect
PUBLIC	??0?$CTempldateHelper@UITimerEngine@@@@QAE@ABU_GUID@@KPBD1@Z ; CTempldateHelper<ITimerEngine>::CTempldateHelper<ITimerEngine>
PUBLIC	??1?$CTempldateHelper@UITimerEngine@@@@UAE@XZ	; CTempldateHelper<ITimerEngine>::~CTempldateHelper<ITimerEngine>
PUBLIC	?CloseInstance@?$CTempldateHelper@UITimerEngine@@@@QAE_NXZ ; CTempldateHelper<ITimerEngine>::CloseInstance
PUBLIC	?CreateInstance@?$CTempldateHelper@UITimerEngine@@@@QAE_NXZ ; CTempldateHelper<ITimerEngine>::CreateInstance
PUBLIC	??C?$CTempldateHelper@UITimerEngine@@@@QBEPAUITimerEngine@@XZ ; CTempldateHelper<ITimerEngine>::operator->
PUBLIC	?GetInterface@?$CTempldateHelper@UITimerEngine@@@@QBEPAUITimerEngine@@XZ ; CTempldateHelper<ITimerEngine>::GetInterface
PUBLIC	??_G?$CTempldateHelper@UITimerEngine@@@@UAEPAXI@Z ; CTempldateHelper<ITimerEngine>::`scalar deleting destructor'
PUBLIC	??0CTimerEngineHelper@@QAE@XZ			; CTimerEngineHelper::CTimerEngineHelper
PUBLIC	??1CTimerEngineHelper@@UAE@XZ			; CTimerEngineHelper::~CTimerEngineHelper
PUBLIC	??_GCTimerEngineHelper@@UAEPAXI@Z		; CTimerEngineHelper::`scalar deleting destructor'
PUBLIC	??0?$CTempldateHelper@UIDataBaseEngine@@@@QAE@ABU_GUID@@KPBD1@Z ; CTempldateHelper<IDataBaseEngine>::CTempldateHelper<IDataBaseEngine>
PUBLIC	??1?$CTempldateHelper@UIDataBaseEngine@@@@UAE@XZ ; CTempldateHelper<IDataBaseEngine>::~CTempldateHelper<IDataBaseEngine>
PUBLIC	?CloseInstance@?$CTempldateHelper@UIDataBaseEngine@@@@QAE_NXZ ; CTempldateHelper<IDataBaseEngine>::CloseInstance
PUBLIC	?CreateInstance@?$CTempldateHelper@UIDataBaseEngine@@@@QAE_NXZ ; CTempldateHelper<IDataBaseEngine>::CreateInstance
PUBLIC	??C?$CTempldateHelper@UIDataBaseEngine@@@@QBEPAUIDataBaseEngine@@XZ ; CTempldateHelper<IDataBaseEngine>::operator->
PUBLIC	?GetInterface@?$CTempldateHelper@UIDataBaseEngine@@@@QBEPAUIDataBaseEngine@@XZ ; CTempldateHelper<IDataBaseEngine>::GetInterface
PUBLIC	??_G?$CTempldateHelper@UIDataBaseEngine@@@@UAEPAXI@Z ; CTempldateHelper<IDataBaseEngine>::`scalar deleting destructor'
PUBLIC	??0CDataBaseEngineHelper@@QAE@XZ		; CDataBaseEngineHelper::CDataBaseEngineHelper
PUBLIC	??1CDataBaseEngineHelper@@UAE@XZ		; CDataBaseEngineHelper::~CDataBaseEngineHelper
PUBLIC	??_GCDataBaseEngineHelper@@UAEPAXI@Z		; CDataBaseEngineHelper::`scalar deleting destructor'
PUBLIC	??0?$CTempldateHelper@UIAttemperEngine@@@@QAE@ABU_GUID@@KPBD1@Z ; CTempldateHelper<IAttemperEngine>::CTempldateHelper<IAttemperEngine>
PUBLIC	??1?$CTempldateHelper@UIAttemperEngine@@@@UAE@XZ ; CTempldateHelper<IAttemperEngine>::~CTempldateHelper<IAttemperEngine>
PUBLIC	?CloseInstance@?$CTempldateHelper@UIAttemperEngine@@@@QAE_NXZ ; CTempldateHelper<IAttemperEngine>::CloseInstance
PUBLIC	?CreateInstance@?$CTempldateHelper@UIAttemperEngine@@@@QAE_NXZ ; CTempldateHelper<IAttemperEngine>::CreateInstance
PUBLIC	??C?$CTempldateHelper@UIAttemperEngine@@@@QBEPAUIAttemperEngine@@XZ ; CTempldateHelper<IAttemperEngine>::operator->
PUBLIC	?GetInterface@?$CTempldateHelper@UIAttemperEngine@@@@QBEPAUIAttemperEngine@@XZ ; CTempldateHelper<IAttemperEngine>::GetInterface
PUBLIC	??_G?$CTempldateHelper@UIAttemperEngine@@@@UAEPAXI@Z ; CTempldateHelper<IAttemperEngine>::`scalar deleting destructor'
PUBLIC	??0CAttemperEngineHelper@@QAE@XZ		; CAttemperEngineHelper::CAttemperEngineHelper
PUBLIC	??1CAttemperEngineHelper@@UAE@XZ		; CAttemperEngineHelper::~CAttemperEngineHelper
PUBLIC	??_GCAttemperEngineHelper@@UAEPAXI@Z		; CAttemperEngineHelper::`scalar deleting destructor'
PUBLIC	??0?$CTempldateHelper@UITCPSocketService@@@@QAE@ABU_GUID@@KPBD1@Z ; CTempldateHelper<ITCPSocketService>::CTempldateHelper<ITCPSocketService>
PUBLIC	??1?$CTempldateHelper@UITCPSocketService@@@@UAE@XZ ; CTempldateHelper<ITCPSocketService>::~CTempldateHelper<ITCPSocketService>
PUBLIC	?CloseInstance@?$CTempldateHelper@UITCPSocketService@@@@QAE_NXZ ; CTempldateHelper<ITCPSocketService>::CloseInstance
PUBLIC	?CreateInstance@?$CTempldateHelper@UITCPSocketService@@@@QAE_NXZ ; CTempldateHelper<ITCPSocketService>::CreateInstance
PUBLIC	??C?$CTempldateHelper@UITCPSocketService@@@@QBEPAUITCPSocketService@@XZ ; CTempldateHelper<ITCPSocketService>::operator->
PUBLIC	?GetInterface@?$CTempldateHelper@UITCPSocketService@@@@QBEPAUITCPSocketService@@XZ ; CTempldateHelper<ITCPSocketService>::GetInterface
PUBLIC	??_G?$CTempldateHelper@UITCPSocketService@@@@UAEPAXI@Z ; CTempldateHelper<ITCPSocketService>::`scalar deleting destructor'
PUBLIC	??0CTCPSocketServiceHelper@@QAE@XZ		; CTCPSocketServiceHelper::CTCPSocketServiceHelper
PUBLIC	??1CTCPSocketServiceHelper@@UAE@XZ		; CTCPSocketServiceHelper::~CTCPSocketServiceHelper
PUBLIC	??_GCTCPSocketServiceHelper@@UAEPAXI@Z		; CTCPSocketServiceHelper::`scalar deleting destructor'
PUBLIC	??0?$CTempldateHelper@UITCPNetworkEngine@@@@QAE@ABU_GUID@@KPBD1@Z ; CTempldateHelper<ITCPNetworkEngine>::CTempldateHelper<ITCPNetworkEngine>
PUBLIC	??1?$CTempldateHelper@UITCPNetworkEngine@@@@UAE@XZ ; CTempldateHelper<ITCPNetworkEngine>::~CTempldateHelper<ITCPNetworkEngine>
PUBLIC	?CloseInstance@?$CTempldateHelper@UITCPNetworkEngine@@@@QAE_NXZ ; CTempldateHelper<ITCPNetworkEngine>::CloseInstance
PUBLIC	?CreateInstance@?$CTempldateHelper@UITCPNetworkEngine@@@@QAE_NXZ ; CTempldateHelper<ITCPNetworkEngine>::CreateInstance
PUBLIC	??C?$CTempldateHelper@UITCPNetworkEngine@@@@QBEPAUITCPNetworkEngine@@XZ ; CTempldateHelper<ITCPNetworkEngine>::operator->
PUBLIC	?GetInterface@?$CTempldateHelper@UITCPNetworkEngine@@@@QBEPAUITCPNetworkEngine@@XZ ; CTempldateHelper<ITCPNetworkEngine>::GetInterface
PUBLIC	??_G?$CTempldateHelper@UITCPNetworkEngine@@@@UAEPAXI@Z ; CTempldateHelper<ITCPNetworkEngine>::`scalar deleting destructor'
PUBLIC	??0CTCPNetworkEngineHelper@@QAE@XZ		; CTCPNetworkEngineHelper::CTCPNetworkEngineHelper
PUBLIC	??1CTCPNetworkEngineHelper@@UAE@XZ		; CTCPNetworkEngineHelper::~CTCPNetworkEngineHelper
PUBLIC	??_GCTCPNetworkEngineHelper@@UAEPAXI@Z		; CTCPNetworkEngineHelper::`scalar deleting destructor'
PUBLIC	??0CServiceUnits@@QAE@XZ			; CServiceUnits::CServiceUnits
PUBLIC	??1CServiceUnits@@UAE@XZ			; CServiceUnits::~CServiceUnits
PUBLIC	?StartService@CServiceUnits@@QAE_NXZ		; CServiceUnits::StartService
PUBLIC	?ConcludeService@CServiceUnits@@QAE_NXZ		; CServiceUnits::ConcludeService
PUBLIC	?SetServiceUnitsSink@CServiceUnits@@QAE_NPAUIServiceUnitsSink@@@Z ; CServiceUnits::SetServiceUnitsSink
PUBLIC	?PostControlRequest@CServiceUnits@@QAE_NGPAXG@Z	; CServiceUnits::PostControlRequest
PUBLIC	?InitializeService@CServiceUnits@@IAE_NXZ	; CServiceUnits::InitializeService
PUBLIC	?StartKernelService@CServiceUnits@@IAE_NXZ	; CServiceUnits::StartKernelService
PUBLIC	?StartNetworkService@CServiceUnits@@IAE_NXZ	; CServiceUnits::StartNetworkService
PUBLIC	?SetServiceStatus@CServiceUnits@@AAE_NW4enServiceStatus@@@Z ; CServiceUnits::SetServiceStatus
PUBLIC	?SendControlPacket@CServiceUnits@@AAE_NGPAXG@Z	; CServiceUnits::SendControlPacket
PUBLIC	?GetThisMessageMap@CServiceUnits@@KGPBUAFX_MSGMAP@@XZ ; CServiceUnits::GetThisMessageMap
PUBLIC	?GetMessageMap@CServiceUnits@@MBEPBUAFX_MSGMAP@@XZ ; CServiceUnits::GetMessageMap
PUBLIC	??_GCServiceUnits@@UAEPAXI@Z			; CServiceUnits::`scalar deleting destructor'
PUBLIC	??$_snprintf_s@$0IA@@@YAHAAY0IA@DIPBDZZ		; _snprintf_s<128>
PUBLIC	?_OptionsStorage@?1??__local_stdio_printf_options@@9@4_KA ; `__local_stdio_printf_options'::`2'::_OptionsStorage
PUBLIC	??_C@_0BB@BEMLEOHB@KernelEngine?4dll@		; `string'
PUBLIC	??_7?$CTempldateHelper@UITimerEngine@@@@6B@	; CTempldateHelper<ITimerEngine>::`vftable'
PUBLIC	??_7CTimerEngineHelper@@6B@			; CTimerEngineHelper::`vftable'
PUBLIC	??_C@_0BC@PLOLBCGN@CreateTimerEngine@		; `string'
PUBLIC	??_7?$CTempldateHelper@UIDataBaseEngine@@@@6B@	; CTempldateHelper<IDataBaseEngine>::`vftable'
PUBLIC	??_7CDataBaseEngineHelper@@6B@			; CDataBaseEngineHelper::`vftable'
PUBLIC	??_C@_0BF@FHMKIOLL@CreateDataBaseEngine@	; `string'
PUBLIC	??_7?$CTempldateHelper@UIAttemperEngine@@@@6B@	; CTempldateHelper<IAttemperEngine>::`vftable'
PUBLIC	??_7CAttemperEngineHelper@@6B@			; CAttemperEngineHelper::`vftable'
PUBLIC	??_C@_0BF@PBPGMLEA@CreateAttemperEngine@	; `string'
PUBLIC	??_7?$CTempldateHelper@UITCPSocketService@@@@6B@ ; CTempldateHelper<ITCPSocketService>::`vftable'
PUBLIC	??_7CTCPSocketServiceHelper@@6B@		; CTCPSocketServiceHelper::`vftable'
PUBLIC	??_C@_0BH@FPPDPKKP@CreateTCPSocketService@	; `string'
PUBLIC	??_7?$CTempldateHelper@UITCPNetworkEngine@@@@6B@ ; CTempldateHelper<ITCPNetworkEngine>::`vftable'
PUBLIC	??_7CTCPNetworkEngineHelper@@6B@		; CTCPNetworkEngineHelper::`vftable'
PUBLIC	??_C@_0BH@LEGJPFFH@CreateTCPNetworkEngine@	; `string'
PUBLIC	??_R1A@?0A@EA@CObject@@8			; CObject::`RTTI Base Class Descriptor at (0,-1,0,64)'
PUBLIC	??_R0?AVCObject@@@8				; CObject `RTTI Type Descriptor'
PUBLIC	??_R3CObject@@8					; CObject::`RTTI Class Hierarchy Descriptor'
PUBLIC	??_R2CObject@@8					; CObject::`RTTI Base Class Array'
PUBLIC	??_R1A@?0A@EA@CWnd@@8				; CWnd::`RTTI Base Class Descriptor at (0,-1,0,64)'
PUBLIC	??_R0?AVCWnd@@@8				; CWnd `RTTI Type Descriptor'
PUBLIC	??_R3CWnd@@8					; CWnd::`RTTI Class Hierarchy Descriptor'
PUBLIC	??_R2CWnd@@8					; CWnd::`RTTI Base Class Array'
PUBLIC	??_R1A@?0A@EA@CCmdTarget@@8			; CCmdTarget::`RTTI Base Class Descriptor at (0,-1,0,64)'
PUBLIC	??_R0?AVCCmdTarget@@@8				; CCmdTarget `RTTI Type Descriptor'
PUBLIC	??_R3CCmdTarget@@8				; CCmdTarget::`RTTI Class Hierarchy Descriptor'
PUBLIC	??_R2CCmdTarget@@8				; CCmdTarget::`RTTI Base Class Array'
PUBLIC	??_R4CTimerEngineHelper@@6B@			; CTimerEngineHelper::`RTTI Complete Object Locator'
PUBLIC	??_R0?AVCTimerEngineHelper@@@8			; CTimerEngineHelper `RTTI Type Descriptor'
PUBLIC	??_R3CTimerEngineHelper@@8			; CTimerEngineHelper::`RTTI Class Hierarchy Descriptor'
PUBLIC	??_R2CTimerEngineHelper@@8			; CTimerEngineHelper::`RTTI Base Class Array'
PUBLIC	??_R1A@?0A@EA@CTimerEngineHelper@@8		; CTimerEngineHelper::`RTTI Base Class Descriptor at (0,-1,0,64)'
PUBLIC	??_R1A@?0A@EA@?$CTempldateHelper@UITimerEngine@@@@8 ; CTempldateHelper<ITimerEngine>::`RTTI Base Class Descriptor at (0,-1,0,64)'
PUBLIC	??_R0?AV?$CTempldateHelper@UITimerEngine@@@@@8	; CTempldateHelper<ITimerEngine> `RTTI Type Descriptor'
PUBLIC	??_R3?$CTempldateHelper@UITimerEngine@@@@8	; CTempldateHelper<ITimerEngine>::`RTTI Class Hierarchy Descriptor'
PUBLIC	??_R2?$CTempldateHelper@UITimerEngine@@@@8	; CTempldateHelper<ITimerEngine>::`RTTI Base Class Array'
PUBLIC	??_R4?$CTempldateHelper@UITimerEngine@@@@6B@	; CTempldateHelper<ITimerEngine>::`RTTI Complete Object Locator'
PUBLIC	??_R4CDataBaseEngineHelper@@6B@			; CDataBaseEngineHelper::`RTTI Complete Object Locator'
PUBLIC	??_R0?AVCDataBaseEngineHelper@@@8		; CDataBaseEngineHelper `RTTI Type Descriptor'
PUBLIC	??_R3CDataBaseEngineHelper@@8			; CDataBaseEngineHelper::`RTTI Class Hierarchy Descriptor'
PUBLIC	??_R2CDataBaseEngineHelper@@8			; CDataBaseEngineHelper::`RTTI Base Class Array'
PUBLIC	??_R1A@?0A@EA@CDataBaseEngineHelper@@8		; CDataBaseEngineHelper::`RTTI Base Class Descriptor at (0,-1,0,64)'
PUBLIC	??_R1A@?0A@EA@?$CTempldateHelper@UIDataBaseEngine@@@@8 ; CTempldateHelper<IDataBaseEngine>::`RTTI Base Class Descriptor at (0,-1,0,64)'
PUBLIC	??_R0?AV?$CTempldateHelper@UIDataBaseEngine@@@@@8 ; CTempldateHelper<IDataBaseEngine> `RTTI Type Descriptor'
PUBLIC	??_R3?$CTempldateHelper@UIDataBaseEngine@@@@8	; CTempldateHelper<IDataBaseEngine>::`RTTI Class Hierarchy Descriptor'
PUBLIC	??_R2?$CTempldateHelper@UIDataBaseEngine@@@@8	; CTempldateHelper<IDataBaseEngine>::`RTTI Base Class Array'
PUBLIC	??_R4?$CTempldateHelper@UIDataBaseEngine@@@@6B@	; CTempldateHelper<IDataBaseEngine>::`RTTI Complete Object Locator'
PUBLIC	??_R4CAttemperEngineHelper@@6B@			; CAttemperEngineHelper::`RTTI Complete Object Locator'
PUBLIC	??_R0?AVCAttemperEngineHelper@@@8		; CAttemperEngineHelper `RTTI Type Descriptor'
PUBLIC	??_R3CAttemperEngineHelper@@8			; CAttemperEngineHelper::`RTTI Class Hierarchy Descriptor'
PUBLIC	??_R2CAttemperEngineHelper@@8			; CAttemperEngineHelper::`RTTI Base Class Array'
PUBLIC	??_R1A@?0A@EA@CAttemperEngineHelper@@8		; CAttemperEngineHelper::`RTTI Base Class Descriptor at (0,-1,0,64)'
PUBLIC	??_R1A@?0A@EA@?$CTempldateHelper@UIAttemperEngine@@@@8 ; CTempldateHelper<IAttemperEngine>::`RTTI Base Class Descriptor at (0,-1,0,64)'
PUBLIC	??_R0?AV?$CTempldateHelper@UIAttemperEngine@@@@@8 ; CTempldateHelper<IAttemperEngine> `RTTI Type Descriptor'
PUBLIC	??_R3?$CTempldateHelper@UIAttemperEngine@@@@8	; CTempldateHelper<IAttemperEngine>::`RTTI Class Hierarchy Descriptor'
PUBLIC	??_R2?$CTempldateHelper@UIAttemperEngine@@@@8	; CTempldateHelper<IAttemperEngine>::`RTTI Base Class Array'
PUBLIC	??_R4?$CTempldateHelper@UIAttemperEngine@@@@6B@	; CTempldateHelper<IAttemperEngine>::`RTTI Complete Object Locator'
PUBLIC	??_R4CTCPSocketServiceHelper@@6B@		; CTCPSocketServiceHelper::`RTTI Complete Object Locator'
PUBLIC	??_R0?AVCTCPSocketServiceHelper@@@8		; CTCPSocketServiceHelper `RTTI Type Descriptor'
PUBLIC	??_R3CTCPSocketServiceHelper@@8			; CTCPSocketServiceHelper::`RTTI Class Hierarchy Descriptor'
PUBLIC	??_R2CTCPSocketServiceHelper@@8			; CTCPSocketServiceHelper::`RTTI Base Class Array'
PUBLIC	??_R1A@?0A@EA@CTCPSocketServiceHelper@@8	; CTCPSocketServiceHelper::`RTTI Base Class Descriptor at (0,-1,0,64)'
PUBLIC	??_R1A@?0A@EA@?$CTempldateHelper@UITCPSocketService@@@@8 ; CTempldateHelper<ITCPSocketService>::`RTTI Base Class Descriptor at (0,-1,0,64)'
PUBLIC	??_R0?AV?$CTempldateHelper@UITCPSocketService@@@@@8 ; CTempldateHelper<ITCPSocketService> `RTTI Type Descriptor'
PUBLIC	??_R3?$CTempldateHelper@UITCPSocketService@@@@8	; CTempldateHelper<ITCPSocketService>::`RTTI Class Hierarchy Descriptor'
PUBLIC	??_R2?$CTempldateHelper@UITCPSocketService@@@@8	; CTempldateHelper<ITCPSocketService>::`RTTI Base Class Array'
PUBLIC	??_R4?$CTempldateHelper@UITCPSocketService@@@@6B@ ; CTempldateHelper<ITCPSocketService>::`RTTI Complete Object Locator'
PUBLIC	??_R4CTCPNetworkEngineHelper@@6B@		; CTCPNetworkEngineHelper::`RTTI Complete Object Locator'
PUBLIC	??_R0?AVCTCPNetworkEngineHelper@@@8		; CTCPNetworkEngineHelper `RTTI Type Descriptor'
PUBLIC	??_R3CTCPNetworkEngineHelper@@8			; CTCPNetworkEngineHelper::`RTTI Class Hierarchy Descriptor'
PUBLIC	??_R2CTCPNetworkEngineHelper@@8			; CTCPNetworkEngineHelper::`RTTI Base Class Array'
PUBLIC	??_R1A@?0A@EA@CTCPNetworkEngineHelper@@8	; CTCPNetworkEngineHelper::`RTTI Base Class Descriptor at (0,-1,0,64)'
PUBLIC	??_R1A@?0A@EA@?$CTempldateHelper@UITCPNetworkEngine@@@@8 ; CTempldateHelper<ITCPNetworkEngine>::`RTTI Base Class Descriptor at (0,-1,0,64)'
PUBLIC	??_R0?AV?$CTempldateHelper@UITCPNetworkEngine@@@@@8 ; CTempldateHelper<ITCPNetworkEngine> `RTTI Type Descriptor'
PUBLIC	??_R3?$CTempldateHelper@UITCPNetworkEngine@@@@8	; CTempldateHelper<ITCPNetworkEngine>::`RTTI Class Hierarchy Descriptor'
PUBLIC	??_R2?$CTempldateHelper@UITCPNetworkEngine@@@@8	; CTempldateHelper<ITCPNetworkEngine>::`RTTI Base Class Array'
PUBLIC	??_R4?$CTempldateHelper@UITCPNetworkEngine@@@@6B@ ; CTempldateHelper<ITCPNetworkEngine>::`RTTI Complete Object Locator'
PUBLIC	??_7CServiceUnits@@6B@				; CServiceUnits::`vftable'
PUBLIC	?__LINE__Var@?0???0CServiceUnits@@QAE@XZ@4JA	; `CServiceUnits::CServiceUnits'::`1'::__LINE__Var
PUBLIC	??_C@_0EL@PANCMGMG@g?3?2?M?x?$LK?$PM?2happygamewh?2?$LH?$PO?N?q?$LG?K?2?O?$LF?M?$LD@ ; `string'
PUBLIC	?__LINE__Var@?0??StartService@CServiceUnits@@QAE_NXZ@4JA ; `CServiceUnits::StartService'::`1'::__LINE__Var
PUBLIC	?__LINE__Var@?0??PostControlRequest@CServiceUnits@@QAE_NGPAXG@Z@4JA ; `CServiceUnits::PostControlRequest'::`1'::__LINE__Var
PUBLIC	?__LINE__Var@?0??StartKernelService@CServiceUnits@@IAE_NXZ@4JA ; `CServiceUnits::StartKernelService'::`1'::__LINE__Var
PUBLIC	?__LINE__Var@?0??StartNetworkService@CServiceUnits@@IAE_NXZ@4JA ; `CServiceUnits::StartNetworkService'::`1'::__LINE__Var
PUBLIC	?__LINE__Var@?0??SetServiceStatus@CServiceUnits@@AAE_NW4enServiceStatus@@@Z@4JA ; `CServiceUnits::SetServiceStatus'::`1'::__LINE__Var
PUBLIC	??_C@_0N@LNPLGNA@?$LH?$PO?N?q?F?t?$LG?$KP?J?$KH?$LA?$NM@ ; `string'
PUBLIC	?__LINE__Var@?0??SendControlPacket@CServiceUnits@@AAE_NGPAXG@Z@4JA ; `CServiceUnits::SendControlPacket'::`1'::__LINE__Var
PUBLIC	?__LINE__Var@?0??OnUIControlRequest@CServiceUnits@@IAEJIJ@Z@4JA ; `CServiceUnits::OnUIControlRequest'::`1'::__LINE__Var
PUBLIC	??_C@_0DG@CDIFDKED@g?3?2?M?x?$LK?$PM?2happygamewh?2?$LH?$PO?N?q?$LG?K?2?O?$LF?M?$LD@ ; `string'
PUBLIC	??_C@_0BD@LMOFNGMO@?$KB?$LA?$CFs?$KB?$LB?D?$KD?$LP?i?$LM?S?T?X?J?$KH?$LA?$NM@ ; `string'
PUBLIC	??_C@_0BM@PEGNCJOH@?U?R?$LC?$LL?$LF?$LN?W?i?$LM?$PO?$LE?$LE?$LN?$KI?$LK?$KP?J?$PN?$KB?$LA?$CFs?$KB?$LB?3?$CFd@ ; `string'
PUBLIC	??_C@_0BL@PDAODLKM@?$LF?w?S?C?$LK?$KP?J?$PN?$KB?$LA?$CFs?$KB?$LB?I?z?$LD?I?$LG?T?O?s?J?$KH?$LA?$NM@ ; `string'
PUBLIC	??_R0PAD@8					; char * `RTTI Type Descriptor'
PUBLIC	??_C@_0BJ@JGPFHIJF@?S?I?S?Z?$KB?$LA?$CFs?$KB?$LB?$KD?$KM?W?i?$LM?$PO?$LE?$LE?$LN?$KI?J?$KH?$LA?$NM@ ; `string'
PUBLIC	??_C@_0DB@JBNKENAJ@?W?i?$LM?$PO?$LE?$LE?$LN?$KI?$LK?$KP?J?$PN?$KB?$LA?$CFs?$KB?$LB?$LC?z?I?z?N?$LE?V?$KK?R?l?$LD?$KD?$LE@ ; `string'
PUBLIC	??_R4CServiceUnits@@6B@				; CServiceUnits::`RTTI Complete Object Locator'
PUBLIC	??_R0?AVCServiceUnits@@@8			; CServiceUnits `RTTI Type Descriptor'
PUBLIC	??_R3CServiceUnits@@8				; CServiceUnits::`RTTI Class Hierarchy Descriptor'
PUBLIC	??_R2CServiceUnits@@8				; CServiceUnits::`RTTI Base Class Array'
PUBLIC	??_R1A@?0A@EA@CServiceUnits@@8			; CServiceUnits::`RTTI Base Class Descriptor at (0,-1,0,64)'
EXTRN	??_L@YGXPAXIIP6EX0@Z1@Z:PROC			; `eh vector constructor iterator'
EXTRN	??_M@YGXPAXIIP6EX0@Z@Z:PROC			; `eh vector destructor iterator'
EXTRN	??3@YAXPAXI@Z:PROC				; operator delete
EXTRN	?__global_delete@@YAXPAXI@Z:PROC		; __global_delete
EXTRN	__imp__GetLastError@0:PROC
EXTRN	__imp__GetProcAddress@8:PROC
EXTRN	__imp__lstrcpynA@12:PROC
EXTRN	__imp__PeekMessageA@20:PROC
EXTRN	__imp__PostQuitMessage@4:PROC
EXTRN	__imp__IsWindow@4:PROC
EXTRN	__imp____stdio_common_vsnprintf_s:PROC
EXTRN	__imp___CrtDbgReport:PROC
EXTRN	??3CObject@@SGXPAX@Z:PROC			; CObject::operator delete
EXTRN	?Serialize@CObject@@UAEXAAVCArchive@@@Z:PROC	; CObject::Serialize
EXTRN	?OnCmdMsg@CCmdTarget@@UAEHIHPAXPAUAFX_CMDHANDLERINFO@@@Z:PROC ; CCmdTarget::OnCmdMsg
EXTRN	?IsInvokeAllowed@CCmdTarget@@UAEHJ@Z:PROC	; CCmdTarget::IsInvokeAllowed
EXTRN	?GetDispatchIID@CCmdTarget@@UAEHPAU_GUID@@@Z:PROC ; CCmdTarget::GetDispatchIID
EXTRN	?GetTypeInfoCount@CCmdTarget@@UAEIXZ:PROC	; CCmdTarget::GetTypeInfoCount
EXTRN	?GetTypeLibCache@CCmdTarget@@UAEPAVCTypeLibCache@@XZ:PROC ; CCmdTarget::GetTypeLibCache
EXTRN	?GetTypeLib@CCmdTarget@@UAEJKPAPAUITypeLib@@@Z:PROC ; CCmdTarget::GetTypeLib
EXTRN	?GetCommandMap@CCmdTarget@@MBEPBUAFX_OLECMDMAP@@XZ:PROC ; CCmdTarget::GetCommandMap
EXTRN	?GetDispatchMap@CCmdTarget@@MBEPBUAFX_DISPMAP@@XZ:PROC ; CCmdTarget::GetDispatchMap
EXTRN	?GetConnectionMap@CCmdTarget@@MBEPBUAFX_CONNECTIONMAP@@XZ:PROC ; CCmdTarget::GetConnectionMap
EXTRN	?GetEventSinkMap@CCmdTarget@@MBEPBUAFX_EVENTSINKMAP@@XZ:PROC ; CCmdTarget::GetEventSinkMap
EXTRN	?OnCreateAggregates@CCmdTarget@@UAEHXZ:PROC	; CCmdTarget::OnCreateAggregates
EXTRN	?GetInterfaceHook@CCmdTarget@@UAEPAUIUnknown@@PBX@Z:PROC ; CCmdTarget::GetInterfaceHook
EXTRN	?GetExtraConnectionPoints@CCmdTarget@@MAEHPAVCPtrArray@@@Z:PROC ; CCmdTarget::GetExtraConnectionPoints
EXTRN	?GetConnectionHook@CCmdTarget@@MAEPAUIConnectionPoint@@ABU_GUID@@@Z:PROC ; CCmdTarget::GetConnectionHook
EXTRN	?GetRuntimeClass@CWnd@@UBEPAUCRuntimeClass@@XZ:PROC ; CWnd::GetRuntimeClass
EXTRN	??0CWnd@@QAE@XZ:PROC				; CWnd::CWnd
EXTRN	?PreSubclassWindow@CWnd@@UAEXXZ:PROC		; CWnd::PreSubclassWindow
EXTRN	?Create@CWnd@@UAEHPBD0KABUtagRECT@@PAV1@IPAUCCreateContext@@@Z:PROC ; CWnd::Create
EXTRN	?CreateEx@CWnd@@UAEHKPBD0KHHHHPAUHWND__@@PAUHMENU__@@PAX@Z:PROC ; CWnd::CreateEx
EXTRN	?CreateEx@CWnd@@UAEHKPBD0KABUtagRECT@@PAV1@IPAX@Z:PROC ; CWnd::CreateEx
EXTRN	?DestroyWindow@CWnd@@UAEHXZ:PROC		; CWnd::DestroyWindow
EXTRN	?PreCreateWindow@CWnd@@UAEHAAUtagCREATESTRUCTA@@@Z:PROC ; CWnd::PreCreateWindow
EXTRN	?CalcWindowRect@CWnd@@UAEXPAUtagRECT@@I@Z:PROC	; CWnd::CalcWindowRect
EXTRN	?PostMessageA@CWnd@@QAEHIIJ@Z:PROC		; CWnd::PostMessageA
EXTRN	?GetMenu@CWnd@@UBEPAVCMenu@@XZ:PROC		; CWnd::GetMenu
EXTRN	?SetMenu@CWnd@@UAEHPAVCMenu@@@Z:PROC		; CWnd::SetMenu
EXTRN	?OnToolHitTest@CWnd@@UBEHVCPoint@@PAUtagTOOLINFOA@@@Z:PROC ; CWnd::OnToolHitTest
EXTRN	?GetScrollBarCtrl@CWnd@@UBEPAVCScrollBar@@H@Z:PROC ; CWnd::GetScrollBarCtrl
EXTRN	?WinHelpA@CWnd@@UAEXKI@Z:PROC			; CWnd::WinHelpA
EXTRN	?HtmlHelpA@CWnd@@UAEXKI@Z:PROC			; CWnd::HtmlHelpA
EXTRN	?WinHelpInternal@CWnd@@UAEXKI@Z:PROC		; CWnd::WinHelpInternal
EXTRN	?ContinueModal@CWnd@@UAEHXZ:PROC		; CWnd::ContinueModal
EXTRN	?EndModalLoop@CWnd@@UAEXH@Z:PROC		; CWnd::EndModalLoop
EXTRN	?OnDrawIconicThumbnailOrLivePreview@CWnd@@UAEXAAVCDC@@VCRect@@VCSize@@HAAH@Z:PROC ; CWnd::OnDrawIconicThumbnailOrLivePreview
EXTRN	?GetInterfaceMap@CWnd@@MBEPBUAFX_INTERFACEMAP@@XZ:PROC ; CWnd::GetInterfaceMap
EXTRN	?EnsureStdObj@CWnd@@UAEJXZ:PROC			; CWnd::EnsureStdObj
EXTRN	?get_accParent@CWnd@@UAEJPAPAUIDispatch@@@Z:PROC ; CWnd::get_accParent
EXTRN	?get_accChildCount@CWnd@@UAEJPAJ@Z:PROC		; CWnd::get_accChildCount
EXTRN	?get_accChild@CWnd@@UAEJUtagVARIANT@@PAPAUIDispatch@@@Z:PROC ; CWnd::get_accChild
EXTRN	?get_accName@CWnd@@UAEJUtagVARIANT@@PAPA_W@Z:PROC ; CWnd::get_accName
EXTRN	?get_accValue@CWnd@@UAEJUtagVARIANT@@PAPA_W@Z:PROC ; CWnd::get_accValue
EXTRN	?get_accDescription@CWnd@@UAEJUtagVARIANT@@PAPA_W@Z:PROC ; CWnd::get_accDescription
EXTRN	?get_accRole@CWnd@@UAEJUtagVARIANT@@PAU2@@Z:PROC ; CWnd::get_accRole
EXTRN	?get_accState@CWnd@@UAEJUtagVARIANT@@PAU2@@Z:PROC ; CWnd::get_accState
EXTRN	?get_accHelp@CWnd@@UAEJUtagVARIANT@@PAPA_W@Z:PROC ; CWnd::get_accHelp
EXTRN	?get_accHelpTopic@CWnd@@UAEJPAPA_WUtagVARIANT@@PAJ@Z:PROC ; CWnd::get_accHelpTopic
EXTRN	?get_accKeyboardShortcut@CWnd@@UAEJUtagVARIANT@@PAPA_W@Z:PROC ; CWnd::get_accKeyboardShortcut
EXTRN	?get_accFocus@CWnd@@UAEJPAUtagVARIANT@@@Z:PROC	; CWnd::get_accFocus
EXTRN	?get_accSelection@CWnd@@UAEJPAUtagVARIANT@@@Z:PROC ; CWnd::get_accSelection
EXTRN	?get_accDefaultAction@CWnd@@UAEJUtagVARIANT@@PAPA_W@Z:PROC ; CWnd::get_accDefaultAction
EXTRN	?accSelect@CWnd@@UAEJJUtagVARIANT@@@Z:PROC	; CWnd::accSelect
EXTRN	?accLocation@CWnd@@UAEJPAJ000UtagVARIANT@@@Z:PROC ; CWnd::accLocation
EXTRN	?accNavigate@CWnd@@UAEJJUtagVARIANT@@PAU2@@Z:PROC ; CWnd::accNavigate
EXTRN	?accHitTest@CWnd@@UAEJJJPAUtagVARIANT@@@Z:PROC	; CWnd::accHitTest
EXTRN	?accDoDefaultAction@CWnd@@UAEJUtagVARIANT@@@Z:PROC ; CWnd::accDoDefaultAction
EXTRN	?put_accName@CWnd@@UAEJUtagVARIANT@@PA_W@Z:PROC	; CWnd::put_accName
EXTRN	?put_accValue@CWnd@@UAEJUtagVARIANT@@PA_W@Z:PROC ; CWnd::put_accValue
EXTRN	?SetProxy@CWnd@@UAEJPAUIAccessibleProxy@@@Z:PROC ; CWnd::SetProxy
EXTRN	?CreateAccessibleProxy@CWnd@@UAEJIJPAJ@Z:PROC	; CWnd::CreateAccessibleProxy
EXTRN	?OnCommand@CWnd@@MAEHIJ@Z:PROC			; CWnd::OnCommand
EXTRN	?OnNotify@CWnd@@MAEHIJPAJ@Z:PROC		; CWnd::OnNotify
EXTRN	?GetSuperWndProcAddr@CWnd@@MAEPAP6GJPAUHWND__@@IIJ@ZXZ:PROC ; CWnd::GetSuperWndProcAddr
EXTRN	?DoDataExchange@CWnd@@MAEXPAVCDataExchange@@@Z:PROC ; CWnd::DoDataExchange
EXTRN	?BeginModalState@CWnd@@UAEXXZ:PROC		; CWnd::BeginModalState
EXTRN	?EndModalState@CWnd@@UAEXXZ:PROC		; CWnd::EndModalState
EXTRN	?PreTranslateMessage@CWnd@@UAEHPAUtagMSG@@@Z:PROC ; CWnd::PreTranslateMessage
EXTRN	?OnAmbientProperty@CWnd@@UAEHPAVCOleControlSite@@JPAUtagVARIANT@@@Z:PROC ; CWnd::OnAmbientProperty
EXTRN	?WindowProc@CWnd@@MAEJIIJ@Z:PROC		; CWnd::WindowProc
EXTRN	?OnWndMsg@CWnd@@MAEHIIJPAJ@Z:PROC		; CWnd::OnWndMsg
EXTRN	?DefWindowProcA@CWnd@@MAEJIIJ@Z:PROC		; CWnd::DefWindowProcA
EXTRN	?PostNcDestroy@CWnd@@MAEXXZ:PROC		; CWnd::PostNcDestroy
EXTRN	?OnChildNotify@CWnd@@MAEHIIJPAJ@Z:PROC		; CWnd::OnChildNotify
EXTRN	?OnTouchInputs@CWnd@@MAEHIPAUtagTOUCHINPUT@@@Z:PROC ; CWnd::OnTouchInputs
EXTRN	?OnTouchInput@CWnd@@MAEHVCPoint@@HHPAUtagTOUCHINPUT@@@Z:PROC ; CWnd::OnTouchInput
EXTRN	?GetGestureStatus@CWnd@@MAEKVCPoint@@@Z:PROC	; CWnd::GetGestureStatus
EXTRN	?OnGestureZoom@CWnd@@MAEHVCPoint@@J@Z:PROC	; CWnd::OnGestureZoom
EXTRN	?OnGesturePan@CWnd@@MAEHVCPoint@@0@Z:PROC	; CWnd::OnGesturePan
EXTRN	?OnGestureRotate@CWnd@@MAEHVCPoint@@N@Z:PROC	; CWnd::OnGestureRotate
EXTRN	?OnGestureTwoFingerTap@CWnd@@MAEHVCPoint@@@Z:PROC ; CWnd::OnGestureTwoFingerTap
EXTRN	?OnGesturePressAndTap@CWnd@@MAEHVCPoint@@J@Z:PROC ; CWnd::OnGesturePressAndTap
EXTRN	?ResizeDynamicLayout@CWnd@@MAEXXZ:PROC		; CWnd::ResizeDynamicLayout
EXTRN	??1CWnd@@UAE@XZ:PROC				; CWnd::~CWnd
EXTRN	?CheckAutoCenter@CWnd@@UAEHXZ:PROC		; CWnd::CheckAutoCenter
EXTRN	?AssertValid@CWnd@@UBEXXZ:PROC			; CWnd::AssertValid
EXTRN	?Dump@CWnd@@UBEXAAVCDumpContext@@@Z:PROC	; CWnd::Dump
EXTRN	?IsFrameWnd@CWnd@@UBEHXZ:PROC			; CWnd::IsFrameWnd
EXTRN	?OnFinalRelease@CWnd@@UAEXXZ:PROC		; CWnd::OnFinalRelease
EXTRN	?CreateControlContainer@CWnd@@MAEHPAPAVCOleControlContainer@@@Z:PROC ; CWnd::CreateControlContainer
EXTRN	?CreateControlSite@CWnd@@MAEHPAVCOleControlContainer@@PAPAVCOleControlSite@@IABU_GUID@@@Z:PROC ; CWnd::CreateControlSite
EXTRN	?SetOccDialogInfo@CWnd@@MAEHPAU_AFX_OCC_DIALOG_INFO@@@Z:PROC ; CWnd::SetOccDialogInfo
EXTRN	?GetOccDialogInfo@CWnd@@MAEPAU_AFX_OCC_DIALOG_INFO@@XZ:PROC ; CWnd::GetOccDialogInfo
EXTRN	?AfxGetMainWnd@@YGPAVCWnd@@XZ:PROC		; AfxGetMainWnd
EXTRN	?AfxLoadLibrary@@YGPAUHINSTANCE__@@PBD@Z:PROC	; AfxLoadLibrary
EXTRN	?AfxFreeLibrary@@YGHPAUHINSTANCE__@@@Z:PROC	; AfxFreeLibrary
EXTRN	??0CCriticalSection@@QAE@XZ:PROC		; CCriticalSection::CCriticalSection
EXTRN	??1CCriticalSection@@UAE@XZ:PROC		; CCriticalSection::~CCriticalSection
EXTRN	__imp_??0CWHDataQueue@@QAE@XZ:PROC
EXTRN	__imp_??1CWHDataQueue@@UAE@XZ:PROC
EXTRN	__imp_?InsertData@CWHDataQueue@@QAE_NGPAXG@Z:PROC
EXTRN	__imp_?DistillData@CWHDataQueue@@QAE_NAAUtagDataHead@@PAXG@Z:PROC
EXTRN	__imp_??0CWHDataLocker@@QAE@AAVCCriticalSection@@_N@Z:PROC
EXTRN	__imp_??1CWHDataLocker@@UAE@XZ:PROC
EXTRN	??_E?$CTempldateHelper@UITimerEngine@@@@UAEPAXI@Z:PROC ; CTempldateHelper<ITimerEngine>::`vector deleting destructor'
EXTRN	??_ECTimerEngineHelper@@UAEPAXI@Z:PROC		; CTimerEngineHelper::`vector deleting destructor'
EXTRN	??_E?$CTempldateHelper@UIDataBaseEngine@@@@UAEPAXI@Z:PROC ; CTempldateHelper<IDataBaseEngine>::`vector deleting destructor'
EXTRN	??_ECDataBaseEngineHelper@@UAEPAXI@Z:PROC	; CDataBaseEngineHelper::`vector deleting destructor'
EXTRN	??_E?$CTempldateHelper@UIAttemperEngine@@@@UAEPAXI@Z:PROC ; CTempldateHelper<IAttemperEngine>::`vector deleting destructor'
EXTRN	??_ECAttemperEngineHelper@@UAEPAXI@Z:PROC	; CAttemperEngineHelper::`vector deleting destructor'
EXTRN	??_E?$CTempldateHelper@UITCPSocketService@@@@UAEPAXI@Z:PROC ; CTempldateHelper<ITCPSocketService>::`vector deleting destructor'
EXTRN	??_ECTCPSocketServiceHelper@@UAEPAXI@Z:PROC	; CTCPSocketServiceHelper::`vector deleting destructor'
EXTRN	??_E?$CTempldateHelper@UITCPNetworkEngine@@@@UAEPAXI@Z:PROC ; CTempldateHelper<ITCPNetworkEngine>::`vector deleting destructor'
EXTRN	??_ECTCPNetworkEngineHelper@@UAEPAXI@Z:PROC	; CTCPNetworkEngineHelper::`vector deleting destructor'
EXTRN	__imp_?TraceString@CTraceService@@SA_NPBDW4enTraceLevel@@@Z:PROC
EXTRN	??0CInitParameter@@QAE@XZ:PROC			; CInitParameter::CInitParameter
EXTRN	??1CInitParameter@@UAE@XZ:PROC			; CInitParameter::~CInitParameter
EXTRN	?LoadInitParameter@CInitParameter@@QAEXXZ:PROC	; CInitParameter::LoadInitParameter
EXTRN	??0CAttemperEngineSink@@QAE@XZ:PROC		; CAttemperEngineSink::CAttemperEngineSink
EXTRN	??1CAttemperEngineSink@@UAE@XZ:PROC		; CAttemperEngineSink::~CAttemperEngineSink
EXTRN	??0CDataBaseEngineSink@@QAE@XZ:PROC		; CDataBaseEngineSink::CDataBaseEngineSink
EXTRN	??1CDataBaseEngineSink@@UAE@XZ:PROC		; CDataBaseEngineSink::~CDataBaseEngineSink
EXTRN	??_ECServiceUnits@@UAEPAXI@Z:PROC		; CServiceUnits::`vector deleting destructor'
EXTRN	@__security_check_cookie@4:PROC
EXTRN	___CxxFrameHandler3:PROC
EXTRN	__chkstk:PROC
EXTRN	??_7type_info@@6B@:QWORD			; type_info::`vftable'
EXTRN	___security_cookie:DWORD
;	COMDAT ?_OptionsStorage@?1??__local_stdio_printf_options@@9@4_KA
_BSS	SEGMENT
?_OptionsStorage@?1??__local_stdio_printf_options@@9@4_KA DQ 01H DUP (?) ; `__local_stdio_printf_options'::`2'::_OptionsStorage
_BSS	ENDS
;	COMDAT ??_R1A@?0A@EA@CServiceUnits@@8
rdata$r	SEGMENT
??_R1A@?0A@EA@CServiceUnits@@8 DD FLAT:??_R0?AVCServiceUnits@@@8 ; CServiceUnits::`RTTI Base Class Descriptor at (0,-1,0,64)'
	DD	03H
	DD	00H
	DD	0ffffffffH
	DD	00H
	DD	040H
	DD	FLAT:??_R3CServiceUnits@@8
rdata$r	ENDS
;	COMDAT ??_R2CServiceUnits@@8
rdata$r	SEGMENT
??_R2CServiceUnits@@8 DD FLAT:??_R1A@?0A@EA@CServiceUnits@@8 ; CServiceUnits::`RTTI Base Class Array'
	DD	FLAT:??_R1A@?0A@EA@CWnd@@8
	DD	FLAT:??_R1A@?0A@EA@CCmdTarget@@8
	DD	FLAT:??_R1A@?0A@EA@CObject@@8
rdata$r	ENDS
;	COMDAT ??_R3CServiceUnits@@8
rdata$r	SEGMENT
??_R3CServiceUnits@@8 DD 00H				; CServiceUnits::`RTTI Class Hierarchy Descriptor'
	DD	00H
	DD	04H
	DD	FLAT:??_R2CServiceUnits@@8
rdata$r	ENDS
;	COMDAT ??_R0?AVCServiceUnits@@@8
data$r	SEGMENT
??_R0?AVCServiceUnits@@@8 DD FLAT:??_7type_info@@6B@	; CServiceUnits `RTTI Type Descriptor'
	DD	00H
	DB	'.?AVCServiceUnits@@', 00H
data$r	ENDS
;	COMDAT ??_R4CServiceUnits@@6B@
rdata$r	SEGMENT
??_R4CServiceUnits@@6B@ DD 00H				; CServiceUnits::`RTTI Complete Object Locator'
	DD	00H
	DD	00H
	DD	FLAT:??_R0?AVCServiceUnits@@@8
	DD	FLAT:??_R3CServiceUnits@@8
rdata$r	ENDS
;	COMDAT ??_C@_0DB@JBNKENAJ@?W?i?$LM?$PO?$LE?$LE?$LN?$KI?$LK?$KP?J?$PN?$KB?$LA?$CFs?$KB?$LB?$LC?z?I?z?N?$LE?V?$KK?R?l?$LD?$KD?$LE@
CONST	SEGMENT
??_C@_0DB@JBNKENAJ@?W?i?$LM?$PO?$LE?$LE?$LN?$KI?$LK?$KP?J?$PN?$KB?$LA?$CFs?$KB?$LB?$LC?z?I?z?N?$LE?V?$KK?R?l?$LD?$KD?$LE@ DB 0d7H
	DB	0e9H, 0bcH, 0feH, 0b4H, 0b4H, 0bdH, 0a8H, 0baH, 0afH, 0caH, 0fdH
	DB	0a1H, 0b0H, '%s', 0a1H, 0b1H, 0b2H, 0faH, 0c9H, 0faH, 0ceH, 0b4H
	DB	0d6H, 0aaH, 0d2H, 0ecH, 0b3H, 0a3H, 0b4H, 0edH, 0ceH, 0f3H, 0a3H
	DB	0acH, 0d7H, 0e9H, 0bcH, 0feH, 0b4H, 0b4H, 0bdH, 0a8H, 0caH, 0a7H
	DB	0b0H, 0dcH, 00H				; `string'
CONST	ENDS
;	COMDAT ??_C@_0BJ@JGPFHIJF@?S?I?S?Z?$KB?$LA?$CFs?$KB?$LB?$KD?$KM?W?i?$LM?$PO?$LE?$LE?$LN?$KI?J?$KH?$LA?$NM@
CONST	SEGMENT
??_C@_0BJ@JGPFHIJF@?S?I?S?Z?$KB?$LA?$CFs?$KB?$LB?$KD?$KM?W?i?$LM?$PO?$LE?$LE?$LN?$KI?J?$KH?$LA?$NM@ DB 0d3H
	DB	0c9H, 0d3H, 0daH, 0a1H, 0b0H, '%s', 0a1H, 0b1H, 0a3H, 0acH, 0d7H
	DB	0e9H, 0bcH, 0feH, 0b4H, 0b4H, 0bdH, 0a8H, 0caH, 0a7H, 0b0H, 0dcH
	DB	00H						; `string'
CONST	ENDS
;	COMDAT ??_R0PAD@8
data$r	SEGMENT
??_R0PAD@8 DD	FLAT:??_7type_info@@6B@			; char * `RTTI Type Descriptor'
	DD	00H
	DB	'.PAD', 00H
data$r	ENDS
;	COMDAT ??_C@_0BL@PDAODLKM@?$LF?w?S?C?$LK?$KP?J?$PN?$KB?$LA?$CFs?$KB?$LB?I?z?$LD?I?$LG?T?O?s?J?$KH?$LA?$NM@
CONST	SEGMENT
??_C@_0BL@PDAODLKM@?$LF?w?S?C?$LK?$KP?J?$PN?$KB?$LA?$CFs?$KB?$LB?I?z?$LD?I?$LG?T?O?s?J?$KH?$LA?$NM@ DB 0b5H
	DB	0f7H, 0d3H, 0c3H, 0baH, 0afH, 0caH, 0fdH, 0a1H, 0b0H, '%s', 0a1H
	DB	0b1H, 0c9H, 0faH, 0b3H, 0c9H, 0b6H, 0d4H, 0cfH, 0f3H, 0caH, 0a7H
	DB	0b0H, 0dcH, 00H				; `string'
CONST	ENDS
;	COMDAT ??_C@_0BM@PEGNCJOH@?U?R?$LC?$LL?$LF?$LN?W?i?$LM?$PO?$LE?$LE?$LN?$KI?$LK?$KP?J?$PN?$KB?$LA?$CFs?$KB?$LB?3?$CFd@
CONST	SEGMENT
??_C@_0BM@PEGNCJOH@?U?R?$LC?$LL?$LF?$LN?W?i?$LM?$PO?$LE?$LE?$LN?$KI?$LK?$KP?J?$PN?$KB?$LA?$CFs?$KB?$LB?3?$CFd@ DB 0d5H
	DB	0d2H, 0b2H, 0bbH, 0b5H, 0bdH, 0d7H, 0e9H, 0bcH, 0feH, 0b4H, 0b4H
	DB	0bdH, 0a8H, 0baH, 0afH, 0caH, 0fdH, 0a1H, 0b0H, '%s', 0a1H, 0b1H
	DB	':%d', 00H					; `string'
CONST	ENDS
;	COMDAT ??_C@_0BD@LMOFNGMO@?$KB?$LA?$CFs?$KB?$LB?D?$KD?$LP?i?$LM?S?T?X?J?$KH?$LA?$NM@
CONST	SEGMENT
??_C@_0BD@LMOFNGMO@?$KB?$LA?$CFs?$KB?$LB?D?$KD?$LP?i?$LM?S?T?X?J?$KH?$LA?$NM@ DB 0a1H
	DB	0b0H, '%s', 0a1H, 0b1H, 0c4H, 0a3H, 0bfH, 0e9H, 0bcH, 0d3H, 0d4H
	DB	0d8H, 0caH, 0a7H, 0b0H, 0dcH, 00H		; `string'
CONST	ENDS
;	COMDAT ??_C@_0DG@CDIFDKED@g?3?2?M?x?$LK?$PM?2happygamewh?2?$LH?$PO?N?q?$LG?K?2?O?$LF?M?$LD@
CONST	SEGMENT
??_C@_0DG@CDIFDKED@g?3?2?M?x?$LK?$PM?2happygamewh?2?$LH?$PO?N?q?$LG?K?2?O?$LF?M?$LD@ DB 'g'
	DB	':\', 0cdH, 0f8H, 0baH, 0fcH, '\happygamewh\', 0b7H, 0feH, 0ceH
	DB	0f1H, 0b6H, 0cbH, '\', 0cfH, 0b5H, 0cdH, 0b3H, 0c4H, 0a3H, 0bfH
	DB	0e9H, '\', 0c8H, 0abH, 0beH, 0d6H, 0b6H, 0a8H, 0d2H, 0e5H, '\m'
	DB	'odule.h', 00H				; `string'
CONST	ENDS
;	COMDAT ?__LINE__Var@?0??OnUIControlRequest@CServiceUnits@@IAEJIJ@Z@4JA
_DATA	SEGMENT
?__LINE__Var@?0??OnUIControlRequest@CServiceUnits@@IAEJIJ@Z@4JA DD 0113H ; `CServiceUnits::OnUIControlRequest'::`1'::__LINE__Var
_DATA	ENDS
;	COMDAT ?__LINE__Var@?0??SendControlPacket@CServiceUnits@@AAE_NGPAXG@Z@4JA
_DATA	SEGMENT
?__LINE__Var@?0??SendControlPacket@CServiceUnits@@AAE_NGPAXG@Z@4JA DD 0106H ; `CServiceUnits::SendControlPacket'::`1'::__LINE__Var
_DATA	ENDS
;	COMDAT ??_C@_0N@LNPLGNA@?$LH?$PO?N?q?F?t?$LG?$KP?J?$KH?$LA?$NM@
CONST	SEGMENT
??_C@_0N@LNPLGNA@?$LH?$PO?N?q?F?t?$LG?$KP?J?$KH?$LA?$NM@ DB 0b7H, 0feH, 0ceH
	DB	0f1H, 0c6H, 0f4H, 0b6H, 0afH, 0caH, 0a7H, 0b0H, 0dcH, 00H ; `string'
CONST	ENDS
;	COMDAT ?__LINE__Var@?0??SetServiceStatus@CServiceUnits@@AAE_NW4enServiceStatus@@@Z@4JA
_DATA	SEGMENT
?__LINE__Var@?0??SetServiceStatus@CServiceUnits@@AAE_NW4enServiceStatus@@@Z@4JA DD 0eeH ; `CServiceUnits::SetServiceStatus'::`1'::__LINE__Var
_DATA	ENDS
;	COMDAT ?__LINE__Var@?0??StartNetworkService@CServiceUnits@@IAE_NXZ@4JA
_DATA	SEGMENT
?__LINE__Var@?0??StartNetworkService@CServiceUnits@@IAE_NXZ@4JA DD 0e1H ; `CServiceUnits::StartNetworkService'::`1'::__LINE__Var
_DATA	ENDS
;	COMDAT ?__LINE__Var@?0??StartKernelService@CServiceUnits@@IAE_NXZ@4JA
_DATA	SEGMENT
?__LINE__Var@?0??StartKernelService@CServiceUnits@@IAE_NXZ@4JA DD 0b7H ; `CServiceUnits::StartKernelService'::`1'::__LINE__Var
_DATA	ENDS
;	COMDAT ?__LINE__Var@?0??PostControlRequest@CServiceUnits@@QAE_NGPAXG@Z@4JA
_DATA	SEGMENT
?__LINE__Var@?0??PostControlRequest@CServiceUnits@@QAE_NGPAXG@Z@4JA DD 069H ; `CServiceUnits::PostControlRequest'::`1'::__LINE__Var
_DATA	ENDS
;	COMDAT ?__LINE__Var@?0??StartService@CServiceUnits@@QAE_NXZ@4JA
_DATA	SEGMENT
?__LINE__Var@?0??StartService@CServiceUnits@@QAE_NXZ@4JA DD 02aH ; `CServiceUnits::StartService'::`1'::__LINE__Var
_DATA	ENDS
;	COMDAT ??_C@_0EL@PANCMGMG@g?3?2?M?x?$LK?$PM?2happygamewh?2?$LH?$PO?N?q?$LG?K?2?O?$LF?M?$LD@
CONST	SEGMENT
??_C@_0EL@PANCMGMG@g?3?2?M?x?$LK?$PM?2happygamewh?2?$LH?$PO?N?q?$LG?K?2?O?$LF?M?$LD@ DB 'g'
	DB	':\', 0cdH, 0f8H, 0baH, 0fcH, '\happygamewh\', 0b7H, 0feH, 0ceH
	DB	0f1H, 0b6H, 0cbH, '\', 0cfH, 0b5H, 0cdH, 0b3H, 0c4H, 0a3H, 0bfH
	DB	0e9H, '\', 0b7H, 0feH, 0ceH, 0f1H, 0c6H, 0f7H, 0d7H, 0e9H, 0bcH
	DB	0feH, '\', 0b5H, 0c7H, 0c2H, 0bcH, 0b7H, 0feH, 0ceH, 0f1H, 0c6H
	DB	0f7H, '\serviceunits.cpp', 00H		; `string'
CONST	ENDS
;	COMDAT ?__LINE__Var@?0???0CServiceUnits@@QAE@XZ@4JA
_DATA	SEGMENT
?__LINE__Var@?0???0CServiceUnits@@QAE@XZ@4JA DD 014H	; `CServiceUnits::CServiceUnits'::`1'::__LINE__Var
_DATA	ENDS
;	COMDAT ??_7CServiceUnits@@6B@
CONST	SEGMENT
??_7CServiceUnits@@6B@ DD FLAT:??_R4CServiceUnits@@6B@	; CServiceUnits::`vftable'
	DD	FLAT:?GetRuntimeClass@CWnd@@UBEPAUCRuntimeClass@@XZ
	DD	FLAT:??_ECServiceUnits@@UAEPAXI@Z
	DD	FLAT:?Serialize@CObject@@UAEXAAVCArchive@@@Z
	DD	FLAT:?AssertValid@CWnd@@UBEXXZ
	DD	FLAT:?Dump@CWnd@@UBEXAAVCDumpContext@@@Z
	DD	FLAT:?OnCmdMsg@CCmdTarget@@UAEHIHPAXPAUAFX_CMDHANDLERINFO@@@Z
	DD	FLAT:?OnFinalRelease@CWnd@@UAEXXZ
	DD	FLAT:?IsInvokeAllowed@CCmdTarget@@UAEHJ@Z
	DD	FLAT:?GetDispatchIID@CCmdTarget@@UAEHPAU_GUID@@@Z
	DD	FLAT:?GetTypeInfoCount@CCmdTarget@@UAEIXZ
	DD	FLAT:?GetTypeLibCache@CCmdTarget@@UAEPAVCTypeLibCache@@XZ
	DD	FLAT:?GetTypeLib@CCmdTarget@@UAEJKPAPAUITypeLib@@@Z
	DD	FLAT:?GetMessageMap@CServiceUnits@@MBEPBUAFX_MSGMAP@@XZ
	DD	FLAT:?GetCommandMap@CCmdTarget@@MBEPBUAFX_OLECMDMAP@@XZ
	DD	FLAT:?GetDispatchMap@CCmdTarget@@MBEPBUAFX_DISPMAP@@XZ
	DD	FLAT:?GetConnectionMap@CCmdTarget@@MBEPBUAFX_CONNECTIONMAP@@XZ
	DD	FLAT:?GetInterfaceMap@CWnd@@MBEPBUAFX_INTERFACEMAP@@XZ
	DD	FLAT:?GetEventSinkMap@CCmdTarget@@MBEPBUAFX_EVENTSINKMAP@@XZ
	DD	FLAT:?OnCreateAggregates@CCmdTarget@@UAEHXZ
	DD	FLAT:?GetInterfaceHook@CCmdTarget@@UAEPAUIUnknown@@PBX@Z
	DD	FLAT:?GetExtraConnectionPoints@CCmdTarget@@MAEHPAVCPtrArray@@@Z
	DD	FLAT:?GetConnectionHook@CCmdTarget@@MAEPAUIConnectionPoint@@ABU_GUID@@@Z
	DD	FLAT:?PreSubclassWindow@CWnd@@UAEXXZ
	DD	FLAT:?Create@CWnd@@UAEHPBD0KABUtagRECT@@PAV1@IPAUCCreateContext@@@Z
	DD	FLAT:?CreateEx@CWnd@@UAEHKPBD0KABUtagRECT@@PAV1@IPAX@Z
	DD	FLAT:?CreateEx@CWnd@@UAEHKPBD0KHHHHPAUHWND__@@PAUHMENU__@@PAX@Z
	DD	FLAT:?DestroyWindow@CWnd@@UAEHXZ
	DD	FLAT:?PreCreateWindow@CWnd@@UAEHAAUtagCREATESTRUCTA@@@Z
	DD	FLAT:?CalcWindowRect@CWnd@@UAEXPAUtagRECT@@I@Z
	DD	FLAT:?GetMenu@CWnd@@UBEPAVCMenu@@XZ
	DD	FLAT:?SetMenu@CWnd@@UAEHPAVCMenu@@@Z
	DD	FLAT:?OnToolHitTest@CWnd@@UBEHVCPoint@@PAUtagTOOLINFOA@@@Z
	DD	FLAT:?GetScrollBarCtrl@CWnd@@UBEPAVCScrollBar@@H@Z
	DD	FLAT:?WinHelpA@CWnd@@UAEXKI@Z
	DD	FLAT:?HtmlHelpA@CWnd@@UAEXKI@Z
	DD	FLAT:?WinHelpInternal@CWnd@@UAEXKI@Z
	DD	FLAT:?ContinueModal@CWnd@@UAEHXZ
	DD	FLAT:?EndModalLoop@CWnd@@UAEXH@Z
	DD	FLAT:?OnDrawIconicThumbnailOrLivePreview@CWnd@@UAEXAAVCDC@@VCRect@@VCSize@@HAAH@Z
	DD	FLAT:?EnsureStdObj@CWnd@@UAEJXZ
	DD	FLAT:?get_accParent@CWnd@@UAEJPAPAUIDispatch@@@Z
	DD	FLAT:?get_accChildCount@CWnd@@UAEJPAJ@Z
	DD	FLAT:?get_accChild@CWnd@@UAEJUtagVARIANT@@PAPAUIDispatch@@@Z
	DD	FLAT:?get_accName@CWnd@@UAEJUtagVARIANT@@PAPA_W@Z
	DD	FLAT:?get_accValue@CWnd@@UAEJUtagVARIANT@@PAPA_W@Z
	DD	FLAT:?get_accDescription@CWnd@@UAEJUtagVARIANT@@PAPA_W@Z
	DD	FLAT:?get_accRole@CWnd@@UAEJUtagVARIANT@@PAU2@@Z
	DD	FLAT:?get_accState@CWnd@@UAEJUtagVARIANT@@PAU2@@Z
	DD	FLAT:?get_accHelp@CWnd@@UAEJUtagVARIANT@@PAPA_W@Z
	DD	FLAT:?get_accHelpTopic@CWnd@@UAEJPAPA_WUtagVARIANT@@PAJ@Z
	DD	FLAT:?get_accKeyboardShortcut@CWnd@@UAEJUtagVARIANT@@PAPA_W@Z
	DD	FLAT:?get_accFocus@CWnd@@UAEJPAUtagVARIANT@@@Z
	DD	FLAT:?get_accSelection@CWnd@@UAEJPAUtagVARIANT@@@Z
	DD	FLAT:?get_accDefaultAction@CWnd@@UAEJUtagVARIANT@@PAPA_W@Z
	DD	FLAT:?accSelect@CWnd@@UAEJJUtagVARIANT@@@Z
	DD	FLAT:?accLocation@CWnd@@UAEJPAJ000UtagVARIANT@@@Z
	DD	FLAT:?accNavigate@CWnd@@UAEJJUtagVARIANT@@PAU2@@Z
	DD	FLAT:?accHitTest@CWnd@@UAEJJJPAUtagVARIANT@@@Z
	DD	FLAT:?accDoDefaultAction@CWnd@@UAEJUtagVARIANT@@@Z
	DD	FLAT:?put_accName@CWnd@@UAEJUtagVARIANT@@PA_W@Z
	DD	FLAT:?put_accValue@CWnd@@UAEJUtagVARIANT@@PA_W@Z
	DD	FLAT:?SetProxy@CWnd@@UAEJPAUIAccessibleProxy@@@Z
	DD	FLAT:?CreateAccessibleProxy@CWnd@@UAEJIJPAJ@Z
	DD	FLAT:?OnCommand@CWnd@@MAEHIJ@Z
	DD	FLAT:?OnNotify@CWnd@@MAEHIJPAJ@Z
	DD	FLAT:?GetSuperWndProcAddr@CWnd@@MAEPAP6GJPAUHWND__@@IIJ@ZXZ
	DD	FLAT:?DoDataExchange@CWnd@@MAEXPAVCDataExchange@@@Z
	DD	FLAT:?BeginModalState@CWnd@@UAEXXZ
	DD	FLAT:?EndModalState@CWnd@@UAEXXZ
	DD	FLAT:?PreTranslateMessage@CWnd@@UAEHPAUtagMSG@@@Z
	DD	FLAT:?OnAmbientProperty@CWnd@@UAEHPAVCOleControlSite@@JPAUtagVARIANT@@@Z
	DD	FLAT:?WindowProc@CWnd@@MAEJIIJ@Z
	DD	FLAT:?OnWndMsg@CWnd@@MAEHIIJPAJ@Z
	DD	FLAT:?DefWindowProcA@CWnd@@MAEJIIJ@Z
	DD	FLAT:?PostNcDestroy@CWnd@@MAEXXZ
	DD	FLAT:?OnChildNotify@CWnd@@MAEHIIJPAJ@Z
	DD	FLAT:?OnTouchInputs@CWnd@@MAEHIPAUtagTOUCHINPUT@@@Z
	DD	FLAT:?OnTouchInput@CWnd@@MAEHVCPoint@@HHPAUtagTOUCHINPUT@@@Z
	DD	FLAT:?GetGestureStatus@CWnd@@MAEKVCPoint@@@Z
	DD	FLAT:?OnGestureZoom@CWnd@@MAEHVCPoint@@J@Z
	DD	FLAT:?OnGesturePan@CWnd@@MAEHVCPoint@@0@Z
	DD	FLAT:?OnGestureRotate@CWnd@@MAEHVCPoint@@N@Z
	DD	FLAT:?OnGestureTwoFingerTap@CWnd@@MAEHVCPoint@@@Z
	DD	FLAT:?OnGesturePressAndTap@CWnd@@MAEHVCPoint@@J@Z
	DD	FLAT:?ResizeDynamicLayout@CWnd@@MAEXXZ
	DD	FLAT:?CheckAutoCenter@CWnd@@UAEHXZ
	DD	FLAT:?IsFrameWnd@CWnd@@UBEHXZ
	DD	FLAT:?CreateControlContainer@CWnd@@MAEHPAPAVCOleControlContainer@@@Z
	DD	FLAT:?CreateControlSite@CWnd@@MAEHPAVCOleControlContainer@@PAPAVCOleControlSite@@IABU_GUID@@@Z
	DD	FLAT:?SetOccDialogInfo@CWnd@@MAEHPAU_AFX_OCC_DIALOG_INFO@@@Z
	DD	FLAT:?GetOccDialogInfo@CWnd@@MAEPAU_AFX_OCC_DIALOG_INFO@@XZ
CONST	ENDS
;	COMDAT ??_R4?$CTempldateHelper@UITCPNetworkEngine@@@@6B@
rdata$r	SEGMENT
??_R4?$CTempldateHelper@UITCPNetworkEngine@@@@6B@ DD 00H ; CTempldateHelper<ITCPNetworkEngine>::`RTTI Complete Object Locator'
	DD	00H
	DD	00H
	DD	FLAT:??_R0?AV?$CTempldateHelper@UITCPNetworkEngine@@@@@8
	DD	FLAT:??_R3?$CTempldateHelper@UITCPNetworkEngine@@@@8
rdata$r	ENDS
;	COMDAT ??_R2?$CTempldateHelper@UITCPNetworkEngine@@@@8
rdata$r	SEGMENT
??_R2?$CTempldateHelper@UITCPNetworkEngine@@@@8 DD FLAT:??_R1A@?0A@EA@?$CTempldateHelper@UITCPNetworkEngine@@@@8 ; CTempldateHelper<ITCPNetworkEngine>::`RTTI Base Class Array'
rdata$r	ENDS
;	COMDAT ??_R3?$CTempldateHelper@UITCPNetworkEngine@@@@8
rdata$r	SEGMENT
??_R3?$CTempldateHelper@UITCPNetworkEngine@@@@8 DD 00H	; CTempldateHelper<ITCPNetworkEngine>::`RTTI Class Hierarchy Descriptor'
	DD	00H
	DD	01H
	DD	FLAT:??_R2?$CTempldateHelper@UITCPNetworkEngine@@@@8
rdata$r	ENDS
;	COMDAT ??_R0?AV?$CTempldateHelper@UITCPNetworkEngine@@@@@8
data$r	SEGMENT
??_R0?AV?$CTempldateHelper@UITCPNetworkEngine@@@@@8 DD FLAT:??_7type_info@@6B@ ; CTempldateHelper<ITCPNetworkEngine> `RTTI Type Descriptor'
	DD	00H
	DB	'.?AV?$CTempldateHelper@UITCPNetworkEngine@@@@', 00H
data$r	ENDS
;	COMDAT ??_R1A@?0A@EA@?$CTempldateHelper@UITCPNetworkEngine@@@@8
rdata$r	SEGMENT
??_R1A@?0A@EA@?$CTempldateHelper@UITCPNetworkEngine@@@@8 DD FLAT:??_R0?AV?$CTempldateHelper@UITCPNetworkEngine@@@@@8 ; CTempldateHelper<ITCPNetworkEngine>::`RTTI Base Class Descriptor at (0,-1,0,64)'
	DD	00H
	DD	00H
	DD	0ffffffffH
	DD	00H
	DD	040H
	DD	FLAT:??_R3?$CTempldateHelper@UITCPNetworkEngine@@@@8
rdata$r	ENDS
;	COMDAT ??_R1A@?0A@EA@CTCPNetworkEngineHelper@@8
rdata$r	SEGMENT
??_R1A@?0A@EA@CTCPNetworkEngineHelper@@8 DD FLAT:??_R0?AVCTCPNetworkEngineHelper@@@8 ; CTCPNetworkEngineHelper::`RTTI Base Class Descriptor at (0,-1,0,64)'
	DD	01H
	DD	00H
	DD	0ffffffffH
	DD	00H
	DD	040H
	DD	FLAT:??_R3CTCPNetworkEngineHelper@@8
rdata$r	ENDS
;	COMDAT ??_R2CTCPNetworkEngineHelper@@8
rdata$r	SEGMENT
??_R2CTCPNetworkEngineHelper@@8 DD FLAT:??_R1A@?0A@EA@CTCPNetworkEngineHelper@@8 ; CTCPNetworkEngineHelper::`RTTI Base Class Array'
	DD	FLAT:??_R1A@?0A@EA@?$CTempldateHelper@UITCPNetworkEngine@@@@8
rdata$r	ENDS
;	COMDAT ??_R3CTCPNetworkEngineHelper@@8
rdata$r	SEGMENT
??_R3CTCPNetworkEngineHelper@@8 DD 00H			; CTCPNetworkEngineHelper::`RTTI Class Hierarchy Descriptor'
	DD	00H
	DD	02H
	DD	FLAT:??_R2CTCPNetworkEngineHelper@@8
rdata$r	ENDS
;	COMDAT ??_R0?AVCTCPNetworkEngineHelper@@@8
data$r	SEGMENT
??_R0?AVCTCPNetworkEngineHelper@@@8 DD FLAT:??_7type_info@@6B@ ; CTCPNetworkEngineHelper `RTTI Type Descriptor'
	DD	00H
	DB	'.?AVCTCPNetworkEngineHelper@@', 00H
data$r	ENDS
;	COMDAT ??_R4CTCPNetworkEngineHelper@@6B@
rdata$r	SEGMENT
??_R4CTCPNetworkEngineHelper@@6B@ DD 00H		; CTCPNetworkEngineHelper::`RTTI Complete Object Locator'
	DD	00H
	DD	00H
	DD	FLAT:??_R0?AVCTCPNetworkEngineHelper@@@8
	DD	FLAT:??_R3CTCPNetworkEngineHelper@@8
rdata$r	ENDS
;	COMDAT ??_R4?$CTempldateHelper@UITCPSocketService@@@@6B@
rdata$r	SEGMENT
??_R4?$CTempldateHelper@UITCPSocketService@@@@6B@ DD 00H ; CTempldateHelper<ITCPSocketService>::`RTTI Complete Object Locator'
	DD	00H
	DD	00H
	DD	FLAT:??_R0?AV?$CTempldateHelper@UITCPSocketService@@@@@8
	DD	FLAT:??_R3?$CTempldateHelper@UITCPSocketService@@@@8
rdata$r	ENDS
;	COMDAT ??_R2?$CTempldateHelper@UITCPSocketService@@@@8
rdata$r	SEGMENT
??_R2?$CTempldateHelper@UITCPSocketService@@@@8 DD FLAT:??_R1A@?0A@EA@?$CTempldateHelper@UITCPSocketService@@@@8 ; CTempldateHelper<ITCPSocketService>::`RTTI Base Class Array'
rdata$r	ENDS
;	COMDAT ??_R3?$CTempldateHelper@UITCPSocketService@@@@8
rdata$r	SEGMENT
??_R3?$CTempldateHelper@UITCPSocketService@@@@8 DD 00H	; CTempldateHelper<ITCPSocketService>::`RTTI Class Hierarchy Descriptor'
	DD	00H
	DD	01H
	DD	FLAT:??_R2?$CTempldateHelper@UITCPSocketService@@@@8
rdata$r	ENDS
;	COMDAT ??_R0?AV?$CTempldateHelper@UITCPSocketService@@@@@8
data$r	SEGMENT
??_R0?AV?$CTempldateHelper@UITCPSocketService@@@@@8 DD FLAT:??_7type_info@@6B@ ; CTempldateHelper<ITCPSocketService> `RTTI Type Descriptor'
	DD	00H
	DB	'.?AV?$CTempldateHelper@UITCPSocketService@@@@', 00H
data$r	ENDS
;	COMDAT ??_R1A@?0A@EA@?$CTempldateHelper@UITCPSocketService@@@@8
rdata$r	SEGMENT
??_R1A@?0A@EA@?$CTempldateHelper@UITCPSocketService@@@@8 DD FLAT:??_R0?AV?$CTempldateHelper@UITCPSocketService@@@@@8 ; CTempldateHelper<ITCPSocketService>::`RTTI Base Class Descriptor at (0,-1,0,64)'
	DD	00H
	DD	00H
	DD	0ffffffffH
	DD	00H
	DD	040H
	DD	FLAT:??_R3?$CTempldateHelper@UITCPSocketService@@@@8
rdata$r	ENDS
;	COMDAT ??_R1A@?0A@EA@CTCPSocketServiceHelper@@8
rdata$r	SEGMENT
??_R1A@?0A@EA@CTCPSocketServiceHelper@@8 DD FLAT:??_R0?AVCTCPSocketServiceHelper@@@8 ; CTCPSocketServiceHelper::`RTTI Base Class Descriptor at (0,-1,0,64)'
	DD	01H
	DD	00H
	DD	0ffffffffH
	DD	00H
	DD	040H
	DD	FLAT:??_R3CTCPSocketServiceHelper@@8
rdata$r	ENDS
;	COMDAT ??_R2CTCPSocketServiceHelper@@8
rdata$r	SEGMENT
??_R2CTCPSocketServiceHelper@@8 DD FLAT:??_R1A@?0A@EA@CTCPSocketServiceHelper@@8 ; CTCPSocketServiceHelper::`RTTI Base Class Array'
	DD	FLAT:??_R1A@?0A@EA@?$CTempldateHelper@UITCPSocketService@@@@8
rdata$r	ENDS
;	COMDAT ??_R3CTCPSocketServiceHelper@@8
rdata$r	SEGMENT
??_R3CTCPSocketServiceHelper@@8 DD 00H			; CTCPSocketServiceHelper::`RTTI Class Hierarchy Descriptor'
	DD	00H
	DD	02H
	DD	FLAT:??_R2CTCPSocketServiceHelper@@8
rdata$r	ENDS
;	COMDAT ??_R0?AVCTCPSocketServiceHelper@@@8
data$r	SEGMENT
??_R0?AVCTCPSocketServiceHelper@@@8 DD FLAT:??_7type_info@@6B@ ; CTCPSocketServiceHelper `RTTI Type Descriptor'
	DD	00H
	DB	'.?AVCTCPSocketServiceHelper@@', 00H
data$r	ENDS
;	COMDAT ??_R4CTCPSocketServiceHelper@@6B@
rdata$r	SEGMENT
??_R4CTCPSocketServiceHelper@@6B@ DD 00H		; CTCPSocketServiceHelper::`RTTI Complete Object Locator'
	DD	00H
	DD	00H
	DD	FLAT:??_R0?AVCTCPSocketServiceHelper@@@8
	DD	FLAT:??_R3CTCPSocketServiceHelper@@8
rdata$r	ENDS
;	COMDAT ??_R4?$CTempldateHelper@UIAttemperEngine@@@@6B@
rdata$r	SEGMENT
??_R4?$CTempldateHelper@UIAttemperEngine@@@@6B@ DD 00H	; CTempldateHelper<IAttemperEngine>::`RTTI Complete Object Locator'
	DD	00H
	DD	00H
	DD	FLAT:??_R0?AV?$CTempldateHelper@UIAttemperEngine@@@@@8
	DD	FLAT:??_R3?$CTempldateHelper@UIAttemperEngine@@@@8
rdata$r	ENDS
;	COMDAT ??_R2?$CTempldateHelper@UIAttemperEngine@@@@8
rdata$r	SEGMENT
??_R2?$CTempldateHelper@UIAttemperEngine@@@@8 DD FLAT:??_R1A@?0A@EA@?$CTempldateHelper@UIAttemperEngine@@@@8 ; CTempldateHelper<IAttemperEngine>::`RTTI Base Class Array'
rdata$r	ENDS
;	COMDAT ??_R3?$CTempldateHelper@UIAttemperEngine@@@@8
rdata$r	SEGMENT
??_R3?$CTempldateHelper@UIAttemperEngine@@@@8 DD 00H	; CTempldateHelper<IAttemperEngine>::`RTTI Class Hierarchy Descriptor'
	DD	00H
	DD	01H
	DD	FLAT:??_R2?$CTempldateHelper@UIAttemperEngine@@@@8
rdata$r	ENDS
;	COMDAT ??_R0?AV?$CTempldateHelper@UIAttemperEngine@@@@@8
data$r	SEGMENT
??_R0?AV?$CTempldateHelper@UIAttemperEngine@@@@@8 DD FLAT:??_7type_info@@6B@ ; CTempldateHelper<IAttemperEngine> `RTTI Type Descriptor'
	DD	00H
	DB	'.?AV?$CTempldateHelper@UIAttemperEngine@@@@', 00H
data$r	ENDS
;	COMDAT ??_R1A@?0A@EA@?$CTempldateHelper@UIAttemperEngine@@@@8
rdata$r	SEGMENT
??_R1A@?0A@EA@?$CTempldateHelper@UIAttemperEngine@@@@8 DD FLAT:??_R0?AV?$CTempldateHelper@UIAttemperEngine@@@@@8 ; CTempldateHelper<IAttemperEngine>::`RTTI Base Class Descriptor at (0,-1,0,64)'
	DD	00H
	DD	00H
	DD	0ffffffffH
	DD	00H
	DD	040H
	DD	FLAT:??_R3?$CTempldateHelper@UIAttemperEngine@@@@8
rdata$r	ENDS
;	COMDAT ??_R1A@?0A@EA@CAttemperEngineHelper@@8
rdata$r	SEGMENT
??_R1A@?0A@EA@CAttemperEngineHelper@@8 DD FLAT:??_R0?AVCAttemperEngineHelper@@@8 ; CAttemperEngineHelper::`RTTI Base Class Descriptor at (0,-1,0,64)'
	DD	01H
	DD	00H
	DD	0ffffffffH
	DD	00H
	DD	040H
	DD	FLAT:??_R3CAttemperEngineHelper@@8
rdata$r	ENDS
;	COMDAT ??_R2CAttemperEngineHelper@@8
rdata$r	SEGMENT
??_R2CAttemperEngineHelper@@8 DD FLAT:??_R1A@?0A@EA@CAttemperEngineHelper@@8 ; CAttemperEngineHelper::`RTTI Base Class Array'
	DD	FLAT:??_R1A@?0A@EA@?$CTempldateHelper@UIAttemperEngine@@@@8
rdata$r	ENDS
;	COMDAT ??_R3CAttemperEngineHelper@@8
rdata$r	SEGMENT
??_R3CAttemperEngineHelper@@8 DD 00H			; CAttemperEngineHelper::`RTTI Class Hierarchy Descriptor'
	DD	00H
	DD	02H
	DD	FLAT:??_R2CAttemperEngineHelper@@8
rdata$r	ENDS
;	COMDAT ??_R0?AVCAttemperEngineHelper@@@8
data$r	SEGMENT
??_R0?AVCAttemperEngineHelper@@@8 DD FLAT:??_7type_info@@6B@ ; CAttemperEngineHelper `RTTI Type Descriptor'
	DD	00H
	DB	'.?AVCAttemperEngineHelper@@', 00H
data$r	ENDS
;	COMDAT ??_R4CAttemperEngineHelper@@6B@
rdata$r	SEGMENT
??_R4CAttemperEngineHelper@@6B@ DD 00H			; CAttemperEngineHelper::`RTTI Complete Object Locator'
	DD	00H
	DD	00H
	DD	FLAT:??_R0?AVCAttemperEngineHelper@@@8
	DD	FLAT:??_R3CAttemperEngineHelper@@8
rdata$r	ENDS
;	COMDAT ??_R4?$CTempldateHelper@UIDataBaseEngine@@@@6B@
rdata$r	SEGMENT
??_R4?$CTempldateHelper@UIDataBaseEngine@@@@6B@ DD 00H	; CTempldateHelper<IDataBaseEngine>::`RTTI Complete Object Locator'
	DD	00H
	DD	00H
	DD	FLAT:??_R0?AV?$CTempldateHelper@UIDataBaseEngine@@@@@8
	DD	FLAT:??_R3?$CTempldateHelper@UIDataBaseEngine@@@@8
rdata$r	ENDS
;	COMDAT ??_R2?$CTempldateHelper@UIDataBaseEngine@@@@8
rdata$r	SEGMENT
??_R2?$CTempldateHelper@UIDataBaseEngine@@@@8 DD FLAT:??_R1A@?0A@EA@?$CTempldateHelper@UIDataBaseEngine@@@@8 ; CTempldateHelper<IDataBaseEngine>::`RTTI Base Class Array'
rdata$r	ENDS
;	COMDAT ??_R3?$CTempldateHelper@UIDataBaseEngine@@@@8
rdata$r	SEGMENT
??_R3?$CTempldateHelper@UIDataBaseEngine@@@@8 DD 00H	; CTempldateHelper<IDataBaseEngine>::`RTTI Class Hierarchy Descriptor'
	DD	00H
	DD	01H
	DD	FLAT:??_R2?$CTempldateHelper@UIDataBaseEngine@@@@8
rdata$r	ENDS
;	COMDAT ??_R0?AV?$CTempldateHelper@UIDataBaseEngine@@@@@8
data$r	SEGMENT
??_R0?AV?$CTempldateHelper@UIDataBaseEngine@@@@@8 DD FLAT:??_7type_info@@6B@ ; CTempldateHelper<IDataBaseEngine> `RTTI Type Descriptor'
	DD	00H
	DB	'.?AV?$CTempldateHelper@UIDataBaseEngine@@@@', 00H
data$r	ENDS
;	COMDAT ??_R1A@?0A@EA@?$CTempldateHelper@UIDataBaseEngine@@@@8
rdata$r	SEGMENT
??_R1A@?0A@EA@?$CTempldateHelper@UIDataBaseEngine@@@@8 DD FLAT:??_R0?AV?$CTempldateHelper@UIDataBaseEngine@@@@@8 ; CTempldateHelper<IDataBaseEngine>::`RTTI Base Class Descriptor at (0,-1,0,64)'
	DD	00H
	DD	00H
	DD	0ffffffffH
	DD	00H
	DD	040H
	DD	FLAT:??_R3?$CTempldateHelper@UIDataBaseEngine@@@@8
rdata$r	ENDS
;	COMDAT ??_R1A@?0A@EA@CDataBaseEngineHelper@@8
rdata$r	SEGMENT
??_R1A@?0A@EA@CDataBaseEngineHelper@@8 DD FLAT:??_R0?AVCDataBaseEngineHelper@@@8 ; CDataBaseEngineHelper::`RTTI Base Class Descriptor at (0,-1,0,64)'
	DD	01H
	DD	00H
	DD	0ffffffffH
	DD	00H
	DD	040H
	DD	FLAT:??_R3CDataBaseEngineHelper@@8
rdata$r	ENDS
;	COMDAT ??_R2CDataBaseEngineHelper@@8
rdata$r	SEGMENT
??_R2CDataBaseEngineHelper@@8 DD FLAT:??_R1A@?0A@EA@CDataBaseEngineHelper@@8 ; CDataBaseEngineHelper::`RTTI Base Class Array'
	DD	FLAT:??_R1A@?0A@EA@?$CTempldateHelper@UIDataBaseEngine@@@@8
rdata$r	ENDS
;	COMDAT ??_R3CDataBaseEngineHelper@@8
rdata$r	SEGMENT
??_R3CDataBaseEngineHelper@@8 DD 00H			; CDataBaseEngineHelper::`RTTI Class Hierarchy Descriptor'
	DD	00H
	DD	02H
	DD	FLAT:??_R2CDataBaseEngineHelper@@8
rdata$r	ENDS
;	COMDAT ??_R0?AVCDataBaseEngineHelper@@@8
data$r	SEGMENT
??_R0?AVCDataBaseEngineHelper@@@8 DD FLAT:??_7type_info@@6B@ ; CDataBaseEngineHelper `RTTI Type Descriptor'
	DD	00H
	DB	'.?AVCDataBaseEngineHelper@@', 00H
data$r	ENDS
;	COMDAT ??_R4CDataBaseEngineHelper@@6B@
rdata$r	SEGMENT
??_R4CDataBaseEngineHelper@@6B@ DD 00H			; CDataBaseEngineHelper::`RTTI Complete Object Locator'
	DD	00H
	DD	00H
	DD	FLAT:??_R0?AVCDataBaseEngineHelper@@@8
	DD	FLAT:??_R3CDataBaseEngineHelper@@8
rdata$r	ENDS
;	COMDAT ??_R4?$CTempldateHelper@UITimerEngine@@@@6B@
rdata$r	SEGMENT
??_R4?$CTempldateHelper@UITimerEngine@@@@6B@ DD 00H	; CTempldateHelper<ITimerEngine>::`RTTI Complete Object Locator'
	DD	00H
	DD	00H
	DD	FLAT:??_R0?AV?$CTempldateHelper@UITimerEngine@@@@@8
	DD	FLAT:??_R3?$CTempldateHelper@UITimerEngine@@@@8
rdata$r	ENDS
;	COMDAT ??_R2?$CTempldateHelper@UITimerEngine@@@@8
rdata$r	SEGMENT
??_R2?$CTempldateHelper@UITimerEngine@@@@8 DD FLAT:??_R1A@?0A@EA@?$CTempldateHelper@UITimerEngine@@@@8 ; CTempldateHelper<ITimerEngine>::`RTTI Base Class Array'
rdata$r	ENDS
;	COMDAT ??_R3?$CTempldateHelper@UITimerEngine@@@@8
rdata$r	SEGMENT
??_R3?$CTempldateHelper@UITimerEngine@@@@8 DD 00H	; CTempldateHelper<ITimerEngine>::`RTTI Class Hierarchy Descriptor'
	DD	00H
	DD	01H
	DD	FLAT:??_R2?$CTempldateHelper@UITimerEngine@@@@8
rdata$r	ENDS
;	COMDAT ??_R0?AV?$CTempldateHelper@UITimerEngine@@@@@8
data$r	SEGMENT
??_R0?AV?$CTempldateHelper@UITimerEngine@@@@@8 DD FLAT:??_7type_info@@6B@ ; CTempldateHelper<ITimerEngine> `RTTI Type Descriptor'
	DD	00H
	DB	'.?AV?$CTempldateHelper@UITimerEngine@@@@', 00H
data$r	ENDS
;	COMDAT ??_R1A@?0A@EA@?$CTempldateHelper@UITimerEngine@@@@8
rdata$r	SEGMENT
??_R1A@?0A@EA@?$CTempldateHelper@UITimerEngine@@@@8 DD FLAT:??_R0?AV?$CTempldateHelper@UITimerEngine@@@@@8 ; CTempldateHelper<ITimerEngine>::`RTTI Base Class Descriptor at (0,-1,0,64)'
	DD	00H
	DD	00H
	DD	0ffffffffH
	DD	00H
	DD	040H
	DD	FLAT:??_R3?$CTempldateHelper@UITimerEngine@@@@8
rdata$r	ENDS
;	COMDAT ??_R1A@?0A@EA@CTimerEngineHelper@@8
rdata$r	SEGMENT
??_R1A@?0A@EA@CTimerEngineHelper@@8 DD FLAT:??_R0?AVCTimerEngineHelper@@@8 ; CTimerEngineHelper::`RTTI Base Class Descriptor at (0,-1,0,64)'
	DD	01H
	DD	00H
	DD	0ffffffffH
	DD	00H
	DD	040H
	DD	FLAT:??_R3CTimerEngineHelper@@8
rdata$r	ENDS
;	COMDAT ??_R2CTimerEngineHelper@@8
rdata$r	SEGMENT
??_R2CTimerEngineHelper@@8 DD FLAT:??_R1A@?0A@EA@CTimerEngineHelper@@8 ; CTimerEngineHelper::`RTTI Base Class Array'
	DD	FLAT:??_R1A@?0A@EA@?$CTempldateHelper@UITimerEngine@@@@8
rdata$r	ENDS
;	COMDAT ??_R3CTimerEngineHelper@@8
rdata$r	SEGMENT
??_R3CTimerEngineHelper@@8 DD 00H			; CTimerEngineHelper::`RTTI Class Hierarchy Descriptor'
	DD	00H
	DD	02H
	DD	FLAT:??_R2CTimerEngineHelper@@8
rdata$r	ENDS
;	COMDAT ??_R0?AVCTimerEngineHelper@@@8
data$r	SEGMENT
??_R0?AVCTimerEngineHelper@@@8 DD FLAT:??_7type_info@@6B@ ; CTimerEngineHelper `RTTI Type Descriptor'
	DD	00H
	DB	'.?AVCTimerEngineHelper@@', 00H
data$r	ENDS
;	COMDAT ??_R4CTimerEngineHelper@@6B@
rdata$r	SEGMENT
??_R4CTimerEngineHelper@@6B@ DD 00H			; CTimerEngineHelper::`RTTI Complete Object Locator'
	DD	00H
	DD	00H
	DD	FLAT:??_R0?AVCTimerEngineHelper@@@8
	DD	FLAT:??_R3CTimerEngineHelper@@8
rdata$r	ENDS
;	COMDAT ??_R2CCmdTarget@@8
rdata$r	SEGMENT
??_R2CCmdTarget@@8 DD FLAT:??_R1A@?0A@EA@CCmdTarget@@8	; CCmdTarget::`RTTI Base Class Array'
	DD	FLAT:??_R1A@?0A@EA@CObject@@8
rdata$r	ENDS
;	COMDAT ??_R3CCmdTarget@@8
rdata$r	SEGMENT
??_R3CCmdTarget@@8 DD 00H				; CCmdTarget::`RTTI Class Hierarchy Descriptor'
	DD	00H
	DD	02H
	DD	FLAT:??_R2CCmdTarget@@8
rdata$r	ENDS
;	COMDAT ??_R0?AVCCmdTarget@@@8
data$r	SEGMENT
??_R0?AVCCmdTarget@@@8 DD FLAT:??_7type_info@@6B@	; CCmdTarget `RTTI Type Descriptor'
	DD	00H
	DB	'.?AVCCmdTarget@@', 00H
data$r	ENDS
;	COMDAT ??_R1A@?0A@EA@CCmdTarget@@8
rdata$r	SEGMENT
??_R1A@?0A@EA@CCmdTarget@@8 DD FLAT:??_R0?AVCCmdTarget@@@8 ; CCmdTarget::`RTTI Base Class Descriptor at (0,-1,0,64)'
	DD	01H
	DD	00H
	DD	0ffffffffH
	DD	00H
	DD	040H
	DD	FLAT:??_R3CCmdTarget@@8
rdata$r	ENDS
;	COMDAT ??_R2CWnd@@8
rdata$r	SEGMENT
??_R2CWnd@@8 DD	FLAT:??_R1A@?0A@EA@CWnd@@8		; CWnd::`RTTI Base Class Array'
	DD	FLAT:??_R1A@?0A@EA@CCmdTarget@@8
	DD	FLAT:??_R1A@?0A@EA@CObject@@8
rdata$r	ENDS
;	COMDAT ??_R3CWnd@@8
rdata$r	SEGMENT
??_R3CWnd@@8 DD	00H					; CWnd::`RTTI Class Hierarchy Descriptor'
	DD	00H
	DD	03H
	DD	FLAT:??_R2CWnd@@8
rdata$r	ENDS
;	COMDAT ??_R0?AVCWnd@@@8
data$r	SEGMENT
??_R0?AVCWnd@@@8 DD FLAT:??_7type_info@@6B@		; CWnd `RTTI Type Descriptor'
	DD	00H
	DB	'.?AVCWnd@@', 00H
data$r	ENDS
;	COMDAT ??_R1A@?0A@EA@CWnd@@8
rdata$r	SEGMENT
??_R1A@?0A@EA@CWnd@@8 DD FLAT:??_R0?AVCWnd@@@8		; CWnd::`RTTI Base Class Descriptor at (0,-1,0,64)'
	DD	02H
	DD	00H
	DD	0ffffffffH
	DD	00H
	DD	040H
	DD	FLAT:??_R3CWnd@@8
rdata$r	ENDS
;	COMDAT ??_R2CObject@@8
rdata$r	SEGMENT
??_R2CObject@@8 DD FLAT:??_R1A@?0A@EA@CObject@@8	; CObject::`RTTI Base Class Array'
rdata$r	ENDS
;	COMDAT ??_R3CObject@@8
rdata$r	SEGMENT
??_R3CObject@@8 DD 00H					; CObject::`RTTI Class Hierarchy Descriptor'
	DD	00H
	DD	01H
	DD	FLAT:??_R2CObject@@8
rdata$r	ENDS
;	COMDAT ??_R0?AVCObject@@@8
data$r	SEGMENT
??_R0?AVCObject@@@8 DD FLAT:??_7type_info@@6B@		; CObject `RTTI Type Descriptor'
	DD	00H
	DB	'.?AVCObject@@', 00H
data$r	ENDS
;	COMDAT ??_R1A@?0A@EA@CObject@@8
rdata$r	SEGMENT
??_R1A@?0A@EA@CObject@@8 DD FLAT:??_R0?AVCObject@@@8	; CObject::`RTTI Base Class Descriptor at (0,-1,0,64)'
	DD	00H
	DD	00H
	DD	0ffffffffH
	DD	00H
	DD	040H
	DD	FLAT:??_R3CObject@@8
rdata$r	ENDS
;	COMDAT ??_C@_0BH@LEGJPFFH@CreateTCPNetworkEngine@
CONST	SEGMENT
??_C@_0BH@LEGJPFFH@CreateTCPNetworkEngine@ DB 'CreateTCPNetworkEngine', 00H ; `string'
CONST	ENDS
;	COMDAT ??_7CTCPNetworkEngineHelper@@6B@
CONST	SEGMENT
??_7CTCPNetworkEngineHelper@@6B@ DD FLAT:??_R4CTCPNetworkEngineHelper@@6B@ ; CTCPNetworkEngineHelper::`vftable'
	DD	FLAT:??_ECTCPNetworkEngineHelper@@UAEPAXI@Z
CONST	ENDS
;	COMDAT ??_7?$CTempldateHelper@UITCPNetworkEngine@@@@6B@
CONST	SEGMENT
??_7?$CTempldateHelper@UITCPNetworkEngine@@@@6B@ DD FLAT:??_R4?$CTempldateHelper@UITCPNetworkEngine@@@@6B@ ; CTempldateHelper<ITCPNetworkEngine>::`vftable'
	DD	FLAT:??_E?$CTempldateHelper@UITCPNetworkEngine@@@@UAEPAXI@Z
CONST	ENDS
;	COMDAT ??_C@_0BH@FPPDPKKP@CreateTCPSocketService@
CONST	SEGMENT
??_C@_0BH@FPPDPKKP@CreateTCPSocketService@ DB 'CreateTCPSocketService', 00H ; `string'
CONST	ENDS
;	COMDAT ??_7CTCPSocketServiceHelper@@6B@
CONST	SEGMENT
??_7CTCPSocketServiceHelper@@6B@ DD FLAT:??_R4CTCPSocketServiceHelper@@6B@ ; CTCPSocketServiceHelper::`vftable'
	DD	FLAT:??_ECTCPSocketServiceHelper@@UAEPAXI@Z
CONST	ENDS
;	COMDAT ??_7?$CTempldateHelper@UITCPSocketService@@@@6B@
CONST	SEGMENT
??_7?$CTempldateHelper@UITCPSocketService@@@@6B@ DD FLAT:??_R4?$CTempldateHelper@UITCPSocketService@@@@6B@ ; CTempldateHelper<ITCPSocketService>::`vftable'
	DD	FLAT:??_E?$CTempldateHelper@UITCPSocketService@@@@UAEPAXI@Z
CONST	ENDS
;	COMDAT ??_C@_0BF@PBPGMLEA@CreateAttemperEngine@
CONST	SEGMENT
??_C@_0BF@PBPGMLEA@CreateAttemperEngine@ DB 'CreateAttemperEngine', 00H ; `string'
CONST	ENDS
;	COMDAT ??_7CAttemperEngineHelper@@6B@
CONST	SEGMENT
??_7CAttemperEngineHelper@@6B@ DD FLAT:??_R4CAttemperEngineHelper@@6B@ ; CAttemperEngineHelper::`vftable'
	DD	FLAT:??_ECAttemperEngineHelper@@UAEPAXI@Z
CONST	ENDS
;	COMDAT ??_7?$CTempldateHelper@UIAttemperEngine@@@@6B@
CONST	SEGMENT
??_7?$CTempldateHelper@UIAttemperEngine@@@@6B@ DD FLAT:??_R4?$CTempldateHelper@UIAttemperEngine@@@@6B@ ; CTempldateHelper<IAttemperEngine>::`vftable'
	DD	FLAT:??_E?$CTempldateHelper@UIAttemperEngine@@@@UAEPAXI@Z
CONST	ENDS
;	COMDAT ??_C@_0BF@FHMKIOLL@CreateDataBaseEngine@
CONST	SEGMENT
??_C@_0BF@FHMKIOLL@CreateDataBaseEngine@ DB 'CreateDataBaseEngine', 00H ; `string'
CONST	ENDS
;	COMDAT ??_7CDataBaseEngineHelper@@6B@
CONST	SEGMENT
??_7CDataBaseEngineHelper@@6B@ DD FLAT:??_R4CDataBaseEngineHelper@@6B@ ; CDataBaseEngineHelper::`vftable'
	DD	FLAT:??_ECDataBaseEngineHelper@@UAEPAXI@Z
CONST	ENDS
;	COMDAT ??_7?$CTempldateHelper@UIDataBaseEngine@@@@6B@
CONST	SEGMENT
??_7?$CTempldateHelper@UIDataBaseEngine@@@@6B@ DD FLAT:??_R4?$CTempldateHelper@UIDataBaseEngine@@@@6B@ ; CTempldateHelper<IDataBaseEngine>::`vftable'
	DD	FLAT:??_E?$CTempldateHelper@UIDataBaseEngine@@@@UAEPAXI@Z
CONST	ENDS
;	COMDAT ??_C@_0BC@PLOLBCGN@CreateTimerEngine@
CONST	SEGMENT
??_C@_0BC@PLOLBCGN@CreateTimerEngine@ DB 'CreateTimerEngine', 00H ; `string'
CONST	ENDS
;	COMDAT ??_7CTimerEngineHelper@@6B@
CONST	SEGMENT
??_7CTimerEngineHelper@@6B@ DD FLAT:??_R4CTimerEngineHelper@@6B@ ; CTimerEngineHelper::`vftable'
	DD	FLAT:??_ECTimerEngineHelper@@UAEPAXI@Z
CONST	ENDS
;	COMDAT ??_7?$CTempldateHelper@UITimerEngine@@@@6B@
CONST	SEGMENT
??_7?$CTempldateHelper@UITimerEngine@@@@6B@ DD FLAT:??_R4?$CTempldateHelper@UITimerEngine@@@@6B@ ; CTempldateHelper<ITimerEngine>::`vftable'
	DD	FLAT:??_E?$CTempldateHelper@UITimerEngine@@@@UAEPAXI@Z
CONST	ENDS
;	COMDAT ??_C@_0BB@BEMLEOHB@KernelEngine?4dll@
CONST	SEGMENT
??_C@_0BB@BEMLEOHB@KernelEngine?4dll@ DB 'KernelEngine.dll', 00H ; `string'
CONST	ENDS
;	COMDAT xdata$x
xdata$x	SEGMENT
__unwindtable$?OnUIControlRequest@CServiceUnits@@IAEJIJ@Z DD 0ffffffffH
	DD	FLAT:__unwindfunclet$?OnUIControlRequest@CServiceUnits@@IAEJIJ@Z$0
__ehfuncinfo$?OnUIControlRequest@CServiceUnits@@IAEJIJ@Z DD 019930522H
	DD	01H
	DD	FLAT:__unwindtable$?OnUIControlRequest@CServiceUnits@@IAEJIJ@Z
	DD	2 DUP(00H)
	DD	2 DUP(00H)
	DD	00H
	DD	01H
xdata$x	ENDS
;	COMDAT xdata$x
xdata$x	SEGMENT
__unwindtable$?PostControlRequest@CServiceUnits@@QAE_NGPAXG@Z DD 0ffffffffH
	DD	FLAT:__unwindfunclet$?PostControlRequest@CServiceUnits@@QAE_NGPAXG@Z$0
__ehfuncinfo$?PostControlRequest@CServiceUnits@@QAE_NGPAXG@Z DD 019930522H
	DD	01H
	DD	FLAT:__unwindtable$?PostControlRequest@CServiceUnits@@QAE_NGPAXG@Z
	DD	2 DUP(00H)
	DD	2 DUP(00H)
	DD	00H
	DD	01H
xdata$x	ENDS
;	COMDAT xdata$x
xdata$x	SEGMENT
__ehfuncinfo$??1CServiceUnits@@UAE@XZ DD 019930522H
	DD	00H
	DD	00H
	DD	2 DUP(00H)
	DD	2 DUP(00H)
	DD	00H
	DD	05H
xdata$x	ENDS
;	COMDAT xdata$x
xdata$x	SEGMENT
__ehfuncinfo$??0CServiceUnits@@QAE@XZ DD 019930522H
	DD	0cH
	DD	FLAT:__unwindtable$??0CServiceUnits@@QAE@XZ
	DD	2 DUP(00H)
	DD	2 DUP(00H)
	DD	00H
	DD	01H
__unwindtable$??0CServiceUnits@@QAE@XZ DD 0ffffffffH
	DD	FLAT:__unwindfunclet$??0CServiceUnits@@QAE@XZ$0
	DD	00H
	DD	FLAT:__unwindfunclet$??0CServiceUnits@@QAE@XZ$1
	DD	01H
	DD	FLAT:__unwindfunclet$??0CServiceUnits@@QAE@XZ$2
	DD	02H
	DD	FLAT:__unwindfunclet$??0CServiceUnits@@QAE@XZ$3
	DD	03H
	DD	FLAT:__unwindfunclet$??0CServiceUnits@@QAE@XZ$4
	DD	04H
	DD	FLAT:__unwindfunclet$??0CServiceUnits@@QAE@XZ$5
	DD	05H
	DD	FLAT:__unwindfunclet$??0CServiceUnits@@QAE@XZ$6
	DD	06H
	DD	FLAT:__unwindfunclet$??0CServiceUnits@@QAE@XZ$7
	DD	07H
	DD	FLAT:__unwindfunclet$??0CServiceUnits@@QAE@XZ$8
	DD	08H
	DD	FLAT:__unwindfunclet$??0CServiceUnits@@QAE@XZ$9
	DD	09H
	DD	FLAT:__unwindfunclet$??0CServiceUnits@@QAE@XZ$10
	DD	0aH
	DD	FLAT:__unwindfunclet$??0CServiceUnits@@QAE@XZ$11
xdata$x	ENDS
;	COMDAT xdata$x
xdata$x	SEGMENT
__unwindtable$?CreateInstance@?$CTempldateHelper@UITCPNetworkEngine@@@@QAE_NXZ DD 0ffffffffH
	DD	00H
	DD	0ffffffffH
	DD	00H
__tryblocktable$?CreateInstance@?$CTempldateHelper@UITCPNetworkEngine@@@@QAE_NXZ DD 00H
	DD	00H
	DD	01H
	DD	02H
	DD	FLAT:__catchsym$?CreateInstance@?$CTempldateHelper@UITCPNetworkEngine@@@@QAE_NXZ$3
__catchsym$?CreateInstance@?$CTempldateHelper@UITCPNetworkEngine@@@@QAE_NXZ$3 DD 01H
	DD	FLAT:??_R0PAD@8
	DD	0ffffffe4H
	DD	FLAT:__catch$?CreateInstance@?$CTempldateHelper@UITCPNetworkEngine@@@@QAE_NXZ$0
	DD	040H
	DD	00H
	DD	00H
	DD	FLAT:__catch$?CreateInstance@?$CTempldateHelper@UITCPNetworkEngine@@@@QAE_NXZ$1
__ehfuncinfo$?CreateInstance@?$CTempldateHelper@UITCPNetworkEngine@@@@QAE_NXZ DD 019930522H
	DD	02H
	DD	FLAT:__unwindtable$?CreateInstance@?$CTempldateHelper@UITCPNetworkEngine@@@@QAE_NXZ
	DD	01H
	DD	FLAT:__tryblocktable$?CreateInstance@?$CTempldateHelper@UITCPNetworkEngine@@@@QAE_NXZ
	DD	2 DUP(00H)
	DD	00H
	DD	01H
xdata$x	ENDS
;	COMDAT xdata$x
xdata$x	SEGMENT
__ehfuncinfo$??1?$CTempldateHelper@UITCPNetworkEngine@@@@UAE@XZ DD 019930522H
	DD	00H
	DD	00H
	DD	2 DUP(00H)
	DD	2 DUP(00H)
	DD	00H
	DD	05H
xdata$x	ENDS
;	COMDAT xdata$x
xdata$x	SEGMENT
__unwindtable$?CreateInstance@?$CTempldateHelper@UITCPSocketService@@@@QAE_NXZ DD 0ffffffffH
	DD	00H
	DD	0ffffffffH
	DD	00H
__tryblocktable$?CreateInstance@?$CTempldateHelper@UITCPSocketService@@@@QAE_NXZ DD 00H
	DD	00H
	DD	01H
	DD	02H
	DD	FLAT:__catchsym$?CreateInstance@?$CTempldateHelper@UITCPSocketService@@@@QAE_NXZ$3
__catchsym$?CreateInstance@?$CTempldateHelper@UITCPSocketService@@@@QAE_NXZ$3 DD 01H
	DD	FLAT:??_R0PAD@8
	DD	0ffffffe4H
	DD	FLAT:__catch$?CreateInstance@?$CTempldateHelper@UITCPSocketService@@@@QAE_NXZ$0
	DD	040H
	DD	00H
	DD	00H
	DD	FLAT:__catch$?CreateInstance@?$CTempldateHelper@UITCPSocketService@@@@QAE_NXZ$1
__ehfuncinfo$?CreateInstance@?$CTempldateHelper@UITCPSocketService@@@@QAE_NXZ DD 019930522H
	DD	02H
	DD	FLAT:__unwindtable$?CreateInstance@?$CTempldateHelper@UITCPSocketService@@@@QAE_NXZ
	DD	01H
	DD	FLAT:__tryblocktable$?CreateInstance@?$CTempldateHelper@UITCPSocketService@@@@QAE_NXZ
	DD	2 DUP(00H)
	DD	00H
	DD	01H
xdata$x	ENDS
;	COMDAT xdata$x
xdata$x	SEGMENT
__ehfuncinfo$??1?$CTempldateHelper@UITCPSocketService@@@@UAE@XZ DD 019930522H
	DD	00H
	DD	00H
	DD	2 DUP(00H)
	DD	2 DUP(00H)
	DD	00H
	DD	05H
xdata$x	ENDS
;	COMDAT xdata$x
xdata$x	SEGMENT
__unwindtable$?CreateInstance@?$CTempldateHelper@UIAttemperEngine@@@@QAE_NXZ DD 0ffffffffH
	DD	00H
	DD	0ffffffffH
	DD	00H
__tryblocktable$?CreateInstance@?$CTempldateHelper@UIAttemperEngine@@@@QAE_NXZ DD 00H
	DD	00H
	DD	01H
	DD	02H
	DD	FLAT:__catchsym$?CreateInstance@?$CTempldateHelper@UIAttemperEngine@@@@QAE_NXZ$3
__catchsym$?CreateInstance@?$CTempldateHelper@UIAttemperEngine@@@@QAE_NXZ$3 DD 01H
	DD	FLAT:??_R0PAD@8
	DD	0ffffffe4H
	DD	FLAT:__catch$?CreateInstance@?$CTempldateHelper@UIAttemperEngine@@@@QAE_NXZ$0
	DD	040H
	DD	00H
	DD	00H
	DD	FLAT:__catch$?CreateInstance@?$CTempldateHelper@UIAttemperEngine@@@@QAE_NXZ$1
__ehfuncinfo$?CreateInstance@?$CTempldateHelper@UIAttemperEngine@@@@QAE_NXZ DD 019930522H
	DD	02H
	DD	FLAT:__unwindtable$?CreateInstance@?$CTempldateHelper@UIAttemperEngine@@@@QAE_NXZ
	DD	01H
	DD	FLAT:__tryblocktable$?CreateInstance@?$CTempldateHelper@UIAttemperEngine@@@@QAE_NXZ
	DD	2 DUP(00H)
	DD	00H
	DD	01H
xdata$x	ENDS
;	COMDAT xdata$x
xdata$x	SEGMENT
__ehfuncinfo$??1?$CTempldateHelper@UIAttemperEngine@@@@UAE@XZ DD 019930522H
	DD	00H
	DD	00H
	DD	2 DUP(00H)
	DD	2 DUP(00H)
	DD	00H
	DD	05H
xdata$x	ENDS
;	COMDAT xdata$x
xdata$x	SEGMENT
__unwindtable$?CreateInstance@?$CTempldateHelper@UIDataBaseEngine@@@@QAE_NXZ DD 0ffffffffH
	DD	00H
	DD	0ffffffffH
	DD	00H
__tryblocktable$?CreateInstance@?$CTempldateHelper@UIDataBaseEngine@@@@QAE_NXZ DD 00H
	DD	00H
	DD	01H
	DD	02H
	DD	FLAT:__catchsym$?CreateInstance@?$CTempldateHelper@UIDataBaseEngine@@@@QAE_NXZ$3
__catchsym$?CreateInstance@?$CTempldateHelper@UIDataBaseEngine@@@@QAE_NXZ$3 DD 01H
	DD	FLAT:??_R0PAD@8
	DD	0ffffffe4H
	DD	FLAT:__catch$?CreateInstance@?$CTempldateHelper@UIDataBaseEngine@@@@QAE_NXZ$0
	DD	040H
	DD	00H
	DD	00H
	DD	FLAT:__catch$?CreateInstance@?$CTempldateHelper@UIDataBaseEngine@@@@QAE_NXZ$1
__ehfuncinfo$?CreateInstance@?$CTempldateHelper@UIDataBaseEngine@@@@QAE_NXZ DD 019930522H
	DD	02H
	DD	FLAT:__unwindtable$?CreateInstance@?$CTempldateHelper@UIDataBaseEngine@@@@QAE_NXZ
	DD	01H
	DD	FLAT:__tryblocktable$?CreateInstance@?$CTempldateHelper@UIDataBaseEngine@@@@QAE_NXZ
	DD	2 DUP(00H)
	DD	00H
	DD	01H
xdata$x	ENDS
;	COMDAT xdata$x
xdata$x	SEGMENT
__ehfuncinfo$??1?$CTempldateHelper@UIDataBaseEngine@@@@UAE@XZ DD 019930522H
	DD	00H
	DD	00H
	DD	2 DUP(00H)
	DD	2 DUP(00H)
	DD	00H
	DD	05H
xdata$x	ENDS
;	COMDAT xdata$x
xdata$x	SEGMENT
__unwindtable$?CreateInstance@?$CTempldateHelper@UITimerEngine@@@@QAE_NXZ DD 0ffffffffH
	DD	00H
	DD	0ffffffffH
	DD	00H
__tryblocktable$?CreateInstance@?$CTempldateHelper@UITimerEngine@@@@QAE_NXZ DD 00H
	DD	00H
	DD	01H
	DD	02H
	DD	FLAT:__catchsym$?CreateInstance@?$CTempldateHelper@UITimerEngine@@@@QAE_NXZ$3
__catchsym$?CreateInstance@?$CTempldateHelper@UITimerEngine@@@@QAE_NXZ$3 DD 01H
	DD	FLAT:??_R0PAD@8
	DD	0ffffffe4H
	DD	FLAT:__catch$?CreateInstance@?$CTempldateHelper@UITimerEngine@@@@QAE_NXZ$0
	DD	040H
	DD	00H
	DD	00H
	DD	FLAT:__catch$?CreateInstance@?$CTempldateHelper@UITimerEngine@@@@QAE_NXZ$1
__ehfuncinfo$?CreateInstance@?$CTempldateHelper@UITimerEngine@@@@QAE_NXZ DD 019930522H
	DD	02H
	DD	FLAT:__unwindtable$?CreateInstance@?$CTempldateHelper@UITimerEngine@@@@QAE_NXZ
	DD	01H
	DD	FLAT:__tryblocktable$?CreateInstance@?$CTempldateHelper@UITimerEngine@@@@QAE_NXZ
	DD	2 DUP(00H)
	DD	00H
	DD	01H
xdata$x	ENDS
;	COMDAT xdata$x
xdata$x	SEGMENT
__ehfuncinfo$??1?$CTempldateHelper@UITimerEngine@@@@UAE@XZ DD 019930522H
	DD	00H
	DD	00H
	DD	2 DUP(00H)
	DD	2 DUP(00H)
	DD	00H
	DD	05H
xdata$x	ENDS
; Function compile flags: /Odtp /ZI
; File c:\program files (x86)\windows kits\10\include\10.0.17763.0\ucrt\stdio.h
;	COMDAT ??$_snprintf_s@$0IA@@@YAHAAY0IA@DIPBDZZ
_TEXT	SEGMENT
__ArgList$ = -4						; size = 4
__Buffer$ = 8						; size = 4
__BufferCount$ = 12					; size = 4
__Format$ = 16						; size = 4
??$_snprintf_s@$0IA@@@YAHAAY0IA@DIPBDZZ PROC		; _snprintf_s<128>, COMDAT

; 2079 :         )

  00000	55		 push	 ebp
  00001	8b ec		 mov	 ebp, esp
  00003	83 ec 48	 sub	 esp, 72			; 00000048H
  00006	53		 push	 ebx
  00007	56		 push	 esi
  00008	57		 push	 edi

; 2073 :     __DEFINE_CPP_OVERLOAD_SECURE_FUNC_0_2_ARGLIST(

  00009	8d 45 14	 lea	 eax, DWORD PTR __Format$[ebp+4]
  0000c	89 45 fc	 mov	 DWORD PTR __ArgList$[ebp], eax
  0000f	8b 45 fc	 mov	 eax, DWORD PTR __ArgList$[ebp]
  00012	50		 push	 eax
  00013	8b 4d 10	 mov	 ecx, DWORD PTR __Format$[ebp]
  00016	51		 push	 ecx
  00017	8b 55 0c	 mov	 edx, DWORD PTR __BufferCount$[ebp]
  0001a	52		 push	 edx
  0001b	68 80 00 00 00	 push	 128			; 00000080H
  00020	8b 45 08	 mov	 eax, DWORD PTR __Buffer$[ebp]
  00023	50		 push	 eax
  00024	e8 00 00 00 00	 call	 __vsnprintf_s
  00029	83 c4 14	 add	 esp, 20			; 00000014H
  0002c	5f		 pop	 edi
  0002d	5e		 pop	 esi
  0002e	5b		 pop	 ebx
  0002f	8b e5		 mov	 esp, ebp
  00031	5d		 pop	 ebp
  00032	c3		 ret	 0
??$_snprintf_s@$0IA@@@YAHAAY0IA@DIPBDZZ ENDP		; _snprintf_s<128>
_TEXT	ENDS
; Function compile flags: /Odtp /ZI
;	COMDAT ??_GCServiceUnits@@UAEPAXI@Z
_TEXT	SEGMENT
_this$ = -4						; size = 4
___flags$ = 8						; size = 4
??_GCServiceUnits@@UAEPAXI@Z PROC			; CServiceUnits::`scalar deleting destructor', COMDAT
; _this$ = ecx
  00000	55		 push	 ebp
  00001	8b ec		 mov	 ebp, esp
  00003	83 ec 44	 sub	 esp, 68			; 00000044H
  00006	53		 push	 ebx
  00007	56		 push	 esi
  00008	57		 push	 edi
  00009	89 4d fc	 mov	 DWORD PTR _this$[ebp], ecx
  0000c	8b 4d fc	 mov	 ecx, DWORD PTR _this$[ebp]
  0000f	e8 00 00 00 00	 call	 ??1CServiceUnits@@UAE@XZ ; CServiceUnits::~CServiceUnits
  00014	8b 45 08	 mov	 eax, DWORD PTR ___flags$[ebp]
  00017	83 e0 01	 and	 eax, 1
  0001a	74 24		 je	 SHORT $LN2@scalar
  0001c	8b 45 08	 mov	 eax, DWORD PTR ___flags$[ebp]
  0001f	83 e0 04	 and	 eax, 4
  00022	75 0b		 jne	 SHORT $LN3@scalar
  00024	8b 45 fc	 mov	 eax, DWORD PTR _this$[ebp]
  00027	50		 push	 eax
  00028	e8 00 00 00 00	 call	 ??3CObject@@SGXPAX@Z	; CObject::operator delete
  0002d	eb 11		 jmp	 SHORT $LN2@scalar
$LN3@scalar:
  0002f	68 18 d7 01 00	 push	 120600			; 0001d718H
  00034	8b 45 fc	 mov	 eax, DWORD PTR _this$[ebp]
  00037	50		 push	 eax
  00038	e8 00 00 00 00	 call	 ?__global_delete@@YAXPAXI@Z ; __global_delete
  0003d	83 c4 08	 add	 esp, 8
$LN2@scalar:
  00040	8b 45 fc	 mov	 eax, DWORD PTR _this$[ebp]
  00043	5f		 pop	 edi
  00044	5e		 pop	 esi
  00045	5b		 pop	 ebx
  00046	8b e5		 mov	 esp, ebp
  00048	5d		 pop	 ebp
  00049	c2 04 00	 ret	 4
??_GCServiceUnits@@UAEPAXI@Z ENDP			; CServiceUnits::`scalar deleting destructor'
_TEXT	ENDS
; Function compile flags: /Odtp /ZI
; File g:\网狐\happygamewh\服务端\系统模块\服务器组件\登录服务器\serviceunits.cpp
;	COMDAT ?GetMessageMap@CServiceUnits@@MBEPBUAFX_MSGMAP@@XZ
_TEXT	SEGMENT
_this$ = -4						; size = 4
?GetMessageMap@CServiceUnits@@MBEPBUAFX_MSGMAP@@XZ PROC	; CServiceUnits::GetMessageMap, COMDAT
; _this$ = ecx

; 12   : BEGIN_MESSAGE_MAP(CServiceUnits, CWnd)

  00000	55		 push	 ebp
  00001	8b ec		 mov	 ebp, esp
  00003	83 ec 44	 sub	 esp, 68			; 00000044H
  00006	53		 push	 ebx
  00007	56		 push	 esi
  00008	57		 push	 edi
  00009	89 4d fc	 mov	 DWORD PTR _this$[ebp], ecx
  0000c	e8 00 00 00 00	 call	 ?GetThisMessageMap@CServiceUnits@@KGPBUAFX_MSGMAP@@XZ ; CServiceUnits::GetThisMessageMap
  00011	5f		 pop	 edi
  00012	5e		 pop	 esi
  00013	5b		 pop	 ebx
  00014	8b e5		 mov	 esp, ebp
  00016	5d		 pop	 ebp
  00017	c3		 ret	 0
?GetMessageMap@CServiceUnits@@MBEPBUAFX_MSGMAP@@XZ ENDP	; CServiceUnits::GetMessageMap
_TEXT	ENDS
; Function compile flags: /Odtp /ZI
; File g:\网狐\happygamewh\服务端\系统模块\服务器组件\登录服务器\serviceunits.cpp
;	COMDAT ?GetThisMessageMap@CServiceUnits@@KGPBUAFX_MSGMAP@@XZ
_TEXT	SEGMENT
?GetThisMessageMap@CServiceUnits@@KGPBUAFX_MSGMAP@@XZ PROC ; CServiceUnits::GetThisMessageMap, COMDAT

; 12   : BEGIN_MESSAGE_MAP(CServiceUnits, CWnd)

  00000	55		 push	 ebp
  00001	8b ec		 mov	 ebp, esp
  00003	83 ec 40	 sub	 esp, 64			; 00000040H
  00006	53		 push	 ebx
  00007	56		 push	 esi
  00008	57		 push	 edi

; 13   : 	ON_MESSAGE(WM_UICONTROL_REQUEST,OnUIControlRequest)
; 14   : END_MESSAGE_MAP()

  00009	b8 00 00 00 00	 mov	 eax, OFFSET ?messageMap@?1??GetThisMessageMap@CServiceUnits@@KGPBUAFX_MSGMAP@@XZ@4U3@B
  0000e	5f		 pop	 edi
  0000f	5e		 pop	 esi
  00010	5b		 pop	 ebx
  00011	8b e5		 mov	 esp, ebp
  00013	5d		 pop	 ebp
  00014	c3		 ret	 0
?GetThisMessageMap@CServiceUnits@@KGPBUAFX_MSGMAP@@XZ ENDP ; CServiceUnits::GetThisMessageMap
_TEXT	ENDS
; Function compile flags: /Odtp /ZI
; File g:\网狐\happygamewh\服务端\系统模块\服务器组件\登录服务器\serviceunits.cpp
;	COMDAT ?OnUIControlRequest@CServiceUnits@@IAEJIJ@Z
_TEXT	SEGMENT
tv86 = -16980						; size = 4
$T2 = -16976						; size = 4
$T3 = -16972						; size = 4
$T4 = -16968						; size = 4
$T5 = -16964						; size = 4
$T6 = -16960						; size = 4
$T7 = -16956						; size = 4
$T8 = -16952						; size = 4
$T9 = -16948						; size = 4
$T10 = -16944						; size = 4
_pControlResult$11 = -16428				; size = 4
_pControlResult$12 = -16424				; size = 4
_DataLocker$ = -16420					; size = 12
_cbBuffer$ = -16408					; size = 16384
_DataHead$ = -24					; size = 4
_this$ = -20						; size = 4
__$ArrayPad$ = -16					; size = 4
__$EHRec$ = -12						; size = 12
_wParam$ = 8						; size = 4
_lParam$ = 12						; size = 4
?OnUIControlRequest@CServiceUnits@@IAEJIJ@Z PROC	; CServiceUnits::OnUIControlRequest, COMDAT
; _this$ = ecx

; 275  : {

  00000	55		 push	 ebp
  00001	8b ec		 mov	 ebp, esp
  00003	6a ff		 push	 -1
  00005	68 00 00 00 00	 push	 __ehhandler$?OnUIControlRequest@CServiceUnits@@IAEJIJ@Z
  0000a	64 a1 00 00 00
	00		 mov	 eax, DWORD PTR fs:0
  00010	50		 push	 eax
  00011	b8 48 42 00 00	 mov	 eax, 16968		; 00004248H
  00016	e8 00 00 00 00	 call	 __chkstk
  0001b	a1 00 00 00 00	 mov	 eax, DWORD PTR ___security_cookie
  00020	33 c5		 xor	 eax, ebp
  00022	89 45 f0	 mov	 DWORD PTR __$ArrayPad$[ebp], eax
  00025	53		 push	 ebx
  00026	56		 push	 esi
  00027	57		 push	 edi
  00028	50		 push	 eax
  00029	8d 45 f4	 lea	 eax, DWORD PTR __$EHRec$[ebp]
  0002c	64 a3 00 00 00
	00		 mov	 DWORD PTR fs:0, eax
  00032	89 4d ec	 mov	 DWORD PTR _this$[ebp], ecx

; 276  : 	//变量定义
; 277  : 	tagDataHead DataHead;
; 278  : 	BYTE cbBuffer[MAX_ASYNCHRONISM_DATA];
; 279  : 
; 280  : 	//提取数据
; 281  : 	CWHDataLocker DataLocker(m_CriticalSection);

  00035	6a 01		 push	 1
  00037	8b 45 ec	 mov	 eax, DWORD PTR _this$[ebp]
  0003a	05 c4 02 00 00	 add	 eax, 708		; 000002c4H
  0003f	50		 push	 eax
  00040	8d 8d dc bf ff
	ff		 lea	 ecx, DWORD PTR _DataLocker$[ebp]
  00046	ff 15 00 00 00
	00		 call	 DWORD PTR __imp_??0CWHDataLocker@@QAE@AAVCCriticalSection@@_N@Z
  0004c	c7 45 fc 00 00
	00 00		 mov	 DWORD PTR __$EHRec$[ebp+8], 0

; 282  : 	if (m_DataQueue.DistillData(DataHead,cbBuffer,sizeof(cbBuffer))==false)

  00053	68 00 40 00 00	 push	 16384			; 00004000H
  00058	8d 85 e8 bf ff
	ff		 lea	 eax, DWORD PTR _cbBuffer$[ebp]
  0005e	50		 push	 eax
  0005f	8d 4d e8	 lea	 ecx, DWORD PTR _DataHead$[ebp]
  00062	51		 push	 ecx
  00063	8b 4d ec	 mov	 ecx, DWORD PTR _this$[ebp]
  00066	81 c1 a4 02 00
	00		 add	 ecx, 676		; 000002a4H
  0006c	ff 15 00 00 00
	00		 call	 DWORD PTR __imp_?DistillData@CWHDataQueue@@QAE_NAAUtagDataHead@@PAXG@Z
  00072	0f b6 d0	 movzx	 edx, al
  00075	85 d2		 test	 edx, edx
  00077	75 45		 jne	 SHORT $LN4@OnUIContro

; 283  : 	{
; 284  : 		ASSERT(FALSE);

  00079	33 c0		 xor	 eax, eax
  0007b	75 19		 jne	 SHORT $LN15@OnUIContro
  0007d	8b 0d 00 00 00
	00		 mov	 ecx, DWORD PTR ?__LINE__Var@?0??OnUIControlRequest@CServiceUnits@@IAEJIJ@Z@4JA
  00083	83 c1 09	 add	 ecx, 9
  00086	51		 push	 ecx
  00087	68 00 00 00 00	 push	 OFFSET ??_C@_0EL@PANCMGMG@g?3?2?M?x?$LK?$PM?2happygamewh?2?$LH?$PO?N?q?$LG?K?2?O?$LF?M?$LD@
  0008c	e8 00 00 00 00	 call	 ?AfxAssertFailedLine@@YGHPBDH@Z ; AfxAssertFailedLine
  00091	85 c0		 test	 eax, eax
  00093	74 01		 je	 SHORT $LN15@OnUIContro
  00095	cc		 int	 3
$LN15@OnUIContro:

; 285  : 		return NULL;

  00096	c7 85 d0 bd ff
	ff 00 00 00 00	 mov	 DWORD PTR $T10[ebp], 0
  000a0	c7 45 fc ff ff
	ff ff		 mov	 DWORD PTR __$EHRec$[ebp+8], -1
  000a7	8d 8d dc bf ff
	ff		 lea	 ecx, DWORD PTR _DataLocker$[ebp]
  000ad	ff 15 00 00 00
	00		 call	 DWORD PTR __imp_??1CWHDataLocker@@UAE@XZ
  000b3	8b 85 d0 bd ff
	ff		 mov	 eax, DWORD PTR $T10[ebp]
  000b9	e9 7b 02 00 00	 jmp	 $LN1@OnUIContro
$LN4@OnUIContro:

; 286  : 	}
; 287  : 
; 288  : 	//数据处理
; 289  : 	switch (DataHead.wIdentifier)

  000be	0f b7 45 ea	 movzx	 eax, WORD PTR _DataHead$[ebp+2]
  000c2	89 85 ac bd ff
	ff		 mov	 DWORD PTR tv86[ebp], eax
  000c8	83 bd ac bd ff
	ff 01		 cmp	 DWORD PTR tv86[ebp], 1
  000cf	0f 84 14 01 00
	00		 je	 $LN9@OnUIContro
  000d5	83 bd ac bd ff
	ff 02		 cmp	 DWORD PTR tv86[ebp], 2
  000dc	74 05		 je	 SHORT $LN5@OnUIContro
  000de	e9 33 02 00 00	 jmp	 $LN2@OnUIContro
$LN5@OnUIContro:

; 290  : 	{
; 291  : 	case UI_LOAD_DB_LIST_RESULT:	//列表结果
; 292  : 		{
; 293  : 			//效验消息
; 294  : 			ASSERT(DataHead.wDataSize==sizeof(CP_ControlResult));

  000e3	0f b7 45 e8	 movzx	 eax, WORD PTR _DataHead$[ebp]
  000e7	83 f8 01	 cmp	 eax, 1
  000ea	74 19		 je	 SHORT $LN16@OnUIContro
  000ec	8b 0d 00 00 00
	00		 mov	 ecx, DWORD PTR ?__LINE__Var@?0??OnUIControlRequest@CServiceUnits@@IAEJIJ@Z@4JA
  000f2	83 c1 13	 add	 ecx, 19			; 00000013H
  000f5	51		 push	 ecx
  000f6	68 00 00 00 00	 push	 OFFSET ??_C@_0EL@PANCMGMG@g?3?2?M?x?$LK?$PM?2happygamewh?2?$LH?$PO?N?q?$LG?K?2?O?$LF?M?$LD@
  000fb	e8 00 00 00 00	 call	 ?AfxAssertFailedLine@@YGHPBDH@Z ; AfxAssertFailedLine
  00100	85 c0		 test	 eax, eax
  00102	74 01		 je	 SHORT $LN16@OnUIContro
  00104	cc		 int	 3
$LN16@OnUIContro:

; 295  : 			if (DataHead.wDataSize!=sizeof(CP_ControlResult)) return 0;

  00105	0f b7 45 e8	 movzx	 eax, WORD PTR _DataHead$[ebp]
  00109	83 f8 01	 cmp	 eax, 1
  0010c	74 28		 je	 SHORT $LN6@OnUIContro
  0010e	c7 85 cc bd ff
	ff 00 00 00 00	 mov	 DWORD PTR $T9[ebp], 0
  00118	c7 45 fc ff ff
	ff ff		 mov	 DWORD PTR __$EHRec$[ebp+8], -1
  0011f	8d 8d dc bf ff
	ff		 lea	 ecx, DWORD PTR _DataLocker$[ebp]
  00125	ff 15 00 00 00
	00		 call	 DWORD PTR __imp_??1CWHDataLocker@@UAE@XZ
  0012b	8b 85 cc bd ff
	ff		 mov	 eax, DWORD PTR $T9[ebp]
  00131	e9 03 02 00 00	 jmp	 $LN1@OnUIContro
$LN6@OnUIContro:

; 296  : 
; 297  : 			//变量定义
; 298  : 			CP_ControlResult * pControlResult=(CP_ControlResult *)cbBuffer;

  00136	8d 85 e8 bf ff
	ff		 lea	 eax, DWORD PTR _cbBuffer$[ebp]
  0013c	89 85 d8 bf ff
	ff		 mov	 DWORD PTR _pControlResult$12[ebp], eax

; 299  : 
; 300  : 			//失败处理
; 301  : 			if ((m_ServiceStatus!=ServiceStatus_Service)&&(pControlResult->cbSuccess==ER_FAILURE))

  00142	8b 45 ec	 mov	 eax, DWORD PTR _this$[ebp]
  00145	83 b8 80 00 00
	00 02		 cmp	 DWORD PTR [eax+128], 2
  0014c	74 3d		 je	 SHORT $LN7@OnUIContro
  0014e	8b 85 d8 bf ff
	ff		 mov	 eax, DWORD PTR _pControlResult$12[ebp]
  00154	0f b6 08	 movzx	 ecx, BYTE PTR [eax]
  00157	85 c9		 test	 ecx, ecx
  00159	75 30		 jne	 SHORT $LN7@OnUIContro

; 302  : 			{
; 303  : 				ConcludeService();

  0015b	8b 4d ec	 mov	 ecx, DWORD PTR _this$[ebp]
  0015e	e8 00 00 00 00	 call	 ?ConcludeService@CServiceUnits@@QAE_NXZ ; CServiceUnits::ConcludeService

; 304  : 				return 0;

  00163	c7 85 c8 bd ff
	ff 00 00 00 00	 mov	 DWORD PTR $T8[ebp], 0
  0016d	c7 45 fc ff ff
	ff ff		 mov	 DWORD PTR __$EHRec$[ebp+8], -1
  00174	8d 8d dc bf ff
	ff		 lea	 ecx, DWORD PTR _DataLocker$[ebp]
  0017a	ff 15 00 00 00
	00		 call	 DWORD PTR __imp_??1CWHDataLocker@@UAE@XZ
  00180	8b 85 c8 bd ff
	ff		 mov	 eax, DWORD PTR $T8[ebp]
  00186	e9 ae 01 00 00	 jmp	 $LN1@OnUIContro
$LN7@OnUIContro:

; 305  : 			}
; 306  : 
; 307  : 			//成功处理
; 308  : 			if ((m_ServiceStatus!=ServiceStatus_Service)&&(pControlResult->cbSuccess==ER_SUCCESS))

  0018b	8b 45 ec	 mov	 eax, DWORD PTR _this$[ebp]
  0018e	83 b8 80 00 00
	00 02		 cmp	 DWORD PTR [eax+128], 2
  00195	74 2a		 je	 SHORT $LN8@OnUIContro
  00197	8b 85 d8 bf ff
	ff		 mov	 eax, DWORD PTR _pControlResult$12[ebp]
  0019d	0f b6 08	 movzx	 ecx, BYTE PTR [eax]
  001a0	83 f9 01	 cmp	 ecx, 1
  001a3	75 1c		 jne	 SHORT $LN8@OnUIContro

; 309  : 			{
; 310  : 				//连接协调
; 311  : 				SendControlPacket(CT_CONNECT_CORRESPOND,NULL,0);

  001a5	6a 00		 push	 0
  001a7	6a 00		 push	 0
  001a9	6a 64		 push	 100			; 00000064H
  001ab	8b 4d ec	 mov	 ecx, DWORD PTR _this$[ebp]
  001ae	e8 00 00 00 00	 call	 ?SendControlPacket@CServiceUnits@@AAE_NGPAXG@Z ; CServiceUnits::SendControlPacket

; 312  : 
; 313  : 				//连接协调
; 314  : 				SendControlPacket(CT_CONNECT_PERSONAL_ROOM_CORRESPOND,NULL,0);

  001b3	6a 00		 push	 0
  001b5	6a 00		 push	 0
  001b7	6a 67		 push	 103			; 00000067H
  001b9	8b 4d ec	 mov	 ecx, DWORD PTR _this$[ebp]
  001bc	e8 00 00 00 00	 call	 ?SendControlPacket@CServiceUnits@@AAE_NGPAXG@Z ; CServiceUnits::SendControlPacket
$LN8@OnUIContro:

; 315  : 			}
; 316  : 
; 317  : 			return 0;

  001c1	c7 85 c4 bd ff
	ff 00 00 00 00	 mov	 DWORD PTR $T7[ebp], 0
  001cb	c7 45 fc ff ff
	ff ff		 mov	 DWORD PTR __$EHRec$[ebp+8], -1
  001d2	8d 8d dc bf ff
	ff		 lea	 ecx, DWORD PTR _DataLocker$[ebp]
  001d8	ff 15 00 00 00
	00		 call	 DWORD PTR __imp_??1CWHDataLocker@@UAE@XZ
  001de	8b 85 c4 bd ff
	ff		 mov	 eax, DWORD PTR $T7[ebp]
  001e4	e9 50 01 00 00	 jmp	 $LN1@OnUIContro
$LN9@OnUIContro:

; 318  : 		}
; 319  : 	case UI_CORRESPOND_RESULT:		//协调结果
; 320  : 		{
; 321  : 			//效验消息
; 322  : 			ASSERT(DataHead.wDataSize==sizeof(CP_ControlResult));

  001e9	0f b7 45 e8	 movzx	 eax, WORD PTR _DataHead$[ebp]
  001ed	83 f8 01	 cmp	 eax, 1
  001f0	74 19		 je	 SHORT $LN17@OnUIContro
  001f2	8b 0d 00 00 00
	00		 mov	 ecx, DWORD PTR ?__LINE__Var@?0??OnUIControlRequest@CServiceUnits@@IAEJIJ@Z@4JA
  001f8	83 c1 2f	 add	 ecx, 47			; 0000002fH
  001fb	51		 push	 ecx
  001fc	68 00 00 00 00	 push	 OFFSET ??_C@_0EL@PANCMGMG@g?3?2?M?x?$LK?$PM?2happygamewh?2?$LH?$PO?N?q?$LG?K?2?O?$LF?M?$LD@
  00201	e8 00 00 00 00	 call	 ?AfxAssertFailedLine@@YGHPBDH@Z ; AfxAssertFailedLine
  00206	85 c0		 test	 eax, eax
  00208	74 01		 je	 SHORT $LN17@OnUIContro
  0020a	cc		 int	 3
$LN17@OnUIContro:

; 323  : 			if (DataHead.wDataSize!=sizeof(CP_ControlResult)) return 0;

  0020b	0f b7 45 e8	 movzx	 eax, WORD PTR _DataHead$[ebp]
  0020f	83 f8 01	 cmp	 eax, 1
  00212	74 28		 je	 SHORT $LN10@OnUIContro
  00214	c7 85 c0 bd ff
	ff 00 00 00 00	 mov	 DWORD PTR $T6[ebp], 0
  0021e	c7 45 fc ff ff
	ff ff		 mov	 DWORD PTR __$EHRec$[ebp+8], -1
  00225	8d 8d dc bf ff
	ff		 lea	 ecx, DWORD PTR _DataLocker$[ebp]
  0022b	ff 15 00 00 00
	00		 call	 DWORD PTR __imp_??1CWHDataLocker@@UAE@XZ
  00231	8b 85 c0 bd ff
	ff		 mov	 eax, DWORD PTR $T6[ebp]
  00237	e9 fd 00 00 00	 jmp	 $LN1@OnUIContro
$LN10@OnUIContro:

; 324  : 
; 325  : 			//变量定义
; 326  : 			CP_ControlResult * pControlResult=(CP_ControlResult *)cbBuffer;

  0023c	8d 85 e8 bf ff
	ff		 lea	 eax, DWORD PTR _cbBuffer$[ebp]
  00242	89 85 d4 bf ff
	ff		 mov	 DWORD PTR _pControlResult$11[ebp], eax

; 327  : 
; 328  : 			//失败处理
; 329  : 			if ((m_ServiceStatus!=ServiceStatus_Service)&&(pControlResult->cbSuccess==ER_FAILURE))

  00248	8b 45 ec	 mov	 eax, DWORD PTR _this$[ebp]
  0024b	83 b8 80 00 00
	00 02		 cmp	 DWORD PTR [eax+128], 2
  00252	74 3d		 je	 SHORT $LN11@OnUIContro
  00254	8b 85 d4 bf ff
	ff		 mov	 eax, DWORD PTR _pControlResult$11[ebp]
  0025a	0f b6 08	 movzx	 ecx, BYTE PTR [eax]
  0025d	85 c9		 test	 ecx, ecx
  0025f	75 30		 jne	 SHORT $LN11@OnUIContro

; 330  : 			{
; 331  : 				ConcludeService();

  00261	8b 4d ec	 mov	 ecx, DWORD PTR _this$[ebp]
  00264	e8 00 00 00 00	 call	 ?ConcludeService@CServiceUnits@@QAE_NXZ ; CServiceUnits::ConcludeService

; 332  : 				return 0;

  00269	c7 85 bc bd ff
	ff 00 00 00 00	 mov	 DWORD PTR $T5[ebp], 0
  00273	c7 45 fc ff ff
	ff ff		 mov	 DWORD PTR __$EHRec$[ebp+8], -1
  0027a	8d 8d dc bf ff
	ff		 lea	 ecx, DWORD PTR _DataLocker$[ebp]
  00280	ff 15 00 00 00
	00		 call	 DWORD PTR __imp_??1CWHDataLocker@@UAE@XZ
  00286	8b 85 bc bd ff
	ff		 mov	 eax, DWORD PTR $T5[ebp]
  0028c	e9 a8 00 00 00	 jmp	 $LN1@OnUIContro
$LN11@OnUIContro:

; 333  : 			}
; 334  : 
; 335  : 			//成功处理
; 336  : 			if ((m_ServiceStatus!=ServiceStatus_Service)&&(pControlResult->cbSuccess==ER_SUCCESS))

  00291	8b 45 ec	 mov	 eax, DWORD PTR _this$[ebp]
  00294	83 b8 80 00 00
	00 02		 cmp	 DWORD PTR [eax+128], 2
  0029b	74 54		 je	 SHORT $LN12@OnUIContro
  0029d	8b 85 d4 bf ff
	ff		 mov	 eax, DWORD PTR _pControlResult$11[ebp]
  002a3	0f b6 08	 movzx	 ecx, BYTE PTR [eax]
  002a6	83 f9 01	 cmp	 ecx, 1
  002a9	75 46		 jne	 SHORT $LN12@OnUIContro

; 337  : 			{
; 338  : 				//启动网络
; 339  : 				if (StartNetworkService()==false)

  002ab	8b 4d ec	 mov	 ecx, DWORD PTR _this$[ebp]
  002ae	e8 00 00 00 00	 call	 ?StartNetworkService@CServiceUnits@@IAE_NXZ ; CServiceUnits::StartNetworkService
  002b3	0f b6 c0	 movzx	 eax, al
  002b6	85 c0		 test	 eax, eax
  002b8	75 2d		 jne	 SHORT $LN13@OnUIContro

; 340  : 				{
; 341  : 					ConcludeService();

  002ba	8b 4d ec	 mov	 ecx, DWORD PTR _this$[ebp]
  002bd	e8 00 00 00 00	 call	 ?ConcludeService@CServiceUnits@@QAE_NXZ ; CServiceUnits::ConcludeService

; 342  : 					return 0;

  002c2	c7 85 b8 bd ff
	ff 00 00 00 00	 mov	 DWORD PTR $T4[ebp], 0
  002cc	c7 45 fc ff ff
	ff ff		 mov	 DWORD PTR __$EHRec$[ebp+8], -1
  002d3	8d 8d dc bf ff
	ff		 lea	 ecx, DWORD PTR _DataLocker$[ebp]
  002d9	ff 15 00 00 00
	00		 call	 DWORD PTR __imp_??1CWHDataLocker@@UAE@XZ
  002df	8b 85 b8 bd ff
	ff		 mov	 eax, DWORD PTR $T4[ebp]
  002e5	eb 52		 jmp	 SHORT $LN1@OnUIContro
$LN13@OnUIContro:

; 343  : 				}
; 344  : 
; 345  : 				//设置状态
; 346  : 				SetServiceStatus(ServiceStatus_Service);

  002e7	6a 02		 push	 2
  002e9	8b 4d ec	 mov	 ecx, DWORD PTR _this$[ebp]
  002ec	e8 00 00 00 00	 call	 ?SetServiceStatus@CServiceUnits@@AAE_NW4enServiceStatus@@@Z ; CServiceUnits::SetServiceStatus
$LN12@OnUIContro:

; 347  : 			}
; 348  : 
; 349  : 			return 0;

  002f1	c7 85 b4 bd ff
	ff 00 00 00 00	 mov	 DWORD PTR $T3[ebp], 0
  002fb	c7 45 fc ff ff
	ff ff		 mov	 DWORD PTR __$EHRec$[ebp+8], -1
  00302	8d 8d dc bf ff
	ff		 lea	 ecx, DWORD PTR _DataLocker$[ebp]
  00308	ff 15 00 00 00
	00		 call	 DWORD PTR __imp_??1CWHDataLocker@@UAE@XZ
  0030e	8b 85 b4 bd ff
	ff		 mov	 eax, DWORD PTR $T3[ebp]
  00314	eb 23		 jmp	 SHORT $LN1@OnUIContro
$LN2@OnUIContro:

; 350  : 		}
; 351  : 	}
; 352  : 
; 353  : 	return 0;

  00316	c7 85 b0 bd ff
	ff 00 00 00 00	 mov	 DWORD PTR $T2[ebp], 0
  00320	c7 45 fc ff ff
	ff ff		 mov	 DWORD PTR __$EHRec$[ebp+8], -1
  00327	8d 8d dc bf ff
	ff		 lea	 ecx, DWORD PTR _DataLocker$[ebp]
  0032d	ff 15 00 00 00
	00		 call	 DWORD PTR __imp_??1CWHDataLocker@@UAE@XZ
  00333	8b 85 b0 bd ff
	ff		 mov	 eax, DWORD PTR $T2[ebp]
$LN1@OnUIContro:

; 354  : }

  00339	8b 4d f4	 mov	 ecx, DWORD PTR __$EHRec$[ebp]
  0033c	64 89 0d 00 00
	00 00		 mov	 DWORD PTR fs:0, ecx
  00343	59		 pop	 ecx
  00344	5f		 pop	 edi
  00345	5e		 pop	 esi
  00346	5b		 pop	 ebx
  00347	8b 4d f0	 mov	 ecx, DWORD PTR __$ArrayPad$[ebp]
  0034a	33 cd		 xor	 ecx, ebp
  0034c	e8 00 00 00 00	 call	 @__security_check_cookie@4
  00351	8b e5		 mov	 esp, ebp
  00353	5d		 pop	 ebp
  00354	c2 08 00	 ret	 8
_TEXT	ENDS
;	COMDAT text$x
text$x	SEGMENT
__unwindfunclet$?OnUIControlRequest@CServiceUnits@@IAEJIJ@Z$0:
  00000	8d 8d dc bf ff
	ff		 lea	 ecx, DWORD PTR _DataLocker$[ebp]
  00006	ff 25 00 00 00
	00		 jmp	 DWORD PTR __imp_??1CWHDataLocker@@UAE@XZ
__ehhandler$?OnUIControlRequest@CServiceUnits@@IAEJIJ@Z:
  0000c	8b 54 24 08	 mov	 edx, DWORD PTR [esp+8]
  00010	8d 42 0c	 lea	 eax, DWORD PTR [edx+12]
  00013	8b 8a a8 bd ff
	ff		 mov	 ecx, DWORD PTR [edx-16984]
  00019	33 c8		 xor	 ecx, eax
  0001b	e8 00 00 00 00	 call	 @__security_check_cookie@4
  00020	8b 4a fc	 mov	 ecx, DWORD PTR [edx-4]
  00023	33 c8		 xor	 ecx, eax
  00025	e8 00 00 00 00	 call	 @__security_check_cookie@4
  0002a	b8 00 00 00 00	 mov	 eax, OFFSET __ehfuncinfo$?OnUIControlRequest@CServiceUnits@@IAEJIJ@Z
  0002f	e9 00 00 00 00	 jmp	 ___CxxFrameHandler3
text$x	ENDS
?OnUIControlRequest@CServiceUnits@@IAEJIJ@Z ENDP	; CServiceUnits::OnUIControlRequest
; Function compile flags: /Odtp /ZI
; File g:\网狐\happygamewh\服务端\系统模块\服务器组件\登录服务器\serviceunits.cpp
;	COMDAT ?SendControlPacket@CServiceUnits@@AAE_NGPAXG@Z
_TEXT	SEGMENT
tv94 = -72						; size = 4
_this$ = -4						; size = 4
_wControlID$ = 8					; size = 2
_pData$ = 12						; size = 4
_wDataSize$ = 16					; size = 2
?SendControlPacket@CServiceUnits@@AAE_NGPAXG@Z PROC	; CServiceUnits::SendControlPacket, COMDAT
; _this$ = ecx

; 262  : {

  00000	55		 push	 ebp
  00001	8b ec		 mov	 ebp, esp
  00003	83 ec 48	 sub	 esp, 72			; 00000048H
  00006	53		 push	 ebx
  00007	56		 push	 esi
  00008	57		 push	 edi
  00009	89 4d fc	 mov	 DWORD PTR _this$[ebp], ecx

; 263  : 	//状态效验
; 264  : 	ASSERT(m_AttemperEngine.GetInterface()!=NULL);

  0000c	8b 4d fc	 mov	 ecx, DWORD PTR _this$[ebp]
  0000f	81 c1 d8 cd 01
	00		 add	 ecx, 118232		; 0001cdd8H
  00015	e8 00 00 00 00	 call	 ?GetInterface@?$CTempldateHelper@UIAttemperEngine@@@@QBEPAUIAttemperEngine@@XZ ; CTempldateHelper<IAttemperEngine>::GetInterface
  0001a	85 c0		 test	 eax, eax
  0001c	75 18		 jne	 SHORT $LN4@SendContro
  0001e	a1 00 00 00 00	 mov	 eax, DWORD PTR ?__LINE__Var@?0??SendControlPacket@CServiceUnits@@AAE_NGPAXG@Z@4JA
  00023	83 c0 02	 add	 eax, 2
  00026	50		 push	 eax
  00027	68 00 00 00 00	 push	 OFFSET ??_C@_0EL@PANCMGMG@g?3?2?M?x?$LK?$PM?2happygamewh?2?$LH?$PO?N?q?$LG?K?2?O?$LF?M?$LD@
  0002c	e8 00 00 00 00	 call	 ?AfxAssertFailedLine@@YGHPBDH@Z ; AfxAssertFailedLine
  00031	85 c0		 test	 eax, eax
  00033	74 01		 je	 SHORT $LN4@SendContro
  00035	cc		 int	 3
$LN4@SendContro:

; 265  : 	if (m_AttemperEngine.GetInterface()==NULL) return false;

  00036	8b 4d fc	 mov	 ecx, DWORD PTR _this$[ebp]
  00039	81 c1 d8 cd 01
	00		 add	 ecx, 118232		; 0001cdd8H
  0003f	e8 00 00 00 00	 call	 ?GetInterface@?$CTempldateHelper@UIAttemperEngine@@@@QBEPAUIAttemperEngine@@XZ ; CTempldateHelper<IAttemperEngine>::GetInterface
  00044	85 c0		 test	 eax, eax
  00046	75 04		 jne	 SHORT $LN2@SendContro
  00048	32 c0		 xor	 al, al
  0004a	eb 2e		 jmp	 SHORT $LN1@SendContro
$LN2@SendContro:

; 266  : 
; 267  : 	//发送控制
; 268  : 	m_AttemperEngine->OnEventControl(wControlID,pData,wDataSize);

  0004c	8b 4d fc	 mov	 ecx, DWORD PTR _this$[ebp]
  0004f	81 c1 d8 cd 01
	00		 add	 ecx, 118232		; 0001cdd8H
  00055	e8 00 00 00 00	 call	 ??C?$CTempldateHelper@UIAttemperEngine@@@@QBEPAUIAttemperEngine@@XZ ; CTempldateHelper<IAttemperEngine>::operator->
  0005a	89 45 b8	 mov	 DWORD PTR tv94[ebp], eax
  0005d	0f b7 45 10	 movzx	 eax, WORD PTR _wDataSize$[ebp]
  00061	50		 push	 eax
  00062	8b 4d 0c	 mov	 ecx, DWORD PTR _pData$[ebp]
  00065	51		 push	 ecx
  00066	0f b7 55 08	 movzx	 edx, WORD PTR _wControlID$[ebp]
  0006a	52		 push	 edx
  0006b	8b 45 b8	 mov	 eax, DWORD PTR tv94[ebp]
  0006e	8b 10		 mov	 edx, DWORD PTR [eax]
  00070	8b 4d b8	 mov	 ecx, DWORD PTR tv94[ebp]
  00073	8b 42 1c	 mov	 eax, DWORD PTR [edx+28]
  00076	ff d0		 call	 eax

; 269  : 
; 270  : 	return true;

  00078	b0 01		 mov	 al, 1
$LN1@SendContro:

; 271  : }

  0007a	5f		 pop	 edi
  0007b	5e		 pop	 esi
  0007c	5b		 pop	 ebx
  0007d	8b e5		 mov	 esp, ebp
  0007f	5d		 pop	 ebp
  00080	c2 0c 00	 ret	 12			; 0000000cH
?SendControlPacket@CServiceUnits@@AAE_NGPAXG@Z ENDP	; CServiceUnits::SendControlPacket
_TEXT	ENDS
; Function compile flags: /Odtp /ZI
; File g:\网狐\happygamewh\服务端\系统模块\服务器组件\登录服务器\serviceunits.cpp
;	COMDAT ?SetServiceStatus@CServiceUnits@@AAE_NW4enServiceStatus@@@Z
_TEXT	SEGMENT
_pszString$1 = -8					; size = 4
_this$ = -4						; size = 4
_ServiceStatus$ = 8					; size = 4
?SetServiceStatus@CServiceUnits@@AAE_NW4enServiceStatus@@@Z PROC ; CServiceUnits::SetServiceStatus, COMDAT
; _this$ = ecx

; 238  : {

  00000	55		 push	 ebp
  00001	8b ec		 mov	 ebp, esp
  00003	83 ec 48	 sub	 esp, 72			; 00000048H
  00006	53		 push	 ebx
  00007	56		 push	 esi
  00008	57		 push	 edi
  00009	89 4d fc	 mov	 DWORD PTR _this$[ebp], ecx

; 239  : 	//状态判断
; 240  : 	if (m_ServiceStatus!=ServiceStatus)

  0000c	8b 45 fc	 mov	 eax, DWORD PTR _this$[ebp]
  0000f	8b 88 80 00 00
	00		 mov	 ecx, DWORD PTR [eax+128]
  00015	3b 4d 08	 cmp	 ecx, DWORD PTR _ServiceStatus$[ebp]
  00018	0f 84 87 00 00
	00		 je	 $LN2@SetService

; 241  : 	{
; 242  : 		//错误通知
; 243  : 		if ((m_ServiceStatus!=ServiceStatus_Service)&&(ServiceStatus==ServiceStatus_Stop))

  0001e	8b 45 fc	 mov	 eax, DWORD PTR _this$[ebp]
  00021	83 b8 80 00 00
	00 02		 cmp	 DWORD PTR [eax+128], 2
  00028	74 1c		 je	 SHORT $LN3@SetService
  0002a	83 7d 08 00	 cmp	 DWORD PTR _ServiceStatus$[ebp], 0
  0002e	75 16		 jne	 SHORT $LN3@SetService

; 244  : 		{
; 245  : 			LPCTSTR pszString=TEXT("服务启动失败");

  00030	c7 45 f8 00 00
	00 00		 mov	 DWORD PTR _pszString$1[ebp], OFFSET ??_C@_0N@LNPLGNA@?$LH?$PO?N?q?F?t?$LG?$KP?J?$KH?$LA?$NM@

; 246  : 			CTraceService::TraceString(pszString,TraceLevel_Exception);

  00037	6a 03		 push	 3
  00039	8b 45 f8	 mov	 eax, DWORD PTR _pszString$1[ebp]
  0003c	50		 push	 eax
  0003d	ff 15 00 00 00
	00		 call	 DWORD PTR __imp_?TraceString@CTraceService@@SA_NPBDW4enTraceLevel@@@Z
  00043	83 c4 08	 add	 esp, 8
$LN3@SetService:

; 247  : 		}
; 248  : 
; 249  : 		//设置变量
; 250  : 		m_ServiceStatus=ServiceStatus;

  00046	8b 45 fc	 mov	 eax, DWORD PTR _this$[ebp]
  00049	8b 4d 08	 mov	 ecx, DWORD PTR _ServiceStatus$[ebp]
  0004c	89 88 80 00 00
	00		 mov	 DWORD PTR [eax+128], ecx

; 251  : 
; 252  : 		//状态通知
; 253  : 		ASSERT(m_pIServiceUnitsSink!=NULL);

  00052	8b 45 fc	 mov	 eax, DWORD PTR _this$[ebp]
  00055	83 b8 10 d7 01
	00 00		 cmp	 DWORD PTR [eax+120592], 0
  0005c	75 19		 jne	 SHORT $LN6@SetService
  0005e	8b 0d 00 00 00
	00		 mov	 ecx, DWORD PTR ?__LINE__Var@?0??SetServiceStatus@CServiceUnits@@AAE_NW4enServiceStatus@@@Z@4JA
  00064	83 c1 0f	 add	 ecx, 15			; 0000000fH
  00067	51		 push	 ecx
  00068	68 00 00 00 00	 push	 OFFSET ??_C@_0EL@PANCMGMG@g?3?2?M?x?$LK?$PM?2happygamewh?2?$LH?$PO?N?q?$LG?K?2?O?$LF?M?$LD@
  0006d	e8 00 00 00 00	 call	 ?AfxAssertFailedLine@@YGHPBDH@Z ; AfxAssertFailedLine
  00072	85 c0		 test	 eax, eax
  00074	74 01		 je	 SHORT $LN6@SetService
  00076	cc		 int	 3
$LN6@SetService:

; 254  : 		if (m_pIServiceUnitsSink!=NULL) m_pIServiceUnitsSink->OnServiceUnitsStatus(m_ServiceStatus);

  00077	8b 45 fc	 mov	 eax, DWORD PTR _this$[ebp]
  0007a	83 b8 10 d7 01
	00 00		 cmp	 DWORD PTR [eax+120592], 0
  00081	74 22		 je	 SHORT $LN2@SetService
  00083	8b 45 fc	 mov	 eax, DWORD PTR _this$[ebp]
  00086	8b 88 80 00 00
	00		 mov	 ecx, DWORD PTR [eax+128]
  0008c	51		 push	 ecx
  0008d	8b 55 fc	 mov	 edx, DWORD PTR _this$[ebp]
  00090	8b 82 10 d7 01
	00		 mov	 eax, DWORD PTR [edx+120592]
  00096	8b 4d fc	 mov	 ecx, DWORD PTR _this$[ebp]
  00099	8b 10		 mov	 edx, DWORD PTR [eax]
  0009b	8b 89 10 d7 01
	00		 mov	 ecx, DWORD PTR [ecx+120592]
  000a1	8b 02		 mov	 eax, DWORD PTR [edx]
  000a3	ff d0		 call	 eax
$LN2@SetService:

; 255  : 	}
; 256  : 
; 257  : 	return true;

  000a5	b0 01		 mov	 al, 1

; 258  : }

  000a7	5f		 pop	 edi
  000a8	5e		 pop	 esi
  000a9	5b		 pop	 ebx
  000aa	8b e5		 mov	 esp, ebp
  000ac	5d		 pop	 ebp
  000ad	c2 04 00	 ret	 4
?SetServiceStatus@CServiceUnits@@AAE_NW4enServiceStatus@@@Z ENDP ; CServiceUnits::SetServiceStatus
_TEXT	ENDS
; Function compile flags: /Odtp /ZI
; File g:\网狐\happygamewh\服务端\系统模块\服务器组件\登录服务器\serviceunits.cpp
;	COMDAT ?StartNetworkService@CServiceUnits@@IAE_NXZ
_TEXT	SEGMENT
tv76 = -72						; size = 4
_this$ = -4						; size = 4
?StartNetworkService@CServiceUnits@@IAE_NXZ PROC	; CServiceUnits::StartNetworkService, COMDAT
; _this$ = ecx

; 225  : {

  00000	55		 push	 ebp
  00001	8b ec		 mov	 ebp, esp
  00003	83 ec 48	 sub	 esp, 72			; 00000048H
  00006	53		 push	 ebx
  00007	56		 push	 esi
  00008	57		 push	 edi
  00009	89 4d fc	 mov	 DWORD PTR _this$[ebp], ecx

; 226  : 	//网络引擎
; 227  : 	if (m_TCPNetworkEngine->StartService()==false)

  0000c	8b 4d fc	 mov	 ecx, DWORD PTR _this$[ebp]
  0000f	81 c1 88 d1 01
	00		 add	 ecx, 119176		; 0001d188H
  00015	e8 00 00 00 00	 call	 ??C?$CTempldateHelper@UITCPNetworkEngine@@@@QBEPAUITCPNetworkEngine@@XZ ; CTempldateHelper<ITCPNetworkEngine>::operator->
  0001a	89 45 b8	 mov	 DWORD PTR tv76[ebp], eax
  0001d	8b 45 b8	 mov	 eax, DWORD PTR tv76[ebp]
  00020	8b 10		 mov	 edx, DWORD PTR [eax]
  00022	8b 4d b8	 mov	 ecx, DWORD PTR tv76[ebp]
  00025	8b 42 08	 mov	 eax, DWORD PTR [edx+8]
  00028	ff d0		 call	 eax
  0002a	0f b6 c8	 movzx	 ecx, al
  0002d	85 c9		 test	 ecx, ecx
  0002f	75 21		 jne	 SHORT $LN2@StartNetwo

; 228  : 	{
; 229  : 		ASSERT(FALSE);

  00031	33 c0		 xor	 eax, eax
  00033	75 19		 jne	 SHORT $LN4@StartNetwo
  00035	8b 0d 00 00 00
	00		 mov	 ecx, DWORD PTR ?__LINE__Var@?0??StartNetworkService@CServiceUnits@@IAE_NXZ@4JA
  0003b	83 c1 04	 add	 ecx, 4
  0003e	51		 push	 ecx
  0003f	68 00 00 00 00	 push	 OFFSET ??_C@_0EL@PANCMGMG@g?3?2?M?x?$LK?$PM?2happygamewh?2?$LH?$PO?N?q?$LG?K?2?O?$LF?M?$LD@
  00044	e8 00 00 00 00	 call	 ?AfxAssertFailedLine@@YGHPBDH@Z ; AfxAssertFailedLine
  00049	85 c0		 test	 eax, eax
  0004b	74 01		 je	 SHORT $LN4@StartNetwo
  0004d	cc		 int	 3
$LN4@StartNetwo:

; 230  : 		return false;

  0004e	32 c0		 xor	 al, al
  00050	eb 02		 jmp	 SHORT $LN1@StartNetwo
$LN2@StartNetwo:

; 231  : 	}
; 232  : 	
; 233  : 	return true;

  00052	b0 01		 mov	 al, 1
$LN1@StartNetwo:

; 234  : }

  00054	5f		 pop	 edi
  00055	5e		 pop	 esi
  00056	5b		 pop	 ebx
  00057	8b e5		 mov	 esp, ebp
  00059	5d		 pop	 ebp
  0005a	c3		 ret	 0
?StartNetworkService@CServiceUnits@@IAE_NXZ ENDP	; CServiceUnits::StartNetworkService
_TEXT	ENDS
; Function compile flags: /Odtp /ZI
; File g:\网狐\happygamewh\服务端\系统模块\服务器组件\登录服务器\serviceunits.cpp
;	COMDAT ?StartKernelService@CServiceUnits@@IAE_NXZ
_TEXT	SEGMENT
tv208 = -72						; size = 4
tv183 = -72						; size = 4
tv158 = -72						; size = 4
tv133 = -72						; size = 4
tv76 = -72						; size = 4
_this$ = -4						; size = 4
?StartKernelService@CServiceUnits@@IAE_NXZ PROC		; CServiceUnits::StartKernelService, COMDAT
; _this$ = ecx

; 183  : {

  00000	55		 push	 ebp
  00001	8b ec		 mov	 ebp, esp
  00003	83 ec 48	 sub	 esp, 72			; 00000048H
  00006	53		 push	 ebx
  00007	56		 push	 esi
  00008	57		 push	 edi
  00009	89 4d fc	 mov	 DWORD PTR _this$[ebp], ecx

; 184  : 	//时间引擎
; 185  : 	if (m_TimerEngine->StartService()==false)

  0000c	8b 4d fc	 mov	 ecx, DWORD PTR _this$[ebp]
  0000f	81 c1 00 cc 01
	00		 add	 ecx, 117760		; 0001cc00H
  00015	e8 00 00 00 00	 call	 ??C?$CTempldateHelper@UITimerEngine@@@@QBEPAUITimerEngine@@XZ ; CTempldateHelper<ITimerEngine>::operator->
  0001a	89 45 b8	 mov	 DWORD PTR tv76[ebp], eax
  0001d	8b 45 b8	 mov	 eax, DWORD PTR tv76[ebp]
  00020	8b 10		 mov	 edx, DWORD PTR [eax]
  00022	8b 4d b8	 mov	 ecx, DWORD PTR tv76[ebp]
  00025	8b 42 08	 mov	 eax, DWORD PTR [edx+8]
  00028	ff d0		 call	 eax
  0002a	0f b6 c8	 movzx	 ecx, al
  0002d	85 c9		 test	 ecx, ecx
  0002f	75 24		 jne	 SHORT $LN2@StartKerne

; 186  : 	{
; 187  : 		ASSERT(FALSE);

  00031	33 c0		 xor	 eax, eax
  00033	75 19		 jne	 SHORT $LN8@StartKerne
  00035	8b 0d 00 00 00
	00		 mov	 ecx, DWORD PTR ?__LINE__Var@?0??StartKernelService@CServiceUnits@@IAE_NXZ@4JA
  0003b	83 c1 04	 add	 ecx, 4
  0003e	51		 push	 ecx
  0003f	68 00 00 00 00	 push	 OFFSET ??_C@_0EL@PANCMGMG@g?3?2?M?x?$LK?$PM?2happygamewh?2?$LH?$PO?N?q?$LG?K?2?O?$LF?M?$LD@
  00044	e8 00 00 00 00	 call	 ?AfxAssertFailedLine@@YGHPBDH@Z ; AfxAssertFailedLine
  00049	85 c0		 test	 eax, eax
  0004b	74 01		 je	 SHORT $LN8@StartKerne
  0004d	cc		 int	 3
$LN8@StartKerne:

; 188  : 		return false;

  0004e	32 c0		 xor	 al, al
  00050	e9 20 01 00 00	 jmp	 $LN1@StartKerne
$LN2@StartKerne:

; 189  : 	}
; 190  : 
; 191  : 	//调度引擎
; 192  : 	if (m_AttemperEngine->StartService()==false)

  00055	8b 4d fc	 mov	 ecx, DWORD PTR _this$[ebp]
  00058	81 c1 d8 cd 01
	00		 add	 ecx, 118232		; 0001cdd8H
  0005e	e8 00 00 00 00	 call	 ??C?$CTempldateHelper@UIAttemperEngine@@@@QBEPAUIAttemperEngine@@XZ ; CTempldateHelper<IAttemperEngine>::operator->
  00063	89 45 b8	 mov	 DWORD PTR tv133[ebp], eax
  00066	8b 45 b8	 mov	 eax, DWORD PTR tv133[ebp]
  00069	8b 10		 mov	 edx, DWORD PTR [eax]
  0006b	8b 4d b8	 mov	 ecx, DWORD PTR tv133[ebp]
  0006e	8b 42 08	 mov	 eax, DWORD PTR [edx+8]
  00071	ff d0		 call	 eax
  00073	0f b6 c8	 movzx	 ecx, al
  00076	85 c9		 test	 ecx, ecx
  00078	75 24		 jne	 SHORT $LN3@StartKerne

; 193  : 	{
; 194  : 		ASSERT(FALSE);

  0007a	33 c0		 xor	 eax, eax
  0007c	75 19		 jne	 SHORT $LN9@StartKerne
  0007e	8b 0d 00 00 00
	00		 mov	 ecx, DWORD PTR ?__LINE__Var@?0??StartKernelService@CServiceUnits@@IAE_NXZ@4JA
  00084	83 c1 0b	 add	 ecx, 11			; 0000000bH
  00087	51		 push	 ecx
  00088	68 00 00 00 00	 push	 OFFSET ??_C@_0EL@PANCMGMG@g?3?2?M?x?$LK?$PM?2happygamewh?2?$LH?$PO?N?q?$LG?K?2?O?$LF?M?$LD@
  0008d	e8 00 00 00 00	 call	 ?AfxAssertFailedLine@@YGHPBDH@Z ; AfxAssertFailedLine
  00092	85 c0		 test	 eax, eax
  00094	74 01		 je	 SHORT $LN9@StartKerne
  00096	cc		 int	 3
$LN9@StartKerne:

; 195  : 		return false;

  00097	32 c0		 xor	 al, al
  00099	e9 d7 00 00 00	 jmp	 $LN1@StartKerne
$LN3@StartKerne:

; 196  : 	}
; 197  : 
; 198  : 	//数据引擎
; 199  : 	if (m_DataBaseEngine->StartService()==false)

  0009e	8b 4d fc	 mov	 ecx, DWORD PTR _this$[ebp]
  000a1	81 c1 b0 cf 01
	00		 add	 ecx, 118704		; 0001cfb0H
  000a7	e8 00 00 00 00	 call	 ??C?$CTempldateHelper@UIDataBaseEngine@@@@QBEPAUIDataBaseEngine@@XZ ; CTempldateHelper<IDataBaseEngine>::operator->
  000ac	89 45 b8	 mov	 DWORD PTR tv158[ebp], eax
  000af	8b 45 b8	 mov	 eax, DWORD PTR tv158[ebp]
  000b2	8b 10		 mov	 edx, DWORD PTR [eax]
  000b4	8b 4d b8	 mov	 ecx, DWORD PTR tv158[ebp]
  000b7	8b 42 08	 mov	 eax, DWORD PTR [edx+8]
  000ba	ff d0		 call	 eax
  000bc	0f b6 c8	 movzx	 ecx, al
  000bf	85 c9		 test	 ecx, ecx
  000c1	75 24		 jne	 SHORT $LN4@StartKerne

; 200  : 	{
; 201  : 		ASSERT(FALSE);

  000c3	33 c0		 xor	 eax, eax
  000c5	75 19		 jne	 SHORT $LN10@StartKerne
  000c7	8b 0d 00 00 00
	00		 mov	 ecx, DWORD PTR ?__LINE__Var@?0??StartKernelService@CServiceUnits@@IAE_NXZ@4JA
  000cd	83 c1 12	 add	 ecx, 18			; 00000012H
  000d0	51		 push	 ecx
  000d1	68 00 00 00 00	 push	 OFFSET ??_C@_0EL@PANCMGMG@g?3?2?M?x?$LK?$PM?2happygamewh?2?$LH?$PO?N?q?$LG?K?2?O?$LF?M?$LD@
  000d6	e8 00 00 00 00	 call	 ?AfxAssertFailedLine@@YGHPBDH@Z ; AfxAssertFailedLine
  000db	85 c0		 test	 eax, eax
  000dd	74 01		 je	 SHORT $LN10@StartKerne
  000df	cc		 int	 3
$LN10@StartKerne:

; 202  : 		return false;

  000e0	32 c0		 xor	 al, al
  000e2	e9 8e 00 00 00	 jmp	 $LN1@StartKerne
$LN4@StartKerne:

; 203  : 	}
; 204  : 
; 205  : 	//协调引擎
; 206  : 	if (m_TCPSocketService->StartService()==false)

  000e7	8b 4d fc	 mov	 ecx, DWORD PTR _this$[ebp]
  000ea	81 c1 60 d3 01
	00		 add	 ecx, 119648		; 0001d360H
  000f0	e8 00 00 00 00	 call	 ??C?$CTempldateHelper@UITCPSocketService@@@@QBEPAUITCPSocketService@@XZ ; CTempldateHelper<ITCPSocketService>::operator->
  000f5	89 45 b8	 mov	 DWORD PTR tv183[ebp], eax
  000f8	8b 45 b8	 mov	 eax, DWORD PTR tv183[ebp]
  000fb	8b 10		 mov	 edx, DWORD PTR [eax]
  000fd	8b 4d b8	 mov	 ecx, DWORD PTR tv183[ebp]
  00100	8b 42 08	 mov	 eax, DWORD PTR [edx+8]
  00103	ff d0		 call	 eax
  00105	0f b6 c8	 movzx	 ecx, al
  00108	85 c9		 test	 ecx, ecx
  0010a	75 21		 jne	 SHORT $LN5@StartKerne

; 207  : 	{
; 208  : 		ASSERT(FALSE);

  0010c	33 c0		 xor	 eax, eax
  0010e	75 19		 jne	 SHORT $LN11@StartKerne
  00110	8b 0d 00 00 00
	00		 mov	 ecx, DWORD PTR ?__LINE__Var@?0??StartKernelService@CServiceUnits@@IAE_NXZ@4JA
  00116	83 c1 19	 add	 ecx, 25			; 00000019H
  00119	51		 push	 ecx
  0011a	68 00 00 00 00	 push	 OFFSET ??_C@_0EL@PANCMGMG@g?3?2?M?x?$LK?$PM?2happygamewh?2?$LH?$PO?N?q?$LG?K?2?O?$LF?M?$LD@
  0011f	e8 00 00 00 00	 call	 ?AfxAssertFailedLine@@YGHPBDH@Z ; AfxAssertFailedLine
  00124	85 c0		 test	 eax, eax
  00126	74 01		 je	 SHORT $LN11@StartKerne
  00128	cc		 int	 3
$LN11@StartKerne:

; 209  : 		return false;

  00129	32 c0		 xor	 al, al
  0012b	eb 48		 jmp	 SHORT $LN1@StartKerne
$LN5@StartKerne:

; 210  : 	}
; 211  : 
; 212  : 	//约战引擎
; 213  : 	if (m_PsrnlRmTCPSocketService->StartService()==false)

  0012d	8b 4d fc	 mov	 ecx, DWORD PTR _this$[ebp]
  00130	81 c1 38 d5 01
	00		 add	 ecx, 120120		; 0001d538H
  00136	e8 00 00 00 00	 call	 ??C?$CTempldateHelper@UITCPSocketService@@@@QBEPAUITCPSocketService@@XZ ; CTempldateHelper<ITCPSocketService>::operator->
  0013b	89 45 b8	 mov	 DWORD PTR tv208[ebp], eax
  0013e	8b 45 b8	 mov	 eax, DWORD PTR tv208[ebp]
  00141	8b 10		 mov	 edx, DWORD PTR [eax]
  00143	8b 4d b8	 mov	 ecx, DWORD PTR tv208[ebp]
  00146	8b 42 08	 mov	 eax, DWORD PTR [edx+8]
  00149	ff d0		 call	 eax
  0014b	0f b6 c8	 movzx	 ecx, al
  0014e	85 c9		 test	 ecx, ecx
  00150	75 21		 jne	 SHORT $LN6@StartKerne

; 214  : 	{
; 215  : 		ASSERT(FALSE);

  00152	33 c0		 xor	 eax, eax
  00154	75 19		 jne	 SHORT $LN12@StartKerne
  00156	8b 0d 00 00 00
	00		 mov	 ecx, DWORD PTR ?__LINE__Var@?0??StartKernelService@CServiceUnits@@IAE_NXZ@4JA
  0015c	83 c1 20	 add	 ecx, 32			; 00000020H
  0015f	51		 push	 ecx
  00160	68 00 00 00 00	 push	 OFFSET ??_C@_0EL@PANCMGMG@g?3?2?M?x?$LK?$PM?2happygamewh?2?$LH?$PO?N?q?$LG?K?2?O?$LF?M?$LD@
  00165	e8 00 00 00 00	 call	 ?AfxAssertFailedLine@@YGHPBDH@Z ; AfxAssertFailedLine
  0016a	85 c0		 test	 eax, eax
  0016c	74 01		 je	 SHORT $LN12@StartKerne
  0016e	cc		 int	 3
$LN12@StartKerne:

; 216  : 		return false;

  0016f	32 c0		 xor	 al, al
  00171	eb 02		 jmp	 SHORT $LN1@StartKerne
$LN6@StartKerne:

; 217  : 	}
; 218  : 
; 219  : 	
; 220  : 	return true;

  00173	b0 01		 mov	 al, 1
$LN1@StartKerne:

; 221  : }

  00175	5f		 pop	 edi
  00176	5e		 pop	 esi
  00177	5b		 pop	 ebx
  00178	8b e5		 mov	 esp, ebp
  0017a	5d		 pop	 ebp
  0017b	c3		 ret	 0
?StartKernelService@CServiceUnits@@IAE_NXZ ENDP		; CServiceUnits::StartKernelService
_TEXT	ENDS
; Function compile flags: /Odtp /ZI
; File g:\网狐\happygamewh\服务端\系统模块\服务器组件\登录服务器\serviceunits.cpp
;	COMDAT ?InitializeService@CServiceUnits@@IAE_NXZ
_TEXT	SEGMENT
tv473 = -120						; size = 4
tv460 = -120						; size = 4
tv387 = -120						; size = 4
tv372 = -120						; size = 4
tv357 = -120						; size = 4
tv342 = -120						; size = 4
tv326 = -120						; size = 4
tv311 = -120						; size = 4
tv296 = -120						; size = 4
tv281 = -120						; size = 4
tv266 = -120						; size = 4
_wServicePort$ = -52					; size = 2
_wMaxConnect$ = -48					; size = 2
_i$1 = -44						; size = 4
_i$2 = -40						; size = 2
_pIDataBaseEngineSink$ = -36				; size = 16
_pIAttemperEngineSink$ = -20				; size = 4
_pITCPNetworkEngine$ = -16				; size = 4
_pIAttemperEngine$ = -12				; size = 4
_this$ = -8						; size = 4
__$ArrayPad$ = -4					; size = 4
?InitializeService@CServiceUnits@@IAE_NXZ PROC		; CServiceUnits::InitializeService, COMDAT
; _this$ = ecx

; 122  : {

  00000	55		 push	 ebp
  00001	8b ec		 mov	 ebp, esp
  00003	83 ec 78	 sub	 esp, 120		; 00000078H
  00006	a1 00 00 00 00	 mov	 eax, DWORD PTR ___security_cookie
  0000b	33 c5		 xor	 eax, ebp
  0000d	89 45 fc	 mov	 DWORD PTR __$ArrayPad$[ebp], eax
  00010	53		 push	 ebx
  00011	56		 push	 esi
  00012	57		 push	 edi
  00013	89 4d f8	 mov	 DWORD PTR _this$[ebp], ecx

; 123  : 	//加载参数
; 124  : 	m_InitParameter.LoadInitParameter();

  00016	8b 4d f8	 mov	 ecx, DWORD PTR _this$[ebp]
  00019	81 c1 84 00 00
	00		 add	 ecx, 132		; 00000084H
  0001f	e8 00 00 00 00	 call	 ?LoadInitParameter@CInitParameter@@QAEXXZ ; CInitParameter::LoadInitParameter

; 125  : 
; 126  : 	//创建组件
; 127  : 	if ((m_TimerEngine.GetInterface()==NULL)&&(m_TimerEngine.CreateInstance()==false)) return false;

  00024	8b 4d f8	 mov	 ecx, DWORD PTR _this$[ebp]
  00027	81 c1 00 cc 01
	00		 add	 ecx, 117760		; 0001cc00H
  0002d	e8 00 00 00 00	 call	 ?GetInterface@?$CTempldateHelper@UITimerEngine@@@@QBEPAUITimerEngine@@XZ ; CTempldateHelper<ITimerEngine>::GetInterface
  00032	85 c0		 test	 eax, eax
  00034	75 1c		 jne	 SHORT $LN8@Initialize
  00036	8b 4d f8	 mov	 ecx, DWORD PTR _this$[ebp]
  00039	81 c1 00 cc 01
	00		 add	 ecx, 117760		; 0001cc00H
  0003f	e8 00 00 00 00	 call	 ?CreateInstance@?$CTempldateHelper@UITimerEngine@@@@QAE_NXZ ; CTempldateHelper<ITimerEngine>::CreateInstance
  00044	0f b6 c0	 movzx	 eax, al
  00047	85 c0		 test	 eax, eax
  00049	75 07		 jne	 SHORT $LN8@Initialize
  0004b	32 c0		 xor	 al, al
  0004d	e9 84 04 00 00	 jmp	 $LN1@Initialize
$LN8@Initialize:

; 128  : 	if ((m_AttemperEngine.GetInterface()==NULL)&&(m_AttemperEngine.CreateInstance()==false)) return false;

  00052	8b 4d f8	 mov	 ecx, DWORD PTR _this$[ebp]
  00055	81 c1 d8 cd 01
	00		 add	 ecx, 118232		; 0001cdd8H
  0005b	e8 00 00 00 00	 call	 ?GetInterface@?$CTempldateHelper@UIAttemperEngine@@@@QBEPAUIAttemperEngine@@XZ ; CTempldateHelper<IAttemperEngine>::GetInterface
  00060	85 c0		 test	 eax, eax
  00062	75 1c		 jne	 SHORT $LN9@Initialize
  00064	8b 4d f8	 mov	 ecx, DWORD PTR _this$[ebp]
  00067	81 c1 d8 cd 01
	00		 add	 ecx, 118232		; 0001cdd8H
  0006d	e8 00 00 00 00	 call	 ?CreateInstance@?$CTempldateHelper@UIAttemperEngine@@@@QAE_NXZ ; CTempldateHelper<IAttemperEngine>::CreateInstance
  00072	0f b6 c0	 movzx	 eax, al
  00075	85 c0		 test	 eax, eax
  00077	75 07		 jne	 SHORT $LN9@Initialize
  00079	32 c0		 xor	 al, al
  0007b	e9 56 04 00 00	 jmp	 $LN1@Initialize
$LN9@Initialize:

; 129  : 	if ((m_DataBaseEngine.GetInterface()==NULL)&&(m_DataBaseEngine.CreateInstance()==false)) return false;

  00080	8b 4d f8	 mov	 ecx, DWORD PTR _this$[ebp]
  00083	81 c1 b0 cf 01
	00		 add	 ecx, 118704		; 0001cfb0H
  00089	e8 00 00 00 00	 call	 ?GetInterface@?$CTempldateHelper@UIDataBaseEngine@@@@QBEPAUIDataBaseEngine@@XZ ; CTempldateHelper<IDataBaseEngine>::GetInterface
  0008e	85 c0		 test	 eax, eax
  00090	75 1c		 jne	 SHORT $LN10@Initialize
  00092	8b 4d f8	 mov	 ecx, DWORD PTR _this$[ebp]
  00095	81 c1 b0 cf 01
	00		 add	 ecx, 118704		; 0001cfb0H
  0009b	e8 00 00 00 00	 call	 ?CreateInstance@?$CTempldateHelper@UIDataBaseEngine@@@@QAE_NXZ ; CTempldateHelper<IDataBaseEngine>::CreateInstance
  000a0	0f b6 c0	 movzx	 eax, al
  000a3	85 c0		 test	 eax, eax
  000a5	75 07		 jne	 SHORT $LN10@Initialize
  000a7	32 c0		 xor	 al, al
  000a9	e9 28 04 00 00	 jmp	 $LN1@Initialize
$LN10@Initialize:

; 130  : 	if ((m_TCPNetworkEngine.GetInterface()==NULL)&&(m_TCPNetworkEngine.CreateInstance()==false)) return false;

  000ae	8b 4d f8	 mov	 ecx, DWORD PTR _this$[ebp]
  000b1	81 c1 88 d1 01
	00		 add	 ecx, 119176		; 0001d188H
  000b7	e8 00 00 00 00	 call	 ?GetInterface@?$CTempldateHelper@UITCPNetworkEngine@@@@QBEPAUITCPNetworkEngine@@XZ ; CTempldateHelper<ITCPNetworkEngine>::GetInterface
  000bc	85 c0		 test	 eax, eax
  000be	75 1c		 jne	 SHORT $LN11@Initialize
  000c0	8b 4d f8	 mov	 ecx, DWORD PTR _this$[ebp]
  000c3	81 c1 88 d1 01
	00		 add	 ecx, 119176		; 0001d188H
  000c9	e8 00 00 00 00	 call	 ?CreateInstance@?$CTempldateHelper@UITCPNetworkEngine@@@@QAE_NXZ ; CTempldateHelper<ITCPNetworkEngine>::CreateInstance
  000ce	0f b6 c0	 movzx	 eax, al
  000d1	85 c0		 test	 eax, eax
  000d3	75 07		 jne	 SHORT $LN11@Initialize
  000d5	32 c0		 xor	 al, al
  000d7	e9 fa 03 00 00	 jmp	 $LN1@Initialize
$LN11@Initialize:

; 131  : 	if ((m_TCPSocketService.GetInterface()==NULL)&&(m_TCPSocketService.CreateInstance()==false)) return false;

  000dc	8b 4d f8	 mov	 ecx, DWORD PTR _this$[ebp]
  000df	81 c1 60 d3 01
	00		 add	 ecx, 119648		; 0001d360H
  000e5	e8 00 00 00 00	 call	 ?GetInterface@?$CTempldateHelper@UITCPSocketService@@@@QBEPAUITCPSocketService@@XZ ; CTempldateHelper<ITCPSocketService>::GetInterface
  000ea	85 c0		 test	 eax, eax
  000ec	75 1c		 jne	 SHORT $LN12@Initialize
  000ee	8b 4d f8	 mov	 ecx, DWORD PTR _this$[ebp]
  000f1	81 c1 60 d3 01
	00		 add	 ecx, 119648		; 0001d360H
  000f7	e8 00 00 00 00	 call	 ?CreateInstance@?$CTempldateHelper@UITCPSocketService@@@@QAE_NXZ ; CTempldateHelper<ITCPSocketService>::CreateInstance
  000fc	0f b6 c0	 movzx	 eax, al
  000ff	85 c0		 test	 eax, eax
  00101	75 07		 jne	 SHORT $LN12@Initialize
  00103	32 c0		 xor	 al, al
  00105	e9 cc 03 00 00	 jmp	 $LN1@Initialize
$LN12@Initialize:

; 132  : 	if ((m_PsrnlRmTCPSocketService.GetInterface()==NULL)&&(m_PsrnlRmTCPSocketService.CreateInstance()==false)) return false;

  0010a	8b 4d f8	 mov	 ecx, DWORD PTR _this$[ebp]
  0010d	81 c1 38 d5 01
	00		 add	 ecx, 120120		; 0001d538H
  00113	e8 00 00 00 00	 call	 ?GetInterface@?$CTempldateHelper@UITCPSocketService@@@@QBEPAUITCPSocketService@@XZ ; CTempldateHelper<ITCPSocketService>::GetInterface
  00118	85 c0		 test	 eax, eax
  0011a	75 1c		 jne	 SHORT $LN13@Initialize
  0011c	8b 4d f8	 mov	 ecx, DWORD PTR _this$[ebp]
  0011f	81 c1 38 d5 01
	00		 add	 ecx, 120120		; 0001d538H
  00125	e8 00 00 00 00	 call	 ?CreateInstance@?$CTempldateHelper@UITCPSocketService@@@@QAE_NXZ ; CTempldateHelper<ITCPSocketService>::CreateInstance
  0012a	0f b6 c0	 movzx	 eax, al
  0012d	85 c0		 test	 eax, eax
  0012f	75 07		 jne	 SHORT $LN13@Initialize
  00131	32 c0		 xor	 al, al
  00133	e9 9e 03 00 00	 jmp	 $LN1@Initialize
$LN13@Initialize:

; 133  : 	
; 134  : 	//组件接口
; 135  : 	IUnknownEx * pIAttemperEngine=m_AttemperEngine.GetInterface();

  00138	8b 4d f8	 mov	 ecx, DWORD PTR _this$[ebp]
  0013b	81 c1 d8 cd 01
	00		 add	 ecx, 118232		; 0001cdd8H
  00141	e8 00 00 00 00	 call	 ?GetInterface@?$CTempldateHelper@UIAttemperEngine@@@@QBEPAUIAttemperEngine@@XZ ; CTempldateHelper<IAttemperEngine>::GetInterface
  00146	89 45 f4	 mov	 DWORD PTR _pIAttemperEngine$[ebp], eax

; 136  : 	IUnknownEx * pITCPNetworkEngine=m_TCPNetworkEngine.GetInterface();

  00149	8b 4d f8	 mov	 ecx, DWORD PTR _this$[ebp]
  0014c	81 c1 88 d1 01
	00		 add	 ecx, 119176		; 0001d188H
  00152	e8 00 00 00 00	 call	 ?GetInterface@?$CTempldateHelper@UITCPNetworkEngine@@@@QBEPAUITCPNetworkEngine@@XZ ; CTempldateHelper<ITCPNetworkEngine>::GetInterface
  00157	89 45 f0	 mov	 DWORD PTR _pITCPNetworkEngine$[ebp], eax

; 137  : 	IUnknownEx * pIAttemperEngineSink=QUERY_OBJECT_INTERFACE(m_AttemperEngineSink,IUnknownEx);

  0015a	68 00 01 01 06	 push	 100729088		; 06010100H
  0015f	68 00 00 00 00	 push	 OFFSET ?IID_IUnknownEx@@3U_GUID@@B
  00164	8b 4d f8	 mov	 ecx, DWORD PTR _this$[ebp]
  00167	81 c1 e8 02 00
	00		 add	 ecx, 744		; 000002e8H
  0016d	8b 45 f8	 mov	 eax, DWORD PTR _this$[ebp]
  00170	8b 90 e8 02 00
	00		 mov	 edx, DWORD PTR [eax+744]
  00176	8b 42 04	 mov	 eax, DWORD PTR [edx+4]
  00179	ff d0		 call	 eax
  0017b	89 45 ec	 mov	 DWORD PTR _pIAttemperEngineSink$[ebp], eax

; 138  : 
; 139  : 	//数据引擎
; 140  : 	IUnknownEx * pIDataBaseEngineSink[CountArray(m_DataBaseEngineSink)];
; 141  : 	for (WORD i=0;i<CountArray(pIDataBaseEngineSink);i++) pIDataBaseEngineSink[i]=QUERY_OBJECT_INTERFACE(m_DataBaseEngineSink[i],IUnknownEx);

  0017e	33 c0		 xor	 eax, eax
  00180	66 89 45 d8	 mov	 WORD PTR _i$2[ebp], ax
  00184	eb 0c		 jmp	 SHORT $LN4@Initialize
$LN2@Initialize:
  00186	66 8b 45 d8	 mov	 ax, WORD PTR _i$2[ebp]
  0018a	66 83 c0 01	 add	 ax, 1
  0018e	66 89 45 d8	 mov	 WORD PTR _i$2[ebp], ax
$LN4@Initialize:
  00192	0f b7 45 d8	 movzx	 eax, WORD PTR _i$2[ebp]
  00196	83 f8 04	 cmp	 eax, 4
  00199	73 43		 jae	 SHORT $LN3@Initialize
  0019b	68 00 01 01 06	 push	 100729088		; 06010100H
  001a0	68 00 00 00 00	 push	 OFFSET ?IID_IUnknownEx@@3U_GUID@@B
  001a5	0f b7 45 d8	 movzx	 eax, WORD PTR _i$2[ebp]
  001a9	69 c8 ac 05 00
	00		 imul	 ecx, eax, 1452
  001af	0f b7 55 d8	 movzx	 edx, WORD PTR _i$2[ebp]
  001b3	69 c2 ac 05 00
	00		 imul	 eax, edx, 1452
  001b9	8b 55 f8	 mov	 edx, DWORD PTR _this$[ebp]
  001bc	8d 84 02 50 b5
	01 00		 lea	 eax, DWORD PTR [edx+eax+111952]
  001c3	8b 55 f8	 mov	 edx, DWORD PTR _this$[ebp]
  001c6	8b 94 0a 50 b5
	01 00		 mov	 edx, DWORD PTR [edx+ecx+111952]
  001cd	8b c8		 mov	 ecx, eax
  001cf	8b 42 04	 mov	 eax, DWORD PTR [edx+4]
  001d2	ff d0		 call	 eax
  001d4	0f b7 4d d8	 movzx	 ecx, WORD PTR _i$2[ebp]
  001d8	89 44 8d dc	 mov	 DWORD PTR _pIDataBaseEngineSink$[ebp+ecx*4], eax
  001dc	eb a8		 jmp	 SHORT $LN2@Initialize
$LN3@Initialize:

; 142  : 
; 143  : 	//内核组件
; 144  : 	if (m_TimerEngine->SetTimerEngineEvent(pIAttemperEngine)==false) return false;

  001de	8b 4d f8	 mov	 ecx, DWORD PTR _this$[ebp]
  001e1	81 c1 00 cc 01
	00		 add	 ecx, 117760		; 0001cc00H
  001e7	e8 00 00 00 00	 call	 ??C?$CTempldateHelper@UITimerEngine@@@@QBEPAUITimerEngine@@XZ ; CTempldateHelper<ITimerEngine>::operator->
  001ec	89 45 88	 mov	 DWORD PTR tv266[ebp], eax
  001ef	8b 45 f4	 mov	 eax, DWORD PTR _pIAttemperEngine$[ebp]
  001f2	50		 push	 eax
  001f3	8b 4d 88	 mov	 ecx, DWORD PTR tv266[ebp]
  001f6	8b 11		 mov	 edx, DWORD PTR [ecx]
  001f8	8b 4d 88	 mov	 ecx, DWORD PTR tv266[ebp]
  001fb	8b 42 14	 mov	 eax, DWORD PTR [edx+20]
  001fe	ff d0		 call	 eax
  00200	0f b6 c8	 movzx	 ecx, al
  00203	85 c9		 test	 ecx, ecx
  00205	75 07		 jne	 SHORT $LN14@Initialize
  00207	32 c0		 xor	 al, al
  00209	e9 c8 02 00 00	 jmp	 $LN1@Initialize
$LN14@Initialize:

; 145  : 	if (m_AttemperEngine->SetNetworkEngine(pITCPNetworkEngine)==false) return false;

  0020e	8b 4d f8	 mov	 ecx, DWORD PTR _this$[ebp]
  00211	81 c1 d8 cd 01
	00		 add	 ecx, 118232		; 0001cdd8H
  00217	e8 00 00 00 00	 call	 ??C?$CTempldateHelper@UIAttemperEngine@@@@QBEPAUIAttemperEngine@@XZ ; CTempldateHelper<IAttemperEngine>::operator->
  0021c	89 45 88	 mov	 DWORD PTR tv281[ebp], eax
  0021f	8b 45 f0	 mov	 eax, DWORD PTR _pITCPNetworkEngine$[ebp]
  00222	50		 push	 eax
  00223	8b 4d 88	 mov	 ecx, DWORD PTR tv281[ebp]
  00226	8b 11		 mov	 edx, DWORD PTR [ecx]
  00228	8b 4d 88	 mov	 ecx, DWORD PTR tv281[ebp]
  0022b	8b 42 10	 mov	 eax, DWORD PTR [edx+16]
  0022e	ff d0		 call	 eax
  00230	0f b6 c8	 movzx	 ecx, al
  00233	85 c9		 test	 ecx, ecx
  00235	75 07		 jne	 SHORT $LN15@Initialize
  00237	32 c0		 xor	 al, al
  00239	e9 98 02 00 00	 jmp	 $LN1@Initialize
$LN15@Initialize:

; 146  : 	if (m_AttemperEngine->SetAttemperEngineSink(pIAttemperEngineSink)==false) return false;

  0023e	8b 4d f8	 mov	 ecx, DWORD PTR _this$[ebp]
  00241	81 c1 d8 cd 01
	00		 add	 ecx, 118232		; 0001cdd8H
  00247	e8 00 00 00 00	 call	 ??C?$CTempldateHelper@UIAttemperEngine@@@@QBEPAUIAttemperEngine@@XZ ; CTempldateHelper<IAttemperEngine>::operator->
  0024c	89 45 88	 mov	 DWORD PTR tv296[ebp], eax
  0024f	8b 45 ec	 mov	 eax, DWORD PTR _pIAttemperEngineSink$[ebp]
  00252	50		 push	 eax
  00253	8b 4d 88	 mov	 ecx, DWORD PTR tv296[ebp]
  00256	8b 11		 mov	 edx, DWORD PTR [ecx]
  00258	8b 4d 88	 mov	 ecx, DWORD PTR tv296[ebp]
  0025b	8b 42 14	 mov	 eax, DWORD PTR [edx+20]
  0025e	ff d0		 call	 eax
  00260	0f b6 c8	 movzx	 ecx, al
  00263	85 c9		 test	 ecx, ecx
  00265	75 07		 jne	 SHORT $LN16@Initialize
  00267	32 c0		 xor	 al, al
  00269	e9 68 02 00 00	 jmp	 $LN1@Initialize
$LN16@Initialize:

; 147  : 	if (m_TCPNetworkEngine->SetTCPNetworkEngineEvent(pIAttemperEngine)==false) return false;

  0026e	8b 4d f8	 mov	 ecx, DWORD PTR _this$[ebp]
  00271	81 c1 88 d1 01
	00		 add	 ecx, 119176		; 0001d188H
  00277	e8 00 00 00 00	 call	 ??C?$CTempldateHelper@UITCPNetworkEngine@@@@QBEPAUITCPNetworkEngine@@XZ ; CTempldateHelper<ITCPNetworkEngine>::operator->
  0027c	89 45 88	 mov	 DWORD PTR tv311[ebp], eax
  0027f	8b 45 f4	 mov	 eax, DWORD PTR _pIAttemperEngine$[ebp]
  00282	50		 push	 eax
  00283	8b 4d 88	 mov	 ecx, DWORD PTR tv311[ebp]
  00286	8b 11		 mov	 edx, DWORD PTR [ecx]
  00288	8b 4d 88	 mov	 ecx, DWORD PTR tv311[ebp]
  0028b	8b 42 18	 mov	 eax, DWORD PTR [edx+24]
  0028e	ff d0		 call	 eax
  00290	0f b6 c8	 movzx	 ecx, al
  00293	85 c9		 test	 ecx, ecx
  00295	75 07		 jne	 SHORT $LN17@Initialize
  00297	32 c0		 xor	 al, al
  00299	e9 38 02 00 00	 jmp	 $LN1@Initialize
$LN17@Initialize:

; 148  : 	if (m_DataBaseEngine->SetDataBaseEngineSink(pIDataBaseEngineSink,CountArray(pIDataBaseEngineSink))==false) return false;

  0029e	8b 4d f8	 mov	 ecx, DWORD PTR _this$[ebp]
  002a1	81 c1 b0 cf 01
	00		 add	 ecx, 118704		; 0001cfb0H
  002a7	e8 00 00 00 00	 call	 ??C?$CTempldateHelper@UIDataBaseEngine@@@@QBEPAUIDataBaseEngine@@XZ ; CTempldateHelper<IDataBaseEngine>::operator->
  002ac	89 45 88	 mov	 DWORD PTR tv326[ebp], eax
  002af	6a 04		 push	 4
  002b1	8d 45 dc	 lea	 eax, DWORD PTR _pIDataBaseEngineSink$[ebp]
  002b4	50		 push	 eax
  002b5	8b 4d 88	 mov	 ecx, DWORD PTR tv326[ebp]
  002b8	8b 11		 mov	 edx, DWORD PTR [ecx]
  002ba	8b 4d 88	 mov	 ecx, DWORD PTR tv326[ebp]
  002bd	8b 42 14	 mov	 eax, DWORD PTR [edx+20]
  002c0	ff d0		 call	 eax
  002c2	0f b6 c8	 movzx	 ecx, al
  002c5	85 c9		 test	 ecx, ecx
  002c7	75 07		 jne	 SHORT $LN18@Initialize
  002c9	32 c0		 xor	 al, al
  002cb	e9 06 02 00 00	 jmp	 $LN1@Initialize
$LN18@Initialize:

; 149  : 	
; 150  : 	//协调服务
; 151  : 	if (m_TCPSocketService->SetServiceID(NETWORK_CORRESPOND)==false) return false;

  002d0	8b 4d f8	 mov	 ecx, DWORD PTR _this$[ebp]
  002d3	81 c1 60 d3 01
	00		 add	 ecx, 119648		; 0001d360H
  002d9	e8 00 00 00 00	 call	 ??C?$CTempldateHelper@UITCPSocketService@@@@QBEPAUITCPSocketService@@XZ ; CTempldateHelper<ITCPSocketService>::operator->
  002de	89 45 88	 mov	 DWORD PTR tv342[ebp], eax
  002e1	6a 01		 push	 1
  002e3	8b 45 88	 mov	 eax, DWORD PTR tv342[ebp]
  002e6	8b 10		 mov	 edx, DWORD PTR [eax]
  002e8	8b 4d 88	 mov	 ecx, DWORD PTR tv342[ebp]
  002eb	8b 42 10	 mov	 eax, DWORD PTR [edx+16]
  002ee	ff d0		 call	 eax
  002f0	0f b6 c8	 movzx	 ecx, al
  002f3	85 c9		 test	 ecx, ecx
  002f5	75 07		 jne	 SHORT $LN19@Initialize
  002f7	32 c0		 xor	 al, al
  002f9	e9 d8 01 00 00	 jmp	 $LN1@Initialize
$LN19@Initialize:

; 152  : 	if (m_TCPSocketService->SetTCPSocketEvent(pIAttemperEngine)==false) return false;

  002fe	8b 4d f8	 mov	 ecx, DWORD PTR _this$[ebp]
  00301	81 c1 60 d3 01
	00		 add	 ecx, 119648		; 0001d360H
  00307	e8 00 00 00 00	 call	 ??C?$CTempldateHelper@UITCPSocketService@@@@QBEPAUITCPSocketService@@XZ ; CTempldateHelper<ITCPSocketService>::operator->
  0030c	89 45 88	 mov	 DWORD PTR tv357[ebp], eax
  0030f	8b 45 f4	 mov	 eax, DWORD PTR _pIAttemperEngine$[ebp]
  00312	50		 push	 eax
  00313	8b 4d 88	 mov	 ecx, DWORD PTR tv357[ebp]
  00316	8b 11		 mov	 edx, DWORD PTR [ecx]
  00318	8b 4d 88	 mov	 ecx, DWORD PTR tv357[ebp]
  0031b	8b 42 14	 mov	 eax, DWORD PTR [edx+20]
  0031e	ff d0		 call	 eax
  00320	0f b6 c8	 movzx	 ecx, al
  00323	85 c9		 test	 ecx, ecx
  00325	75 07		 jne	 SHORT $LN20@Initialize
  00327	32 c0		 xor	 al, al
  00329	e9 a8 01 00 00	 jmp	 $LN1@Initialize
$LN20@Initialize:

; 153  : 
; 154  : 	//约战服务
; 155  : 	if (m_PsrnlRmTCPSocketService->SetServiceID(NETWORK_PERSONAL_ROOM_CORRESPOND)==false) return false;

  0032e	8b 4d f8	 mov	 ecx, DWORD PTR _this$[ebp]
  00331	81 c1 38 d5 01
	00		 add	 ecx, 120120		; 0001d538H
  00337	e8 00 00 00 00	 call	 ??C?$CTempldateHelper@UITCPSocketService@@@@QBEPAUITCPSocketService@@XZ ; CTempldateHelper<ITCPSocketService>::operator->
  0033c	89 45 88	 mov	 DWORD PTR tv372[ebp], eax
  0033f	6a 02		 push	 2
  00341	8b 45 88	 mov	 eax, DWORD PTR tv372[ebp]
  00344	8b 10		 mov	 edx, DWORD PTR [eax]
  00346	8b 4d 88	 mov	 ecx, DWORD PTR tv372[ebp]
  00349	8b 42 10	 mov	 eax, DWORD PTR [edx+16]
  0034c	ff d0		 call	 eax
  0034e	0f b6 c8	 movzx	 ecx, al
  00351	85 c9		 test	 ecx, ecx
  00353	75 07		 jne	 SHORT $LN21@Initialize
  00355	32 c0		 xor	 al, al
  00357	e9 7a 01 00 00	 jmp	 $LN1@Initialize
$LN21@Initialize:

; 156  : 	if (m_PsrnlRmTCPSocketService->SetTCPSocketEvent(pIAttemperEngine)==false) return false;

  0035c	8b 4d f8	 mov	 ecx, DWORD PTR _this$[ebp]
  0035f	81 c1 38 d5 01
	00		 add	 ecx, 120120		; 0001d538H
  00365	e8 00 00 00 00	 call	 ??C?$CTempldateHelper@UITCPSocketService@@@@QBEPAUITCPSocketService@@XZ ; CTempldateHelper<ITCPSocketService>::operator->
  0036a	89 45 88	 mov	 DWORD PTR tv387[ebp], eax
  0036d	8b 45 f4	 mov	 eax, DWORD PTR _pIAttemperEngine$[ebp]
  00370	50		 push	 eax
  00371	8b 4d 88	 mov	 ecx, DWORD PTR tv387[ebp]
  00374	8b 11		 mov	 edx, DWORD PTR [ecx]
  00376	8b 4d 88	 mov	 ecx, DWORD PTR tv387[ebp]
  00379	8b 42 14	 mov	 eax, DWORD PTR [edx+20]
  0037c	ff d0		 call	 eax
  0037e	0f b6 c8	 movzx	 ecx, al
  00381	85 c9		 test	 ecx, ecx
  00383	75 07		 jne	 SHORT $LN22@Initialize
  00385	32 c0		 xor	 al, al
  00387	e9 4a 01 00 00	 jmp	 $LN1@Initialize
$LN22@Initialize:

; 157  : 	
; 158  : 	//调度回调
; 159  : 	m_AttemperEngineSink.m_pInitParameter=&m_InitParameter;

  0038c	8b 45 f8	 mov	 eax, DWORD PTR _this$[ebp]
  0038f	05 84 00 00 00	 add	 eax, 132		; 00000084H
  00394	8b 4d f8	 mov	 ecx, DWORD PTR _this$[ebp]
  00397	89 81 5c b3 01
	00		 mov	 DWORD PTR [ecx+111452], eax

; 160  : 	m_AttemperEngineSink.m_pITimerEngine=m_TimerEngine.GetInterface();

  0039d	8b 4d f8	 mov	 ecx, DWORD PTR _this$[ebp]
  003a0	81 c1 00 cc 01
	00		 add	 ecx, 117760		; 0001cc00H
  003a6	e8 00 00 00 00	 call	 ?GetInterface@?$CTempldateHelper@UITimerEngine@@@@QBEPAUITimerEngine@@XZ ; CTempldateHelper<ITimerEngine>::GetInterface
  003ab	8b 4d f8	 mov	 ecx, DWORD PTR _this$[ebp]
  003ae	89 81 30 b5 01
	00		 mov	 DWORD PTR [ecx+111920], eax

; 161  : 	m_AttemperEngineSink.m_pIDataBaseEngine=m_DataBaseEngine.GetInterface();

  003b4	8b 4d f8	 mov	 ecx, DWORD PTR _this$[ebp]
  003b7	81 c1 b0 cf 01
	00		 add	 ecx, 118704		; 0001cfb0H
  003bd	e8 00 00 00 00	 call	 ?GetInterface@?$CTempldateHelper@UIDataBaseEngine@@@@QBEPAUIDataBaseEngine@@XZ ; CTempldateHelper<IDataBaseEngine>::GetInterface
  003c2	8b 4d f8	 mov	 ecx, DWORD PTR _this$[ebp]
  003c5	89 81 34 b5 01
	00		 mov	 DWORD PTR [ecx+111924], eax

; 162  : 	m_AttemperEngineSink.m_pITCPNetworkEngine=m_TCPNetworkEngine.GetInterface();

  003cb	8b 4d f8	 mov	 ecx, DWORD PTR _this$[ebp]
  003ce	81 c1 88 d1 01
	00		 add	 ecx, 119176		; 0001d188H
  003d4	e8 00 00 00 00	 call	 ?GetInterface@?$CTempldateHelper@UITCPNetworkEngine@@@@QBEPAUITCPNetworkEngine@@XZ ; CTempldateHelper<ITCPNetworkEngine>::GetInterface
  003d9	8b 4d f8	 mov	 ecx, DWORD PTR _this$[ebp]
  003dc	89 81 38 b5 01
	00		 mov	 DWORD PTR [ecx+111928], eax

; 163  : 	m_AttemperEngineSink.m_pITCPSocketService=m_TCPSocketService.GetInterface();

  003e2	8b 4d f8	 mov	 ecx, DWORD PTR _this$[ebp]
  003e5	81 c1 60 d3 01
	00		 add	 ecx, 119648		; 0001d360H
  003eb	e8 00 00 00 00	 call	 ?GetInterface@?$CTempldateHelper@UITCPSocketService@@@@QBEPAUITCPSocketService@@XZ ; CTempldateHelper<ITCPSocketService>::GetInterface
  003f0	8b 4d f8	 mov	 ecx, DWORD PTR _this$[ebp]
  003f3	89 81 3c b5 01
	00		 mov	 DWORD PTR [ecx+111932], eax

; 164  : 	m_AttemperEngineSink.m_pPrsnlRmITCPSocketService = m_PsrnlRmTCPSocketService.GetInterface();

  003f9	8b 4d f8	 mov	 ecx, DWORD PTR _this$[ebp]
  003fc	81 c1 38 d5 01
	00		 add	 ecx, 120120		; 0001d538H
  00402	e8 00 00 00 00	 call	 ?GetInterface@?$CTempldateHelper@UITCPSocketService@@@@QBEPAUITCPSocketService@@XZ ; CTempldateHelper<ITCPSocketService>::GetInterface
  00407	8b 4d f8	 mov	 ecx, DWORD PTR _this$[ebp]
  0040a	89 81 40 b5 01
	00		 mov	 DWORD PTR [ecx+111936], eax

; 165  : 	
; 166  : 	//数据库回调
; 167  : 	for (INT i=0;i<CountArray(m_DataBaseEngineSink);i++)

  00410	c7 45 d4 00 00
	00 00		 mov	 DWORD PTR _i$1[ebp], 0
  00417	eb 09		 jmp	 SHORT $LN7@Initialize
$LN5@Initialize:
  00419	8b 45 d4	 mov	 eax, DWORD PTR _i$1[ebp]
  0041c	83 c0 01	 add	 eax, 1
  0041f	89 45 d4	 mov	 DWORD PTR _i$1[ebp], eax
$LN7@Initialize:
  00422	83 7d d4 04	 cmp	 DWORD PTR _i$1[ebp], 4
  00426	73 58		 jae	 SHORT $LN6@Initialize

; 168  : 	{
; 169  : 		m_DataBaseEngineSink[i].m_pInitParameter=&m_InitParameter;

  00428	8b 45 f8	 mov	 eax, DWORD PTR _this$[ebp]
  0042b	05 84 00 00 00	 add	 eax, 132		; 00000084H
  00430	69 4d d4 ac 05
	00 00		 imul	 ecx, DWORD PTR _i$1[ebp], 1452
  00437	8b 55 f8	 mov	 edx, DWORD PTR _this$[ebp]
  0043a	89 84 0a f4 ba
	01 00		 mov	 DWORD PTR [edx+ecx+113396], eax

; 170  : 		m_DataBaseEngineSink[i].m_pIDataBaseEngineEvent=QUERY_OBJECT_PTR_INTERFACE(pIAttemperEngine,IDataBaseEngineEvent);

  00441	83 7d f4 00	 cmp	 DWORD PTR _pIAttemperEngine$[ebp], 0
  00445	75 09		 jne	 SHORT $LN25@Initialize
  00447	c7 45 88 00 00
	00 00		 mov	 DWORD PTR tv460[ebp], 0
  0044e	eb 1a		 jmp	 SHORT $LN26@Initialize
$LN25@Initialize:
  00450	68 00 01 01 06	 push	 100729088		; 06010100H
  00455	68 00 00 00 00	 push	 OFFSET ?IID_IDataBaseEngineEvent@@3U_GUID@@B
  0045a	8b 45 f4	 mov	 eax, DWORD PTR _pIAttemperEngine$[ebp]
  0045d	8b 10		 mov	 edx, DWORD PTR [eax]
  0045f	8b 4d f4	 mov	 ecx, DWORD PTR _pIAttemperEngine$[ebp]
  00462	8b 42 04	 mov	 eax, DWORD PTR [edx+4]
  00465	ff d0		 call	 eax
  00467	89 45 88	 mov	 DWORD PTR tv460[ebp], eax
$LN26@Initialize:
  0046a	69 4d d4 ac 05
	00 00		 imul	 ecx, DWORD PTR _i$1[ebp], 1452
  00471	8b 55 f8	 mov	 edx, DWORD PTR _this$[ebp]
  00474	8b 45 88	 mov	 eax, DWORD PTR tv460[ebp]
  00477	89 84 0a f8 ba
	01 00		 mov	 DWORD PTR [edx+ecx+113400], eax

; 171  : 	}

  0047e	eb 99		 jmp	 SHORT $LN5@Initialize
$LN6@Initialize:

; 172  : 
; 173  : 	//配置网络
; 174  : 	WORD wMaxConnect=m_InitParameter.m_wMaxConnect;

  00480	8b 45 f8	 mov	 eax, DWORD PTR _this$[ebp]
  00483	66 8b 88 8a 00
	00 00		 mov	 cx, WORD PTR [eax+138]
  0048a	66 89 4d d0	 mov	 WORD PTR _wMaxConnect$[ebp], cx

; 175  : 	WORD wServicePort=m_InitParameter.m_wServicePort;

  0048e	8b 45 f8	 mov	 eax, DWORD PTR _this$[ebp]
  00491	66 8b 88 8c 00
	00 00		 mov	 cx, WORD PTR [eax+140]
  00498	66 89 4d cc	 mov	 WORD PTR _wServicePort$[ebp], cx

; 176  : 	if (m_TCPNetworkEngine->SetServiceParameter(wServicePort,wMaxConnect,szCompilation)==false) return false;

  0049c	8b 4d f8	 mov	 ecx, DWORD PTR _this$[ebp]
  0049f	81 c1 88 d1 01
	00		 add	 ecx, 119176		; 0001d188H
  004a5	e8 00 00 00 00	 call	 ??C?$CTempldateHelper@UITCPNetworkEngine@@@@QBEPAUITCPNetworkEngine@@XZ ; CTempldateHelper<ITCPNetworkEngine>::operator->
  004aa	89 45 88	 mov	 DWORD PTR tv473[ebp], eax
  004ad	68 00 00 00 00	 push	 OFFSET ?szCompilation@@3QBDB
  004b2	0f b7 45 d0	 movzx	 eax, WORD PTR _wMaxConnect$[ebp]
  004b6	50		 push	 eax
  004b7	0f b7 4d cc	 movzx	 ecx, WORD PTR _wServicePort$[ebp]
  004bb	51		 push	 ecx
  004bc	8b 55 88	 mov	 edx, DWORD PTR tv473[ebp]
  004bf	8b 02		 mov	 eax, DWORD PTR [edx]
  004c1	8b 4d 88	 mov	 ecx, DWORD PTR tv473[ebp]
  004c4	8b 50 1c	 mov	 edx, DWORD PTR [eax+28]
  004c7	ff d2		 call	 edx
  004c9	0f b6 c0	 movzx	 eax, al
  004cc	85 c0		 test	 eax, eax
  004ce	75 04		 jne	 SHORT $LN23@Initialize
  004d0	32 c0		 xor	 al, al
  004d2	eb 02		 jmp	 SHORT $LN1@Initialize
$LN23@Initialize:

; 177  : 	
; 178  : 	return true;

  004d4	b0 01		 mov	 al, 1
$LN1@Initialize:

; 179  : }

  004d6	5f		 pop	 edi
  004d7	5e		 pop	 esi
  004d8	5b		 pop	 ebx
  004d9	8b 4d fc	 mov	 ecx, DWORD PTR __$ArrayPad$[ebp]
  004dc	33 cd		 xor	 ecx, ebp
  004de	e8 00 00 00 00	 call	 @__security_check_cookie@4
  004e3	8b e5		 mov	 esp, ebp
  004e5	5d		 pop	 ebp
  004e6	c3		 ret	 0
?InitializeService@CServiceUnits@@IAE_NXZ ENDP		; CServiceUnits::InitializeService
_TEXT	ENDS
; Function compile flags: /Odtp /ZI
; File g:\网狐\happygamewh\服务端\系统模块\服务器组件\登录服务器\serviceunits.cpp
;	COMDAT ?PostControlRequest@CServiceUnits@@QAE_NGPAXG@Z
_TEXT	SEGMENT
$T2 = -94						; size = 1
$T3 = -93						; size = 1
_DataLocker$ = -28					; size = 12
_this$ = -16						; size = 4
__$EHRec$ = -12						; size = 12
_wIdentifier$ = 8					; size = 2
_pData$ = 12						; size = 4
_wDataSize$ = 16					; size = 2
?PostControlRequest@CServiceUnits@@QAE_NGPAXG@Z PROC	; CServiceUnits::PostControlRequest, COMDAT
; _this$ = ecx

; 105  : {

  00000	55		 push	 ebp
  00001	8b ec		 mov	 ebp, esp
  00003	6a ff		 push	 -1
  00005	68 00 00 00 00	 push	 __ehhandler$?PostControlRequest@CServiceUnits@@QAE_NGPAXG@Z
  0000a	64 a1 00 00 00
	00		 mov	 eax, DWORD PTR fs:0
  00010	50		 push	 eax
  00011	83 ec 54	 sub	 esp, 84			; 00000054H
  00014	53		 push	 ebx
  00015	56		 push	 esi
  00016	57		 push	 edi
  00017	a1 00 00 00 00	 mov	 eax, DWORD PTR ___security_cookie
  0001c	33 c5		 xor	 eax, ebp
  0001e	50		 push	 eax
  0001f	8d 45 f4	 lea	 eax, DWORD PTR __$EHRec$[ebp]
  00022	64 a3 00 00 00
	00		 mov	 DWORD PTR fs:0, eax
  00028	89 4d f0	 mov	 DWORD PTR _this$[ebp], ecx

; 106  : 	//状态判断
; 107  : 	ASSERT(IsWindow(m_hWnd));

  0002b	8b 45 f0	 mov	 eax, DWORD PTR _this$[ebp]
  0002e	8b 48 20	 mov	 ecx, DWORD PTR [eax+32]
  00031	51		 push	 ecx
  00032	ff 15 00 00 00
	00		 call	 DWORD PTR __imp__IsWindow@4
  00038	85 c0		 test	 eax, eax
  0003a	75 19		 jne	 SHORT $LN5@PostContro
  0003c	8b 15 00 00 00
	00		 mov	 edx, DWORD PTR ?__LINE__Var@?0??PostControlRequest@CServiceUnits@@QAE_NGPAXG@Z@4JA
  00042	83 c2 02	 add	 edx, 2
  00045	52		 push	 edx
  00046	68 00 00 00 00	 push	 OFFSET ??_C@_0EL@PANCMGMG@g?3?2?M?x?$LK?$PM?2happygamewh?2?$LH?$PO?N?q?$LG?K?2?O?$LF?M?$LD@
  0004b	e8 00 00 00 00	 call	 ?AfxAssertFailedLine@@YGHPBDH@Z ; AfxAssertFailedLine
  00050	85 c0		 test	 eax, eax
  00052	74 01		 je	 SHORT $LN5@PostContro
  00054	cc		 int	 3
$LN5@PostContro:

; 108  : 	if (IsWindow(m_hWnd)==FALSE) return false;

  00055	8b 45 f0	 mov	 eax, DWORD PTR _this$[ebp]
  00058	8b 48 20	 mov	 ecx, DWORD PTR [eax+32]
  0005b	51		 push	 ecx
  0005c	ff 15 00 00 00
	00		 call	 DWORD PTR __imp__IsWindow@4
  00062	85 c0		 test	 eax, eax
  00064	75 07		 jne	 SHORT $LN2@PostContro
  00066	32 c0		 xor	 al, al
  00068	e9 86 00 00 00	 jmp	 $LN1@PostContro
$LN2@PostContro:

; 109  : 
; 110  : 	//插入队列
; 111  : 	CWHDataLocker DataLocker(m_CriticalSection);

  0006d	6a 01		 push	 1
  0006f	8b 45 f0	 mov	 eax, DWORD PTR _this$[ebp]
  00072	05 c4 02 00 00	 add	 eax, 708		; 000002c4H
  00077	50		 push	 eax
  00078	8d 4d e4	 lea	 ecx, DWORD PTR _DataLocker$[ebp]
  0007b	ff 15 00 00 00
	00		 call	 DWORD PTR __imp_??0CWHDataLocker@@QAE@AAVCCriticalSection@@_N@Z
  00081	c7 45 fc 00 00
	00 00		 mov	 DWORD PTR __$EHRec$[ebp+8], 0

; 112  : 	if (m_DataQueue.InsertData(wIdentifier,pData,wDataSize)==false) return false;

  00088	0f b7 45 10	 movzx	 eax, WORD PTR _wDataSize$[ebp]
  0008c	50		 push	 eax
  0008d	8b 4d 0c	 mov	 ecx, DWORD PTR _pData$[ebp]
  00090	51		 push	 ecx
  00091	0f b7 55 08	 movzx	 edx, WORD PTR _wIdentifier$[ebp]
  00095	52		 push	 edx
  00096	8b 4d f0	 mov	 ecx, DWORD PTR _this$[ebp]
  00099	81 c1 a4 02 00
	00		 add	 ecx, 676		; 000002a4H
  0009f	ff 15 00 00 00
	00		 call	 DWORD PTR __imp_?InsertData@CWHDataQueue@@QAE_NGPAXG@Z
  000a5	0f b6 c0	 movzx	 eax, al
  000a8	85 c0		 test	 eax, eax
  000aa	75 19		 jne	 SHORT $LN3@PostContro
  000ac	c6 45 a3 00	 mov	 BYTE PTR $T3[ebp], 0
  000b0	c7 45 fc ff ff
	ff ff		 mov	 DWORD PTR __$EHRec$[ebp+8], -1
  000b7	8d 4d e4	 lea	 ecx, DWORD PTR _DataLocker$[ebp]
  000ba	ff 15 00 00 00
	00		 call	 DWORD PTR __imp_??1CWHDataLocker@@UAE@XZ
  000c0	8a 45 a3	 mov	 al, BYTE PTR $T3[ebp]
  000c3	eb 2e		 jmp	 SHORT $LN1@PostContro
$LN3@PostContro:

; 113  : 
; 114  : 	//发送消息
; 115  : 	PostMessage(WM_UICONTROL_REQUEST,wIdentifier,wDataSize);

  000c5	0f b7 45 10	 movzx	 eax, WORD PTR _wDataSize$[ebp]
  000c9	50		 push	 eax
  000ca	0f b7 4d 08	 movzx	 ecx, WORD PTR _wIdentifier$[ebp]
  000ce	51		 push	 ecx
  000cf	68 64 04 00 00	 push	 1124			; 00000464H
  000d4	8b 4d f0	 mov	 ecx, DWORD PTR _this$[ebp]
  000d7	e8 00 00 00 00	 call	 ?PostMessageA@CWnd@@QAEHIIJ@Z ; CWnd::PostMessageA

; 116  : 
; 117  : 	return true;

  000dc	c6 45 a2 01	 mov	 BYTE PTR $T2[ebp], 1
  000e0	c7 45 fc ff ff
	ff ff		 mov	 DWORD PTR __$EHRec$[ebp+8], -1
  000e7	8d 4d e4	 lea	 ecx, DWORD PTR _DataLocker$[ebp]
  000ea	ff 15 00 00 00
	00		 call	 DWORD PTR __imp_??1CWHDataLocker@@UAE@XZ
  000f0	8a 45 a2	 mov	 al, BYTE PTR $T2[ebp]
$LN1@PostContro:

; 118  : }

  000f3	8b 4d f4	 mov	 ecx, DWORD PTR __$EHRec$[ebp]
  000f6	64 89 0d 00 00
	00 00		 mov	 DWORD PTR fs:0, ecx
  000fd	59		 pop	 ecx
  000fe	5f		 pop	 edi
  000ff	5e		 pop	 esi
  00100	5b		 pop	 ebx
  00101	8b e5		 mov	 esp, ebp
  00103	5d		 pop	 ebp
  00104	c2 0c 00	 ret	 12			; 0000000cH
_TEXT	ENDS
;	COMDAT text$x
text$x	SEGMENT
__unwindfunclet$?PostControlRequest@CServiceUnits@@QAE_NGPAXG@Z$0:
  00000	8d 4d e4	 lea	 ecx, DWORD PTR _DataLocker$[ebp]
  00003	ff 25 00 00 00
	00		 jmp	 DWORD PTR __imp_??1CWHDataLocker@@UAE@XZ
__ehhandler$?PostControlRequest@CServiceUnits@@QAE_NGPAXG@Z:
  00009	8b 54 24 08	 mov	 edx, DWORD PTR [esp+8]
  0000d	8d 42 0c	 lea	 eax, DWORD PTR [edx+12]
  00010	8b 4a 9c	 mov	 ecx, DWORD PTR [edx-100]
  00013	33 c8		 xor	 ecx, eax
  00015	e8 00 00 00 00	 call	 @__security_check_cookie@4
  0001a	b8 00 00 00 00	 mov	 eax, OFFSET __ehfuncinfo$?PostControlRequest@CServiceUnits@@QAE_NGPAXG@Z
  0001f	e9 00 00 00 00	 jmp	 ___CxxFrameHandler3
text$x	ENDS
?PostControlRequest@CServiceUnits@@QAE_NGPAXG@Z ENDP	; CServiceUnits::PostControlRequest
; Function compile flags: /Odtp /ZI
; File g:\网狐\happygamewh\服务端\系统模块\服务器组件\登录服务器\serviceunits.cpp
;	COMDAT ?SetServiceUnitsSink@CServiceUnits@@QAE_NPAUIServiceUnitsSink@@@Z
_TEXT	SEGMENT
_this$ = -4						; size = 4
_pIServiceUnitsSink$ = 8				; size = 4
?SetServiceUnitsSink@CServiceUnits@@QAE_NPAUIServiceUnitsSink@@@Z PROC ; CServiceUnits::SetServiceUnitsSink, COMDAT
; _this$ = ecx

; 96   : {

  00000	55		 push	 ebp
  00001	8b ec		 mov	 ebp, esp
  00003	83 ec 44	 sub	 esp, 68			; 00000044H
  00006	53		 push	 ebx
  00007	56		 push	 esi
  00008	57		 push	 edi
  00009	89 4d fc	 mov	 DWORD PTR _this$[ebp], ecx

; 97   : 	//设置变量
; 98   : 	m_pIServiceUnitsSink=pIServiceUnitsSink;

  0000c	8b 45 fc	 mov	 eax, DWORD PTR _this$[ebp]
  0000f	8b 4d 08	 mov	 ecx, DWORD PTR _pIServiceUnitsSink$[ebp]
  00012	89 88 10 d7 01
	00		 mov	 DWORD PTR [eax+120592], ecx

; 99   : 
; 100  : 	return true;

  00018	b0 01		 mov	 al, 1

; 101  : }

  0001a	5f		 pop	 edi
  0001b	5e		 pop	 esi
  0001c	5b		 pop	 ebx
  0001d	8b e5		 mov	 esp, ebp
  0001f	5d		 pop	 ebp
  00020	c2 04 00	 ret	 4
?SetServiceUnitsSink@CServiceUnits@@QAE_NPAUIServiceUnitsSink@@@Z ENDP ; CServiceUnits::SetServiceUnitsSink
_TEXT	ENDS
; Function compile flags: /Odtp /ZI
; File g:\网狐\happygamewh\服务端\系统模块\服务器组件\登录服务器\serviceunits.cpp
;	COMDAT ?ConcludeService@CServiceUnits@@QAE_NXZ
_TEXT	SEGMENT
tv233 = -72						; size = 4
tv210 = -72						; size = 4
tv187 = -72						; size = 4
tv164 = -72						; size = 4
tv141 = -72						; size = 4
tv86 = -72						; size = 4
_this$ = -4						; size = 4
?ConcludeService@CServiceUnits@@QAE_NXZ PROC		; CServiceUnits::ConcludeService, COMDAT
; _this$ = ecx

; 79   : {

  00000	55		 push	 ebp
  00001	8b ec		 mov	 ebp, esp
  00003	83 ec 48	 sub	 esp, 72			; 00000048H
  00006	53		 push	 ebx
  00007	56		 push	 esi
  00008	57		 push	 edi
  00009	89 4d fc	 mov	 DWORD PTR _this$[ebp], ecx

; 80   : 	//设置变量
; 81   : 	SetServiceStatus(ServiceStatus_Stop);

  0000c	6a 00		 push	 0
  0000e	8b 4d fc	 mov	 ecx, DWORD PTR _this$[ebp]
  00011	e8 00 00 00 00	 call	 ?SetServiceStatus@CServiceUnits@@AAE_NW4enServiceStatus@@@Z ; CServiceUnits::SetServiceStatus

; 82   : 
; 83   : 	//停止服务
; 84   : 	if (m_TimerEngine.GetInterface()!=NULL) m_TimerEngine->ConcludeService();

  00016	8b 4d fc	 mov	 ecx, DWORD PTR _this$[ebp]
  00019	81 c1 00 cc 01
	00		 add	 ecx, 117760		; 0001cc00H
  0001f	e8 00 00 00 00	 call	 ?GetInterface@?$CTempldateHelper@UITimerEngine@@@@QBEPAUITimerEngine@@XZ ; CTempldateHelper<ITimerEngine>::GetInterface
  00024	85 c0		 test	 eax, eax
  00026	74 1e		 je	 SHORT $LN2@ConcludeSe
  00028	8b 4d fc	 mov	 ecx, DWORD PTR _this$[ebp]
  0002b	81 c1 00 cc 01
	00		 add	 ecx, 117760		; 0001cc00H
  00031	e8 00 00 00 00	 call	 ??C?$CTempldateHelper@UITimerEngine@@@@QBEPAUITimerEngine@@XZ ; CTempldateHelper<ITimerEngine>::operator->
  00036	89 45 b8	 mov	 DWORD PTR tv86[ebp], eax
  00039	8b 45 b8	 mov	 eax, DWORD PTR tv86[ebp]
  0003c	8b 10		 mov	 edx, DWORD PTR [eax]
  0003e	8b 4d b8	 mov	 ecx, DWORD PTR tv86[ebp]
  00041	8b 42 0c	 mov	 eax, DWORD PTR [edx+12]
  00044	ff d0		 call	 eax
$LN2@ConcludeSe:

; 85   : 	if (m_AttemperEngine.GetInterface()!=NULL) m_AttemperEngine->ConcludeService();

  00046	8b 4d fc	 mov	 ecx, DWORD PTR _this$[ebp]
  00049	81 c1 d8 cd 01
	00		 add	 ecx, 118232		; 0001cdd8H
  0004f	e8 00 00 00 00	 call	 ?GetInterface@?$CTempldateHelper@UIAttemperEngine@@@@QBEPAUIAttemperEngine@@XZ ; CTempldateHelper<IAttemperEngine>::GetInterface
  00054	85 c0		 test	 eax, eax
  00056	74 1e		 je	 SHORT $LN3@ConcludeSe
  00058	8b 4d fc	 mov	 ecx, DWORD PTR _this$[ebp]
  0005b	81 c1 d8 cd 01
	00		 add	 ecx, 118232		; 0001cdd8H
  00061	e8 00 00 00 00	 call	 ??C?$CTempldateHelper@UIAttemperEngine@@@@QBEPAUIAttemperEngine@@XZ ; CTempldateHelper<IAttemperEngine>::operator->
  00066	89 45 b8	 mov	 DWORD PTR tv141[ebp], eax
  00069	8b 45 b8	 mov	 eax, DWORD PTR tv141[ebp]
  0006c	8b 10		 mov	 edx, DWORD PTR [eax]
  0006e	8b 4d b8	 mov	 ecx, DWORD PTR tv141[ebp]
  00071	8b 42 0c	 mov	 eax, DWORD PTR [edx+12]
  00074	ff d0		 call	 eax
$LN3@ConcludeSe:

; 86   : 	if (m_DataBaseEngine.GetInterface()!=NULL) m_DataBaseEngine->ConcludeService();

  00076	8b 4d fc	 mov	 ecx, DWORD PTR _this$[ebp]
  00079	81 c1 b0 cf 01
	00		 add	 ecx, 118704		; 0001cfb0H
  0007f	e8 00 00 00 00	 call	 ?GetInterface@?$CTempldateHelper@UIDataBaseEngine@@@@QBEPAUIDataBaseEngine@@XZ ; CTempldateHelper<IDataBaseEngine>::GetInterface
  00084	85 c0		 test	 eax, eax
  00086	74 1e		 je	 SHORT $LN4@ConcludeSe
  00088	8b 4d fc	 mov	 ecx, DWORD PTR _this$[ebp]
  0008b	81 c1 b0 cf 01
	00		 add	 ecx, 118704		; 0001cfb0H
  00091	e8 00 00 00 00	 call	 ??C?$CTempldateHelper@UIDataBaseEngine@@@@QBEPAUIDataBaseEngine@@XZ ; CTempldateHelper<IDataBaseEngine>::operator->
  00096	89 45 b8	 mov	 DWORD PTR tv164[ebp], eax
  00099	8b 45 b8	 mov	 eax, DWORD PTR tv164[ebp]
  0009c	8b 10		 mov	 edx, DWORD PTR [eax]
  0009e	8b 4d b8	 mov	 ecx, DWORD PTR tv164[ebp]
  000a1	8b 42 0c	 mov	 eax, DWORD PTR [edx+12]
  000a4	ff d0		 call	 eax
$LN4@ConcludeSe:

; 87   : 	if (m_TCPNetworkEngine.GetInterface()!=NULL) m_TCPNetworkEngine->ConcludeService();

  000a6	8b 4d fc	 mov	 ecx, DWORD PTR _this$[ebp]
  000a9	81 c1 88 d1 01
	00		 add	 ecx, 119176		; 0001d188H
  000af	e8 00 00 00 00	 call	 ?GetInterface@?$CTempldateHelper@UITCPNetworkEngine@@@@QBEPAUITCPNetworkEngine@@XZ ; CTempldateHelper<ITCPNetworkEngine>::GetInterface
  000b4	85 c0		 test	 eax, eax
  000b6	74 1e		 je	 SHORT $LN5@ConcludeSe
  000b8	8b 4d fc	 mov	 ecx, DWORD PTR _this$[ebp]
  000bb	81 c1 88 d1 01
	00		 add	 ecx, 119176		; 0001d188H
  000c1	e8 00 00 00 00	 call	 ??C?$CTempldateHelper@UITCPNetworkEngine@@@@QBEPAUITCPNetworkEngine@@XZ ; CTempldateHelper<ITCPNetworkEngine>::operator->
  000c6	89 45 b8	 mov	 DWORD PTR tv187[ebp], eax
  000c9	8b 45 b8	 mov	 eax, DWORD PTR tv187[ebp]
  000cc	8b 10		 mov	 edx, DWORD PTR [eax]
  000ce	8b 4d b8	 mov	 ecx, DWORD PTR tv187[ebp]
  000d1	8b 42 0c	 mov	 eax, DWORD PTR [edx+12]
  000d4	ff d0		 call	 eax
$LN5@ConcludeSe:

; 88   : 	if (m_TCPSocketService.GetInterface()!=NULL) m_TCPSocketService->ConcludeService();

  000d6	8b 4d fc	 mov	 ecx, DWORD PTR _this$[ebp]
  000d9	81 c1 60 d3 01
	00		 add	 ecx, 119648		; 0001d360H
  000df	e8 00 00 00 00	 call	 ?GetInterface@?$CTempldateHelper@UITCPSocketService@@@@QBEPAUITCPSocketService@@XZ ; CTempldateHelper<ITCPSocketService>::GetInterface
  000e4	85 c0		 test	 eax, eax
  000e6	74 1e		 je	 SHORT $LN6@ConcludeSe
  000e8	8b 4d fc	 mov	 ecx, DWORD PTR _this$[ebp]
  000eb	81 c1 60 d3 01
	00		 add	 ecx, 119648		; 0001d360H
  000f1	e8 00 00 00 00	 call	 ??C?$CTempldateHelper@UITCPSocketService@@@@QBEPAUITCPSocketService@@XZ ; CTempldateHelper<ITCPSocketService>::operator->
  000f6	89 45 b8	 mov	 DWORD PTR tv210[ebp], eax
  000f9	8b 45 b8	 mov	 eax, DWORD PTR tv210[ebp]
  000fc	8b 10		 mov	 edx, DWORD PTR [eax]
  000fe	8b 4d b8	 mov	 ecx, DWORD PTR tv210[ebp]
  00101	8b 42 0c	 mov	 eax, DWORD PTR [edx+12]
  00104	ff d0		 call	 eax
$LN6@ConcludeSe:

; 89   : 	if (m_PsrnlRmTCPSocketService.GetInterface()!=NULL) m_PsrnlRmTCPSocketService->ConcludeService();

  00106	8b 4d fc	 mov	 ecx, DWORD PTR _this$[ebp]
  00109	81 c1 38 d5 01
	00		 add	 ecx, 120120		; 0001d538H
  0010f	e8 00 00 00 00	 call	 ?GetInterface@?$CTempldateHelper@UITCPSocketService@@@@QBEPAUITCPSocketService@@XZ ; CTempldateHelper<ITCPSocketService>::GetInterface
  00114	85 c0		 test	 eax, eax
  00116	74 1e		 je	 SHORT $LN7@ConcludeSe
  00118	8b 4d fc	 mov	 ecx, DWORD PTR _this$[ebp]
  0011b	81 c1 38 d5 01
	00		 add	 ecx, 120120		; 0001d538H
  00121	e8 00 00 00 00	 call	 ??C?$CTempldateHelper@UITCPSocketService@@@@QBEPAUITCPSocketService@@XZ ; CTempldateHelper<ITCPSocketService>::operator->
  00126	89 45 b8	 mov	 DWORD PTR tv233[ebp], eax
  00129	8b 45 b8	 mov	 eax, DWORD PTR tv233[ebp]
  0012c	8b 10		 mov	 edx, DWORD PTR [eax]
  0012e	8b 4d b8	 mov	 ecx, DWORD PTR tv233[ebp]
  00131	8b 42 0c	 mov	 eax, DWORD PTR [edx+12]
  00134	ff d0		 call	 eax
$LN7@ConcludeSe:

; 90   : 	
; 91   : 	return true;

  00136	b0 01		 mov	 al, 1

; 92   : }

  00138	5f		 pop	 edi
  00139	5e		 pop	 esi
  0013a	5b		 pop	 ebx
  0013b	8b e5		 mov	 esp, ebp
  0013d	5d		 pop	 ebp
  0013e	c3		 ret	 0
?ConcludeService@CServiceUnits@@QAE_NXZ ENDP		; CServiceUnits::ConcludeService
_TEXT	ENDS
; Function compile flags: /Odtp /ZI
; File g:\网狐\happygamewh\服务端\系统模块\服务器组件\登录服务器\serviceunits.cpp
;	COMDAT ?StartService@CServiceUnits@@QAE_NXZ
_TEXT	SEGMENT
_rcCreate$1 = -24					; size = 16
_this$ = -8						; size = 4
__$ArrayPad$ = -4					; size = 4
?StartService@CServiceUnits@@QAE_NXZ PROC		; CServiceUnits::StartService, COMDAT
; _this$ = ecx

; 42   : {

  00000	55		 push	 ebp
  00001	8b ec		 mov	 ebp, esp
  00003	83 ec 58	 sub	 esp, 88			; 00000058H
  00006	a1 00 00 00 00	 mov	 eax, DWORD PTR ___security_cookie
  0000b	33 c5		 xor	 eax, ebp
  0000d	89 45 fc	 mov	 DWORD PTR __$ArrayPad$[ebp], eax
  00010	53		 push	 ebx
  00011	56		 push	 esi
  00012	57		 push	 edi
  00013	89 4d f8	 mov	 DWORD PTR _this$[ebp], ecx

; 43   : 	//效验状态
; 44   : 	ASSERT(m_ServiceStatus==ServiceStatus_Stop);

  00016	8b 45 f8	 mov	 eax, DWORD PTR _this$[ebp]
  00019	83 b8 80 00 00
	00 00		 cmp	 DWORD PTR [eax+128], 0
  00020	74 19		 je	 SHORT $LN7@StartServi
  00022	8b 0d 00 00 00
	00		 mov	 ecx, DWORD PTR ?__LINE__Var@?0??StartService@CServiceUnits@@QAE_NXZ@4JA
  00028	83 c1 02	 add	 ecx, 2
  0002b	51		 push	 ecx
  0002c	68 00 00 00 00	 push	 OFFSET ??_C@_0EL@PANCMGMG@g?3?2?M?x?$LK?$PM?2happygamewh?2?$LH?$PO?N?q?$LG?K?2?O?$LF?M?$LD@
  00031	e8 00 00 00 00	 call	 ?AfxAssertFailedLine@@YGHPBDH@Z ; AfxAssertFailedLine
  00036	85 c0		 test	 eax, eax
  00038	74 01		 je	 SHORT $LN7@StartServi
  0003a	cc		 int	 3
$LN7@StartServi:

; 45   : 	if (m_ServiceStatus!=ServiceStatus_Stop) return false;

  0003b	8b 45 f8	 mov	 eax, DWORD PTR _this$[ebp]
  0003e	83 b8 80 00 00
	00 00		 cmp	 DWORD PTR [eax+128], 0
  00045	74 07		 je	 SHORT $LN2@StartServi
  00047	32 c0		 xor	 al, al
  00049	e9 8d 00 00 00	 jmp	 $LN1@StartServi
$LN2@StartServi:

; 46   : 
; 47   : 	//设置状态
; 48   : 	SetServiceStatus(ServiceStatus_Config);

  0004e	6a 01		 push	 1
  00050	8b 4d f8	 mov	 ecx, DWORD PTR _this$[ebp]
  00053	e8 00 00 00 00	 call	 ?SetServiceStatus@CServiceUnits@@AAE_NW4enServiceStatus@@@Z ; CServiceUnits::SetServiceStatus

; 49   : 
; 50   : 	//创建窗口
; 51   : 	if (m_hWnd==NULL)

  00058	8b 45 f8	 mov	 eax, DWORD PTR _this$[ebp]
  0005b	83 78 20 00	 cmp	 DWORD PTR [eax+32], 0
  0005f	75 34		 jne	 SHORT $LN3@StartServi

; 52   : 	{
; 53   : 		CRect rcCreate(0,0,0,0);

  00061	6a 00		 push	 0
  00063	6a 00		 push	 0
  00065	6a 00		 push	 0
  00067	6a 00		 push	 0
  00069	8d 4d e8	 lea	 ecx, DWORD PTR _rcCreate$1[ebp]
  0006c	e8 00 00 00 00	 call	 ??0CRect@@QAE@HHHH@Z	; CRect::CRect

; 54   : 		Create(NULL,NULL,WS_CHILD,rcCreate,AfxGetMainWnd(),100);

  00071	6a 00		 push	 0
  00073	6a 64		 push	 100			; 00000064H
  00075	e8 00 00 00 00	 call	 ?AfxGetMainWnd@@YGPAVCWnd@@XZ ; AfxGetMainWnd
  0007a	50		 push	 eax
  0007b	8d 45 e8	 lea	 eax, DWORD PTR _rcCreate$1[ebp]
  0007e	50		 push	 eax
  0007f	68 00 00 00 40	 push	 1073741824		; 40000000H
  00084	6a 00		 push	 0
  00086	6a 00		 push	 0
  00088	8b 4d f8	 mov	 ecx, DWORD PTR _this$[ebp]
  0008b	8b 11		 mov	 edx, DWORD PTR [ecx]
  0008d	8b 4d f8	 mov	 ecx, DWORD PTR _this$[ebp]
  00090	8b 42 5c	 mov	 eax, DWORD PTR [edx+92]
  00093	ff d0		 call	 eax
$LN3@StartServi:

; 55   : 	}
; 56   : 
; 57   : 	//配置服务
; 58   : 	if (InitializeService()==false)

  00095	8b 4d f8	 mov	 ecx, DWORD PTR _this$[ebp]
  00098	e8 00 00 00 00	 call	 ?InitializeService@CServiceUnits@@IAE_NXZ ; CServiceUnits::InitializeService
  0009d	0f b6 c0	 movzx	 eax, al
  000a0	85 c0		 test	 eax, eax
  000a2	75 0c		 jne	 SHORT $LN4@StartServi

; 59   : 	{
; 60   : 		ConcludeService();

  000a4	8b 4d f8	 mov	 ecx, DWORD PTR _this$[ebp]
  000a7	e8 00 00 00 00	 call	 ?ConcludeService@CServiceUnits@@QAE_NXZ ; CServiceUnits::ConcludeService

; 61   : 		return false;

  000ac	32 c0		 xor	 al, al
  000ae	eb 2b		 jmp	 SHORT $LN1@StartServi
$LN4@StartServi:

; 62   : 	}
; 63   : 
; 64   : 	//启动内核
; 65   : 	if (StartKernelService()==false)

  000b0	8b 4d f8	 mov	 ecx, DWORD PTR _this$[ebp]
  000b3	e8 00 00 00 00	 call	 ?StartKernelService@CServiceUnits@@IAE_NXZ ; CServiceUnits::StartKernelService
  000b8	0f b6 c0	 movzx	 eax, al
  000bb	85 c0		 test	 eax, eax
  000bd	75 0c		 jne	 SHORT $LN5@StartServi

; 66   : 	{
; 67   : 		ConcludeService();

  000bf	8b 4d f8	 mov	 ecx, DWORD PTR _this$[ebp]
  000c2	e8 00 00 00 00	 call	 ?ConcludeService@CServiceUnits@@QAE_NXZ ; CServiceUnits::ConcludeService

; 68   : 		return false;

  000c7	32 c0		 xor	 al, al
  000c9	eb 10		 jmp	 SHORT $LN1@StartServi
$LN5@StartServi:

; 69   : 	}
; 70   : 
; 71   : 	//获取列表
; 72   : 	SendControlPacket(CT_LOAD_DB_GAME_LIST,NULL,0);

  000cb	6a 00		 push	 0
  000cd	6a 00		 push	 0
  000cf	6a 65		 push	 101			; 00000065H
  000d1	8b 4d f8	 mov	 ecx, DWORD PTR _this$[ebp]
  000d4	e8 00 00 00 00	 call	 ?SendControlPacket@CServiceUnits@@AAE_NGPAXG@Z ; CServiceUnits::SendControlPacket

; 73   : 
; 74   : 	return true;

  000d9	b0 01		 mov	 al, 1
$LN1@StartServi:

; 75   : }

  000db	5f		 pop	 edi
  000dc	5e		 pop	 esi
  000dd	5b		 pop	 ebx
  000de	8b 4d fc	 mov	 ecx, DWORD PTR __$ArrayPad$[ebp]
  000e1	33 cd		 xor	 ecx, ebp
  000e3	e8 00 00 00 00	 call	 @__security_check_cookie@4
  000e8	8b e5		 mov	 esp, ebp
  000ea	5d		 pop	 ebp
  000eb	c3		 ret	 0
?StartService@CServiceUnits@@QAE_NXZ ENDP		; CServiceUnits::StartService
_TEXT	ENDS
; Function compile flags: /Odtp /ZI
; File g:\网狐\happygamewh\服务端\系统模块\服务器组件\登录服务器\serviceunits.cpp
;	COMDAT ??1CServiceUnits@@UAE@XZ
_TEXT	SEGMENT
_this$ = -16						; size = 4
__$EHRec$ = -12						; size = 12
??1CServiceUnits@@UAE@XZ PROC				; CServiceUnits::~CServiceUnits, COMDAT
; _this$ = ecx

; 36   : {

  00000	55		 push	 ebp
  00001	8b ec		 mov	 ebp, esp
  00003	6a ff		 push	 -1
  00005	68 00 00 00 00	 push	 __ehhandler$??1CServiceUnits@@UAE@XZ
  0000a	64 a1 00 00 00
	00		 mov	 eax, DWORD PTR fs:0
  00010	50		 push	 eax
  00011	83 ec 44	 sub	 esp, 68			; 00000044H
  00014	53		 push	 ebx
  00015	56		 push	 esi
  00016	57		 push	 edi
  00017	a1 00 00 00 00	 mov	 eax, DWORD PTR ___security_cookie
  0001c	33 c5		 xor	 eax, ebp
  0001e	50		 push	 eax
  0001f	8d 45 f4	 lea	 eax, DWORD PTR __$EHRec$[ebp]
  00022	64 a3 00 00 00
	00		 mov	 DWORD PTR fs:0, eax
  00028	89 4d f0	 mov	 DWORD PTR _this$[ebp], ecx
  0002b	8b 45 f0	 mov	 eax, DWORD PTR _this$[ebp]
  0002e	c7 00 00 00 00
	00		 mov	 DWORD PTR [eax], OFFSET ??_7CServiceUnits@@6B@

; 37   : 	ConcludeService();

  00034	8b 4d f0	 mov	 ecx, DWORD PTR _this$[ebp]
  00037	e8 00 00 00 00	 call	 ?ConcludeService@CServiceUnits@@QAE_NXZ ; CServiceUnits::ConcludeService

; 38   : }

  0003c	8b 4d f0	 mov	 ecx, DWORD PTR _this$[ebp]
  0003f	81 c1 38 d5 01
	00		 add	 ecx, 120120		; 0001d538H
  00045	e8 00 00 00 00	 call	 ??1CTCPSocketServiceHelper@@UAE@XZ
  0004a	8b 4d f0	 mov	 ecx, DWORD PTR _this$[ebp]
  0004d	81 c1 60 d3 01
	00		 add	 ecx, 119648		; 0001d360H
  00053	e8 00 00 00 00	 call	 ??1CTCPSocketServiceHelper@@UAE@XZ
  00058	8b 4d f0	 mov	 ecx, DWORD PTR _this$[ebp]
  0005b	81 c1 88 d1 01
	00		 add	 ecx, 119176		; 0001d188H
  00061	e8 00 00 00 00	 call	 ??1CTCPNetworkEngineHelper@@UAE@XZ
  00066	8b 4d f0	 mov	 ecx, DWORD PTR _this$[ebp]
  00069	81 c1 b0 cf 01
	00		 add	 ecx, 118704		; 0001cfb0H
  0006f	e8 00 00 00 00	 call	 ??1CDataBaseEngineHelper@@UAE@XZ
  00074	8b 4d f0	 mov	 ecx, DWORD PTR _this$[ebp]
  00077	81 c1 d8 cd 01
	00		 add	 ecx, 118232		; 0001cdd8H
  0007d	e8 00 00 00 00	 call	 ??1CAttemperEngineHelper@@UAE@XZ
  00082	8b 4d f0	 mov	 ecx, DWORD PTR _this$[ebp]
  00085	81 c1 00 cc 01
	00		 add	 ecx, 117760		; 0001cc00H
  0008b	e8 00 00 00 00	 call	 ??1CTimerEngineHelper@@UAE@XZ
  00090	68 00 00 00 00	 push	 OFFSET ??1CDataBaseEngineSink@@UAE@XZ ; CDataBaseEngineSink::~CDataBaseEngineSink
  00095	6a 04		 push	 4
  00097	68 ac 05 00 00	 push	 1452			; 000005acH
  0009c	8b 45 f0	 mov	 eax, DWORD PTR _this$[ebp]
  0009f	05 50 b5 01 00	 add	 eax, 111952		; 0001b550H
  000a4	50		 push	 eax
  000a5	e8 00 00 00 00	 call	 ??_M@YGXPAXIIP6EX0@Z@Z
  000aa	8b 4d f0	 mov	 ecx, DWORD PTR _this$[ebp]
  000ad	81 c1 e8 02 00
	00		 add	 ecx, 744		; 000002e8H
  000b3	e8 00 00 00 00	 call	 ??1CAttemperEngineSink@@UAE@XZ ; CAttemperEngineSink::~CAttemperEngineSink
  000b8	8b 4d f0	 mov	 ecx, DWORD PTR _this$[ebp]
  000bb	81 c1 c4 02 00
	00		 add	 ecx, 708		; 000002c4H
  000c1	e8 00 00 00 00	 call	 ??1CCriticalSection@@UAE@XZ ; CCriticalSection::~CCriticalSection
  000c6	8b 4d f0	 mov	 ecx, DWORD PTR _this$[ebp]
  000c9	81 c1 a4 02 00
	00		 add	 ecx, 676		; 000002a4H
  000cf	ff 15 00 00 00
	00		 call	 DWORD PTR __imp_??1CWHDataQueue@@UAE@XZ
  000d5	8b 4d f0	 mov	 ecx, DWORD PTR _this$[ebp]
  000d8	81 c1 84 00 00
	00		 add	 ecx, 132		; 00000084H
  000de	e8 00 00 00 00	 call	 ??1CInitParameter@@UAE@XZ ; CInitParameter::~CInitParameter
  000e3	8b 4d f0	 mov	 ecx, DWORD PTR _this$[ebp]
  000e6	e8 00 00 00 00	 call	 ??1CWnd@@UAE@XZ		; CWnd::~CWnd
  000eb	8b 4d f4	 mov	 ecx, DWORD PTR __$EHRec$[ebp]
  000ee	64 89 0d 00 00
	00 00		 mov	 DWORD PTR fs:0, ecx
  000f5	59		 pop	 ecx
  000f6	5f		 pop	 edi
  000f7	5e		 pop	 esi
  000f8	5b		 pop	 ebx
  000f9	8b e5		 mov	 esp, ebp
  000fb	5d		 pop	 ebp
  000fc	c3		 ret	 0
_TEXT	ENDS
;	COMDAT text$x
text$x	SEGMENT
__ehhandler$??1CServiceUnits@@UAE@XZ:
  00000	8b 54 24 08	 mov	 edx, DWORD PTR [esp+8]
  00004	8d 42 0c	 lea	 eax, DWORD PTR [edx+12]
  00007	8b 4a ac	 mov	 ecx, DWORD PTR [edx-84]
  0000a	33 c8		 xor	 ecx, eax
  0000c	e8 00 00 00 00	 call	 @__security_check_cookie@4
  00011	b8 00 00 00 00	 mov	 eax, OFFSET __ehfuncinfo$??1CServiceUnits@@UAE@XZ
  00016	e9 00 00 00 00	 jmp	 ___CxxFrameHandler3
text$x	ENDS
??1CServiceUnits@@UAE@XZ ENDP				; CServiceUnits::~CServiceUnits
; Function compile flags: /Odtp /ZI
; File g:\网狐\happygamewh\服务端\系统模块\服务器组件\登录服务器\serviceunits.cpp
;	COMDAT ??0CServiceUnits@@QAE@XZ
_TEXT	SEGMENT
_this$ = -16						; size = 4
__$EHRec$ = -12						; size = 12
??0CServiceUnits@@QAE@XZ PROC				; CServiceUnits::CServiceUnits, COMDAT
; _this$ = ecx

; 20   : {

  00000	55		 push	 ebp
  00001	8b ec		 mov	 ebp, esp
  00003	6a ff		 push	 -1
  00005	68 00 00 00 00	 push	 __ehhandler$??0CServiceUnits@@QAE@XZ
  0000a	64 a1 00 00 00
	00		 mov	 eax, DWORD PTR fs:0
  00010	50		 push	 eax
  00011	83 ec 44	 sub	 esp, 68			; 00000044H
  00014	53		 push	 ebx
  00015	56		 push	 esi
  00016	57		 push	 edi
  00017	a1 00 00 00 00	 mov	 eax, DWORD PTR ___security_cookie
  0001c	33 c5		 xor	 eax, ebp
  0001e	50		 push	 eax
  0001f	8d 45 f4	 lea	 eax, DWORD PTR __$EHRec$[ebp]
  00022	64 a3 00 00 00
	00		 mov	 DWORD PTR fs:0, eax
  00028	89 4d f0	 mov	 DWORD PTR _this$[ebp], ecx
  0002b	8b 4d f0	 mov	 ecx, DWORD PTR _this$[ebp]
  0002e	e8 00 00 00 00	 call	 ??0CWnd@@QAE@XZ		; CWnd::CWnd
  00033	c7 45 fc 00 00
	00 00		 mov	 DWORD PTR __$EHRec$[ebp+8], 0
  0003a	8b 45 f0	 mov	 eax, DWORD PTR _this$[ebp]
  0003d	c7 00 00 00 00
	00		 mov	 DWORD PTR [eax], OFFSET ??_7CServiceUnits@@6B@
  00043	8b 4d f0	 mov	 ecx, DWORD PTR _this$[ebp]
  00046	81 c1 84 00 00
	00		 add	 ecx, 132		; 00000084H
  0004c	e8 00 00 00 00	 call	 ??0CInitParameter@@QAE@XZ ; CInitParameter::CInitParameter
  00051	c6 45 fc 01	 mov	 BYTE PTR __$EHRec$[ebp+8], 1
  00055	8b 4d f0	 mov	 ecx, DWORD PTR _this$[ebp]
  00058	81 c1 a4 02 00
	00		 add	 ecx, 676		; 000002a4H
  0005e	ff 15 00 00 00
	00		 call	 DWORD PTR __imp_??0CWHDataQueue@@QAE@XZ
  00064	c6 45 fc 02	 mov	 BYTE PTR __$EHRec$[ebp+8], 2
  00068	8b 4d f0	 mov	 ecx, DWORD PTR _this$[ebp]
  0006b	81 c1 c4 02 00
	00		 add	 ecx, 708		; 000002c4H
  00071	e8 00 00 00 00	 call	 ??0CCriticalSection@@QAE@XZ ; CCriticalSection::CCriticalSection
  00076	c6 45 fc 03	 mov	 BYTE PTR __$EHRec$[ebp+8], 3
  0007a	8b 4d f0	 mov	 ecx, DWORD PTR _this$[ebp]
  0007d	81 c1 e8 02 00
	00		 add	 ecx, 744		; 000002e8H
  00083	e8 00 00 00 00	 call	 ??0CAttemperEngineSink@@QAE@XZ ; CAttemperEngineSink::CAttemperEngineSink
  00088	c6 45 fc 04	 mov	 BYTE PTR __$EHRec$[ebp+8], 4
  0008c	68 00 00 00 00	 push	 OFFSET ??1CDataBaseEngineSink@@UAE@XZ ; CDataBaseEngineSink::~CDataBaseEngineSink
  00091	68 00 00 00 00	 push	 OFFSET ??0CDataBaseEngineSink@@QAE@XZ ; CDataBaseEngineSink::CDataBaseEngineSink
  00096	6a 04		 push	 4
  00098	68 ac 05 00 00	 push	 1452			; 000005acH
  0009d	8b 45 f0	 mov	 eax, DWORD PTR _this$[ebp]
  000a0	05 50 b5 01 00	 add	 eax, 111952		; 0001b550H
  000a5	50		 push	 eax
  000a6	e8 00 00 00 00	 call	 ??_L@YGXPAXIIP6EX0@Z1@Z
  000ab	c6 45 fc 05	 mov	 BYTE PTR __$EHRec$[ebp+8], 5
  000af	8b 4d f0	 mov	 ecx, DWORD PTR _this$[ebp]
  000b2	81 c1 00 cc 01
	00		 add	 ecx, 117760		; 0001cc00H
  000b8	e8 00 00 00 00	 call	 ??0CTimerEngineHelper@@QAE@XZ ; CTimerEngineHelper::CTimerEngineHelper
  000bd	c6 45 fc 06	 mov	 BYTE PTR __$EHRec$[ebp+8], 6
  000c1	8b 4d f0	 mov	 ecx, DWORD PTR _this$[ebp]
  000c4	81 c1 d8 cd 01
	00		 add	 ecx, 118232		; 0001cdd8H
  000ca	e8 00 00 00 00	 call	 ??0CAttemperEngineHelper@@QAE@XZ ; CAttemperEngineHelper::CAttemperEngineHelper
  000cf	c6 45 fc 07	 mov	 BYTE PTR __$EHRec$[ebp+8], 7
  000d3	8b 4d f0	 mov	 ecx, DWORD PTR _this$[ebp]
  000d6	81 c1 b0 cf 01
	00		 add	 ecx, 118704		; 0001cfb0H
  000dc	e8 00 00 00 00	 call	 ??0CDataBaseEngineHelper@@QAE@XZ ; CDataBaseEngineHelper::CDataBaseEngineHelper
  000e1	c6 45 fc 08	 mov	 BYTE PTR __$EHRec$[ebp+8], 8
  000e5	8b 4d f0	 mov	 ecx, DWORD PTR _this$[ebp]
  000e8	81 c1 88 d1 01
	00		 add	 ecx, 119176		; 0001d188H
  000ee	e8 00 00 00 00	 call	 ??0CTCPNetworkEngineHelper@@QAE@XZ ; CTCPNetworkEngineHelper::CTCPNetworkEngineHelper
  000f3	c6 45 fc 09	 mov	 BYTE PTR __$EHRec$[ebp+8], 9
  000f7	8b 4d f0	 mov	 ecx, DWORD PTR _this$[ebp]
  000fa	81 c1 60 d3 01
	00		 add	 ecx, 119648		; 0001d360H
  00100	e8 00 00 00 00	 call	 ??0CTCPSocketServiceHelper@@QAE@XZ ; CTCPSocketServiceHelper::CTCPSocketServiceHelper
  00105	c6 45 fc 0a	 mov	 BYTE PTR __$EHRec$[ebp+8], 10 ; 0000000aH
  00109	8b 4d f0	 mov	 ecx, DWORD PTR _this$[ebp]
  0010c	81 c1 38 d5 01
	00		 add	 ecx, 120120		; 0001d538H
  00112	e8 00 00 00 00	 call	 ??0CTCPSocketServiceHelper@@QAE@XZ ; CTCPSocketServiceHelper::CTCPSocketServiceHelper
  00117	c6 45 fc 0b	 mov	 BYTE PTR __$EHRec$[ebp+8], 11 ; 0000000bH

; 21   : 	//设置变量
; 22   : 	m_ServiceStatus=ServiceStatus_Stop;

  0011b	8b 45 f0	 mov	 eax, DWORD PTR _this$[ebp]
  0011e	c7 80 80 00 00
	00 00 00 00 00	 mov	 DWORD PTR [eax+128], 0

; 23   : 
; 24   : 	//设置接口
; 25   : 	m_pIServiceUnitsSink=NULL;

  00128	8b 45 f0	 mov	 eax, DWORD PTR _this$[ebp]
  0012b	c7 80 10 d7 01
	00 00 00 00 00	 mov	 DWORD PTR [eax+120592], 0

; 26   : 
; 27   : 	//设置对象
; 28   : 	ASSERT(g_pServiceUnits==NULL);

  00135	83 3d 00 00 00
	00 00		 cmp	 DWORD PTR ?g_pServiceUnits@CServiceUnits@@2PAV1@A, 0 ; CServiceUnits::g_pServiceUnits
  0013c	74 18		 je	 SHORT $LN4@CServiceUn
  0013e	a1 00 00 00 00	 mov	 eax, DWORD PTR ?__LINE__Var@?0???0CServiceUnits@@QAE@XZ@4JA
  00143	83 c0 08	 add	 eax, 8
  00146	50		 push	 eax
  00147	68 00 00 00 00	 push	 OFFSET ??_C@_0EL@PANCMGMG@g?3?2?M?x?$LK?$PM?2happygamewh?2?$LH?$PO?N?q?$LG?K?2?O?$LF?M?$LD@
  0014c	e8 00 00 00 00	 call	 ?AfxAssertFailedLine@@YGHPBDH@Z ; AfxAssertFailedLine
  00151	85 c0		 test	 eax, eax
  00153	74 01		 je	 SHORT $LN4@CServiceUn
  00155	cc		 int	 3
$LN4@CServiceUn:

; 29   : 	if (g_pServiceUnits==NULL) g_pServiceUnits=this;

  00156	83 3d 00 00 00
	00 00		 cmp	 DWORD PTR ?g_pServiceUnits@CServiceUnits@@2PAV1@A, 0 ; CServiceUnits::g_pServiceUnits
  0015d	75 08		 jne	 SHORT $LN1@CServiceUn
  0015f	8b 45 f0	 mov	 eax, DWORD PTR _this$[ebp]
  00162	a3 00 00 00 00	 mov	 DWORD PTR ?g_pServiceUnits@CServiceUnits@@2PAV1@A, eax ; CServiceUnits::g_pServiceUnits
$LN1@CServiceUn:

; 30   : 
; 31   : 	return;
; 32   : }

  00167	c7 45 fc ff ff
	ff ff		 mov	 DWORD PTR __$EHRec$[ebp+8], -1
  0016e	8b 45 f0	 mov	 eax, DWORD PTR _this$[ebp]
  00171	8b 4d f4	 mov	 ecx, DWORD PTR __$EHRec$[ebp]
  00174	64 89 0d 00 00
	00 00		 mov	 DWORD PTR fs:0, ecx
  0017b	59		 pop	 ecx
  0017c	5f		 pop	 edi
  0017d	5e		 pop	 esi
  0017e	5b		 pop	 ebx
  0017f	8b e5		 mov	 esp, ebp
  00181	5d		 pop	 ebp
  00182	c3		 ret	 0
_TEXT	ENDS
;	COMDAT text$x
text$x	SEGMENT
__unwindfunclet$??0CServiceUnits@@QAE@XZ$0:
  00000	8b 4d f0	 mov	 ecx, DWORD PTR _this$[ebp]
  00003	e9 00 00 00 00	 jmp	 ??1CWnd@@UAE@XZ		; CWnd::~CWnd
__unwindfunclet$??0CServiceUnits@@QAE@XZ$1:
  00008	8b 4d f0	 mov	 ecx, DWORD PTR _this$[ebp]
  0000b	81 c1 84 00 00
	00		 add	 ecx, 132		; 00000084H
  00011	e9 00 00 00 00	 jmp	 ??1CInitParameter@@UAE@XZ ; CInitParameter::~CInitParameter
__unwindfunclet$??0CServiceUnits@@QAE@XZ$2:
  00016	8b 4d f0	 mov	 ecx, DWORD PTR _this$[ebp]
  00019	81 c1 a4 02 00
	00		 add	 ecx, 676		; 000002a4H
  0001f	ff 25 00 00 00
	00		 jmp	 DWORD PTR __imp_??1CWHDataQueue@@UAE@XZ
__unwindfunclet$??0CServiceUnits@@QAE@XZ$3:
  00025	8b 4d f0	 mov	 ecx, DWORD PTR _this$[ebp]
  00028	81 c1 c4 02 00
	00		 add	 ecx, 708		; 000002c4H
  0002e	e9 00 00 00 00	 jmp	 ??1CCriticalSection@@UAE@XZ ; CCriticalSection::~CCriticalSection
__unwindfunclet$??0CServiceUnits@@QAE@XZ$4:
  00033	8b 4d f0	 mov	 ecx, DWORD PTR _this$[ebp]
  00036	81 c1 e8 02 00
	00		 add	 ecx, 744		; 000002e8H
  0003c	e9 00 00 00 00	 jmp	 ??1CAttemperEngineSink@@UAE@XZ ; CAttemperEngineSink::~CAttemperEngineSink
__unwindfunclet$??0CServiceUnits@@QAE@XZ$5:
  00041	68 00 00 00 00	 push	 OFFSET ??1CDataBaseEngineSink@@UAE@XZ ; CDataBaseEngineSink::~CDataBaseEngineSink
  00046	6a 04		 push	 4
  00048	68 ac 05 00 00	 push	 1452			; 000005acH
  0004d	8b 45 f0	 mov	 eax, DWORD PTR _this$[ebp]
  00050	05 50 b5 01 00	 add	 eax, 111952		; 0001b550H
  00055	50		 push	 eax
  00056	e8 00 00 00 00	 call	 ??_M@YGXPAXIIP6EX0@Z@Z
  0005b	c3		 ret	 0
__unwindfunclet$??0CServiceUnits@@QAE@XZ$6:
  0005c	8b 4d f0	 mov	 ecx, DWORD PTR _this$[ebp]
  0005f	81 c1 00 cc 01
	00		 add	 ecx, 117760		; 0001cc00H
  00065	e9 00 00 00 00	 jmp	 ??1CTimerEngineHelper@@UAE@XZ
__unwindfunclet$??0CServiceUnits@@QAE@XZ$7:
  0006a	8b 4d f0	 mov	 ecx, DWORD PTR _this$[ebp]
  0006d	81 c1 d8 cd 01
	00		 add	 ecx, 118232		; 0001cdd8H
  00073	e9 00 00 00 00	 jmp	 ??1CAttemperEngineHelper@@UAE@XZ
__unwindfunclet$??0CServiceUnits@@QAE@XZ$8:
  00078	8b 4d f0	 mov	 ecx, DWORD PTR _this$[ebp]
  0007b	81 c1 b0 cf 01
	00		 add	 ecx, 118704		; 0001cfb0H
  00081	e9 00 00 00 00	 jmp	 ??1CDataBaseEngineHelper@@UAE@XZ
__unwindfunclet$??0CServiceUnits@@QAE@XZ$9:
  00086	8b 4d f0	 mov	 ecx, DWORD PTR _this$[ebp]
  00089	81 c1 88 d1 01
	00		 add	 ecx, 119176		; 0001d188H
  0008f	e9 00 00 00 00	 jmp	 ??1CTCPNetworkEngineHelper@@UAE@XZ
__unwindfunclet$??0CServiceUnits@@QAE@XZ$10:
  00094	8b 4d f0	 mov	 ecx, DWORD PTR _this$[ebp]
  00097	81 c1 60 d3 01
	00		 add	 ecx, 119648		; 0001d360H
  0009d	e9 00 00 00 00	 jmp	 ??1CTCPSocketServiceHelper@@UAE@XZ
__unwindfunclet$??0CServiceUnits@@QAE@XZ$11:
  000a2	8b 4d f0	 mov	 ecx, DWORD PTR _this$[ebp]
  000a5	81 c1 38 d5 01
	00		 add	 ecx, 120120		; 0001d538H
  000ab	e9 00 00 00 00	 jmp	 ??1CTCPSocketServiceHelper@@UAE@XZ
__ehhandler$??0CServiceUnits@@QAE@XZ:
  000b0	8b 54 24 08	 mov	 edx, DWORD PTR [esp+8]
  000b4	8d 42 0c	 lea	 eax, DWORD PTR [edx+12]
  000b7	8b 4a ac	 mov	 ecx, DWORD PTR [edx-84]
  000ba	33 c8		 xor	 ecx, eax
  000bc	e8 00 00 00 00	 call	 @__security_check_cookie@4
  000c1	b8 00 00 00 00	 mov	 eax, OFFSET __ehfuncinfo$??0CServiceUnits@@QAE@XZ
  000c6	e9 00 00 00 00	 jmp	 ___CxxFrameHandler3
text$x	ENDS
??0CServiceUnits@@QAE@XZ ENDP				; CServiceUnits::CServiceUnits
; Function compile flags: /Odtp /ZI
;	COMDAT ??_GCTCPNetworkEngineHelper@@UAEPAXI@Z
_TEXT	SEGMENT
_this$ = -4						; size = 4
___flags$ = 8						; size = 4
??_GCTCPNetworkEngineHelper@@UAEPAXI@Z PROC		; CTCPNetworkEngineHelper::`scalar deleting destructor', COMDAT
; _this$ = ecx
  00000	55		 push	 ebp
  00001	8b ec		 mov	 ebp, esp
  00003	83 ec 44	 sub	 esp, 68			; 00000044H
  00006	53		 push	 ebx
  00007	56		 push	 esi
  00008	57		 push	 edi
  00009	89 4d fc	 mov	 DWORD PTR _this$[ebp], ecx
  0000c	8b 4d fc	 mov	 ecx, DWORD PTR _this$[ebp]
  0000f	e8 00 00 00 00	 call	 ??1CTCPNetworkEngineHelper@@UAE@XZ
  00014	8b 45 08	 mov	 eax, DWORD PTR ___flags$[ebp]
  00017	83 e0 01	 and	 eax, 1
  0001a	74 11		 je	 SHORT $LN2@scalar
  0001c	68 d8 01 00 00	 push	 472			; 000001d8H
  00021	8b 45 fc	 mov	 eax, DWORD PTR _this$[ebp]
  00024	50		 push	 eax
  00025	e8 00 00 00 00	 call	 ??3@YAXPAXI@Z		; operator delete
  0002a	83 c4 08	 add	 esp, 8
$LN2@scalar:
  0002d	8b 45 fc	 mov	 eax, DWORD PTR _this$[ebp]
  00030	5f		 pop	 edi
  00031	5e		 pop	 esi
  00032	5b		 pop	 ebx
  00033	8b e5		 mov	 esp, ebp
  00035	5d		 pop	 ebp
  00036	c2 04 00	 ret	 4
??_GCTCPNetworkEngineHelper@@UAEPAXI@Z ENDP		; CTCPNetworkEngineHelper::`scalar deleting destructor'
_TEXT	ENDS
; Function compile flags: /Odtp /ZI
;	COMDAT ??1CTCPNetworkEngineHelper@@UAE@XZ
_TEXT	SEGMENT
_this$ = -4						; size = 4
??1CTCPNetworkEngineHelper@@UAE@XZ PROC			; CTCPNetworkEngineHelper::~CTCPNetworkEngineHelper, COMDAT
; _this$ = ecx
  00000	55		 push	 ebp
  00001	8b ec		 mov	 ebp, esp
  00003	83 ec 44	 sub	 esp, 68			; 00000044H
  00006	53		 push	 ebx
  00007	56		 push	 esi
  00008	57		 push	 edi
  00009	89 4d fc	 mov	 DWORD PTR _this$[ebp], ecx
  0000c	8b 4d fc	 mov	 ecx, DWORD PTR _this$[ebp]
  0000f	e8 00 00 00 00	 call	 ??1?$CTempldateHelper@UITCPNetworkEngine@@@@UAE@XZ ; CTempldateHelper<ITCPNetworkEngine>::~CTempldateHelper<ITCPNetworkEngine>
  00014	5f		 pop	 edi
  00015	5e		 pop	 esi
  00016	5b		 pop	 ebx
  00017	8b e5		 mov	 esp, ebp
  00019	5d		 pop	 ebp
  0001a	c3		 ret	 0
??1CTCPNetworkEngineHelper@@UAE@XZ ENDP			; CTCPNetworkEngineHelper::~CTCPNetworkEngineHelper
_TEXT	ENDS
; Function compile flags: /Odtp /ZI
; File g:\网狐\happygamewh\服务端\系统模块\服务器组件\内核引擎\kernelenginehead.h
;	COMDAT ??0CTCPNetworkEngineHelper@@QAE@XZ
_TEXT	SEGMENT
_this$ = -4						; size = 4
??0CTCPNetworkEngineHelper@@QAE@XZ PROC			; CTCPNetworkEngineHelper::CTCPNetworkEngineHelper, COMDAT
; _this$ = ecx

; 848  : DECLARE_MODULE_HELPER(TCPNetworkEngine, KERNEL_ENGINE_DLL_NAME, "CreateTCPNetworkEngine")

  00000	55		 push	 ebp
  00001	8b ec		 mov	 ebp, esp
  00003	83 ec 44	 sub	 esp, 68			; 00000044H
  00006	53		 push	 ebx
  00007	56		 push	 esi
  00008	57		 push	 edi
  00009	89 4d fc	 mov	 DWORD PTR _this$[ebp], ecx
  0000c	68 00 00 00 00	 push	 OFFSET ??_C@_0BH@LEGJPFFH@CreateTCPNetworkEngine@
  00011	68 00 00 00 00	 push	 OFFSET ??_C@_0BB@BEMLEOHB@KernelEngine?4dll@
  00016	68 00 01 01 06	 push	 100729088		; 06010100H
  0001b	68 00 00 00 00	 push	 OFFSET ?IID_ITCPNetworkEngine@@3U_GUID@@B
  00020	8b 4d fc	 mov	 ecx, DWORD PTR _this$[ebp]
  00023	e8 00 00 00 00	 call	 ??0?$CTempldateHelper@UITCPNetworkEngine@@@@QAE@ABU_GUID@@KPBD1@Z ; CTempldateHelper<ITCPNetworkEngine>::CTempldateHelper<ITCPNetworkEngine>
  00028	8b 45 fc	 mov	 eax, DWORD PTR _this$[ebp]
  0002b	c7 00 00 00 00
	00		 mov	 DWORD PTR [eax], OFFSET ??_7CTCPNetworkEngineHelper@@6B@
  00031	8b 45 fc	 mov	 eax, DWORD PTR _this$[ebp]
  00034	5f		 pop	 edi
  00035	5e		 pop	 esi
  00036	5b		 pop	 ebx
  00037	8b e5		 mov	 esp, ebp
  00039	5d		 pop	 ebp
  0003a	c3		 ret	 0
??0CTCPNetworkEngineHelper@@QAE@XZ ENDP			; CTCPNetworkEngineHelper::CTCPNetworkEngineHelper
_TEXT	ENDS
; Function compile flags: /Odtp /ZI
;	COMDAT ??_G?$CTempldateHelper@UITCPNetworkEngine@@@@UAEPAXI@Z
_TEXT	SEGMENT
_this$ = -4						; size = 4
___flags$ = 8						; size = 4
??_G?$CTempldateHelper@UITCPNetworkEngine@@@@UAEPAXI@Z PROC ; CTempldateHelper<ITCPNetworkEngine>::`scalar deleting destructor', COMDAT
; _this$ = ecx
  00000	55		 push	 ebp
  00001	8b ec		 mov	 ebp, esp
  00003	83 ec 44	 sub	 esp, 68			; 00000044H
  00006	53		 push	 ebx
  00007	56		 push	 esi
  00008	57		 push	 edi
  00009	89 4d fc	 mov	 DWORD PTR _this$[ebp], ecx
  0000c	8b 4d fc	 mov	 ecx, DWORD PTR _this$[ebp]
  0000f	e8 00 00 00 00	 call	 ??1?$CTempldateHelper@UITCPNetworkEngine@@@@UAE@XZ ; CTempldateHelper<ITCPNetworkEngine>::~CTempldateHelper<ITCPNetworkEngine>
  00014	8b 45 08	 mov	 eax, DWORD PTR ___flags$[ebp]
  00017	83 e0 01	 and	 eax, 1
  0001a	74 11		 je	 SHORT $LN2@scalar
  0001c	68 d8 01 00 00	 push	 472			; 000001d8H
  00021	8b 45 fc	 mov	 eax, DWORD PTR _this$[ebp]
  00024	50		 push	 eax
  00025	e8 00 00 00 00	 call	 ??3@YAXPAXI@Z		; operator delete
  0002a	83 c4 08	 add	 esp, 8
$LN2@scalar:
  0002d	8b 45 fc	 mov	 eax, DWORD PTR _this$[ebp]
  00030	5f		 pop	 edi
  00031	5e		 pop	 esi
  00032	5b		 pop	 ebx
  00033	8b e5		 mov	 esp, ebp
  00035	5d		 pop	 ebp
  00036	c2 04 00	 ret	 4
??_G?$CTempldateHelper@UITCPNetworkEngine@@@@UAEPAXI@Z ENDP ; CTempldateHelper<ITCPNetworkEngine>::`scalar deleting destructor'
_TEXT	ENDS
; Function compile flags: /Odtp /ZI
; File g:\网狐\happygamewh\服务端\系统模块\全局定义\module.h
;	COMDAT ?GetInterface@?$CTempldateHelper@UITCPNetworkEngine@@@@QBEPAUITCPNetworkEngine@@XZ
_TEXT	SEGMENT
_this$ = -4						; size = 4
?GetInterface@?$CTempldateHelper@UITCPNetworkEngine@@@@QBEPAUITCPNetworkEngine@@XZ PROC ; CTempldateHelper<ITCPNetworkEngine>::GetInterface, COMDAT
; _this$ = ecx

; 316  : { 

  00000	55		 push	 ebp
  00001	8b ec		 mov	 ebp, esp
  00003	83 ec 44	 sub	 esp, 68			; 00000044H
  00006	53		 push	 ebx
  00007	56		 push	 esi
  00008	57		 push	 edi
  00009	89 4d fc	 mov	 DWORD PTR _this$[ebp], ecx

; 317  : 	return m_pIModeluInterface; 

  0000c	8b 45 fc	 mov	 eax, DWORD PTR _this$[ebp]
  0000f	8b 80 54 01 00
	00		 mov	 eax, DWORD PTR [eax+340]

; 318  : }

  00015	5f		 pop	 edi
  00016	5e		 pop	 esi
  00017	5b		 pop	 ebx
  00018	8b e5		 mov	 esp, ebp
  0001a	5d		 pop	 ebp
  0001b	c3		 ret	 0
?GetInterface@?$CTempldateHelper@UITCPNetworkEngine@@@@QBEPAUITCPNetworkEngine@@XZ ENDP ; CTempldateHelper<ITCPNetworkEngine>::GetInterface
_TEXT	ENDS
; Function compile flags: /Odtp /ZI
; File g:\网狐\happygamewh\服务端\系统模块\全局定义\module.h
;	COMDAT ??C?$CTempldateHelper@UITCPNetworkEngine@@@@QBEPAUITCPNetworkEngine@@XZ
_TEXT	SEGMENT
_this$ = -4						; size = 4
??C?$CTempldateHelper@UITCPNetworkEngine@@@@QBEPAUITCPNetworkEngine@@XZ PROC ; CTempldateHelper<ITCPNetworkEngine>::operator->, COMDAT
; _this$ = ecx

; 309  : { 

  00000	55		 push	 ebp
  00001	8b ec		 mov	 ebp, esp
  00003	83 ec 44	 sub	 esp, 68			; 00000044H
  00006	53		 push	 ebx
  00007	56		 push	 esi
  00008	57		 push	 edi
  00009	89 4d fc	 mov	 DWORD PTR _this$[ebp], ecx

; 310  : 	return GetInterface(); 

  0000c	8b 4d fc	 mov	 ecx, DWORD PTR _this$[ebp]
  0000f	e8 00 00 00 00	 call	 ?GetInterface@?$CTempldateHelper@UITCPNetworkEngine@@@@QBEPAUITCPNetworkEngine@@XZ ; CTempldateHelper<ITCPNetworkEngine>::GetInterface

; 311  : }

  00014	5f		 pop	 edi
  00015	5e		 pop	 esi
  00016	5b		 pop	 ebx
  00017	8b e5		 mov	 esp, ebp
  00019	5d		 pop	 ebp
  0001a	c3		 ret	 0
??C?$CTempldateHelper@UITCPNetworkEngine@@@@QBEPAUITCPNetworkEngine@@XZ ENDP ; CTempldateHelper<ITCPNetworkEngine>::operator->
_TEXT	ENDS
; Function compile flags: /Odtp /ZI
; File g:\网狐\happygamewh\服务端\系统模块\全局定义\module.h
;	COMDAT ?CreateInstance@?$CTempldateHelper@UITCPNetworkEngine@@@@QAE_NXZ
_TEXT	SEGMENT
tv173 = -100						; size = 4
tv172 = -100						; size = 4
tv171 = -100						; size = 4
tv170 = -100						; size = 4
$T2 = -94						; size = 1
$T3 = -93						; size = 1
_pszError$4 = -28					; size = 4
_CreateProc$5 = -24					; size = 4
_this$ = -20						; size = 4
__$EHRec$ = -16						; size = 16
?CreateInstance@?$CTempldateHelper@UITCPNetworkEngine@@@@QAE_NXZ PROC ; CTempldateHelper<ITCPNetworkEngine>::CreateInstance, COMDAT
; _this$ = ecx

; 212  : {

  00000	55		 push	 ebp
  00001	8b ec		 mov	 ebp, esp
  00003	6a ff		 push	 -1
  00005	68 00 00 00 00	 push	 __ehhandler$?CreateInstance@?$CTempldateHelper@UITCPNetworkEngine@@@@QAE_NXZ
  0000a	64 a1 00 00 00
	00		 mov	 eax, DWORD PTR fs:0
  00010	50		 push	 eax
  00011	51		 push	 ecx
  00012	83 ec 54	 sub	 esp, 84			; 00000054H
  00015	53		 push	 ebx
  00016	56		 push	 esi
  00017	57		 push	 edi
  00018	a1 00 00 00 00	 mov	 eax, DWORD PTR ___security_cookie
  0001d	33 c5		 xor	 eax, ebp
  0001f	50		 push	 eax
  00020	8d 45 f4	 lea	 eax, DWORD PTR __$EHRec$[ebp+4]
  00023	64 a3 00 00 00
	00		 mov	 DWORD PTR fs:0, eax
  00029	89 65 f0	 mov	 DWORD PTR __$EHRec$[ebp], esp
  0002c	89 4d ec	 mov	 DWORD PTR _this$[ebp], ecx

; 213  : 	//释放组件
; 214  : 	CloseInstance();

  0002f	8b 4d ec	 mov	 ecx, DWORD PTR _this$[ebp]
  00032	e8 00 00 00 00	 call	 ?CloseInstance@?$CTempldateHelper@UITCPNetworkEngine@@@@QAE_NXZ ; CTempldateHelper<ITCPNetworkEngine>::CloseInstance

; 215  : 
; 216  : 	//创建组件
; 217  : 	try

  00037	c7 45 fc 00 00
	00 00		 mov	 DWORD PTR __$EHRec$[ebp+12], 0

; 218  : 	{
; 219  : 		//效验参数
; 220  : 		ASSERT(m_szCreateProc[0]!=0);

  0003e	b8 01 00 00 00	 mov	 eax, 1
  00043	6b c8 00	 imul	 ecx, eax, 0
  00046	8b 55 ec	 mov	 edx, DWORD PTR _this$[ebp]
  00049	0f be 44 0a 0c	 movsx	 eax, BYTE PTR [edx+ecx+12]
  0004e	85 c0		 test	 eax, eax
  00050	75 19		 jne	 SHORT $LN7@CreateInst
  00052	68 dc 00 00 00	 push	 220			; 000000dcH
  00057	68 00 00 00 00	 push	 OFFSET ??_C@_0DG@CDIFDKED@g?3?2?M?x?$LK?$PM?2happygamewh?2?$LH?$PO?N?q?$LG?K?2?O?$LF?M?$LD@
  0005c	e8 00 00 00 00	 call	 ?AfxAssertFailedLine@@YGHPBDH@Z ; AfxAssertFailedLine
  00061	89 45 9c	 mov	 DWORD PTR tv170[ebp], eax
  00064	83 7d 9c 00	 cmp	 DWORD PTR tv170[ebp], 0
  00068	74 01		 je	 SHORT $LN7@CreateInst
  0006a	cc		 int	 3
$LN7@CreateInst:

; 221  : 		ASSERT(m_szModuleDllName[0]!=0);

  0006b	b8 01 00 00 00	 mov	 eax, 1
  00070	6b c8 00	 imul	 ecx, eax, 0
  00073	8b 55 ec	 mov	 edx, DWORD PTR _this$[ebp]
  00076	0f be 44 0a 4c	 movsx	 eax, BYTE PTR [edx+ecx+76]
  0007b	85 c0		 test	 eax, eax
  0007d	75 19		 jne	 SHORT $LN8@CreateInst
  0007f	68 dd 00 00 00	 push	 221			; 000000ddH
  00084	68 00 00 00 00	 push	 OFFSET ??_C@_0DG@CDIFDKED@g?3?2?M?x?$LK?$PM?2happygamewh?2?$LH?$PO?N?q?$LG?K?2?O?$LF?M?$LD@
  00089	e8 00 00 00 00	 call	 ?AfxAssertFailedLine@@YGHPBDH@Z ; AfxAssertFailedLine
  0008e	89 45 9c	 mov	 DWORD PTR tv171[ebp], eax
  00091	83 7d 9c 00	 cmp	 DWORD PTR tv171[ebp], 0
  00095	74 01		 je	 SHORT $LN8@CreateInst
  00097	cc		 int	 3
$LN8@CreateInst:

; 222  : 
; 223  : 		//加载模块
; 224  : 		m_hDllInstance=AfxLoadLibrary(m_szModuleDllName);

  00098	8b 45 ec	 mov	 eax, DWORD PTR _this$[ebp]
  0009b	83 c0 4c	 add	 eax, 76			; 0000004cH
  0009e	50		 push	 eax
  0009f	e8 00 00 00 00	 call	 ?AfxLoadLibrary@@YGPAUHINSTANCE__@@PBD@Z ; AfxLoadLibrary
  000a4	89 45 9c	 mov	 DWORD PTR tv172[ebp], eax
  000a7	8b 4d ec	 mov	 ecx, DWORD PTR _this$[ebp]
  000aa	8b 55 9c	 mov	 edx, DWORD PTR tv172[ebp]
  000ad	89 91 50 01 00
	00		 mov	 DWORD PTR [ecx+336], edx

; 225  : 		if (m_hDllInstance==NULL) 

  000b3	8b 45 ec	 mov	 eax, DWORD PTR _this$[ebp]
  000b6	83 b8 50 01 00
	00 00		 cmp	 DWORD PTR [eax+336], 0
  000bd	75 2a		 jne	 SHORT $LN3@CreateInst

; 226  : 		{
; 227  : 			_sntprintf_s(m_szDescribe,CountArray(m_szDescribe),TEXT("“%s”模块加载失败"),m_szModuleDllName);

  000bf	8b 45 ec	 mov	 eax, DWORD PTR _this$[ebp]
  000c2	83 c0 4c	 add	 eax, 76			; 0000004cH
  000c5	50		 push	 eax
  000c6	68 00 00 00 00	 push	 OFFSET ??_C@_0BD@LMOFNGMO@?$KB?$LA?$CFs?$KB?$LB?D?$KD?$LP?i?$LM?S?T?X?J?$KH?$LA?$NM@
  000cb	68 80 00 00 00	 push	 128			; 00000080H
  000d0	8b 4d ec	 mov	 ecx, DWORD PTR _this$[ebp]
  000d3	81 c1 58 01 00
	00		 add	 ecx, 344		; 00000158H
  000d9	51		 push	 ecx
  000da	e8 00 00 00 00	 call	 ??$_snprintf_s@$0IA@@@YAHAAY0IA@DIPBDZZ ; _snprintf_s<128>
  000df	83 c4 10	 add	 esp, 16			; 00000010H

; 228  : 			return false;

  000e2	32 c0		 xor	 al, al
  000e4	e9 34 01 00 00	 jmp	 $LN1@CreateInst
$LN3@CreateInst:

; 229  : 		}
; 230  : 
; 231  : 		//寻找函数
; 232  : 		ModuleCreateProc * CreateProc=(ModuleCreateProc *)GetProcAddress(m_hDllInstance,m_szCreateProc);

  000e9	8b 45 ec	 mov	 eax, DWORD PTR _this$[ebp]
  000ec	83 c0 0c	 add	 eax, 12			; 0000000cH
  000ef	50		 push	 eax
  000f0	8b 4d ec	 mov	 ecx, DWORD PTR _this$[ebp]
  000f3	8b 91 50 01 00
	00		 mov	 edx, DWORD PTR [ecx+336]
  000f9	52		 push	 edx
  000fa	ff 15 00 00 00
	00		 call	 DWORD PTR __imp__GetProcAddress@8
  00100	89 45 e8	 mov	 DWORD PTR _CreateProc$5[ebp], eax

; 233  : 		if (CreateProc==NULL) 

  00103	83 7d e8 00	 cmp	 DWORD PTR _CreateProc$5[ebp], 0
  00107	75 31		 jne	 SHORT $LN4@CreateInst

; 234  : 		{		
; 235  : 			_sntprintf_s(m_szDescribe, CountArray(m_szDescribe), TEXT("找不到组件创建函数“%s”:%d"), m_szCreateProc, GetLastError());

  00109	ff 15 00 00 00
	00		 call	 DWORD PTR __imp__GetLastError@0
  0010f	50		 push	 eax
  00110	8b 45 ec	 mov	 eax, DWORD PTR _this$[ebp]
  00113	83 c0 0c	 add	 eax, 12			; 0000000cH
  00116	50		 push	 eax
  00117	68 00 00 00 00	 push	 OFFSET ??_C@_0BM@PEGNCJOH@?U?R?$LC?$LL?$LF?$LN?W?i?$LM?$PO?$LE?$LE?$LN?$KI?$LK?$KP?J?$PN?$KB?$LA?$CFs?$KB?$LB?3?$CFd@
  0011c	68 80 00 00 00	 push	 128			; 00000080H
  00121	8b 4d ec	 mov	 ecx, DWORD PTR _this$[ebp]
  00124	81 c1 58 01 00
	00		 add	 ecx, 344		; 00000158H
  0012a	51		 push	 ecx
  0012b	e8 00 00 00 00	 call	 ??$_snprintf_s@$0IA@@@YAHAAY0IA@DIPBDZZ ; _snprintf_s<128>
  00130	83 c4 14	 add	 esp, 20			; 00000014H

; 236  : 			return false;

  00133	32 c0		 xor	 al, al
  00135	e9 e3 00 00 00	 jmp	 $LN1@CreateInst
$LN4@CreateInst:

; 237  : 		}
; 238  : 
; 239  : 		//创建组件
; 240  : 		m_pIModeluInterface=(IModeluInterface *)CreateProc(m_Guid,m_dwVersion);

  0013a	8b 45 ec	 mov	 eax, DWORD PTR _this$[ebp]
  0013d	8b 48 08	 mov	 ecx, DWORD PTR [eax+8]
  00140	51		 push	 ecx
  00141	8b 55 ec	 mov	 edx, DWORD PTR _this$[ebp]
  00144	8b 42 04	 mov	 eax, DWORD PTR [edx+4]
  00147	50		 push	 eax
  00148	ff 55 e8	 call	 DWORD PTR _CreateProc$5[ebp]
  0014b	83 c4 08	 add	 esp, 8
  0014e	89 45 9c	 mov	 DWORD PTR tv173[ebp], eax
  00151	8b 4d ec	 mov	 ecx, DWORD PTR _this$[ebp]
  00154	8b 55 9c	 mov	 edx, DWORD PTR tv173[ebp]
  00157	89 91 54 01 00
	00		 mov	 DWORD PTR [ecx+340], edx

; 241  : 		if (m_pIModeluInterface==NULL) 

  0015d	8b 45 ec	 mov	 eax, DWORD PTR _this$[ebp]
  00160	83 b8 54 01 00
	00 00		 cmp	 DWORD PTR [eax+340], 0
  00167	75 2a		 jne	 SHORT $LN5@CreateInst

; 242  : 		{
; 243  : 			_sntprintf_s(m_szDescribe,CountArray(m_szDescribe),TEXT("调用函数“%s”生成对象失败"),m_szCreateProc);

  00169	8b 45 ec	 mov	 eax, DWORD PTR _this$[ebp]
  0016c	83 c0 0c	 add	 eax, 12			; 0000000cH
  0016f	50		 push	 eax
  00170	68 00 00 00 00	 push	 OFFSET ??_C@_0BL@PDAODLKM@?$LF?w?S?C?$LK?$KP?J?$PN?$KB?$LA?$CFs?$KB?$LB?I?z?$LD?I?$LG?T?O?s?J?$KH?$LA?$NM@
  00175	68 80 00 00 00	 push	 128			; 00000080H
  0017a	8b 4d ec	 mov	 ecx, DWORD PTR _this$[ebp]
  0017d	81 c1 58 01 00
	00		 add	 ecx, 344		; 00000158H
  00183	51		 push	 ecx
  00184	e8 00 00 00 00	 call	 ??$_snprintf_s@$0IA@@@YAHAAY0IA@DIPBDZZ ; _snprintf_s<128>
  00189	83 c4 10	 add	 esp, 16			; 00000010H

; 244  : 			return false;

  0018c	32 c0		 xor	 al, al
  0018e	e9 8a 00 00 00	 jmp	 $LN1@CreateInst
$LN5@CreateInst:

; 245  : 		}
; 246  : 	}

  00193	eb 63		 jmp	 SHORT $LN9@CreateInst
__catch$?CreateInstance@?$CTempldateHelper@UITCPNetworkEngine@@@@QAE_NXZ$0:

; 247  : 	catch (LPCTSTR pszError)
; 248  : 	{
; 249  : 		_sntprintf_s(m_szDescribe,CountArray(m_szDescribe),TEXT("由于“%s”，组件创建失败"),pszError);

  00195	8b 45 e4	 mov	 eax, DWORD PTR _pszError$4[ebp]
  00198	50		 push	 eax
  00199	68 00 00 00 00	 push	 OFFSET ??_C@_0BJ@JGPFHIJF@?S?I?S?Z?$KB?$LA?$CFs?$KB?$LB?$KD?$KM?W?i?$LM?$PO?$LE?$LE?$LN?$KI?J?$KH?$LA?$NM@
  0019e	68 80 00 00 00	 push	 128			; 00000080H
  001a3	8b 4d ec	 mov	 ecx, DWORD PTR _this$[ebp]
  001a6	81 c1 58 01 00
	00		 add	 ecx, 344		; 00000158H
  001ac	51		 push	 ecx
  001ad	e8 00 00 00 00	 call	 ??$_snprintf_s@$0IA@@@YAHAAY0IA@DIPBDZZ ; _snprintf_s<128>
  001b2	83 c4 10	 add	 esp, 16			; 00000010H

; 250  : 		return false;

  001b5	c6 45 a3 00	 mov	 BYTE PTR $T3[ebp], 0
  001b9	b8 00 00 00 00	 mov	 eax, $LN13@CreateInst
  001be	c3		 ret	 0

; 251  : 	}

  001bf	b8 00 00 00 00	 mov	 eax, $LN9@CreateInst
  001c4	c3		 ret	 0
__catch$?CreateInstance@?$CTempldateHelper@UITCPNetworkEngine@@@@QAE_NXZ$1:

; 252  : 	catch (...)	
; 253  : 	{ 
; 254  : 		_sntprintf_s(m_szDescribe,CountArray(m_szDescribe),TEXT("组件创建函数“%s”产生未知异常错误，组件创建失败"),m_szCreateProc);

  001c5	8b 45 ec	 mov	 eax, DWORD PTR _this$[ebp]
  001c8	83 c0 0c	 add	 eax, 12			; 0000000cH
  001cb	50		 push	 eax
  001cc	68 00 00 00 00	 push	 OFFSET ??_C@_0DB@JBNKENAJ@?W?i?$LM?$PO?$LE?$LE?$LN?$KI?$LK?$KP?J?$PN?$KB?$LA?$CFs?$KB?$LB?$LC?z?I?z?N?$LE?V?$KK?R?l?$LD?$KD?$LE@
  001d1	68 80 00 00 00	 push	 128			; 00000080H
  001d6	8b 4d ec	 mov	 ecx, DWORD PTR _this$[ebp]
  001d9	81 c1 58 01 00
	00		 add	 ecx, 344		; 00000158H
  001df	51		 push	 ecx
  001e0	e8 00 00 00 00	 call	 ??$_snprintf_s@$0IA@@@YAHAAY0IA@DIPBDZZ ; _snprintf_s<128>
  001e5	83 c4 10	 add	 esp, 16			; 00000010H

; 255  : 		return false;

  001e8	c6 45 a2 00	 mov	 BYTE PTR $T2[ebp], 0
  001ec	b8 00 00 00 00	 mov	 eax, $LN15@CreateInst
  001f1	c3		 ret	 0

; 256  : 	}

  001f2	b8 00 00 00 00	 mov	 eax, $LN9@CreateInst
  001f7	c3		 ret	 0
$LN9@CreateInst:
  001f8	c7 45 fc ff ff
	ff ff		 mov	 DWORD PTR __$EHRec$[ebp+12], -1
  001ff	eb 0c		 jmp	 SHORT $LN14@CreateInst
$LN15@CreateInst:
  00201	c7 45 fc ff ff
	ff ff		 mov	 DWORD PTR __$EHRec$[ebp+12], -1

; 255  : 		return false;

  00208	8a 45 a2	 mov	 al, BYTE PTR $T2[ebp]
  0020b	eb 10		 jmp	 SHORT $LN1@CreateInst
$LN14@CreateInst:
  0020d	eb 0c		 jmp	 SHORT $LN12@CreateInst
$LN13@CreateInst:
  0020f	c7 45 fc ff ff
	ff ff		 mov	 DWORD PTR __$EHRec$[ebp+12], -1

; 250  : 		return false;

  00216	8a 45 a3	 mov	 al, BYTE PTR $T3[ebp]
  00219	eb 02		 jmp	 SHORT $LN1@CreateInst
$LN12@CreateInst:

; 257  : 
; 258  : 	return true;

  0021b	b0 01		 mov	 al, 1
$LN1@CreateInst:

; 259  : }

  0021d	8b 4d f4	 mov	 ecx, DWORD PTR __$EHRec$[ebp+4]
  00220	64 89 0d 00 00
	00 00		 mov	 DWORD PTR fs:0, ecx
  00227	59		 pop	 ecx
  00228	5f		 pop	 edi
  00229	5e		 pop	 esi
  0022a	5b		 pop	 ebx
  0022b	8b e5		 mov	 esp, ebp
  0022d	5d		 pop	 ebp
  0022e	c3		 ret	 0
_TEXT	ENDS
;	COMDAT text$x
text$x	SEGMENT
__ehhandler$?CreateInstance@?$CTempldateHelper@UITCPNetworkEngine@@@@QAE_NXZ:
  00000	8b 54 24 08	 mov	 edx, DWORD PTR [esp+8]
  00004	8d 42 0c	 lea	 eax, DWORD PTR [edx+12]
  00007	8b 4a 98	 mov	 ecx, DWORD PTR [edx-104]
  0000a	33 c8		 xor	 ecx, eax
  0000c	e8 00 00 00 00	 call	 @__security_check_cookie@4
  00011	b8 00 00 00 00	 mov	 eax, OFFSET __ehfuncinfo$?CreateInstance@?$CTempldateHelper@UITCPNetworkEngine@@@@QAE_NXZ
  00016	e9 00 00 00 00	 jmp	 ___CxxFrameHandler3
text$x	ENDS
?CreateInstance@?$CTempldateHelper@UITCPNetworkEngine@@@@QAE_NXZ ENDP ; CTempldateHelper<ITCPNetworkEngine>::CreateInstance
; Function compile flags: /Odtp /ZI
; File g:\网狐\happygamewh\服务端\系统模块\全局定义\module.h
;	COMDAT ?CloseInstance@?$CTempldateHelper@UITCPNetworkEngine@@@@QAE_NXZ
_TEXT	SEGMENT
_this$ = -4						; size = 4
?CloseInstance@?$CTempldateHelper@UITCPNetworkEngine@@@@QAE_NXZ PROC ; CTempldateHelper<ITCPNetworkEngine>::CloseInstance, COMDAT
; _this$ = ecx

; 264  : {

  00000	55		 push	 ebp
  00001	8b ec		 mov	 ebp, esp
  00003	83 ec 44	 sub	 esp, 68			; 00000044H
  00006	53		 push	 ebx
  00007	56		 push	 esi
  00008	57		 push	 edi
  00009	89 4d fc	 mov	 DWORD PTR _this$[ebp], ecx

; 265  : 	//设置变量
; 266  : 	m_szDescribe[0]=0;

  0000c	b8 01 00 00 00	 mov	 eax, 1
  00011	6b c8 00	 imul	 ecx, eax, 0
  00014	8b 55 fc	 mov	 edx, DWORD PTR _this$[ebp]
  00017	c6 84 0a 58 01
	00 00 00	 mov	 BYTE PTR [edx+ecx+344], 0

; 267  : 
; 268  : 	//销毁对象
; 269  : 	if (m_pIModeluInterface!=NULL)

  0001f	8b 45 fc	 mov	 eax, DWORD PTR _this$[ebp]
  00022	83 b8 54 01 00
	00 00		 cmp	 DWORD PTR [eax+340], 0
  00029	74 25		 je	 SHORT $LN2@CloseInsta

; 270  : 	{
; 271  : 		m_pIModeluInterface->Release();

  0002b	8b 45 fc	 mov	 eax, DWORD PTR _this$[ebp]
  0002e	8b 88 54 01 00
	00		 mov	 ecx, DWORD PTR [eax+340]
  00034	8b 55 fc	 mov	 edx, DWORD PTR _this$[ebp]
  00037	8b 01		 mov	 eax, DWORD PTR [ecx]
  00039	8b 8a 54 01 00
	00		 mov	 ecx, DWORD PTR [edx+340]
  0003f	8b 10		 mov	 edx, DWORD PTR [eax]
  00041	ff d2		 call	 edx

; 272  : 		m_pIModeluInterface=NULL;

  00043	8b 45 fc	 mov	 eax, DWORD PTR _this$[ebp]
  00046	c7 80 54 01 00
	00 00 00 00 00	 mov	 DWORD PTR [eax+340], 0
$LN2@CloseInsta:

; 273  : 	}
; 274  : 
; 275  : 	//释放 DLL
; 276  : 	if (m_hDllInstance!=NULL)

  00050	8b 45 fc	 mov	 eax, DWORD PTR _this$[ebp]
  00053	83 b8 50 01 00
	00 00		 cmp	 DWORD PTR [eax+336], 0
  0005a	74 1c		 je	 SHORT $LN3@CloseInsta

; 277  : 	{
; 278  : 		AfxFreeLibrary(m_hDllInstance);

  0005c	8b 45 fc	 mov	 eax, DWORD PTR _this$[ebp]
  0005f	8b 88 50 01 00
	00		 mov	 ecx, DWORD PTR [eax+336]
  00065	51		 push	 ecx
  00066	e8 00 00 00 00	 call	 ?AfxFreeLibrary@@YGHPAUHINSTANCE__@@@Z ; AfxFreeLibrary

; 279  : 		m_hDllInstance=NULL;

  0006b	8b 45 fc	 mov	 eax, DWORD PTR _this$[ebp]
  0006e	c7 80 50 01 00
	00 00 00 00 00	 mov	 DWORD PTR [eax+336], 0
$LN3@CloseInsta:

; 280  : 	}
; 281  : 
; 282  : 	return true;

  00078	b0 01		 mov	 al, 1

; 283  : }

  0007a	5f		 pop	 edi
  0007b	5e		 pop	 esi
  0007c	5b		 pop	 ebx
  0007d	8b e5		 mov	 esp, ebp
  0007f	5d		 pop	 ebp
  00080	c3		 ret	 0
?CloseInstance@?$CTempldateHelper@UITCPNetworkEngine@@@@QAE_NXZ ENDP ; CTempldateHelper<ITCPNetworkEngine>::CloseInstance
_TEXT	ENDS
; Function compile flags: /Odtp /ZI
; File g:\网狐\happygamewh\服务端\系统模块\全局定义\module.h
;	COMDAT ??1?$CTempldateHelper@UITCPNetworkEngine@@@@UAE@XZ
_TEXT	SEGMENT
_this$ = -16						; size = 4
__$EHRec$ = -12						; size = 12
??1?$CTempldateHelper@UITCPNetworkEngine@@@@UAE@XZ PROC	; CTempldateHelper<ITCPNetworkEngine>::~CTempldateHelper<ITCPNetworkEngine>, COMDAT
; _this$ = ecx

; 205  : {

  00000	55		 push	 ebp
  00001	8b ec		 mov	 ebp, esp
  00003	6a ff		 push	 -1
  00005	68 00 00 00 00	 push	 __ehhandler$??1?$CTempldateHelper@UITCPNetworkEngine@@@@UAE@XZ
  0000a	64 a1 00 00 00
	00		 mov	 eax, DWORD PTR fs:0
  00010	50		 push	 eax
  00011	83 ec 44	 sub	 esp, 68			; 00000044H
  00014	53		 push	 ebx
  00015	56		 push	 esi
  00016	57		 push	 edi
  00017	a1 00 00 00 00	 mov	 eax, DWORD PTR ___security_cookie
  0001c	33 c5		 xor	 eax, ebp
  0001e	50		 push	 eax
  0001f	8d 45 f4	 lea	 eax, DWORD PTR __$EHRec$[ebp]
  00022	64 a3 00 00 00
	00		 mov	 DWORD PTR fs:0, eax
  00028	89 4d f0	 mov	 DWORD PTR _this$[ebp], ecx
  0002b	8b 45 f0	 mov	 eax, DWORD PTR _this$[ebp]
  0002e	c7 00 00 00 00
	00		 mov	 DWORD PTR [eax], OFFSET ??_7?$CTempldateHelper@UITCPNetworkEngine@@@@6B@

; 206  : 	CloseInstance();

  00034	8b 4d f0	 mov	 ecx, DWORD PTR _this$[ebp]
  00037	e8 00 00 00 00	 call	 ?CloseInstance@?$CTempldateHelper@UITCPNetworkEngine@@@@QAE_NXZ ; CTempldateHelper<ITCPNetworkEngine>::CloseInstance

; 207  : }

  0003c	8b 4d f4	 mov	 ecx, DWORD PTR __$EHRec$[ebp]
  0003f	64 89 0d 00 00
	00 00		 mov	 DWORD PTR fs:0, ecx
  00046	59		 pop	 ecx
  00047	5f		 pop	 edi
  00048	5e		 pop	 esi
  00049	5b		 pop	 ebx
  0004a	8b e5		 mov	 esp, ebp
  0004c	5d		 pop	 ebp
  0004d	c3		 ret	 0
_TEXT	ENDS
;	COMDAT text$x
text$x	SEGMENT
__ehhandler$??1?$CTempldateHelper@UITCPNetworkEngine@@@@UAE@XZ:
  00000	8b 54 24 08	 mov	 edx, DWORD PTR [esp+8]
  00004	8d 42 0c	 lea	 eax, DWORD PTR [edx+12]
  00007	8b 4a ac	 mov	 ecx, DWORD PTR [edx-84]
  0000a	33 c8		 xor	 ecx, eax
  0000c	e8 00 00 00 00	 call	 @__security_check_cookie@4
  00011	b8 00 00 00 00	 mov	 eax, OFFSET __ehfuncinfo$??1?$CTempldateHelper@UITCPNetworkEngine@@@@UAE@XZ
  00016	e9 00 00 00 00	 jmp	 ___CxxFrameHandler3
text$x	ENDS
??1?$CTempldateHelper@UITCPNetworkEngine@@@@UAE@XZ ENDP	; CTempldateHelper<ITCPNetworkEngine>::~CTempldateHelper<ITCPNetworkEngine>
; Function compile flags: /Odtp /ZI
; File g:\网狐\happygamewh\服务端\系统模块\全局定义\module.h
;	COMDAT ??0?$CTempldateHelper@UITCPNetworkEngine@@@@QAE@ABU_GUID@@KPBD1@Z
_TEXT	SEGMENT
_this$ = -4						; size = 4
_Guid$ = 8						; size = 4
_dwVersion$ = 12					; size = 4
_pszModuleDll$ = 16					; size = 4
_pszCreateProc$ = 20					; size = 4
??0?$CTempldateHelper@UITCPNetworkEngine@@@@QAE@ABU_GUID@@KPBD1@Z PROC ; CTempldateHelper<ITCPNetworkEngine>::CTempldateHelper<ITCPNetworkEngine>, COMDAT
; _this$ = ecx

; 187  : {

  00000	55		 push	 ebp
  00001	8b ec		 mov	 ebp, esp
  00003	83 ec 44	 sub	 esp, 68			; 00000044H
  00006	53		 push	 ebx
  00007	56		 push	 esi
  00008	57		 push	 edi
  00009	89 4d fc	 mov	 DWORD PTR _this$[ebp], ecx
  0000c	8b 45 fc	 mov	 eax, DWORD PTR _this$[ebp]
  0000f	c7 00 00 00 00
	00		 mov	 DWORD PTR [eax], OFFSET ??_7?$CTempldateHelper@UITCPNetworkEngine@@@@6B@

; 186  : CTempldateHelper<IModeluInterface>::CTempldateHelper(REFGUID Guid, DWORD dwVersion, LPCTSTR pszModuleDll, LPCSTR pszCreateProc) : m_dwVersion(dwVersion), m_Guid(Guid)

  00015	8b 45 fc	 mov	 eax, DWORD PTR _this$[ebp]
  00018	8b 4d 08	 mov	 ecx, DWORD PTR _Guid$[ebp]
  0001b	89 48 04	 mov	 DWORD PTR [eax+4], ecx
  0001e	8b 45 fc	 mov	 eax, DWORD PTR _this$[ebp]
  00021	8b 4d 0c	 mov	 ecx, DWORD PTR _dwVersion$[ebp]
  00024	89 48 08	 mov	 DWORD PTR [eax+8], ecx

; 188  : 	//辅助变量
; 189  : 	m_szDescribe[0]=0;

  00027	b8 01 00 00 00	 mov	 eax, 1
  0002c	6b c8 00	 imul	 ecx, eax, 0
  0002f	8b 55 fc	 mov	 edx, DWORD PTR _this$[ebp]
  00032	c6 84 0a 58 01
	00 00 00	 mov	 BYTE PTR [edx+ecx+344], 0

; 190  : 
; 191  : 	//内核信息
; 192  : 	m_hDllInstance=NULL;

  0003a	8b 45 fc	 mov	 eax, DWORD PTR _this$[ebp]
  0003d	c7 80 50 01 00
	00 00 00 00 00	 mov	 DWORD PTR [eax+336], 0

; 193  : 	m_pIModeluInterface=NULL;

  00047	8b 45 fc	 mov	 eax, DWORD PTR _this$[ebp]
  0004a	c7 80 54 01 00
	00 00 00 00 00	 mov	 DWORD PTR [eax+340], 0

; 194  : 
; 195  : 	//组件属性
; 196  : 	lstrcpynA(m_szCreateProc,pszCreateProc,CountArray(m_szCreateProc));

  00054	6a 40		 push	 64			; 00000040H
  00056	8b 45 14	 mov	 eax, DWORD PTR _pszCreateProc$[ebp]
  00059	50		 push	 eax
  0005a	8b 4d fc	 mov	 ecx, DWORD PTR _this$[ebp]
  0005d	83 c1 0c	 add	 ecx, 12			; 0000000cH
  00060	51		 push	 ecx
  00061	ff 15 00 00 00
	00		 call	 DWORD PTR __imp__lstrcpynA@12

; 197  : 	lstrcpyn(m_szModuleDllName,pszModuleDll,CountArray(m_szModuleDllName));

  00067	68 04 01 00 00	 push	 260			; 00000104H
  0006c	8b 45 10	 mov	 eax, DWORD PTR _pszModuleDll$[ebp]
  0006f	50		 push	 eax
  00070	8b 4d fc	 mov	 ecx, DWORD PTR _this$[ebp]
  00073	83 c1 4c	 add	 ecx, 76			; 0000004cH
  00076	51		 push	 ecx
  00077	ff 15 00 00 00
	00		 call	 DWORD PTR __imp__lstrcpynA@12

; 198  : 
; 199  : 	return;
; 200  : }

  0007d	8b 45 fc	 mov	 eax, DWORD PTR _this$[ebp]
  00080	5f		 pop	 edi
  00081	5e		 pop	 esi
  00082	5b		 pop	 ebx
  00083	8b e5		 mov	 esp, ebp
  00085	5d		 pop	 ebp
  00086	c2 10 00	 ret	 16			; 00000010H
??0?$CTempldateHelper@UITCPNetworkEngine@@@@QAE@ABU_GUID@@KPBD1@Z ENDP ; CTempldateHelper<ITCPNetworkEngine>::CTempldateHelper<ITCPNetworkEngine>
_TEXT	ENDS
; Function compile flags: /Odtp /ZI
;	COMDAT ??_GCTCPSocketServiceHelper@@UAEPAXI@Z
_TEXT	SEGMENT
_this$ = -4						; size = 4
___flags$ = 8						; size = 4
??_GCTCPSocketServiceHelper@@UAEPAXI@Z PROC		; CTCPSocketServiceHelper::`scalar deleting destructor', COMDAT
; _this$ = ecx
  00000	55		 push	 ebp
  00001	8b ec		 mov	 ebp, esp
  00003	83 ec 44	 sub	 esp, 68			; 00000044H
  00006	53		 push	 ebx
  00007	56		 push	 esi
  00008	57		 push	 edi
  00009	89 4d fc	 mov	 DWORD PTR _this$[ebp], ecx
  0000c	8b 4d fc	 mov	 ecx, DWORD PTR _this$[ebp]
  0000f	e8 00 00 00 00	 call	 ??1CTCPSocketServiceHelper@@UAE@XZ
  00014	8b 45 08	 mov	 eax, DWORD PTR ___flags$[ebp]
  00017	83 e0 01	 and	 eax, 1
  0001a	74 11		 je	 SHORT $LN2@scalar
  0001c	68 d8 01 00 00	 push	 472			; 000001d8H
  00021	8b 45 fc	 mov	 eax, DWORD PTR _this$[ebp]
  00024	50		 push	 eax
  00025	e8 00 00 00 00	 call	 ??3@YAXPAXI@Z		; operator delete
  0002a	83 c4 08	 add	 esp, 8
$LN2@scalar:
  0002d	8b 45 fc	 mov	 eax, DWORD PTR _this$[ebp]
  00030	5f		 pop	 edi
  00031	5e		 pop	 esi
  00032	5b		 pop	 ebx
  00033	8b e5		 mov	 esp, ebp
  00035	5d		 pop	 ebp
  00036	c2 04 00	 ret	 4
??_GCTCPSocketServiceHelper@@UAEPAXI@Z ENDP		; CTCPSocketServiceHelper::`scalar deleting destructor'
_TEXT	ENDS
; Function compile flags: /Odtp /ZI
;	COMDAT ??1CTCPSocketServiceHelper@@UAE@XZ
_TEXT	SEGMENT
_this$ = -4						; size = 4
??1CTCPSocketServiceHelper@@UAE@XZ PROC			; CTCPSocketServiceHelper::~CTCPSocketServiceHelper, COMDAT
; _this$ = ecx
  00000	55		 push	 ebp
  00001	8b ec		 mov	 ebp, esp
  00003	83 ec 44	 sub	 esp, 68			; 00000044H
  00006	53		 push	 ebx
  00007	56		 push	 esi
  00008	57		 push	 edi
  00009	89 4d fc	 mov	 DWORD PTR _this$[ebp], ecx
  0000c	8b 4d fc	 mov	 ecx, DWORD PTR _this$[ebp]
  0000f	e8 00 00 00 00	 call	 ??1?$CTempldateHelper@UITCPSocketService@@@@UAE@XZ ; CTempldateHelper<ITCPSocketService>::~CTempldateHelper<ITCPSocketService>
  00014	5f		 pop	 edi
  00015	5e		 pop	 esi
  00016	5b		 pop	 ebx
  00017	8b e5		 mov	 esp, ebp
  00019	5d		 pop	 ebp
  0001a	c3		 ret	 0
??1CTCPSocketServiceHelper@@UAE@XZ ENDP			; CTCPSocketServiceHelper::~CTCPSocketServiceHelper
_TEXT	ENDS
; Function compile flags: /Odtp /ZI
; File g:\网狐\happygamewh\服务端\系统模块\服务器组件\内核引擎\kernelenginehead.h
;	COMDAT ??0CTCPSocketServiceHelper@@QAE@XZ
_TEXT	SEGMENT
_this$ = -4						; size = 4
??0CTCPSocketServiceHelper@@QAE@XZ PROC			; CTCPSocketServiceHelper::CTCPSocketServiceHelper, COMDAT
; _this$ = ecx

; 846  : DECLARE_MODULE_HELPER(TCPSocketService, KERNEL_ENGINE_DLL_NAME, "CreateTCPSocketService")

  00000	55		 push	 ebp
  00001	8b ec		 mov	 ebp, esp
  00003	83 ec 44	 sub	 esp, 68			; 00000044H
  00006	53		 push	 ebx
  00007	56		 push	 esi
  00008	57		 push	 edi
  00009	89 4d fc	 mov	 DWORD PTR _this$[ebp], ecx
  0000c	68 00 00 00 00	 push	 OFFSET ??_C@_0BH@FPPDPKKP@CreateTCPSocketService@
  00011	68 00 00 00 00	 push	 OFFSET ??_C@_0BB@BEMLEOHB@KernelEngine?4dll@
  00016	68 00 01 01 06	 push	 100729088		; 06010100H
  0001b	68 00 00 00 00	 push	 OFFSET ?IID_ITCPSocketService@@3U_GUID@@B
  00020	8b 4d fc	 mov	 ecx, DWORD PTR _this$[ebp]
  00023	e8 00 00 00 00	 call	 ??0?$CTempldateHelper@UITCPSocketService@@@@QAE@ABU_GUID@@KPBD1@Z ; CTempldateHelper<ITCPSocketService>::CTempldateHelper<ITCPSocketService>
  00028	8b 45 fc	 mov	 eax, DWORD PTR _this$[ebp]
  0002b	c7 00 00 00 00
	00		 mov	 DWORD PTR [eax], OFFSET ??_7CTCPSocketServiceHelper@@6B@
  00031	8b 45 fc	 mov	 eax, DWORD PTR _this$[ebp]
  00034	5f		 pop	 edi
  00035	5e		 pop	 esi
  00036	5b		 pop	 ebx
  00037	8b e5		 mov	 esp, ebp
  00039	5d		 pop	 ebp
  0003a	c3		 ret	 0
??0CTCPSocketServiceHelper@@QAE@XZ ENDP			; CTCPSocketServiceHelper::CTCPSocketServiceHelper
_TEXT	ENDS
; Function compile flags: /Odtp /ZI
;	COMDAT ??_G?$CTempldateHelper@UITCPSocketService@@@@UAEPAXI@Z
_TEXT	SEGMENT
_this$ = -4						; size = 4
___flags$ = 8						; size = 4
??_G?$CTempldateHelper@UITCPSocketService@@@@UAEPAXI@Z PROC ; CTempldateHelper<ITCPSocketService>::`scalar deleting destructor', COMDAT
; _this$ = ecx
  00000	55		 push	 ebp
  00001	8b ec		 mov	 ebp, esp
  00003	83 ec 44	 sub	 esp, 68			; 00000044H
  00006	53		 push	 ebx
  00007	56		 push	 esi
  00008	57		 push	 edi
  00009	89 4d fc	 mov	 DWORD PTR _this$[ebp], ecx
  0000c	8b 4d fc	 mov	 ecx, DWORD PTR _this$[ebp]
  0000f	e8 00 00 00 00	 call	 ??1?$CTempldateHelper@UITCPSocketService@@@@UAE@XZ ; CTempldateHelper<ITCPSocketService>::~CTempldateHelper<ITCPSocketService>
  00014	8b 45 08	 mov	 eax, DWORD PTR ___flags$[ebp]
  00017	83 e0 01	 and	 eax, 1
  0001a	74 11		 je	 SHORT $LN2@scalar
  0001c	68 d8 01 00 00	 push	 472			; 000001d8H
  00021	8b 45 fc	 mov	 eax, DWORD PTR _this$[ebp]
  00024	50		 push	 eax
  00025	e8 00 00 00 00	 call	 ??3@YAXPAXI@Z		; operator delete
  0002a	83 c4 08	 add	 esp, 8
$LN2@scalar:
  0002d	8b 45 fc	 mov	 eax, DWORD PTR _this$[ebp]
  00030	5f		 pop	 edi
  00031	5e		 pop	 esi
  00032	5b		 pop	 ebx
  00033	8b e5		 mov	 esp, ebp
  00035	5d		 pop	 ebp
  00036	c2 04 00	 ret	 4
??_G?$CTempldateHelper@UITCPSocketService@@@@UAEPAXI@Z ENDP ; CTempldateHelper<ITCPSocketService>::`scalar deleting destructor'
_TEXT	ENDS
; Function compile flags: /Odtp /ZI
; File g:\网狐\happygamewh\服务端\系统模块\全局定义\module.h
;	COMDAT ?GetInterface@?$CTempldateHelper@UITCPSocketService@@@@QBEPAUITCPSocketService@@XZ
_TEXT	SEGMENT
_this$ = -4						; size = 4
?GetInterface@?$CTempldateHelper@UITCPSocketService@@@@QBEPAUITCPSocketService@@XZ PROC ; CTempldateHelper<ITCPSocketService>::GetInterface, COMDAT
; _this$ = ecx

; 316  : { 

  00000	55		 push	 ebp
  00001	8b ec		 mov	 ebp, esp
  00003	83 ec 44	 sub	 esp, 68			; 00000044H
  00006	53		 push	 ebx
  00007	56		 push	 esi
  00008	57		 push	 edi
  00009	89 4d fc	 mov	 DWORD PTR _this$[ebp], ecx

; 317  : 	return m_pIModeluInterface; 

  0000c	8b 45 fc	 mov	 eax, DWORD PTR _this$[ebp]
  0000f	8b 80 54 01 00
	00		 mov	 eax, DWORD PTR [eax+340]

; 318  : }

  00015	5f		 pop	 edi
  00016	5e		 pop	 esi
  00017	5b		 pop	 ebx
  00018	8b e5		 mov	 esp, ebp
  0001a	5d		 pop	 ebp
  0001b	c3		 ret	 0
?GetInterface@?$CTempldateHelper@UITCPSocketService@@@@QBEPAUITCPSocketService@@XZ ENDP ; CTempldateHelper<ITCPSocketService>::GetInterface
_TEXT	ENDS
; Function compile flags: /Odtp /ZI
; File g:\网狐\happygamewh\服务端\系统模块\全局定义\module.h
;	COMDAT ??C?$CTempldateHelper@UITCPSocketService@@@@QBEPAUITCPSocketService@@XZ
_TEXT	SEGMENT
_this$ = -4						; size = 4
??C?$CTempldateHelper@UITCPSocketService@@@@QBEPAUITCPSocketService@@XZ PROC ; CTempldateHelper<ITCPSocketService>::operator->, COMDAT
; _this$ = ecx

; 309  : { 

  00000	55		 push	 ebp
  00001	8b ec		 mov	 ebp, esp
  00003	83 ec 44	 sub	 esp, 68			; 00000044H
  00006	53		 push	 ebx
  00007	56		 push	 esi
  00008	57		 push	 edi
  00009	89 4d fc	 mov	 DWORD PTR _this$[ebp], ecx

; 310  : 	return GetInterface(); 

  0000c	8b 4d fc	 mov	 ecx, DWORD PTR _this$[ebp]
  0000f	e8 00 00 00 00	 call	 ?GetInterface@?$CTempldateHelper@UITCPSocketService@@@@QBEPAUITCPSocketService@@XZ ; CTempldateHelper<ITCPSocketService>::GetInterface

; 311  : }

  00014	5f		 pop	 edi
  00015	5e		 pop	 esi
  00016	5b		 pop	 ebx
  00017	8b e5		 mov	 esp, ebp
  00019	5d		 pop	 ebp
  0001a	c3		 ret	 0
??C?$CTempldateHelper@UITCPSocketService@@@@QBEPAUITCPSocketService@@XZ ENDP ; CTempldateHelper<ITCPSocketService>::operator->
_TEXT	ENDS
; Function compile flags: /Odtp /ZI
; File g:\网狐\happygamewh\服务端\系统模块\全局定义\module.h
;	COMDAT ?CreateInstance@?$CTempldateHelper@UITCPSocketService@@@@QAE_NXZ
_TEXT	SEGMENT
tv173 = -100						; size = 4
tv172 = -100						; size = 4
tv171 = -100						; size = 4
tv170 = -100						; size = 4
$T2 = -94						; size = 1
$T3 = -93						; size = 1
_pszError$4 = -28					; size = 4
_CreateProc$5 = -24					; size = 4
_this$ = -20						; size = 4
__$EHRec$ = -16						; size = 16
?CreateInstance@?$CTempldateHelper@UITCPSocketService@@@@QAE_NXZ PROC ; CTempldateHelper<ITCPSocketService>::CreateInstance, COMDAT
; _this$ = ecx

; 212  : {

  00000	55		 push	 ebp
  00001	8b ec		 mov	 ebp, esp
  00003	6a ff		 push	 -1
  00005	68 00 00 00 00	 push	 __ehhandler$?CreateInstance@?$CTempldateHelper@UITCPSocketService@@@@QAE_NXZ
  0000a	64 a1 00 00 00
	00		 mov	 eax, DWORD PTR fs:0
  00010	50		 push	 eax
  00011	51		 push	 ecx
  00012	83 ec 54	 sub	 esp, 84			; 00000054H
  00015	53		 push	 ebx
  00016	56		 push	 esi
  00017	57		 push	 edi
  00018	a1 00 00 00 00	 mov	 eax, DWORD PTR ___security_cookie
  0001d	33 c5		 xor	 eax, ebp
  0001f	50		 push	 eax
  00020	8d 45 f4	 lea	 eax, DWORD PTR __$EHRec$[ebp+4]
  00023	64 a3 00 00 00
	00		 mov	 DWORD PTR fs:0, eax
  00029	89 65 f0	 mov	 DWORD PTR __$EHRec$[ebp], esp
  0002c	89 4d ec	 mov	 DWORD PTR _this$[ebp], ecx

; 213  : 	//释放组件
; 214  : 	CloseInstance();

  0002f	8b 4d ec	 mov	 ecx, DWORD PTR _this$[ebp]
  00032	e8 00 00 00 00	 call	 ?CloseInstance@?$CTempldateHelper@UITCPSocketService@@@@QAE_NXZ ; CTempldateHelper<ITCPSocketService>::CloseInstance

; 215  : 
; 216  : 	//创建组件
; 217  : 	try

  00037	c7 45 fc 00 00
	00 00		 mov	 DWORD PTR __$EHRec$[ebp+12], 0

; 218  : 	{
; 219  : 		//效验参数
; 220  : 		ASSERT(m_szCreateProc[0]!=0);

  0003e	b8 01 00 00 00	 mov	 eax, 1
  00043	6b c8 00	 imul	 ecx, eax, 0
  00046	8b 55 ec	 mov	 edx, DWORD PTR _this$[ebp]
  00049	0f be 44 0a 0c	 movsx	 eax, BYTE PTR [edx+ecx+12]
  0004e	85 c0		 test	 eax, eax
  00050	75 19		 jne	 SHORT $LN7@CreateInst
  00052	68 dc 00 00 00	 push	 220			; 000000dcH
  00057	68 00 00 00 00	 push	 OFFSET ??_C@_0DG@CDIFDKED@g?3?2?M?x?$LK?$PM?2happygamewh?2?$LH?$PO?N?q?$LG?K?2?O?$LF?M?$LD@
  0005c	e8 00 00 00 00	 call	 ?AfxAssertFailedLine@@YGHPBDH@Z ; AfxAssertFailedLine
  00061	89 45 9c	 mov	 DWORD PTR tv170[ebp], eax
  00064	83 7d 9c 00	 cmp	 DWORD PTR tv170[ebp], 0
  00068	74 01		 je	 SHORT $LN7@CreateInst
  0006a	cc		 int	 3
$LN7@CreateInst:

; 221  : 		ASSERT(m_szModuleDllName[0]!=0);

  0006b	b8 01 00 00 00	 mov	 eax, 1
  00070	6b c8 00	 imul	 ecx, eax, 0
  00073	8b 55 ec	 mov	 edx, DWORD PTR _this$[ebp]
  00076	0f be 44 0a 4c	 movsx	 eax, BYTE PTR [edx+ecx+76]
  0007b	85 c0		 test	 eax, eax
  0007d	75 19		 jne	 SHORT $LN8@CreateInst
  0007f	68 dd 00 00 00	 push	 221			; 000000ddH
  00084	68 00 00 00 00	 push	 OFFSET ??_C@_0DG@CDIFDKED@g?3?2?M?x?$LK?$PM?2happygamewh?2?$LH?$PO?N?q?$LG?K?2?O?$LF?M?$LD@
  00089	e8 00 00 00 00	 call	 ?AfxAssertFailedLine@@YGHPBDH@Z ; AfxAssertFailedLine
  0008e	89 45 9c	 mov	 DWORD PTR tv171[ebp], eax
  00091	83 7d 9c 00	 cmp	 DWORD PTR tv171[ebp], 0
  00095	74 01		 je	 SHORT $LN8@CreateInst
  00097	cc		 int	 3
$LN8@CreateInst:

; 222  : 
; 223  : 		//加载模块
; 224  : 		m_hDllInstance=AfxLoadLibrary(m_szModuleDllName);

  00098	8b 45 ec	 mov	 eax, DWORD PTR _this$[ebp]
  0009b	83 c0 4c	 add	 eax, 76			; 0000004cH
  0009e	50		 push	 eax
  0009f	e8 00 00 00 00	 call	 ?AfxLoadLibrary@@YGPAUHINSTANCE__@@PBD@Z ; AfxLoadLibrary
  000a4	89 45 9c	 mov	 DWORD PTR tv172[ebp], eax
  000a7	8b 4d ec	 mov	 ecx, DWORD PTR _this$[ebp]
  000aa	8b 55 9c	 mov	 edx, DWORD PTR tv172[ebp]
  000ad	89 91 50 01 00
	00		 mov	 DWORD PTR [ecx+336], edx

; 225  : 		if (m_hDllInstance==NULL) 

  000b3	8b 45 ec	 mov	 eax, DWORD PTR _this$[ebp]
  000b6	83 b8 50 01 00
	00 00		 cmp	 DWORD PTR [eax+336], 0
  000bd	75 2a		 jne	 SHORT $LN3@CreateInst

; 226  : 		{
; 227  : 			_sntprintf_s(m_szDescribe,CountArray(m_szDescribe),TEXT("“%s”模块加载失败"),m_szModuleDllName);

  000bf	8b 45 ec	 mov	 eax, DWORD PTR _this$[ebp]
  000c2	83 c0 4c	 add	 eax, 76			; 0000004cH
  000c5	50		 push	 eax
  000c6	68 00 00 00 00	 push	 OFFSET ??_C@_0BD@LMOFNGMO@?$KB?$LA?$CFs?$KB?$LB?D?$KD?$LP?i?$LM?S?T?X?J?$KH?$LA?$NM@
  000cb	68 80 00 00 00	 push	 128			; 00000080H
  000d0	8b 4d ec	 mov	 ecx, DWORD PTR _this$[ebp]
  000d3	81 c1 58 01 00
	00		 add	 ecx, 344		; 00000158H
  000d9	51		 push	 ecx
  000da	e8 00 00 00 00	 call	 ??$_snprintf_s@$0IA@@@YAHAAY0IA@DIPBDZZ ; _snprintf_s<128>
  000df	83 c4 10	 add	 esp, 16			; 00000010H

; 228  : 			return false;

  000e2	32 c0		 xor	 al, al
  000e4	e9 34 01 00 00	 jmp	 $LN1@CreateInst
$LN3@CreateInst:

; 229  : 		}
; 230  : 
; 231  : 		//寻找函数
; 232  : 		ModuleCreateProc * CreateProc=(ModuleCreateProc *)GetProcAddress(m_hDllInstance,m_szCreateProc);

  000e9	8b 45 ec	 mov	 eax, DWORD PTR _this$[ebp]
  000ec	83 c0 0c	 add	 eax, 12			; 0000000cH
  000ef	50		 push	 eax
  000f0	8b 4d ec	 mov	 ecx, DWORD PTR _this$[ebp]
  000f3	8b 91 50 01 00
	00		 mov	 edx, DWORD PTR [ecx+336]
  000f9	52		 push	 edx
  000fa	ff 15 00 00 00
	00		 call	 DWORD PTR __imp__GetProcAddress@8
  00100	89 45 e8	 mov	 DWORD PTR _CreateProc$5[ebp], eax

; 233  : 		if (CreateProc==NULL) 

  00103	83 7d e8 00	 cmp	 DWORD PTR _CreateProc$5[ebp], 0
  00107	75 31		 jne	 SHORT $LN4@CreateInst

; 234  : 		{		
; 235  : 			_sntprintf_s(m_szDescribe, CountArray(m_szDescribe), TEXT("找不到组件创建函数“%s”:%d"), m_szCreateProc, GetLastError());

  00109	ff 15 00 00 00
	00		 call	 DWORD PTR __imp__GetLastError@0
  0010f	50		 push	 eax
  00110	8b 45 ec	 mov	 eax, DWORD PTR _this$[ebp]
  00113	83 c0 0c	 add	 eax, 12			; 0000000cH
  00116	50		 push	 eax
  00117	68 00 00 00 00	 push	 OFFSET ??_C@_0BM@PEGNCJOH@?U?R?$LC?$LL?$LF?$LN?W?i?$LM?$PO?$LE?$LE?$LN?$KI?$LK?$KP?J?$PN?$KB?$LA?$CFs?$KB?$LB?3?$CFd@
  0011c	68 80 00 00 00	 push	 128			; 00000080H
  00121	8b 4d ec	 mov	 ecx, DWORD PTR _this$[ebp]
  00124	81 c1 58 01 00
	00		 add	 ecx, 344		; 00000158H
  0012a	51		 push	 ecx
  0012b	e8 00 00 00 00	 call	 ??$_snprintf_s@$0IA@@@YAHAAY0IA@DIPBDZZ ; _snprintf_s<128>
  00130	83 c4 14	 add	 esp, 20			; 00000014H

; 236  : 			return false;

  00133	32 c0		 xor	 al, al
  00135	e9 e3 00 00 00	 jmp	 $LN1@CreateInst
$LN4@CreateInst:

; 237  : 		}
; 238  : 
; 239  : 		//创建组件
; 240  : 		m_pIModeluInterface=(IModeluInterface *)CreateProc(m_Guid,m_dwVersion);

  0013a	8b 45 ec	 mov	 eax, DWORD PTR _this$[ebp]
  0013d	8b 48 08	 mov	 ecx, DWORD PTR [eax+8]
  00140	51		 push	 ecx
  00141	8b 55 ec	 mov	 edx, DWORD PTR _this$[ebp]
  00144	8b 42 04	 mov	 eax, DWORD PTR [edx+4]
  00147	50		 push	 eax
  00148	ff 55 e8	 call	 DWORD PTR _CreateProc$5[ebp]
  0014b	83 c4 08	 add	 esp, 8
  0014e	89 45 9c	 mov	 DWORD PTR tv173[ebp], eax
  00151	8b 4d ec	 mov	 ecx, DWORD PTR _this$[ebp]
  00154	8b 55 9c	 mov	 edx, DWORD PTR tv173[ebp]
  00157	89 91 54 01 00
	00		 mov	 DWORD PTR [ecx+340], edx

; 241  : 		if (m_pIModeluInterface==NULL) 

  0015d	8b 45 ec	 mov	 eax, DWORD PTR _this$[ebp]
  00160	83 b8 54 01 00
	00 00		 cmp	 DWORD PTR [eax+340], 0
  00167	75 2a		 jne	 SHORT $LN5@CreateInst

; 242  : 		{
; 243  : 			_sntprintf_s(m_szDescribe,CountArray(m_szDescribe),TEXT("调用函数“%s”生成对象失败"),m_szCreateProc);

  00169	8b 45 ec	 mov	 eax, DWORD PTR _this$[ebp]
  0016c	83 c0 0c	 add	 eax, 12			; 0000000cH
  0016f	50		 push	 eax
  00170	68 00 00 00 00	 push	 OFFSET ??_C@_0BL@PDAODLKM@?$LF?w?S?C?$LK?$KP?J?$PN?$KB?$LA?$CFs?$KB?$LB?I?z?$LD?I?$LG?T?O?s?J?$KH?$LA?$NM@
  00175	68 80 00 00 00	 push	 128			; 00000080H
  0017a	8b 4d ec	 mov	 ecx, DWORD PTR _this$[ebp]
  0017d	81 c1 58 01 00
	00		 add	 ecx, 344		; 00000158H
  00183	51		 push	 ecx
  00184	e8 00 00 00 00	 call	 ??$_snprintf_s@$0IA@@@YAHAAY0IA@DIPBDZZ ; _snprintf_s<128>
  00189	83 c4 10	 add	 esp, 16			; 00000010H

; 244  : 			return false;

  0018c	32 c0		 xor	 al, al
  0018e	e9 8a 00 00 00	 jmp	 $LN1@CreateInst
$LN5@CreateInst:

; 245  : 		}
; 246  : 	}

  00193	eb 63		 jmp	 SHORT $LN9@CreateInst
__catch$?CreateInstance@?$CTempldateHelper@UITCPSocketService@@@@QAE_NXZ$0:

; 247  : 	catch (LPCTSTR pszError)
; 248  : 	{
; 249  : 		_sntprintf_s(m_szDescribe,CountArray(m_szDescribe),TEXT("由于“%s”，组件创建失败"),pszError);

  00195	8b 45 e4	 mov	 eax, DWORD PTR _pszError$4[ebp]
  00198	50		 push	 eax
  00199	68 00 00 00 00	 push	 OFFSET ??_C@_0BJ@JGPFHIJF@?S?I?S?Z?$KB?$LA?$CFs?$KB?$LB?$KD?$KM?W?i?$LM?$PO?$LE?$LE?$LN?$KI?J?$KH?$LA?$NM@
  0019e	68 80 00 00 00	 push	 128			; 00000080H
  001a3	8b 4d ec	 mov	 ecx, DWORD PTR _this$[ebp]
  001a6	81 c1 58 01 00
	00		 add	 ecx, 344		; 00000158H
  001ac	51		 push	 ecx
  001ad	e8 00 00 00 00	 call	 ??$_snprintf_s@$0IA@@@YAHAAY0IA@DIPBDZZ ; _snprintf_s<128>
  001b2	83 c4 10	 add	 esp, 16			; 00000010H

; 250  : 		return false;

  001b5	c6 45 a3 00	 mov	 BYTE PTR $T3[ebp], 0
  001b9	b8 00 00 00 00	 mov	 eax, $LN13@CreateInst
  001be	c3		 ret	 0

; 251  : 	}

  001bf	b8 00 00 00 00	 mov	 eax, $LN9@CreateInst
  001c4	c3		 ret	 0
__catch$?CreateInstance@?$CTempldateHelper@UITCPSocketService@@@@QAE_NXZ$1:

; 252  : 	catch (...)	
; 253  : 	{ 
; 254  : 		_sntprintf_s(m_szDescribe,CountArray(m_szDescribe),TEXT("组件创建函数“%s”产生未知异常错误，组件创建失败"),m_szCreateProc);

  001c5	8b 45 ec	 mov	 eax, DWORD PTR _this$[ebp]
  001c8	83 c0 0c	 add	 eax, 12			; 0000000cH
  001cb	50		 push	 eax
  001cc	68 00 00 00 00	 push	 OFFSET ??_C@_0DB@JBNKENAJ@?W?i?$LM?$PO?$LE?$LE?$LN?$KI?$LK?$KP?J?$PN?$KB?$LA?$CFs?$KB?$LB?$LC?z?I?z?N?$LE?V?$KK?R?l?$LD?$KD?$LE@
  001d1	68 80 00 00 00	 push	 128			; 00000080H
  001d6	8b 4d ec	 mov	 ecx, DWORD PTR _this$[ebp]
  001d9	81 c1 58 01 00
	00		 add	 ecx, 344		; 00000158H
  001df	51		 push	 ecx
  001e0	e8 00 00 00 00	 call	 ??$_snprintf_s@$0IA@@@YAHAAY0IA@DIPBDZZ ; _snprintf_s<128>
  001e5	83 c4 10	 add	 esp, 16			; 00000010H

; 255  : 		return false;

  001e8	c6 45 a2 00	 mov	 BYTE PTR $T2[ebp], 0
  001ec	b8 00 00 00 00	 mov	 eax, $LN15@CreateInst
  001f1	c3		 ret	 0

; 256  : 	}

  001f2	b8 00 00 00 00	 mov	 eax, $LN9@CreateInst
  001f7	c3		 ret	 0
$LN9@CreateInst:
  001f8	c7 45 fc ff ff
	ff ff		 mov	 DWORD PTR __$EHRec$[ebp+12], -1
  001ff	eb 0c		 jmp	 SHORT $LN14@CreateInst
$LN15@CreateInst:
  00201	c7 45 fc ff ff
	ff ff		 mov	 DWORD PTR __$EHRec$[ebp+12], -1

; 255  : 		return false;

  00208	8a 45 a2	 mov	 al, BYTE PTR $T2[ebp]
  0020b	eb 10		 jmp	 SHORT $LN1@CreateInst
$LN14@CreateInst:
  0020d	eb 0c		 jmp	 SHORT $LN12@CreateInst
$LN13@CreateInst:
  0020f	c7 45 fc ff ff
	ff ff		 mov	 DWORD PTR __$EHRec$[ebp+12], -1

; 250  : 		return false;

  00216	8a 45 a3	 mov	 al, BYTE PTR $T3[ebp]
  00219	eb 02		 jmp	 SHORT $LN1@CreateInst
$LN12@CreateInst:

; 257  : 
; 258  : 	return true;

  0021b	b0 01		 mov	 al, 1
$LN1@CreateInst:

; 259  : }

  0021d	8b 4d f4	 mov	 ecx, DWORD PTR __$EHRec$[ebp+4]
  00220	64 89 0d 00 00
	00 00		 mov	 DWORD PTR fs:0, ecx
  00227	59		 pop	 ecx
  00228	5f		 pop	 edi
  00229	5e		 pop	 esi
  0022a	5b		 pop	 ebx
  0022b	8b e5		 mov	 esp, ebp
  0022d	5d		 pop	 ebp
  0022e	c3		 ret	 0
_TEXT	ENDS
;	COMDAT text$x
text$x	SEGMENT
__ehhandler$?CreateInstance@?$CTempldateHelper@UITCPSocketService@@@@QAE_NXZ:
  00000	8b 54 24 08	 mov	 edx, DWORD PTR [esp+8]
  00004	8d 42 0c	 lea	 eax, DWORD PTR [edx+12]
  00007	8b 4a 98	 mov	 ecx, DWORD PTR [edx-104]
  0000a	33 c8		 xor	 ecx, eax
  0000c	e8 00 00 00 00	 call	 @__security_check_cookie@4
  00011	b8 00 00 00 00	 mov	 eax, OFFSET __ehfuncinfo$?CreateInstance@?$CTempldateHelper@UITCPSocketService@@@@QAE_NXZ
  00016	e9 00 00 00 00	 jmp	 ___CxxFrameHandler3
text$x	ENDS
?CreateInstance@?$CTempldateHelper@UITCPSocketService@@@@QAE_NXZ ENDP ; CTempldateHelper<ITCPSocketService>::CreateInstance
; Function compile flags: /Odtp /ZI
; File g:\网狐\happygamewh\服务端\系统模块\全局定义\module.h
;	COMDAT ?CloseInstance@?$CTempldateHelper@UITCPSocketService@@@@QAE_NXZ
_TEXT	SEGMENT
_this$ = -4						; size = 4
?CloseInstance@?$CTempldateHelper@UITCPSocketService@@@@QAE_NXZ PROC ; CTempldateHelper<ITCPSocketService>::CloseInstance, COMDAT
; _this$ = ecx

; 264  : {

  00000	55		 push	 ebp
  00001	8b ec		 mov	 ebp, esp
  00003	83 ec 44	 sub	 esp, 68			; 00000044H
  00006	53		 push	 ebx
  00007	56		 push	 esi
  00008	57		 push	 edi
  00009	89 4d fc	 mov	 DWORD PTR _this$[ebp], ecx

; 265  : 	//设置变量
; 266  : 	m_szDescribe[0]=0;

  0000c	b8 01 00 00 00	 mov	 eax, 1
  00011	6b c8 00	 imul	 ecx, eax, 0
  00014	8b 55 fc	 mov	 edx, DWORD PTR _this$[ebp]
  00017	c6 84 0a 58 01
	00 00 00	 mov	 BYTE PTR [edx+ecx+344], 0

; 267  : 
; 268  : 	//销毁对象
; 269  : 	if (m_pIModeluInterface!=NULL)

  0001f	8b 45 fc	 mov	 eax, DWORD PTR _this$[ebp]
  00022	83 b8 54 01 00
	00 00		 cmp	 DWORD PTR [eax+340], 0
  00029	74 25		 je	 SHORT $LN2@CloseInsta

; 270  : 	{
; 271  : 		m_pIModeluInterface->Release();

  0002b	8b 45 fc	 mov	 eax, DWORD PTR _this$[ebp]
  0002e	8b 88 54 01 00
	00		 mov	 ecx, DWORD PTR [eax+340]
  00034	8b 55 fc	 mov	 edx, DWORD PTR _this$[ebp]
  00037	8b 01		 mov	 eax, DWORD PTR [ecx]
  00039	8b 8a 54 01 00
	00		 mov	 ecx, DWORD PTR [edx+340]
  0003f	8b 10		 mov	 edx, DWORD PTR [eax]
  00041	ff d2		 call	 edx

; 272  : 		m_pIModeluInterface=NULL;

  00043	8b 45 fc	 mov	 eax, DWORD PTR _this$[ebp]
  00046	c7 80 54 01 00
	00 00 00 00 00	 mov	 DWORD PTR [eax+340], 0
$LN2@CloseInsta:

; 273  : 	}
; 274  : 
; 275  : 	//释放 DLL
; 276  : 	if (m_hDllInstance!=NULL)

  00050	8b 45 fc	 mov	 eax, DWORD PTR _this$[ebp]
  00053	83 b8 50 01 00
	00 00		 cmp	 DWORD PTR [eax+336], 0
  0005a	74 1c		 je	 SHORT $LN3@CloseInsta

; 277  : 	{
; 278  : 		AfxFreeLibrary(m_hDllInstance);

  0005c	8b 45 fc	 mov	 eax, DWORD PTR _this$[ebp]
  0005f	8b 88 50 01 00
	00		 mov	 ecx, DWORD PTR [eax+336]
  00065	51		 push	 ecx
  00066	e8 00 00 00 00	 call	 ?AfxFreeLibrary@@YGHPAUHINSTANCE__@@@Z ; AfxFreeLibrary

; 279  : 		m_hDllInstance=NULL;

  0006b	8b 45 fc	 mov	 eax, DWORD PTR _this$[ebp]
  0006e	c7 80 50 01 00
	00 00 00 00 00	 mov	 DWORD PTR [eax+336], 0
$LN3@CloseInsta:

; 280  : 	}
; 281  : 
; 282  : 	return true;

  00078	b0 01		 mov	 al, 1

; 283  : }

  0007a	5f		 pop	 edi
  0007b	5e		 pop	 esi
  0007c	5b		 pop	 ebx
  0007d	8b e5		 mov	 esp, ebp
  0007f	5d		 pop	 ebp
  00080	c3		 ret	 0
?CloseInstance@?$CTempldateHelper@UITCPSocketService@@@@QAE_NXZ ENDP ; CTempldateHelper<ITCPSocketService>::CloseInstance
_TEXT	ENDS
; Function compile flags: /Odtp /ZI
; File g:\网狐\happygamewh\服务端\系统模块\全局定义\module.h
;	COMDAT ??1?$CTempldateHelper@UITCPSocketService@@@@UAE@XZ
_TEXT	SEGMENT
_this$ = -16						; size = 4
__$EHRec$ = -12						; size = 12
??1?$CTempldateHelper@UITCPSocketService@@@@UAE@XZ PROC	; CTempldateHelper<ITCPSocketService>::~CTempldateHelper<ITCPSocketService>, COMDAT
; _this$ = ecx

; 205  : {

  00000	55		 push	 ebp
  00001	8b ec		 mov	 ebp, esp
  00003	6a ff		 push	 -1
  00005	68 00 00 00 00	 push	 __ehhandler$??1?$CTempldateHelper@UITCPSocketService@@@@UAE@XZ
  0000a	64 a1 00 00 00
	00		 mov	 eax, DWORD PTR fs:0
  00010	50		 push	 eax
  00011	83 ec 44	 sub	 esp, 68			; 00000044H
  00014	53		 push	 ebx
  00015	56		 push	 esi
  00016	57		 push	 edi
  00017	a1 00 00 00 00	 mov	 eax, DWORD PTR ___security_cookie
  0001c	33 c5		 xor	 eax, ebp
  0001e	50		 push	 eax
  0001f	8d 45 f4	 lea	 eax, DWORD PTR __$EHRec$[ebp]
  00022	64 a3 00 00 00
	00		 mov	 DWORD PTR fs:0, eax
  00028	89 4d f0	 mov	 DWORD PTR _this$[ebp], ecx
  0002b	8b 45 f0	 mov	 eax, DWORD PTR _this$[ebp]
  0002e	c7 00 00 00 00
	00		 mov	 DWORD PTR [eax], OFFSET ??_7?$CTempldateHelper@UITCPSocketService@@@@6B@

; 206  : 	CloseInstance();

  00034	8b 4d f0	 mov	 ecx, DWORD PTR _this$[ebp]
  00037	e8 00 00 00 00	 call	 ?CloseInstance@?$CTempldateHelper@UITCPSocketService@@@@QAE_NXZ ; CTempldateHelper<ITCPSocketService>::CloseInstance

; 207  : }

  0003c	8b 4d f4	 mov	 ecx, DWORD PTR __$EHRec$[ebp]
  0003f	64 89 0d 00 00
	00 00		 mov	 DWORD PTR fs:0, ecx
  00046	59		 pop	 ecx
  00047	5f		 pop	 edi
  00048	5e		 pop	 esi
  00049	5b		 pop	 ebx
  0004a	8b e5		 mov	 esp, ebp
  0004c	5d		 pop	 ebp
  0004d	c3		 ret	 0
_TEXT	ENDS
;	COMDAT text$x
text$x	SEGMENT
__ehhandler$??1?$CTempldateHelper@UITCPSocketService@@@@UAE@XZ:
  00000	8b 54 24 08	 mov	 edx, DWORD PTR [esp+8]
  00004	8d 42 0c	 lea	 eax, DWORD PTR [edx+12]
  00007	8b 4a ac	 mov	 ecx, DWORD PTR [edx-84]
  0000a	33 c8		 xor	 ecx, eax
  0000c	e8 00 00 00 00	 call	 @__security_check_cookie@4
  00011	b8 00 00 00 00	 mov	 eax, OFFSET __ehfuncinfo$??1?$CTempldateHelper@UITCPSocketService@@@@UAE@XZ
  00016	e9 00 00 00 00	 jmp	 ___CxxFrameHandler3
text$x	ENDS
??1?$CTempldateHelper@UITCPSocketService@@@@UAE@XZ ENDP	; CTempldateHelper<ITCPSocketService>::~CTempldateHelper<ITCPSocketService>
; Function compile flags: /Odtp /ZI
; File g:\网狐\happygamewh\服务端\系统模块\全局定义\module.h
;	COMDAT ??0?$CTempldateHelper@UITCPSocketService@@@@QAE@ABU_GUID@@KPBD1@Z
_TEXT	SEGMENT
_this$ = -4						; size = 4
_Guid$ = 8						; size = 4
_dwVersion$ = 12					; size = 4
_pszModuleDll$ = 16					; size = 4
_pszCreateProc$ = 20					; size = 4
??0?$CTempldateHelper@UITCPSocketService@@@@QAE@ABU_GUID@@KPBD1@Z PROC ; CTempldateHelper<ITCPSocketService>::CTempldateHelper<ITCPSocketService>, COMDAT
; _this$ = ecx

; 187  : {

  00000	55		 push	 ebp
  00001	8b ec		 mov	 ebp, esp
  00003	83 ec 44	 sub	 esp, 68			; 00000044H
  00006	53		 push	 ebx
  00007	56		 push	 esi
  00008	57		 push	 edi
  00009	89 4d fc	 mov	 DWORD PTR _this$[ebp], ecx
  0000c	8b 45 fc	 mov	 eax, DWORD PTR _this$[ebp]
  0000f	c7 00 00 00 00
	00		 mov	 DWORD PTR [eax], OFFSET ??_7?$CTempldateHelper@UITCPSocketService@@@@6B@

; 186  : CTempldateHelper<IModeluInterface>::CTempldateHelper(REFGUID Guid, DWORD dwVersion, LPCTSTR pszModuleDll, LPCSTR pszCreateProc) : m_dwVersion(dwVersion), m_Guid(Guid)

  00015	8b 45 fc	 mov	 eax, DWORD PTR _this$[ebp]
  00018	8b 4d 08	 mov	 ecx, DWORD PTR _Guid$[ebp]
  0001b	89 48 04	 mov	 DWORD PTR [eax+4], ecx
  0001e	8b 45 fc	 mov	 eax, DWORD PTR _this$[ebp]
  00021	8b 4d 0c	 mov	 ecx, DWORD PTR _dwVersion$[ebp]
  00024	89 48 08	 mov	 DWORD PTR [eax+8], ecx

; 188  : 	//辅助变量
; 189  : 	m_szDescribe[0]=0;

  00027	b8 01 00 00 00	 mov	 eax, 1
  0002c	6b c8 00	 imul	 ecx, eax, 0
  0002f	8b 55 fc	 mov	 edx, DWORD PTR _this$[ebp]
  00032	c6 84 0a 58 01
	00 00 00	 mov	 BYTE PTR [edx+ecx+344], 0

; 190  : 
; 191  : 	//内核信息
; 192  : 	m_hDllInstance=NULL;

  0003a	8b 45 fc	 mov	 eax, DWORD PTR _this$[ebp]
  0003d	c7 80 50 01 00
	00 00 00 00 00	 mov	 DWORD PTR [eax+336], 0

; 193  : 	m_pIModeluInterface=NULL;

  00047	8b 45 fc	 mov	 eax, DWORD PTR _this$[ebp]
  0004a	c7 80 54 01 00
	00 00 00 00 00	 mov	 DWORD PTR [eax+340], 0

; 194  : 
; 195  : 	//组件属性
; 196  : 	lstrcpynA(m_szCreateProc,pszCreateProc,CountArray(m_szCreateProc));

  00054	6a 40		 push	 64			; 00000040H
  00056	8b 45 14	 mov	 eax, DWORD PTR _pszCreateProc$[ebp]
  00059	50		 push	 eax
  0005a	8b 4d fc	 mov	 ecx, DWORD PTR _this$[ebp]
  0005d	83 c1 0c	 add	 ecx, 12			; 0000000cH
  00060	51		 push	 ecx
  00061	ff 15 00 00 00
	00		 call	 DWORD PTR __imp__lstrcpynA@12

; 197  : 	lstrcpyn(m_szModuleDllName,pszModuleDll,CountArray(m_szModuleDllName));

  00067	68 04 01 00 00	 push	 260			; 00000104H
  0006c	8b 45 10	 mov	 eax, DWORD PTR _pszModuleDll$[ebp]
  0006f	50		 push	 eax
  00070	8b 4d fc	 mov	 ecx, DWORD PTR _this$[ebp]
  00073	83 c1 4c	 add	 ecx, 76			; 0000004cH
  00076	51		 push	 ecx
  00077	ff 15 00 00 00
	00		 call	 DWORD PTR __imp__lstrcpynA@12

; 198  : 
; 199  : 	return;
; 200  : }

  0007d	8b 45 fc	 mov	 eax, DWORD PTR _this$[ebp]
  00080	5f		 pop	 edi
  00081	5e		 pop	 esi
  00082	5b		 pop	 ebx
  00083	8b e5		 mov	 esp, ebp
  00085	5d		 pop	 ebp
  00086	c2 10 00	 ret	 16			; 00000010H
??0?$CTempldateHelper@UITCPSocketService@@@@QAE@ABU_GUID@@KPBD1@Z ENDP ; CTempldateHelper<ITCPSocketService>::CTempldateHelper<ITCPSocketService>
_TEXT	ENDS
; Function compile flags: /Odtp /ZI
;	COMDAT ??_GCAttemperEngineHelper@@UAEPAXI@Z
_TEXT	SEGMENT
_this$ = -4						; size = 4
___flags$ = 8						; size = 4
??_GCAttemperEngineHelper@@UAEPAXI@Z PROC		; CAttemperEngineHelper::`scalar deleting destructor', COMDAT
; _this$ = ecx
  00000	55		 push	 ebp
  00001	8b ec		 mov	 ebp, esp
  00003	83 ec 44	 sub	 esp, 68			; 00000044H
  00006	53		 push	 ebx
  00007	56		 push	 esi
  00008	57		 push	 edi
  00009	89 4d fc	 mov	 DWORD PTR _this$[ebp], ecx
  0000c	8b 4d fc	 mov	 ecx, DWORD PTR _this$[ebp]
  0000f	e8 00 00 00 00	 call	 ??1CAttemperEngineHelper@@UAE@XZ
  00014	8b 45 08	 mov	 eax, DWORD PTR ___flags$[ebp]
  00017	83 e0 01	 and	 eax, 1
  0001a	74 11		 je	 SHORT $LN2@scalar
  0001c	68 d8 01 00 00	 push	 472			; 000001d8H
  00021	8b 45 fc	 mov	 eax, DWORD PTR _this$[ebp]
  00024	50		 push	 eax
  00025	e8 00 00 00 00	 call	 ??3@YAXPAXI@Z		; operator delete
  0002a	83 c4 08	 add	 esp, 8
$LN2@scalar:
  0002d	8b 45 fc	 mov	 eax, DWORD PTR _this$[ebp]
  00030	5f		 pop	 edi
  00031	5e		 pop	 esi
  00032	5b		 pop	 ebx
  00033	8b e5		 mov	 esp, ebp
  00035	5d		 pop	 ebp
  00036	c2 04 00	 ret	 4
??_GCAttemperEngineHelper@@UAEPAXI@Z ENDP		; CAttemperEngineHelper::`scalar deleting destructor'
_TEXT	ENDS
; Function compile flags: /Odtp /ZI
;	COMDAT ??1CAttemperEngineHelper@@UAE@XZ
_TEXT	SEGMENT
_this$ = -4						; size = 4
??1CAttemperEngineHelper@@UAE@XZ PROC			; CAttemperEngineHelper::~CAttemperEngineHelper, COMDAT
; _this$ = ecx
  00000	55		 push	 ebp
  00001	8b ec		 mov	 ebp, esp
  00003	83 ec 44	 sub	 esp, 68			; 00000044H
  00006	53		 push	 ebx
  00007	56		 push	 esi
  00008	57		 push	 edi
  00009	89 4d fc	 mov	 DWORD PTR _this$[ebp], ecx
  0000c	8b 4d fc	 mov	 ecx, DWORD PTR _this$[ebp]
  0000f	e8 00 00 00 00	 call	 ??1?$CTempldateHelper@UIAttemperEngine@@@@UAE@XZ ; CTempldateHelper<IAttemperEngine>::~CTempldateHelper<IAttemperEngine>
  00014	5f		 pop	 edi
  00015	5e		 pop	 esi
  00016	5b		 pop	 ebx
  00017	8b e5		 mov	 esp, ebp
  00019	5d		 pop	 ebp
  0001a	c3		 ret	 0
??1CAttemperEngineHelper@@UAE@XZ ENDP			; CAttemperEngineHelper::~CAttemperEngineHelper
_TEXT	ENDS
; Function compile flags: /Odtp /ZI
; File g:\网狐\happygamewh\服务端\系统模块\服务器组件\内核引擎\kernelenginehead.h
;	COMDAT ??0CAttemperEngineHelper@@QAE@XZ
_TEXT	SEGMENT
_this$ = -4						; size = 4
??0CAttemperEngineHelper@@QAE@XZ PROC			; CAttemperEngineHelper::CAttemperEngineHelper, COMDAT
; _this$ = ecx

; 845  : DECLARE_MODULE_HELPER(AttemperEngine, KERNEL_ENGINE_DLL_NAME, "CreateAttemperEngine")

  00000	55		 push	 ebp
  00001	8b ec		 mov	 ebp, esp
  00003	83 ec 44	 sub	 esp, 68			; 00000044H
  00006	53		 push	 ebx
  00007	56		 push	 esi
  00008	57		 push	 edi
  00009	89 4d fc	 mov	 DWORD PTR _this$[ebp], ecx
  0000c	68 00 00 00 00	 push	 OFFSET ??_C@_0BF@PBPGMLEA@CreateAttemperEngine@
  00011	68 00 00 00 00	 push	 OFFSET ??_C@_0BB@BEMLEOHB@KernelEngine?4dll@
  00016	68 00 01 01 06	 push	 100729088		; 06010100H
  0001b	68 00 00 00 00	 push	 OFFSET ?IID_IAttemperEngine@@3U_GUID@@B
  00020	8b 4d fc	 mov	 ecx, DWORD PTR _this$[ebp]
  00023	e8 00 00 00 00	 call	 ??0?$CTempldateHelper@UIAttemperEngine@@@@QAE@ABU_GUID@@KPBD1@Z ; CTempldateHelper<IAttemperEngine>::CTempldateHelper<IAttemperEngine>
  00028	8b 45 fc	 mov	 eax, DWORD PTR _this$[ebp]
  0002b	c7 00 00 00 00
	00		 mov	 DWORD PTR [eax], OFFSET ??_7CAttemperEngineHelper@@6B@
  00031	8b 45 fc	 mov	 eax, DWORD PTR _this$[ebp]
  00034	5f		 pop	 edi
  00035	5e		 pop	 esi
  00036	5b		 pop	 ebx
  00037	8b e5		 mov	 esp, ebp
  00039	5d		 pop	 ebp
  0003a	c3		 ret	 0
??0CAttemperEngineHelper@@QAE@XZ ENDP			; CAttemperEngineHelper::CAttemperEngineHelper
_TEXT	ENDS
; Function compile flags: /Odtp /ZI
;	COMDAT ??_G?$CTempldateHelper@UIAttemperEngine@@@@UAEPAXI@Z
_TEXT	SEGMENT
_this$ = -4						; size = 4
___flags$ = 8						; size = 4
??_G?$CTempldateHelper@UIAttemperEngine@@@@UAEPAXI@Z PROC ; CTempldateHelper<IAttemperEngine>::`scalar deleting destructor', COMDAT
; _this$ = ecx
  00000	55		 push	 ebp
  00001	8b ec		 mov	 ebp, esp
  00003	83 ec 44	 sub	 esp, 68			; 00000044H
  00006	53		 push	 ebx
  00007	56		 push	 esi
  00008	57		 push	 edi
  00009	89 4d fc	 mov	 DWORD PTR _this$[ebp], ecx
  0000c	8b 4d fc	 mov	 ecx, DWORD PTR _this$[ebp]
  0000f	e8 00 00 00 00	 call	 ??1?$CTempldateHelper@UIAttemperEngine@@@@UAE@XZ ; CTempldateHelper<IAttemperEngine>::~CTempldateHelper<IAttemperEngine>
  00014	8b 45 08	 mov	 eax, DWORD PTR ___flags$[ebp]
  00017	83 e0 01	 and	 eax, 1
  0001a	74 11		 je	 SHORT $LN2@scalar
  0001c	68 d8 01 00 00	 push	 472			; 000001d8H
  00021	8b 45 fc	 mov	 eax, DWORD PTR _this$[ebp]
  00024	50		 push	 eax
  00025	e8 00 00 00 00	 call	 ??3@YAXPAXI@Z		; operator delete
  0002a	83 c4 08	 add	 esp, 8
$LN2@scalar:
  0002d	8b 45 fc	 mov	 eax, DWORD PTR _this$[ebp]
  00030	5f		 pop	 edi
  00031	5e		 pop	 esi
  00032	5b		 pop	 ebx
  00033	8b e5		 mov	 esp, ebp
  00035	5d		 pop	 ebp
  00036	c2 04 00	 ret	 4
??_G?$CTempldateHelper@UIAttemperEngine@@@@UAEPAXI@Z ENDP ; CTempldateHelper<IAttemperEngine>::`scalar deleting destructor'
_TEXT	ENDS
; Function compile flags: /Odtp /ZI
; File g:\网狐\happygamewh\服务端\系统模块\全局定义\module.h
;	COMDAT ?GetInterface@?$CTempldateHelper@UIAttemperEngine@@@@QBEPAUIAttemperEngine@@XZ
_TEXT	SEGMENT
_this$ = -4						; size = 4
?GetInterface@?$CTempldateHelper@UIAttemperEngine@@@@QBEPAUIAttemperEngine@@XZ PROC ; CTempldateHelper<IAttemperEngine>::GetInterface, COMDAT
; _this$ = ecx

; 316  : { 

  00000	55		 push	 ebp
  00001	8b ec		 mov	 ebp, esp
  00003	83 ec 44	 sub	 esp, 68			; 00000044H
  00006	53		 push	 ebx
  00007	56		 push	 esi
  00008	57		 push	 edi
  00009	89 4d fc	 mov	 DWORD PTR _this$[ebp], ecx

; 317  : 	return m_pIModeluInterface; 

  0000c	8b 45 fc	 mov	 eax, DWORD PTR _this$[ebp]
  0000f	8b 80 54 01 00
	00		 mov	 eax, DWORD PTR [eax+340]

; 318  : }

  00015	5f		 pop	 edi
  00016	5e		 pop	 esi
  00017	5b		 pop	 ebx
  00018	8b e5		 mov	 esp, ebp
  0001a	5d		 pop	 ebp
  0001b	c3		 ret	 0
?GetInterface@?$CTempldateHelper@UIAttemperEngine@@@@QBEPAUIAttemperEngine@@XZ ENDP ; CTempldateHelper<IAttemperEngine>::GetInterface
_TEXT	ENDS
; Function compile flags: /Odtp /ZI
; File g:\网狐\happygamewh\服务端\系统模块\全局定义\module.h
;	COMDAT ??C?$CTempldateHelper@UIAttemperEngine@@@@QBEPAUIAttemperEngine@@XZ
_TEXT	SEGMENT
_this$ = -4						; size = 4
??C?$CTempldateHelper@UIAttemperEngine@@@@QBEPAUIAttemperEngine@@XZ PROC ; CTempldateHelper<IAttemperEngine>::operator->, COMDAT
; _this$ = ecx

; 309  : { 

  00000	55		 push	 ebp
  00001	8b ec		 mov	 ebp, esp
  00003	83 ec 44	 sub	 esp, 68			; 00000044H
  00006	53		 push	 ebx
  00007	56		 push	 esi
  00008	57		 push	 edi
  00009	89 4d fc	 mov	 DWORD PTR _this$[ebp], ecx

; 310  : 	return GetInterface(); 

  0000c	8b 4d fc	 mov	 ecx, DWORD PTR _this$[ebp]
  0000f	e8 00 00 00 00	 call	 ?GetInterface@?$CTempldateHelper@UIAttemperEngine@@@@QBEPAUIAttemperEngine@@XZ ; CTempldateHelper<IAttemperEngine>::GetInterface

; 311  : }

  00014	5f		 pop	 edi
  00015	5e		 pop	 esi
  00016	5b		 pop	 ebx
  00017	8b e5		 mov	 esp, ebp
  00019	5d		 pop	 ebp
  0001a	c3		 ret	 0
??C?$CTempldateHelper@UIAttemperEngine@@@@QBEPAUIAttemperEngine@@XZ ENDP ; CTempldateHelper<IAttemperEngine>::operator->
_TEXT	ENDS
; Function compile flags: /Odtp /ZI
; File g:\网狐\happygamewh\服务端\系统模块\全局定义\module.h
;	COMDAT ?CreateInstance@?$CTempldateHelper@UIAttemperEngine@@@@QAE_NXZ
_TEXT	SEGMENT
tv173 = -100						; size = 4
tv172 = -100						; size = 4
tv171 = -100						; size = 4
tv170 = -100						; size = 4
$T2 = -94						; size = 1
$T3 = -93						; size = 1
_pszError$4 = -28					; size = 4
_CreateProc$5 = -24					; size = 4
_this$ = -20						; size = 4
__$EHRec$ = -16						; size = 16
?CreateInstance@?$CTempldateHelper@UIAttemperEngine@@@@QAE_NXZ PROC ; CTempldateHelper<IAttemperEngine>::CreateInstance, COMDAT
; _this$ = ecx

; 212  : {

  00000	55		 push	 ebp
  00001	8b ec		 mov	 ebp, esp
  00003	6a ff		 push	 -1
  00005	68 00 00 00 00	 push	 __ehhandler$?CreateInstance@?$CTempldateHelper@UIAttemperEngine@@@@QAE_NXZ
  0000a	64 a1 00 00 00
	00		 mov	 eax, DWORD PTR fs:0
  00010	50		 push	 eax
  00011	51		 push	 ecx
  00012	83 ec 54	 sub	 esp, 84			; 00000054H
  00015	53		 push	 ebx
  00016	56		 push	 esi
  00017	57		 push	 edi
  00018	a1 00 00 00 00	 mov	 eax, DWORD PTR ___security_cookie
  0001d	33 c5		 xor	 eax, ebp
  0001f	50		 push	 eax
  00020	8d 45 f4	 lea	 eax, DWORD PTR __$EHRec$[ebp+4]
  00023	64 a3 00 00 00
	00		 mov	 DWORD PTR fs:0, eax
  00029	89 65 f0	 mov	 DWORD PTR __$EHRec$[ebp], esp
  0002c	89 4d ec	 mov	 DWORD PTR _this$[ebp], ecx

; 213  : 	//释放组件
; 214  : 	CloseInstance();

  0002f	8b 4d ec	 mov	 ecx, DWORD PTR _this$[ebp]
  00032	e8 00 00 00 00	 call	 ?CloseInstance@?$CTempldateHelper@UIAttemperEngine@@@@QAE_NXZ ; CTempldateHelper<IAttemperEngine>::CloseInstance

; 215  : 
; 216  : 	//创建组件
; 217  : 	try

  00037	c7 45 fc 00 00
	00 00		 mov	 DWORD PTR __$EHRec$[ebp+12], 0

; 218  : 	{
; 219  : 		//效验参数
; 220  : 		ASSERT(m_szCreateProc[0]!=0);

  0003e	b8 01 00 00 00	 mov	 eax, 1
  00043	6b c8 00	 imul	 ecx, eax, 0
  00046	8b 55 ec	 mov	 edx, DWORD PTR _this$[ebp]
  00049	0f be 44 0a 0c	 movsx	 eax, BYTE PTR [edx+ecx+12]
  0004e	85 c0		 test	 eax, eax
  00050	75 19		 jne	 SHORT $LN7@CreateInst
  00052	68 dc 00 00 00	 push	 220			; 000000dcH
  00057	68 00 00 00 00	 push	 OFFSET ??_C@_0DG@CDIFDKED@g?3?2?M?x?$LK?$PM?2happygamewh?2?$LH?$PO?N?q?$LG?K?2?O?$LF?M?$LD@
  0005c	e8 00 00 00 00	 call	 ?AfxAssertFailedLine@@YGHPBDH@Z ; AfxAssertFailedLine
  00061	89 45 9c	 mov	 DWORD PTR tv170[ebp], eax
  00064	83 7d 9c 00	 cmp	 DWORD PTR tv170[ebp], 0
  00068	74 01		 je	 SHORT $LN7@CreateInst
  0006a	cc		 int	 3
$LN7@CreateInst:

; 221  : 		ASSERT(m_szModuleDllName[0]!=0);

  0006b	b8 01 00 00 00	 mov	 eax, 1
  00070	6b c8 00	 imul	 ecx, eax, 0
  00073	8b 55 ec	 mov	 edx, DWORD PTR _this$[ebp]
  00076	0f be 44 0a 4c	 movsx	 eax, BYTE PTR [edx+ecx+76]
  0007b	85 c0		 test	 eax, eax
  0007d	75 19		 jne	 SHORT $LN8@CreateInst
  0007f	68 dd 00 00 00	 push	 221			; 000000ddH
  00084	68 00 00 00 00	 push	 OFFSET ??_C@_0DG@CDIFDKED@g?3?2?M?x?$LK?$PM?2happygamewh?2?$LH?$PO?N?q?$LG?K?2?O?$LF?M?$LD@
  00089	e8 00 00 00 00	 call	 ?AfxAssertFailedLine@@YGHPBDH@Z ; AfxAssertFailedLine
  0008e	89 45 9c	 mov	 DWORD PTR tv171[ebp], eax
  00091	83 7d 9c 00	 cmp	 DWORD PTR tv171[ebp], 0
  00095	74 01		 je	 SHORT $LN8@CreateInst
  00097	cc		 int	 3
$LN8@CreateInst:

; 222  : 
; 223  : 		//加载模块
; 224  : 		m_hDllInstance=AfxLoadLibrary(m_szModuleDllName);

  00098	8b 45 ec	 mov	 eax, DWORD PTR _this$[ebp]
  0009b	83 c0 4c	 add	 eax, 76			; 0000004cH
  0009e	50		 push	 eax
  0009f	e8 00 00 00 00	 call	 ?AfxLoadLibrary@@YGPAUHINSTANCE__@@PBD@Z ; AfxLoadLibrary
  000a4	89 45 9c	 mov	 DWORD PTR tv172[ebp], eax
  000a7	8b 4d ec	 mov	 ecx, DWORD PTR _this$[ebp]
  000aa	8b 55 9c	 mov	 edx, DWORD PTR tv172[ebp]
  000ad	89 91 50 01 00
	00		 mov	 DWORD PTR [ecx+336], edx

; 225  : 		if (m_hDllInstance==NULL) 

  000b3	8b 45 ec	 mov	 eax, DWORD PTR _this$[ebp]
  000b6	83 b8 50 01 00
	00 00		 cmp	 DWORD PTR [eax+336], 0
  000bd	75 2a		 jne	 SHORT $LN3@CreateInst

; 226  : 		{
; 227  : 			_sntprintf_s(m_szDescribe,CountArray(m_szDescribe),TEXT("“%s”模块加载失败"),m_szModuleDllName);

  000bf	8b 45 ec	 mov	 eax, DWORD PTR _this$[ebp]
  000c2	83 c0 4c	 add	 eax, 76			; 0000004cH
  000c5	50		 push	 eax
  000c6	68 00 00 00 00	 push	 OFFSET ??_C@_0BD@LMOFNGMO@?$KB?$LA?$CFs?$KB?$LB?D?$KD?$LP?i?$LM?S?T?X?J?$KH?$LA?$NM@
  000cb	68 80 00 00 00	 push	 128			; 00000080H
  000d0	8b 4d ec	 mov	 ecx, DWORD PTR _this$[ebp]
  000d3	81 c1 58 01 00
	00		 add	 ecx, 344		; 00000158H
  000d9	51		 push	 ecx
  000da	e8 00 00 00 00	 call	 ??$_snprintf_s@$0IA@@@YAHAAY0IA@DIPBDZZ ; _snprintf_s<128>
  000df	83 c4 10	 add	 esp, 16			; 00000010H

; 228  : 			return false;

  000e2	32 c0		 xor	 al, al
  000e4	e9 34 01 00 00	 jmp	 $LN1@CreateInst
$LN3@CreateInst:

; 229  : 		}
; 230  : 
; 231  : 		//寻找函数
; 232  : 		ModuleCreateProc * CreateProc=(ModuleCreateProc *)GetProcAddress(m_hDllInstance,m_szCreateProc);

  000e9	8b 45 ec	 mov	 eax, DWORD PTR _this$[ebp]
  000ec	83 c0 0c	 add	 eax, 12			; 0000000cH
  000ef	50		 push	 eax
  000f0	8b 4d ec	 mov	 ecx, DWORD PTR _this$[ebp]
  000f3	8b 91 50 01 00
	00		 mov	 edx, DWORD PTR [ecx+336]
  000f9	52		 push	 edx
  000fa	ff 15 00 00 00
	00		 call	 DWORD PTR __imp__GetProcAddress@8
  00100	89 45 e8	 mov	 DWORD PTR _CreateProc$5[ebp], eax

; 233  : 		if (CreateProc==NULL) 

  00103	83 7d e8 00	 cmp	 DWORD PTR _CreateProc$5[ebp], 0
  00107	75 31		 jne	 SHORT $LN4@CreateInst

; 234  : 		{		
; 235  : 			_sntprintf_s(m_szDescribe, CountArray(m_szDescribe), TEXT("找不到组件创建函数“%s”:%d"), m_szCreateProc, GetLastError());

  00109	ff 15 00 00 00
	00		 call	 DWORD PTR __imp__GetLastError@0
  0010f	50		 push	 eax
  00110	8b 45 ec	 mov	 eax, DWORD PTR _this$[ebp]
  00113	83 c0 0c	 add	 eax, 12			; 0000000cH
  00116	50		 push	 eax
  00117	68 00 00 00 00	 push	 OFFSET ??_C@_0BM@PEGNCJOH@?U?R?$LC?$LL?$LF?$LN?W?i?$LM?$PO?$LE?$LE?$LN?$KI?$LK?$KP?J?$PN?$KB?$LA?$CFs?$KB?$LB?3?$CFd@
  0011c	68 80 00 00 00	 push	 128			; 00000080H
  00121	8b 4d ec	 mov	 ecx, DWORD PTR _this$[ebp]
  00124	81 c1 58 01 00
	00		 add	 ecx, 344		; 00000158H
  0012a	51		 push	 ecx
  0012b	e8 00 00 00 00	 call	 ??$_snprintf_s@$0IA@@@YAHAAY0IA@DIPBDZZ ; _snprintf_s<128>
  00130	83 c4 14	 add	 esp, 20			; 00000014H

; 236  : 			return false;

  00133	32 c0		 xor	 al, al
  00135	e9 e3 00 00 00	 jmp	 $LN1@CreateInst
$LN4@CreateInst:

; 237  : 		}
; 238  : 
; 239  : 		//创建组件
; 240  : 		m_pIModeluInterface=(IModeluInterface *)CreateProc(m_Guid,m_dwVersion);

  0013a	8b 45 ec	 mov	 eax, DWORD PTR _this$[ebp]
  0013d	8b 48 08	 mov	 ecx, DWORD PTR [eax+8]
  00140	51		 push	 ecx
  00141	8b 55 ec	 mov	 edx, DWORD PTR _this$[ebp]
  00144	8b 42 04	 mov	 eax, DWORD PTR [edx+4]
  00147	50		 push	 eax
  00148	ff 55 e8	 call	 DWORD PTR _CreateProc$5[ebp]
  0014b	83 c4 08	 add	 esp, 8
  0014e	89 45 9c	 mov	 DWORD PTR tv173[ebp], eax
  00151	8b 4d ec	 mov	 ecx, DWORD PTR _this$[ebp]
  00154	8b 55 9c	 mov	 edx, DWORD PTR tv173[ebp]
  00157	89 91 54 01 00
	00		 mov	 DWORD PTR [ecx+340], edx

; 241  : 		if (m_pIModeluInterface==NULL) 

  0015d	8b 45 ec	 mov	 eax, DWORD PTR _this$[ebp]
  00160	83 b8 54 01 00
	00 00		 cmp	 DWORD PTR [eax+340], 0
  00167	75 2a		 jne	 SHORT $LN5@CreateInst

; 242  : 		{
; 243  : 			_sntprintf_s(m_szDescribe,CountArray(m_szDescribe),TEXT("调用函数“%s”生成对象失败"),m_szCreateProc);

  00169	8b 45 ec	 mov	 eax, DWORD PTR _this$[ebp]
  0016c	83 c0 0c	 add	 eax, 12			; 0000000cH
  0016f	50		 push	 eax
  00170	68 00 00 00 00	 push	 OFFSET ??_C@_0BL@PDAODLKM@?$LF?w?S?C?$LK?$KP?J?$PN?$KB?$LA?$CFs?$KB?$LB?I?z?$LD?I?$LG?T?O?s?J?$KH?$LA?$NM@
  00175	68 80 00 00 00	 push	 128			; 00000080H
  0017a	8b 4d ec	 mov	 ecx, DWORD PTR _this$[ebp]
  0017d	81 c1 58 01 00
	00		 add	 ecx, 344		; 00000158H
  00183	51		 push	 ecx
  00184	e8 00 00 00 00	 call	 ??$_snprintf_s@$0IA@@@YAHAAY0IA@DIPBDZZ ; _snprintf_s<128>
  00189	83 c4 10	 add	 esp, 16			; 00000010H

; 244  : 			return false;

  0018c	32 c0		 xor	 al, al
  0018e	e9 8a 00 00 00	 jmp	 $LN1@CreateInst
$LN5@CreateInst:

; 245  : 		}
; 246  : 	}

  00193	eb 63		 jmp	 SHORT $LN9@CreateInst
__catch$?CreateInstance@?$CTempldateHelper@UIAttemperEngine@@@@QAE_NXZ$0:

; 247  : 	catch (LPCTSTR pszError)
; 248  : 	{
; 249  : 		_sntprintf_s(m_szDescribe,CountArray(m_szDescribe),TEXT("由于“%s”，组件创建失败"),pszError);

  00195	8b 45 e4	 mov	 eax, DWORD PTR _pszError$4[ebp]
  00198	50		 push	 eax
  00199	68 00 00 00 00	 push	 OFFSET ??_C@_0BJ@JGPFHIJF@?S?I?S?Z?$KB?$LA?$CFs?$KB?$LB?$KD?$KM?W?i?$LM?$PO?$LE?$LE?$LN?$KI?J?$KH?$LA?$NM@
  0019e	68 80 00 00 00	 push	 128			; 00000080H
  001a3	8b 4d ec	 mov	 ecx, DWORD PTR _this$[ebp]
  001a6	81 c1 58 01 00
	00		 add	 ecx, 344		; 00000158H
  001ac	51		 push	 ecx
  001ad	e8 00 00 00 00	 call	 ??$_snprintf_s@$0IA@@@YAHAAY0IA@DIPBDZZ ; _snprintf_s<128>
  001b2	83 c4 10	 add	 esp, 16			; 00000010H

; 250  : 		return false;

  001b5	c6 45 a3 00	 mov	 BYTE PTR $T3[ebp], 0
  001b9	b8 00 00 00 00	 mov	 eax, $LN13@CreateInst
  001be	c3		 ret	 0

; 251  : 	}

  001bf	b8 00 00 00 00	 mov	 eax, $LN9@CreateInst
  001c4	c3		 ret	 0
__catch$?CreateInstance@?$CTempldateHelper@UIAttemperEngine@@@@QAE_NXZ$1:

; 252  : 	catch (...)	
; 253  : 	{ 
; 254  : 		_sntprintf_s(m_szDescribe,CountArray(m_szDescribe),TEXT("组件创建函数“%s”产生未知异常错误，组件创建失败"),m_szCreateProc);

  001c5	8b 45 ec	 mov	 eax, DWORD PTR _this$[ebp]
  001c8	83 c0 0c	 add	 eax, 12			; 0000000cH
  001cb	50		 push	 eax
  001cc	68 00 00 00 00	 push	 OFFSET ??_C@_0DB@JBNKENAJ@?W?i?$LM?$PO?$LE?$LE?$LN?$KI?$LK?$KP?J?$PN?$KB?$LA?$CFs?$KB?$LB?$LC?z?I?z?N?$LE?V?$KK?R?l?$LD?$KD?$LE@
  001d1	68 80 00 00 00	 push	 128			; 00000080H
  001d6	8b 4d ec	 mov	 ecx, DWORD PTR _this$[ebp]
  001d9	81 c1 58 01 00
	00		 add	 ecx, 344		; 00000158H
  001df	51		 push	 ecx
  001e0	e8 00 00 00 00	 call	 ??$_snprintf_s@$0IA@@@YAHAAY0IA@DIPBDZZ ; _snprintf_s<128>
  001e5	83 c4 10	 add	 esp, 16			; 00000010H

; 255  : 		return false;

  001e8	c6 45 a2 00	 mov	 BYTE PTR $T2[ebp], 0
  001ec	b8 00 00 00 00	 mov	 eax, $LN15@CreateInst
  001f1	c3		 ret	 0

; 256  : 	}

  001f2	b8 00 00 00 00	 mov	 eax, $LN9@CreateInst
  001f7	c3		 ret	 0
$LN9@CreateInst:
  001f8	c7 45 fc ff ff
	ff ff		 mov	 DWORD PTR __$EHRec$[ebp+12], -1
  001ff	eb 0c		 jmp	 SHORT $LN14@CreateInst
$LN15@CreateInst:
  00201	c7 45 fc ff ff
	ff ff		 mov	 DWORD PTR __$EHRec$[ebp+12], -1

; 255  : 		return false;

  00208	8a 45 a2	 mov	 al, BYTE PTR $T2[ebp]
  0020b	eb 10		 jmp	 SHORT $LN1@CreateInst
$LN14@CreateInst:
  0020d	eb 0c		 jmp	 SHORT $LN12@CreateInst
$LN13@CreateInst:
  0020f	c7 45 fc ff ff
	ff ff		 mov	 DWORD PTR __$EHRec$[ebp+12], -1

; 250  : 		return false;

  00216	8a 45 a3	 mov	 al, BYTE PTR $T3[ebp]
  00219	eb 02		 jmp	 SHORT $LN1@CreateInst
$LN12@CreateInst:

; 257  : 
; 258  : 	return true;

  0021b	b0 01		 mov	 al, 1
$LN1@CreateInst:

; 259  : }

  0021d	8b 4d f4	 mov	 ecx, DWORD PTR __$EHRec$[ebp+4]
  00220	64 89 0d 00 00
	00 00		 mov	 DWORD PTR fs:0, ecx
  00227	59		 pop	 ecx
  00228	5f		 pop	 edi
  00229	5e		 pop	 esi
  0022a	5b		 pop	 ebx
  0022b	8b e5		 mov	 esp, ebp
  0022d	5d		 pop	 ebp
  0022e	c3		 ret	 0
_TEXT	ENDS
;	COMDAT text$x
text$x	SEGMENT
__ehhandler$?CreateInstance@?$CTempldateHelper@UIAttemperEngine@@@@QAE_NXZ:
  00000	8b 54 24 08	 mov	 edx, DWORD PTR [esp+8]
  00004	8d 42 0c	 lea	 eax, DWORD PTR [edx+12]
  00007	8b 4a 98	 mov	 ecx, DWORD PTR [edx-104]
  0000a	33 c8		 xor	 ecx, eax
  0000c	e8 00 00 00 00	 call	 @__security_check_cookie@4
  00011	b8 00 00 00 00	 mov	 eax, OFFSET __ehfuncinfo$?CreateInstance@?$CTempldateHelper@UIAttemperEngine@@@@QAE_NXZ
  00016	e9 00 00 00 00	 jmp	 ___CxxFrameHandler3
text$x	ENDS
?CreateInstance@?$CTempldateHelper@UIAttemperEngine@@@@QAE_NXZ ENDP ; CTempldateHelper<IAttemperEngine>::CreateInstance
; Function compile flags: /Odtp /ZI
; File g:\网狐\happygamewh\服务端\系统模块\全局定义\module.h
;	COMDAT ?CloseInstance@?$CTempldateHelper@UIAttemperEngine@@@@QAE_NXZ
_TEXT	SEGMENT
_this$ = -4						; size = 4
?CloseInstance@?$CTempldateHelper@UIAttemperEngine@@@@QAE_NXZ PROC ; CTempldateHelper<IAttemperEngine>::CloseInstance, COMDAT
; _this$ = ecx

; 264  : {

  00000	55		 push	 ebp
  00001	8b ec		 mov	 ebp, esp
  00003	83 ec 44	 sub	 esp, 68			; 00000044H
  00006	53		 push	 ebx
  00007	56		 push	 esi
  00008	57		 push	 edi
  00009	89 4d fc	 mov	 DWORD PTR _this$[ebp], ecx

; 265  : 	//设置变量
; 266  : 	m_szDescribe[0]=0;

  0000c	b8 01 00 00 00	 mov	 eax, 1
  00011	6b c8 00	 imul	 ecx, eax, 0
  00014	8b 55 fc	 mov	 edx, DWORD PTR _this$[ebp]
  00017	c6 84 0a 58 01
	00 00 00	 mov	 BYTE PTR [edx+ecx+344], 0

; 267  : 
; 268  : 	//销毁对象
; 269  : 	if (m_pIModeluInterface!=NULL)

  0001f	8b 45 fc	 mov	 eax, DWORD PTR _this$[ebp]
  00022	83 b8 54 01 00
	00 00		 cmp	 DWORD PTR [eax+340], 0
  00029	74 25		 je	 SHORT $LN2@CloseInsta

; 270  : 	{
; 271  : 		m_pIModeluInterface->Release();

  0002b	8b 45 fc	 mov	 eax, DWORD PTR _this$[ebp]
  0002e	8b 88 54 01 00
	00		 mov	 ecx, DWORD PTR [eax+340]
  00034	8b 55 fc	 mov	 edx, DWORD PTR _this$[ebp]
  00037	8b 01		 mov	 eax, DWORD PTR [ecx]
  00039	8b 8a 54 01 00
	00		 mov	 ecx, DWORD PTR [edx+340]
  0003f	8b 10		 mov	 edx, DWORD PTR [eax]
  00041	ff d2		 call	 edx

; 272  : 		m_pIModeluInterface=NULL;

  00043	8b 45 fc	 mov	 eax, DWORD PTR _this$[ebp]
  00046	c7 80 54 01 00
	00 00 00 00 00	 mov	 DWORD PTR [eax+340], 0
$LN2@CloseInsta:

; 273  : 	}
; 274  : 
; 275  : 	//释放 DLL
; 276  : 	if (m_hDllInstance!=NULL)

  00050	8b 45 fc	 mov	 eax, DWORD PTR _this$[ebp]
  00053	83 b8 50 01 00
	00 00		 cmp	 DWORD PTR [eax+336], 0
  0005a	74 1c		 je	 SHORT $LN3@CloseInsta

; 277  : 	{
; 278  : 		AfxFreeLibrary(m_hDllInstance);

  0005c	8b 45 fc	 mov	 eax, DWORD PTR _this$[ebp]
  0005f	8b 88 50 01 00
	00		 mov	 ecx, DWORD PTR [eax+336]
  00065	51		 push	 ecx
  00066	e8 00 00 00 00	 call	 ?AfxFreeLibrary@@YGHPAUHINSTANCE__@@@Z ; AfxFreeLibrary

; 279  : 		m_hDllInstance=NULL;

  0006b	8b 45 fc	 mov	 eax, DWORD PTR _this$[ebp]
  0006e	c7 80 50 01 00
	00 00 00 00 00	 mov	 DWORD PTR [eax+336], 0
$LN3@CloseInsta:

; 280  : 	}
; 281  : 
; 282  : 	return true;

  00078	b0 01		 mov	 al, 1

; 283  : }

  0007a	5f		 pop	 edi
  0007b	5e		 pop	 esi
  0007c	5b		 pop	 ebx
  0007d	8b e5		 mov	 esp, ebp
  0007f	5d		 pop	 ebp
  00080	c3		 ret	 0
?CloseInstance@?$CTempldateHelper@UIAttemperEngine@@@@QAE_NXZ ENDP ; CTempldateHelper<IAttemperEngine>::CloseInstance
_TEXT	ENDS
; Function compile flags: /Odtp /ZI
; File g:\网狐\happygamewh\服务端\系统模块\全局定义\module.h
;	COMDAT ??1?$CTempldateHelper@UIAttemperEngine@@@@UAE@XZ
_TEXT	SEGMENT
_this$ = -16						; size = 4
__$EHRec$ = -12						; size = 12
??1?$CTempldateHelper@UIAttemperEngine@@@@UAE@XZ PROC	; CTempldateHelper<IAttemperEngine>::~CTempldateHelper<IAttemperEngine>, COMDAT
; _this$ = ecx

; 205  : {

  00000	55		 push	 ebp
  00001	8b ec		 mov	 ebp, esp
  00003	6a ff		 push	 -1
  00005	68 00 00 00 00	 push	 __ehhandler$??1?$CTempldateHelper@UIAttemperEngine@@@@UAE@XZ
  0000a	64 a1 00 00 00
	00		 mov	 eax, DWORD PTR fs:0
  00010	50		 push	 eax
  00011	83 ec 44	 sub	 esp, 68			; 00000044H
  00014	53		 push	 ebx
  00015	56		 push	 esi
  00016	57		 push	 edi
  00017	a1 00 00 00 00	 mov	 eax, DWORD PTR ___security_cookie
  0001c	33 c5		 xor	 eax, ebp
  0001e	50		 push	 eax
  0001f	8d 45 f4	 lea	 eax, DWORD PTR __$EHRec$[ebp]
  00022	64 a3 00 00 00
	00		 mov	 DWORD PTR fs:0, eax
  00028	89 4d f0	 mov	 DWORD PTR _this$[ebp], ecx
  0002b	8b 45 f0	 mov	 eax, DWORD PTR _this$[ebp]
  0002e	c7 00 00 00 00
	00		 mov	 DWORD PTR [eax], OFFSET ??_7?$CTempldateHelper@UIAttemperEngine@@@@6B@

; 206  : 	CloseInstance();

  00034	8b 4d f0	 mov	 ecx, DWORD PTR _this$[ebp]
  00037	e8 00 00 00 00	 call	 ?CloseInstance@?$CTempldateHelper@UIAttemperEngine@@@@QAE_NXZ ; CTempldateHelper<IAttemperEngine>::CloseInstance

; 207  : }

  0003c	8b 4d f4	 mov	 ecx, DWORD PTR __$EHRec$[ebp]
  0003f	64 89 0d 00 00
	00 00		 mov	 DWORD PTR fs:0, ecx
  00046	59		 pop	 ecx
  00047	5f		 pop	 edi
  00048	5e		 pop	 esi
  00049	5b		 pop	 ebx
  0004a	8b e5		 mov	 esp, ebp
  0004c	5d		 pop	 ebp
  0004d	c3		 ret	 0
_TEXT	ENDS
;	COMDAT text$x
text$x	SEGMENT
__ehhandler$??1?$CTempldateHelper@UIAttemperEngine@@@@UAE@XZ:
  00000	8b 54 24 08	 mov	 edx, DWORD PTR [esp+8]
  00004	8d 42 0c	 lea	 eax, DWORD PTR [edx+12]
  00007	8b 4a ac	 mov	 ecx, DWORD PTR [edx-84]
  0000a	33 c8		 xor	 ecx, eax
  0000c	e8 00 00 00 00	 call	 @__security_check_cookie@4
  00011	b8 00 00 00 00	 mov	 eax, OFFSET __ehfuncinfo$??1?$CTempldateHelper@UIAttemperEngine@@@@UAE@XZ
  00016	e9 00 00 00 00	 jmp	 ___CxxFrameHandler3
text$x	ENDS
??1?$CTempldateHelper@UIAttemperEngine@@@@UAE@XZ ENDP	; CTempldateHelper<IAttemperEngine>::~CTempldateHelper<IAttemperEngine>
; Function compile flags: /Odtp /ZI
; File g:\网狐\happygamewh\服务端\系统模块\全局定义\module.h
;	COMDAT ??0?$CTempldateHelper@UIAttemperEngine@@@@QAE@ABU_GUID@@KPBD1@Z
_TEXT	SEGMENT
_this$ = -4						; size = 4
_Guid$ = 8						; size = 4
_dwVersion$ = 12					; size = 4
_pszModuleDll$ = 16					; size = 4
_pszCreateProc$ = 20					; size = 4
??0?$CTempldateHelper@UIAttemperEngine@@@@QAE@ABU_GUID@@KPBD1@Z PROC ; CTempldateHelper<IAttemperEngine>::CTempldateHelper<IAttemperEngine>, COMDAT
; _this$ = ecx

; 187  : {

  00000	55		 push	 ebp
  00001	8b ec		 mov	 ebp, esp
  00003	83 ec 44	 sub	 esp, 68			; 00000044H
  00006	53		 push	 ebx
  00007	56		 push	 esi
  00008	57		 push	 edi
  00009	89 4d fc	 mov	 DWORD PTR _this$[ebp], ecx
  0000c	8b 45 fc	 mov	 eax, DWORD PTR _this$[ebp]
  0000f	c7 00 00 00 00
	00		 mov	 DWORD PTR [eax], OFFSET ??_7?$CTempldateHelper@UIAttemperEngine@@@@6B@

; 186  : CTempldateHelper<IModeluInterface>::CTempldateHelper(REFGUID Guid, DWORD dwVersion, LPCTSTR pszModuleDll, LPCSTR pszCreateProc) : m_dwVersion(dwVersion), m_Guid(Guid)

  00015	8b 45 fc	 mov	 eax, DWORD PTR _this$[ebp]
  00018	8b 4d 08	 mov	 ecx, DWORD PTR _Guid$[ebp]
  0001b	89 48 04	 mov	 DWORD PTR [eax+4], ecx
  0001e	8b 45 fc	 mov	 eax, DWORD PTR _this$[ebp]
  00021	8b 4d 0c	 mov	 ecx, DWORD PTR _dwVersion$[ebp]
  00024	89 48 08	 mov	 DWORD PTR [eax+8], ecx

; 188  : 	//辅助变量
; 189  : 	m_szDescribe[0]=0;

  00027	b8 01 00 00 00	 mov	 eax, 1
  0002c	6b c8 00	 imul	 ecx, eax, 0
  0002f	8b 55 fc	 mov	 edx, DWORD PTR _this$[ebp]
  00032	c6 84 0a 58 01
	00 00 00	 mov	 BYTE PTR [edx+ecx+344], 0

; 190  : 
; 191  : 	//内核信息
; 192  : 	m_hDllInstance=NULL;

  0003a	8b 45 fc	 mov	 eax, DWORD PTR _this$[ebp]
  0003d	c7 80 50 01 00
	00 00 00 00 00	 mov	 DWORD PTR [eax+336], 0

; 193  : 	m_pIModeluInterface=NULL;

  00047	8b 45 fc	 mov	 eax, DWORD PTR _this$[ebp]
  0004a	c7 80 54 01 00
	00 00 00 00 00	 mov	 DWORD PTR [eax+340], 0

; 194  : 
; 195  : 	//组件属性
; 196  : 	lstrcpynA(m_szCreateProc,pszCreateProc,CountArray(m_szCreateProc));

  00054	6a 40		 push	 64			; 00000040H
  00056	8b 45 14	 mov	 eax, DWORD PTR _pszCreateProc$[ebp]
  00059	50		 push	 eax
  0005a	8b 4d fc	 mov	 ecx, DWORD PTR _this$[ebp]
  0005d	83 c1 0c	 add	 ecx, 12			; 0000000cH
  00060	51		 push	 ecx
  00061	ff 15 00 00 00
	00		 call	 DWORD PTR __imp__lstrcpynA@12

; 197  : 	lstrcpyn(m_szModuleDllName,pszModuleDll,CountArray(m_szModuleDllName));

  00067	68 04 01 00 00	 push	 260			; 00000104H
  0006c	8b 45 10	 mov	 eax, DWORD PTR _pszModuleDll$[ebp]
  0006f	50		 push	 eax
  00070	8b 4d fc	 mov	 ecx, DWORD PTR _this$[ebp]
  00073	83 c1 4c	 add	 ecx, 76			; 0000004cH
  00076	51		 push	 ecx
  00077	ff 15 00 00 00
	00		 call	 DWORD PTR __imp__lstrcpynA@12

; 198  : 
; 199  : 	return;
; 200  : }

  0007d	8b 45 fc	 mov	 eax, DWORD PTR _this$[ebp]
  00080	5f		 pop	 edi
  00081	5e		 pop	 esi
  00082	5b		 pop	 ebx
  00083	8b e5		 mov	 esp, ebp
  00085	5d		 pop	 ebp
  00086	c2 10 00	 ret	 16			; 00000010H
??0?$CTempldateHelper@UIAttemperEngine@@@@QAE@ABU_GUID@@KPBD1@Z ENDP ; CTempldateHelper<IAttemperEngine>::CTempldateHelper<IAttemperEngine>
_TEXT	ENDS
; Function compile flags: /Odtp /ZI
;	COMDAT ??_GCDataBaseEngineHelper@@UAEPAXI@Z
_TEXT	SEGMENT
_this$ = -4						; size = 4
___flags$ = 8						; size = 4
??_GCDataBaseEngineHelper@@UAEPAXI@Z PROC		; CDataBaseEngineHelper::`scalar deleting destructor', COMDAT
; _this$ = ecx
  00000	55		 push	 ebp
  00001	8b ec		 mov	 ebp, esp
  00003	83 ec 44	 sub	 esp, 68			; 00000044H
  00006	53		 push	 ebx
  00007	56		 push	 esi
  00008	57		 push	 edi
  00009	89 4d fc	 mov	 DWORD PTR _this$[ebp], ecx
  0000c	8b 4d fc	 mov	 ecx, DWORD PTR _this$[ebp]
  0000f	e8 00 00 00 00	 call	 ??1CDataBaseEngineHelper@@UAE@XZ
  00014	8b 45 08	 mov	 eax, DWORD PTR ___flags$[ebp]
  00017	83 e0 01	 and	 eax, 1
  0001a	74 11		 je	 SHORT $LN2@scalar
  0001c	68 d8 01 00 00	 push	 472			; 000001d8H
  00021	8b 45 fc	 mov	 eax, DWORD PTR _this$[ebp]
  00024	50		 push	 eax
  00025	e8 00 00 00 00	 call	 ??3@YAXPAXI@Z		; operator delete
  0002a	83 c4 08	 add	 esp, 8
$LN2@scalar:
  0002d	8b 45 fc	 mov	 eax, DWORD PTR _this$[ebp]
  00030	5f		 pop	 edi
  00031	5e		 pop	 esi
  00032	5b		 pop	 ebx
  00033	8b e5		 mov	 esp, ebp
  00035	5d		 pop	 ebp
  00036	c2 04 00	 ret	 4
??_GCDataBaseEngineHelper@@UAEPAXI@Z ENDP		; CDataBaseEngineHelper::`scalar deleting destructor'
_TEXT	ENDS
; Function compile flags: /Odtp /ZI
;	COMDAT ??1CDataBaseEngineHelper@@UAE@XZ
_TEXT	SEGMENT
_this$ = -4						; size = 4
??1CDataBaseEngineHelper@@UAE@XZ PROC			; CDataBaseEngineHelper::~CDataBaseEngineHelper, COMDAT
; _this$ = ecx
  00000	55		 push	 ebp
  00001	8b ec		 mov	 ebp, esp
  00003	83 ec 44	 sub	 esp, 68			; 00000044H
  00006	53		 push	 ebx
  00007	56		 push	 esi
  00008	57		 push	 edi
  00009	89 4d fc	 mov	 DWORD PTR _this$[ebp], ecx
  0000c	8b 4d fc	 mov	 ecx, DWORD PTR _this$[ebp]
  0000f	e8 00 00 00 00	 call	 ??1?$CTempldateHelper@UIDataBaseEngine@@@@UAE@XZ ; CTempldateHelper<IDataBaseEngine>::~CTempldateHelper<IDataBaseEngine>
  00014	5f		 pop	 edi
  00015	5e		 pop	 esi
  00016	5b		 pop	 ebx
  00017	8b e5		 mov	 esp, ebp
  00019	5d		 pop	 ebp
  0001a	c3		 ret	 0
??1CDataBaseEngineHelper@@UAE@XZ ENDP			; CDataBaseEngineHelper::~CDataBaseEngineHelper
_TEXT	ENDS
; Function compile flags: /Odtp /ZI
; File g:\网狐\happygamewh\服务端\系统模块\服务器组件\内核引擎\kernelenginehead.h
;	COMDAT ??0CDataBaseEngineHelper@@QAE@XZ
_TEXT	SEGMENT
_this$ = -4						; size = 4
??0CDataBaseEngineHelper@@QAE@XZ PROC			; CDataBaseEngineHelper::CDataBaseEngineHelper, COMDAT
; _this$ = ecx

; 844  : DECLARE_MODULE_HELPER(DataBaseEngine, KERNEL_ENGINE_DLL_NAME, "CreateDataBaseEngine")

  00000	55		 push	 ebp
  00001	8b ec		 mov	 ebp, esp
  00003	83 ec 44	 sub	 esp, 68			; 00000044H
  00006	53		 push	 ebx
  00007	56		 push	 esi
  00008	57		 push	 edi
  00009	89 4d fc	 mov	 DWORD PTR _this$[ebp], ecx
  0000c	68 00 00 00 00	 push	 OFFSET ??_C@_0BF@FHMKIOLL@CreateDataBaseEngine@
  00011	68 00 00 00 00	 push	 OFFSET ??_C@_0BB@BEMLEOHB@KernelEngine?4dll@
  00016	68 00 01 01 06	 push	 100729088		; 06010100H
  0001b	68 00 00 00 00	 push	 OFFSET ?IID_IDataBaseEngine@@3U_GUID@@B
  00020	8b 4d fc	 mov	 ecx, DWORD PTR _this$[ebp]
  00023	e8 00 00 00 00	 call	 ??0?$CTempldateHelper@UIDataBaseEngine@@@@QAE@ABU_GUID@@KPBD1@Z ; CTempldateHelper<IDataBaseEngine>::CTempldateHelper<IDataBaseEngine>
  00028	8b 45 fc	 mov	 eax, DWORD PTR _this$[ebp]
  0002b	c7 00 00 00 00
	00		 mov	 DWORD PTR [eax], OFFSET ??_7CDataBaseEngineHelper@@6B@
  00031	8b 45 fc	 mov	 eax, DWORD PTR _this$[ebp]
  00034	5f		 pop	 edi
  00035	5e		 pop	 esi
  00036	5b		 pop	 ebx
  00037	8b e5		 mov	 esp, ebp
  00039	5d		 pop	 ebp
  0003a	c3		 ret	 0
??0CDataBaseEngineHelper@@QAE@XZ ENDP			; CDataBaseEngineHelper::CDataBaseEngineHelper
_TEXT	ENDS
; Function compile flags: /Odtp /ZI
;	COMDAT ??_G?$CTempldateHelper@UIDataBaseEngine@@@@UAEPAXI@Z
_TEXT	SEGMENT
_this$ = -4						; size = 4
___flags$ = 8						; size = 4
??_G?$CTempldateHelper@UIDataBaseEngine@@@@UAEPAXI@Z PROC ; CTempldateHelper<IDataBaseEngine>::`scalar deleting destructor', COMDAT
; _this$ = ecx
  00000	55		 push	 ebp
  00001	8b ec		 mov	 ebp, esp
  00003	83 ec 44	 sub	 esp, 68			; 00000044H
  00006	53		 push	 ebx
  00007	56		 push	 esi
  00008	57		 push	 edi
  00009	89 4d fc	 mov	 DWORD PTR _this$[ebp], ecx
  0000c	8b 4d fc	 mov	 ecx, DWORD PTR _this$[ebp]
  0000f	e8 00 00 00 00	 call	 ??1?$CTempldateHelper@UIDataBaseEngine@@@@UAE@XZ ; CTempldateHelper<IDataBaseEngine>::~CTempldateHelper<IDataBaseEngine>
  00014	8b 45 08	 mov	 eax, DWORD PTR ___flags$[ebp]
  00017	83 e0 01	 and	 eax, 1
  0001a	74 11		 je	 SHORT $LN2@scalar
  0001c	68 d8 01 00 00	 push	 472			; 000001d8H
  00021	8b 45 fc	 mov	 eax, DWORD PTR _this$[ebp]
  00024	50		 push	 eax
  00025	e8 00 00 00 00	 call	 ??3@YAXPAXI@Z		; operator delete
  0002a	83 c4 08	 add	 esp, 8
$LN2@scalar:
  0002d	8b 45 fc	 mov	 eax, DWORD PTR _this$[ebp]
  00030	5f		 pop	 edi
  00031	5e		 pop	 esi
  00032	5b		 pop	 ebx
  00033	8b e5		 mov	 esp, ebp
  00035	5d		 pop	 ebp
  00036	c2 04 00	 ret	 4
??_G?$CTempldateHelper@UIDataBaseEngine@@@@UAEPAXI@Z ENDP ; CTempldateHelper<IDataBaseEngine>::`scalar deleting destructor'
_TEXT	ENDS
; Function compile flags: /Odtp /ZI
; File g:\网狐\happygamewh\服务端\系统模块\全局定义\module.h
;	COMDAT ?GetInterface@?$CTempldateHelper@UIDataBaseEngine@@@@QBEPAUIDataBaseEngine@@XZ
_TEXT	SEGMENT
_this$ = -4						; size = 4
?GetInterface@?$CTempldateHelper@UIDataBaseEngine@@@@QBEPAUIDataBaseEngine@@XZ PROC ; CTempldateHelper<IDataBaseEngine>::GetInterface, COMDAT
; _this$ = ecx

; 316  : { 

  00000	55		 push	 ebp
  00001	8b ec		 mov	 ebp, esp
  00003	83 ec 44	 sub	 esp, 68			; 00000044H
  00006	53		 push	 ebx
  00007	56		 push	 esi
  00008	57		 push	 edi
  00009	89 4d fc	 mov	 DWORD PTR _this$[ebp], ecx

; 317  : 	return m_pIModeluInterface; 

  0000c	8b 45 fc	 mov	 eax, DWORD PTR _this$[ebp]
  0000f	8b 80 54 01 00
	00		 mov	 eax, DWORD PTR [eax+340]

; 318  : }

  00015	5f		 pop	 edi
  00016	5e		 pop	 esi
  00017	5b		 pop	 ebx
  00018	8b e5		 mov	 esp, ebp
  0001a	5d		 pop	 ebp
  0001b	c3		 ret	 0
?GetInterface@?$CTempldateHelper@UIDataBaseEngine@@@@QBEPAUIDataBaseEngine@@XZ ENDP ; CTempldateHelper<IDataBaseEngine>::GetInterface
_TEXT	ENDS
; Function compile flags: /Odtp /ZI
; File g:\网狐\happygamewh\服务端\系统模块\全局定义\module.h
;	COMDAT ??C?$CTempldateHelper@UIDataBaseEngine@@@@QBEPAUIDataBaseEngine@@XZ
_TEXT	SEGMENT
_this$ = -4						; size = 4
??C?$CTempldateHelper@UIDataBaseEngine@@@@QBEPAUIDataBaseEngine@@XZ PROC ; CTempldateHelper<IDataBaseEngine>::operator->, COMDAT
; _this$ = ecx

; 309  : { 

  00000	55		 push	 ebp
  00001	8b ec		 mov	 ebp, esp
  00003	83 ec 44	 sub	 esp, 68			; 00000044H
  00006	53		 push	 ebx
  00007	56		 push	 esi
  00008	57		 push	 edi
  00009	89 4d fc	 mov	 DWORD PTR _this$[ebp], ecx

; 310  : 	return GetInterface(); 

  0000c	8b 4d fc	 mov	 ecx, DWORD PTR _this$[ebp]
  0000f	e8 00 00 00 00	 call	 ?GetInterface@?$CTempldateHelper@UIDataBaseEngine@@@@QBEPAUIDataBaseEngine@@XZ ; CTempldateHelper<IDataBaseEngine>::GetInterface

; 311  : }

  00014	5f		 pop	 edi
  00015	5e		 pop	 esi
  00016	5b		 pop	 ebx
  00017	8b e5		 mov	 esp, ebp
  00019	5d		 pop	 ebp
  0001a	c3		 ret	 0
??C?$CTempldateHelper@UIDataBaseEngine@@@@QBEPAUIDataBaseEngine@@XZ ENDP ; CTempldateHelper<IDataBaseEngine>::operator->
_TEXT	ENDS
; Function compile flags: /Odtp /ZI
; File g:\网狐\happygamewh\服务端\系统模块\全局定义\module.h
;	COMDAT ?CreateInstance@?$CTempldateHelper@UIDataBaseEngine@@@@QAE_NXZ
_TEXT	SEGMENT
tv173 = -100						; size = 4
tv172 = -100						; size = 4
tv171 = -100						; size = 4
tv170 = -100						; size = 4
$T2 = -94						; size = 1
$T3 = -93						; size = 1
_pszError$4 = -28					; size = 4
_CreateProc$5 = -24					; size = 4
_this$ = -20						; size = 4
__$EHRec$ = -16						; size = 16
?CreateInstance@?$CTempldateHelper@UIDataBaseEngine@@@@QAE_NXZ PROC ; CTempldateHelper<IDataBaseEngine>::CreateInstance, COMDAT
; _this$ = ecx

; 212  : {

  00000	55		 push	 ebp
  00001	8b ec		 mov	 ebp, esp
  00003	6a ff		 push	 -1
  00005	68 00 00 00 00	 push	 __ehhandler$?CreateInstance@?$CTempldateHelper@UIDataBaseEngine@@@@QAE_NXZ
  0000a	64 a1 00 00 00
	00		 mov	 eax, DWORD PTR fs:0
  00010	50		 push	 eax
  00011	51		 push	 ecx
  00012	83 ec 54	 sub	 esp, 84			; 00000054H
  00015	53		 push	 ebx
  00016	56		 push	 esi
  00017	57		 push	 edi
  00018	a1 00 00 00 00	 mov	 eax, DWORD PTR ___security_cookie
  0001d	33 c5		 xor	 eax, ebp
  0001f	50		 push	 eax
  00020	8d 45 f4	 lea	 eax, DWORD PTR __$EHRec$[ebp+4]
  00023	64 a3 00 00 00
	00		 mov	 DWORD PTR fs:0, eax
  00029	89 65 f0	 mov	 DWORD PTR __$EHRec$[ebp], esp
  0002c	89 4d ec	 mov	 DWORD PTR _this$[ebp], ecx

; 213  : 	//释放组件
; 214  : 	CloseInstance();

  0002f	8b 4d ec	 mov	 ecx, DWORD PTR _this$[ebp]
  00032	e8 00 00 00 00	 call	 ?CloseInstance@?$CTempldateHelper@UIDataBaseEngine@@@@QAE_NXZ ; CTempldateHelper<IDataBaseEngine>::CloseInstance

; 215  : 
; 216  : 	//创建组件
; 217  : 	try

  00037	c7 45 fc 00 00
	00 00		 mov	 DWORD PTR __$EHRec$[ebp+12], 0

; 218  : 	{
; 219  : 		//效验参数
; 220  : 		ASSERT(m_szCreateProc[0]!=0);

  0003e	b8 01 00 00 00	 mov	 eax, 1
  00043	6b c8 00	 imul	 ecx, eax, 0
  00046	8b 55 ec	 mov	 edx, DWORD PTR _this$[ebp]
  00049	0f be 44 0a 0c	 movsx	 eax, BYTE PTR [edx+ecx+12]
  0004e	85 c0		 test	 eax, eax
  00050	75 19		 jne	 SHORT $LN7@CreateInst
  00052	68 dc 00 00 00	 push	 220			; 000000dcH
  00057	68 00 00 00 00	 push	 OFFSET ??_C@_0DG@CDIFDKED@g?3?2?M?x?$LK?$PM?2happygamewh?2?$LH?$PO?N?q?$LG?K?2?O?$LF?M?$LD@
  0005c	e8 00 00 00 00	 call	 ?AfxAssertFailedLine@@YGHPBDH@Z ; AfxAssertFailedLine
  00061	89 45 9c	 mov	 DWORD PTR tv170[ebp], eax
  00064	83 7d 9c 00	 cmp	 DWORD PTR tv170[ebp], 0
  00068	74 01		 je	 SHORT $LN7@CreateInst
  0006a	cc		 int	 3
$LN7@CreateInst:

; 221  : 		ASSERT(m_szModuleDllName[0]!=0);

  0006b	b8 01 00 00 00	 mov	 eax, 1
  00070	6b c8 00	 imul	 ecx, eax, 0
  00073	8b 55 ec	 mov	 edx, DWORD PTR _this$[ebp]
  00076	0f be 44 0a 4c	 movsx	 eax, BYTE PTR [edx+ecx+76]
  0007b	85 c0		 test	 eax, eax
  0007d	75 19		 jne	 SHORT $LN8@CreateInst
  0007f	68 dd 00 00 00	 push	 221			; 000000ddH
  00084	68 00 00 00 00	 push	 OFFSET ??_C@_0DG@CDIFDKED@g?3?2?M?x?$LK?$PM?2happygamewh?2?$LH?$PO?N?q?$LG?K?2?O?$LF?M?$LD@
  00089	e8 00 00 00 00	 call	 ?AfxAssertFailedLine@@YGHPBDH@Z ; AfxAssertFailedLine
  0008e	89 45 9c	 mov	 DWORD PTR tv171[ebp], eax
  00091	83 7d 9c 00	 cmp	 DWORD PTR tv171[ebp], 0
  00095	74 01		 je	 SHORT $LN8@CreateInst
  00097	cc		 int	 3
$LN8@CreateInst:

; 222  : 
; 223  : 		//加载模块
; 224  : 		m_hDllInstance=AfxLoadLibrary(m_szModuleDllName);

  00098	8b 45 ec	 mov	 eax, DWORD PTR _this$[ebp]
  0009b	83 c0 4c	 add	 eax, 76			; 0000004cH
  0009e	50		 push	 eax
  0009f	e8 00 00 00 00	 call	 ?AfxLoadLibrary@@YGPAUHINSTANCE__@@PBD@Z ; AfxLoadLibrary
  000a4	89 45 9c	 mov	 DWORD PTR tv172[ebp], eax
  000a7	8b 4d ec	 mov	 ecx, DWORD PTR _this$[ebp]
  000aa	8b 55 9c	 mov	 edx, DWORD PTR tv172[ebp]
  000ad	89 91 50 01 00
	00		 mov	 DWORD PTR [ecx+336], edx

; 225  : 		if (m_hDllInstance==NULL) 

  000b3	8b 45 ec	 mov	 eax, DWORD PTR _this$[ebp]
  000b6	83 b8 50 01 00
	00 00		 cmp	 DWORD PTR [eax+336], 0
  000bd	75 2a		 jne	 SHORT $LN3@CreateInst

; 226  : 		{
; 227  : 			_sntprintf_s(m_szDescribe,CountArray(m_szDescribe),TEXT("“%s”模块加载失败"),m_szModuleDllName);

  000bf	8b 45 ec	 mov	 eax, DWORD PTR _this$[ebp]
  000c2	83 c0 4c	 add	 eax, 76			; 0000004cH
  000c5	50		 push	 eax
  000c6	68 00 00 00 00	 push	 OFFSET ??_C@_0BD@LMOFNGMO@?$KB?$LA?$CFs?$KB?$LB?D?$KD?$LP?i?$LM?S?T?X?J?$KH?$LA?$NM@
  000cb	68 80 00 00 00	 push	 128			; 00000080H
  000d0	8b 4d ec	 mov	 ecx, DWORD PTR _this$[ebp]
  000d3	81 c1 58 01 00
	00		 add	 ecx, 344		; 00000158H
  000d9	51		 push	 ecx
  000da	e8 00 00 00 00	 call	 ??$_snprintf_s@$0IA@@@YAHAAY0IA@DIPBDZZ ; _snprintf_s<128>
  000df	83 c4 10	 add	 esp, 16			; 00000010H

; 228  : 			return false;

  000e2	32 c0		 xor	 al, al
  000e4	e9 34 01 00 00	 jmp	 $LN1@CreateInst
$LN3@CreateInst:

; 229  : 		}
; 230  : 
; 231  : 		//寻找函数
; 232  : 		ModuleCreateProc * CreateProc=(ModuleCreateProc *)GetProcAddress(m_hDllInstance,m_szCreateProc);

  000e9	8b 45 ec	 mov	 eax, DWORD PTR _this$[ebp]
  000ec	83 c0 0c	 add	 eax, 12			; 0000000cH
  000ef	50		 push	 eax
  000f0	8b 4d ec	 mov	 ecx, DWORD PTR _this$[ebp]
  000f3	8b 91 50 01 00
	00		 mov	 edx, DWORD PTR [ecx+336]
  000f9	52		 push	 edx
  000fa	ff 15 00 00 00
	00		 call	 DWORD PTR __imp__GetProcAddress@8
  00100	89 45 e8	 mov	 DWORD PTR _CreateProc$5[ebp], eax

; 233  : 		if (CreateProc==NULL) 

  00103	83 7d e8 00	 cmp	 DWORD PTR _CreateProc$5[ebp], 0
  00107	75 31		 jne	 SHORT $LN4@CreateInst

; 234  : 		{		
; 235  : 			_sntprintf_s(m_szDescribe, CountArray(m_szDescribe), TEXT("找不到组件创建函数“%s”:%d"), m_szCreateProc, GetLastError());

  00109	ff 15 00 00 00
	00		 call	 DWORD PTR __imp__GetLastError@0
  0010f	50		 push	 eax
  00110	8b 45 ec	 mov	 eax, DWORD PTR _this$[ebp]
  00113	83 c0 0c	 add	 eax, 12			; 0000000cH
  00116	50		 push	 eax
  00117	68 00 00 00 00	 push	 OFFSET ??_C@_0BM@PEGNCJOH@?U?R?$LC?$LL?$LF?$LN?W?i?$LM?$PO?$LE?$LE?$LN?$KI?$LK?$KP?J?$PN?$KB?$LA?$CFs?$KB?$LB?3?$CFd@
  0011c	68 80 00 00 00	 push	 128			; 00000080H
  00121	8b 4d ec	 mov	 ecx, DWORD PTR _this$[ebp]
  00124	81 c1 58 01 00
	00		 add	 ecx, 344		; 00000158H
  0012a	51		 push	 ecx
  0012b	e8 00 00 00 00	 call	 ??$_snprintf_s@$0IA@@@YAHAAY0IA@DIPBDZZ ; _snprintf_s<128>
  00130	83 c4 14	 add	 esp, 20			; 00000014H

; 236  : 			return false;

  00133	32 c0		 xor	 al, al
  00135	e9 e3 00 00 00	 jmp	 $LN1@CreateInst
$LN4@CreateInst:

; 237  : 		}
; 238  : 
; 239  : 		//创建组件
; 240  : 		m_pIModeluInterface=(IModeluInterface *)CreateProc(m_Guid,m_dwVersion);

  0013a	8b 45 ec	 mov	 eax, DWORD PTR _this$[ebp]
  0013d	8b 48 08	 mov	 ecx, DWORD PTR [eax+8]
  00140	51		 push	 ecx
  00141	8b 55 ec	 mov	 edx, DWORD PTR _this$[ebp]
  00144	8b 42 04	 mov	 eax, DWORD PTR [edx+4]
  00147	50		 push	 eax
  00148	ff 55 e8	 call	 DWORD PTR _CreateProc$5[ebp]
  0014b	83 c4 08	 add	 esp, 8
  0014e	89 45 9c	 mov	 DWORD PTR tv173[ebp], eax
  00151	8b 4d ec	 mov	 ecx, DWORD PTR _this$[ebp]
  00154	8b 55 9c	 mov	 edx, DWORD PTR tv173[ebp]
  00157	89 91 54 01 00
	00		 mov	 DWORD PTR [ecx+340], edx

; 241  : 		if (m_pIModeluInterface==NULL) 

  0015d	8b 45 ec	 mov	 eax, DWORD PTR _this$[ebp]
  00160	83 b8 54 01 00
	00 00		 cmp	 DWORD PTR [eax+340], 0
  00167	75 2a		 jne	 SHORT $LN5@CreateInst

; 242  : 		{
; 243  : 			_sntprintf_s(m_szDescribe,CountArray(m_szDescribe),TEXT("调用函数“%s”生成对象失败"),m_szCreateProc);

  00169	8b 45 ec	 mov	 eax, DWORD PTR _this$[ebp]
  0016c	83 c0 0c	 add	 eax, 12			; 0000000cH
  0016f	50		 push	 eax
  00170	68 00 00 00 00	 push	 OFFSET ??_C@_0BL@PDAODLKM@?$LF?w?S?C?$LK?$KP?J?$PN?$KB?$LA?$CFs?$KB?$LB?I?z?$LD?I?$LG?T?O?s?J?$KH?$LA?$NM@
  00175	68 80 00 00 00	 push	 128			; 00000080H
  0017a	8b 4d ec	 mov	 ecx, DWORD PTR _this$[ebp]
  0017d	81 c1 58 01 00
	00		 add	 ecx, 344		; 00000158H
  00183	51		 push	 ecx
  00184	e8 00 00 00 00	 call	 ??$_snprintf_s@$0IA@@@YAHAAY0IA@DIPBDZZ ; _snprintf_s<128>
  00189	83 c4 10	 add	 esp, 16			; 00000010H

; 244  : 			return false;

  0018c	32 c0		 xor	 al, al
  0018e	e9 8a 00 00 00	 jmp	 $LN1@CreateInst
$LN5@CreateInst:

; 245  : 		}
; 246  : 	}

  00193	eb 63		 jmp	 SHORT $LN9@CreateInst
__catch$?CreateInstance@?$CTempldateHelper@UIDataBaseEngine@@@@QAE_NXZ$0:

; 247  : 	catch (LPCTSTR pszError)
; 248  : 	{
; 249  : 		_sntprintf_s(m_szDescribe,CountArray(m_szDescribe),TEXT("由于“%s”，组件创建失败"),pszError);

  00195	8b 45 e4	 mov	 eax, DWORD PTR _pszError$4[ebp]
  00198	50		 push	 eax
  00199	68 00 00 00 00	 push	 OFFSET ??_C@_0BJ@JGPFHIJF@?S?I?S?Z?$KB?$LA?$CFs?$KB?$LB?$KD?$KM?W?i?$LM?$PO?$LE?$LE?$LN?$KI?J?$KH?$LA?$NM@
  0019e	68 80 00 00 00	 push	 128			; 00000080H
  001a3	8b 4d ec	 mov	 ecx, DWORD PTR _this$[ebp]
  001a6	81 c1 58 01 00
	00		 add	 ecx, 344		; 00000158H
  001ac	51		 push	 ecx
  001ad	e8 00 00 00 00	 call	 ??$_snprintf_s@$0IA@@@YAHAAY0IA@DIPBDZZ ; _snprintf_s<128>
  001b2	83 c4 10	 add	 esp, 16			; 00000010H

; 250  : 		return false;

  001b5	c6 45 a3 00	 mov	 BYTE PTR $T3[ebp], 0
  001b9	b8 00 00 00 00	 mov	 eax, $LN13@CreateInst
  001be	c3		 ret	 0

; 251  : 	}

  001bf	b8 00 00 00 00	 mov	 eax, $LN9@CreateInst
  001c4	c3		 ret	 0
__catch$?CreateInstance@?$CTempldateHelper@UIDataBaseEngine@@@@QAE_NXZ$1:

; 252  : 	catch (...)	
; 253  : 	{ 
; 254  : 		_sntprintf_s(m_szDescribe,CountArray(m_szDescribe),TEXT("组件创建函数“%s”产生未知异常错误，组件创建失败"),m_szCreateProc);

  001c5	8b 45 ec	 mov	 eax, DWORD PTR _this$[ebp]
  001c8	83 c0 0c	 add	 eax, 12			; 0000000cH
  001cb	50		 push	 eax
  001cc	68 00 00 00 00	 push	 OFFSET ??_C@_0DB@JBNKENAJ@?W?i?$LM?$PO?$LE?$LE?$LN?$KI?$LK?$KP?J?$PN?$KB?$LA?$CFs?$KB?$LB?$LC?z?I?z?N?$LE?V?$KK?R?l?$LD?$KD?$LE@
  001d1	68 80 00 00 00	 push	 128			; 00000080H
  001d6	8b 4d ec	 mov	 ecx, DWORD PTR _this$[ebp]
  001d9	81 c1 58 01 00
	00		 add	 ecx, 344		; 00000158H
  001df	51		 push	 ecx
  001e0	e8 00 00 00 00	 call	 ??$_snprintf_s@$0IA@@@YAHAAY0IA@DIPBDZZ ; _snprintf_s<128>
  001e5	83 c4 10	 add	 esp, 16			; 00000010H

; 255  : 		return false;

  001e8	c6 45 a2 00	 mov	 BYTE PTR $T2[ebp], 0
  001ec	b8 00 00 00 00	 mov	 eax, $LN15@CreateInst
  001f1	c3		 ret	 0

; 256  : 	}

  001f2	b8 00 00 00 00	 mov	 eax, $LN9@CreateInst
  001f7	c3		 ret	 0
$LN9@CreateInst:
  001f8	c7 45 fc ff ff
	ff ff		 mov	 DWORD PTR __$EHRec$[ebp+12], -1
  001ff	eb 0c		 jmp	 SHORT $LN14@CreateInst
$LN15@CreateInst:
  00201	c7 45 fc ff ff
	ff ff		 mov	 DWORD PTR __$EHRec$[ebp+12], -1

; 255  : 		return false;

  00208	8a 45 a2	 mov	 al, BYTE PTR $T2[ebp]
  0020b	eb 10		 jmp	 SHORT $LN1@CreateInst
$LN14@CreateInst:
  0020d	eb 0c		 jmp	 SHORT $LN12@CreateInst
$LN13@CreateInst:
  0020f	c7 45 fc ff ff
	ff ff		 mov	 DWORD PTR __$EHRec$[ebp+12], -1

; 250  : 		return false;

  00216	8a 45 a3	 mov	 al, BYTE PTR $T3[ebp]
  00219	eb 02		 jmp	 SHORT $LN1@CreateInst
$LN12@CreateInst:

; 257  : 
; 258  : 	return true;

  0021b	b0 01		 mov	 al, 1
$LN1@CreateInst:

; 259  : }

  0021d	8b 4d f4	 mov	 ecx, DWORD PTR __$EHRec$[ebp+4]
  00220	64 89 0d 00 00
	00 00		 mov	 DWORD PTR fs:0, ecx
  00227	59		 pop	 ecx
  00228	5f		 pop	 edi
  00229	5e		 pop	 esi
  0022a	5b		 pop	 ebx
  0022b	8b e5		 mov	 esp, ebp
  0022d	5d		 pop	 ebp
  0022e	c3		 ret	 0
_TEXT	ENDS
;	COMDAT text$x
text$x	SEGMENT
__ehhandler$?CreateInstance@?$CTempldateHelper@UIDataBaseEngine@@@@QAE_NXZ:
  00000	8b 54 24 08	 mov	 edx, DWORD PTR [esp+8]
  00004	8d 42 0c	 lea	 eax, DWORD PTR [edx+12]
  00007	8b 4a 98	 mov	 ecx, DWORD PTR [edx-104]
  0000a	33 c8		 xor	 ecx, eax
  0000c	e8 00 00 00 00	 call	 @__security_check_cookie@4
  00011	b8 00 00 00 00	 mov	 eax, OFFSET __ehfuncinfo$?CreateInstance@?$CTempldateHelper@UIDataBaseEngine@@@@QAE_NXZ
  00016	e9 00 00 00 00	 jmp	 ___CxxFrameHandler3
text$x	ENDS
?CreateInstance@?$CTempldateHelper@UIDataBaseEngine@@@@QAE_NXZ ENDP ; CTempldateHelper<IDataBaseEngine>::CreateInstance
; Function compile flags: /Odtp /ZI
; File g:\网狐\happygamewh\服务端\系统模块\全局定义\module.h
;	COMDAT ?CloseInstance@?$CTempldateHelper@UIDataBaseEngine@@@@QAE_NXZ
_TEXT	SEGMENT
_this$ = -4						; size = 4
?CloseInstance@?$CTempldateHelper@UIDataBaseEngine@@@@QAE_NXZ PROC ; CTempldateHelper<IDataBaseEngine>::CloseInstance, COMDAT
; _this$ = ecx

; 264  : {

  00000	55		 push	 ebp
  00001	8b ec		 mov	 ebp, esp
  00003	83 ec 44	 sub	 esp, 68			; 00000044H
  00006	53		 push	 ebx
  00007	56		 push	 esi
  00008	57		 push	 edi
  00009	89 4d fc	 mov	 DWORD PTR _this$[ebp], ecx

; 265  : 	//设置变量
; 266  : 	m_szDescribe[0]=0;

  0000c	b8 01 00 00 00	 mov	 eax, 1
  00011	6b c8 00	 imul	 ecx, eax, 0
  00014	8b 55 fc	 mov	 edx, DWORD PTR _this$[ebp]
  00017	c6 84 0a 58 01
	00 00 00	 mov	 BYTE PTR [edx+ecx+344], 0

; 267  : 
; 268  : 	//销毁对象
; 269  : 	if (m_pIModeluInterface!=NULL)

  0001f	8b 45 fc	 mov	 eax, DWORD PTR _this$[ebp]
  00022	83 b8 54 01 00
	00 00		 cmp	 DWORD PTR [eax+340], 0
  00029	74 25		 je	 SHORT $LN2@CloseInsta

; 270  : 	{
; 271  : 		m_pIModeluInterface->Release();

  0002b	8b 45 fc	 mov	 eax, DWORD PTR _this$[ebp]
  0002e	8b 88 54 01 00
	00		 mov	 ecx, DWORD PTR [eax+340]
  00034	8b 55 fc	 mov	 edx, DWORD PTR _this$[ebp]
  00037	8b 01		 mov	 eax, DWORD PTR [ecx]
  00039	8b 8a 54 01 00
	00		 mov	 ecx, DWORD PTR [edx+340]
  0003f	8b 10		 mov	 edx, DWORD PTR [eax]
  00041	ff d2		 call	 edx

; 272  : 		m_pIModeluInterface=NULL;

  00043	8b 45 fc	 mov	 eax, DWORD PTR _this$[ebp]
  00046	c7 80 54 01 00
	00 00 00 00 00	 mov	 DWORD PTR [eax+340], 0
$LN2@CloseInsta:

; 273  : 	}
; 274  : 
; 275  : 	//释放 DLL
; 276  : 	if (m_hDllInstance!=NULL)

  00050	8b 45 fc	 mov	 eax, DWORD PTR _this$[ebp]
  00053	83 b8 50 01 00
	00 00		 cmp	 DWORD PTR [eax+336], 0
  0005a	74 1c		 je	 SHORT $LN3@CloseInsta

; 277  : 	{
; 278  : 		AfxFreeLibrary(m_hDllInstance);

  0005c	8b 45 fc	 mov	 eax, DWORD PTR _this$[ebp]
  0005f	8b 88 50 01 00
	00		 mov	 ecx, DWORD PTR [eax+336]
  00065	51		 push	 ecx
  00066	e8 00 00 00 00	 call	 ?AfxFreeLibrary@@YGHPAUHINSTANCE__@@@Z ; AfxFreeLibrary

; 279  : 		m_hDllInstance=NULL;

  0006b	8b 45 fc	 mov	 eax, DWORD PTR _this$[ebp]
  0006e	c7 80 50 01 00
	00 00 00 00 00	 mov	 DWORD PTR [eax+336], 0
$LN3@CloseInsta:

; 280  : 	}
; 281  : 
; 282  : 	return true;

  00078	b0 01		 mov	 al, 1

; 283  : }

  0007a	5f		 pop	 edi
  0007b	5e		 pop	 esi
  0007c	5b		 pop	 ebx
  0007d	8b e5		 mov	 esp, ebp
  0007f	5d		 pop	 ebp
  00080	c3		 ret	 0
?CloseInstance@?$CTempldateHelper@UIDataBaseEngine@@@@QAE_NXZ ENDP ; CTempldateHelper<IDataBaseEngine>::CloseInstance
_TEXT	ENDS
; Function compile flags: /Odtp /ZI
; File g:\网狐\happygamewh\服务端\系统模块\全局定义\module.h
;	COMDAT ??1?$CTempldateHelper@UIDataBaseEngine@@@@UAE@XZ
_TEXT	SEGMENT
_this$ = -16						; size = 4
__$EHRec$ = -12						; size = 12
??1?$CTempldateHelper@UIDataBaseEngine@@@@UAE@XZ PROC	; CTempldateHelper<IDataBaseEngine>::~CTempldateHelper<IDataBaseEngine>, COMDAT
; _this$ = ecx

; 205  : {

  00000	55		 push	 ebp
  00001	8b ec		 mov	 ebp, esp
  00003	6a ff		 push	 -1
  00005	68 00 00 00 00	 push	 __ehhandler$??1?$CTempldateHelper@UIDataBaseEngine@@@@UAE@XZ
  0000a	64 a1 00 00 00
	00		 mov	 eax, DWORD PTR fs:0
  00010	50		 push	 eax
  00011	83 ec 44	 sub	 esp, 68			; 00000044H
  00014	53		 push	 ebx
  00015	56		 push	 esi
  00016	57		 push	 edi
  00017	a1 00 00 00 00	 mov	 eax, DWORD PTR ___security_cookie
  0001c	33 c5		 xor	 eax, ebp
  0001e	50		 push	 eax
  0001f	8d 45 f4	 lea	 eax, DWORD PTR __$EHRec$[ebp]
  00022	64 a3 00 00 00
	00		 mov	 DWORD PTR fs:0, eax
  00028	89 4d f0	 mov	 DWORD PTR _this$[ebp], ecx
  0002b	8b 45 f0	 mov	 eax, DWORD PTR _this$[ebp]
  0002e	c7 00 00 00 00
	00		 mov	 DWORD PTR [eax], OFFSET ??_7?$CTempldateHelper@UIDataBaseEngine@@@@6B@

; 206  : 	CloseInstance();

  00034	8b 4d f0	 mov	 ecx, DWORD PTR _this$[ebp]
  00037	e8 00 00 00 00	 call	 ?CloseInstance@?$CTempldateHelper@UIDataBaseEngine@@@@QAE_NXZ ; CTempldateHelper<IDataBaseEngine>::CloseInstance

; 207  : }

  0003c	8b 4d f4	 mov	 ecx, DWORD PTR __$EHRec$[ebp]
  0003f	64 89 0d 00 00
	00 00		 mov	 DWORD PTR fs:0, ecx
  00046	59		 pop	 ecx
  00047	5f		 pop	 edi
  00048	5e		 pop	 esi
  00049	5b		 pop	 ebx
  0004a	8b e5		 mov	 esp, ebp
  0004c	5d		 pop	 ebp
  0004d	c3		 ret	 0
_TEXT	ENDS
;	COMDAT text$x
text$x	SEGMENT
__ehhandler$??1?$CTempldateHelper@UIDataBaseEngine@@@@UAE@XZ:
  00000	8b 54 24 08	 mov	 edx, DWORD PTR [esp+8]
  00004	8d 42 0c	 lea	 eax, DWORD PTR [edx+12]
  00007	8b 4a ac	 mov	 ecx, DWORD PTR [edx-84]
  0000a	33 c8		 xor	 ecx, eax
  0000c	e8 00 00 00 00	 call	 @__security_check_cookie@4
  00011	b8 00 00 00 00	 mov	 eax, OFFSET __ehfuncinfo$??1?$CTempldateHelper@UIDataBaseEngine@@@@UAE@XZ
  00016	e9 00 00 00 00	 jmp	 ___CxxFrameHandler3
text$x	ENDS
??1?$CTempldateHelper@UIDataBaseEngine@@@@UAE@XZ ENDP	; CTempldateHelper<IDataBaseEngine>::~CTempldateHelper<IDataBaseEngine>
; Function compile flags: /Odtp /ZI
; File g:\网狐\happygamewh\服务端\系统模块\全局定义\module.h
;	COMDAT ??0?$CTempldateHelper@UIDataBaseEngine@@@@QAE@ABU_GUID@@KPBD1@Z
_TEXT	SEGMENT
_this$ = -4						; size = 4
_Guid$ = 8						; size = 4
_dwVersion$ = 12					; size = 4
_pszModuleDll$ = 16					; size = 4
_pszCreateProc$ = 20					; size = 4
??0?$CTempldateHelper@UIDataBaseEngine@@@@QAE@ABU_GUID@@KPBD1@Z PROC ; CTempldateHelper<IDataBaseEngine>::CTempldateHelper<IDataBaseEngine>, COMDAT
; _this$ = ecx

; 187  : {

  00000	55		 push	 ebp
  00001	8b ec		 mov	 ebp, esp
  00003	83 ec 44	 sub	 esp, 68			; 00000044H
  00006	53		 push	 ebx
  00007	56		 push	 esi
  00008	57		 push	 edi
  00009	89 4d fc	 mov	 DWORD PTR _this$[ebp], ecx
  0000c	8b 45 fc	 mov	 eax, DWORD PTR _this$[ebp]
  0000f	c7 00 00 00 00
	00		 mov	 DWORD PTR [eax], OFFSET ??_7?$CTempldateHelper@UIDataBaseEngine@@@@6B@

; 186  : CTempldateHelper<IModeluInterface>::CTempldateHelper(REFGUID Guid, DWORD dwVersion, LPCTSTR pszModuleDll, LPCSTR pszCreateProc) : m_dwVersion(dwVersion), m_Guid(Guid)

  00015	8b 45 fc	 mov	 eax, DWORD PTR _this$[ebp]
  00018	8b 4d 08	 mov	 ecx, DWORD PTR _Guid$[ebp]
  0001b	89 48 04	 mov	 DWORD PTR [eax+4], ecx
  0001e	8b 45 fc	 mov	 eax, DWORD PTR _this$[ebp]
  00021	8b 4d 0c	 mov	 ecx, DWORD PTR _dwVersion$[ebp]
  00024	89 48 08	 mov	 DWORD PTR [eax+8], ecx

; 188  : 	//辅助变量
; 189  : 	m_szDescribe[0]=0;

  00027	b8 01 00 00 00	 mov	 eax, 1
  0002c	6b c8 00	 imul	 ecx, eax, 0
  0002f	8b 55 fc	 mov	 edx, DWORD PTR _this$[ebp]
  00032	c6 84 0a 58 01
	00 00 00	 mov	 BYTE PTR [edx+ecx+344], 0

; 190  : 
; 191  : 	//内核信息
; 192  : 	m_hDllInstance=NULL;

  0003a	8b 45 fc	 mov	 eax, DWORD PTR _this$[ebp]
  0003d	c7 80 50 01 00
	00 00 00 00 00	 mov	 DWORD PTR [eax+336], 0

; 193  : 	m_pIModeluInterface=NULL;

  00047	8b 45 fc	 mov	 eax, DWORD PTR _this$[ebp]
  0004a	c7 80 54 01 00
	00 00 00 00 00	 mov	 DWORD PTR [eax+340], 0

; 194  : 
; 195  : 	//组件属性
; 196  : 	lstrcpynA(m_szCreateProc,pszCreateProc,CountArray(m_szCreateProc));

  00054	6a 40		 push	 64			; 00000040H
  00056	8b 45 14	 mov	 eax, DWORD PTR _pszCreateProc$[ebp]
  00059	50		 push	 eax
  0005a	8b 4d fc	 mov	 ecx, DWORD PTR _this$[ebp]
  0005d	83 c1 0c	 add	 ecx, 12			; 0000000cH
  00060	51		 push	 ecx
  00061	ff 15 00 00 00
	00		 call	 DWORD PTR __imp__lstrcpynA@12

; 197  : 	lstrcpyn(m_szModuleDllName,pszModuleDll,CountArray(m_szModuleDllName));

  00067	68 04 01 00 00	 push	 260			; 00000104H
  0006c	8b 45 10	 mov	 eax, DWORD PTR _pszModuleDll$[ebp]
  0006f	50		 push	 eax
  00070	8b 4d fc	 mov	 ecx, DWORD PTR _this$[ebp]
  00073	83 c1 4c	 add	 ecx, 76			; 0000004cH
  00076	51		 push	 ecx
  00077	ff 15 00 00 00
	00		 call	 DWORD PTR __imp__lstrcpynA@12

; 198  : 
; 199  : 	return;
; 200  : }

  0007d	8b 45 fc	 mov	 eax, DWORD PTR _this$[ebp]
  00080	5f		 pop	 edi
  00081	5e		 pop	 esi
  00082	5b		 pop	 ebx
  00083	8b e5		 mov	 esp, ebp
  00085	5d		 pop	 ebp
  00086	c2 10 00	 ret	 16			; 00000010H
??0?$CTempldateHelper@UIDataBaseEngine@@@@QAE@ABU_GUID@@KPBD1@Z ENDP ; CTempldateHelper<IDataBaseEngine>::CTempldateHelper<IDataBaseEngine>
_TEXT	ENDS
; Function compile flags: /Odtp /ZI
;	COMDAT ??_GCTimerEngineHelper@@UAEPAXI@Z
_TEXT	SEGMENT
_this$ = -4						; size = 4
___flags$ = 8						; size = 4
??_GCTimerEngineHelper@@UAEPAXI@Z PROC			; CTimerEngineHelper::`scalar deleting destructor', COMDAT
; _this$ = ecx
  00000	55		 push	 ebp
  00001	8b ec		 mov	 ebp, esp
  00003	83 ec 44	 sub	 esp, 68			; 00000044H
  00006	53		 push	 ebx
  00007	56		 push	 esi
  00008	57		 push	 edi
  00009	89 4d fc	 mov	 DWORD PTR _this$[ebp], ecx
  0000c	8b 4d fc	 mov	 ecx, DWORD PTR _this$[ebp]
  0000f	e8 00 00 00 00	 call	 ??1CTimerEngineHelper@@UAE@XZ
  00014	8b 45 08	 mov	 eax, DWORD PTR ___flags$[ebp]
  00017	83 e0 01	 and	 eax, 1
  0001a	74 11		 je	 SHORT $LN2@scalar
  0001c	68 d8 01 00 00	 push	 472			; 000001d8H
  00021	8b 45 fc	 mov	 eax, DWORD PTR _this$[ebp]
  00024	50		 push	 eax
  00025	e8 00 00 00 00	 call	 ??3@YAXPAXI@Z		; operator delete
  0002a	83 c4 08	 add	 esp, 8
$LN2@scalar:
  0002d	8b 45 fc	 mov	 eax, DWORD PTR _this$[ebp]
  00030	5f		 pop	 edi
  00031	5e		 pop	 esi
  00032	5b		 pop	 ebx
  00033	8b e5		 mov	 esp, ebp
  00035	5d		 pop	 ebp
  00036	c2 04 00	 ret	 4
??_GCTimerEngineHelper@@UAEPAXI@Z ENDP			; CTimerEngineHelper::`scalar deleting destructor'
_TEXT	ENDS
; Function compile flags: /Odtp /ZI
;	COMDAT ??1CTimerEngineHelper@@UAE@XZ
_TEXT	SEGMENT
_this$ = -4						; size = 4
??1CTimerEngineHelper@@UAE@XZ PROC			; CTimerEngineHelper::~CTimerEngineHelper, COMDAT
; _this$ = ecx
  00000	55		 push	 ebp
  00001	8b ec		 mov	 ebp, esp
  00003	83 ec 44	 sub	 esp, 68			; 00000044H
  00006	53		 push	 ebx
  00007	56		 push	 esi
  00008	57		 push	 edi
  00009	89 4d fc	 mov	 DWORD PTR _this$[ebp], ecx
  0000c	8b 4d fc	 mov	 ecx, DWORD PTR _this$[ebp]
  0000f	e8 00 00 00 00	 call	 ??1?$CTempldateHelper@UITimerEngine@@@@UAE@XZ ; CTempldateHelper<ITimerEngine>::~CTempldateHelper<ITimerEngine>
  00014	5f		 pop	 edi
  00015	5e		 pop	 esi
  00016	5b		 pop	 ebx
  00017	8b e5		 mov	 esp, ebp
  00019	5d		 pop	 ebp
  0001a	c3		 ret	 0
??1CTimerEngineHelper@@UAE@XZ ENDP			; CTimerEngineHelper::~CTimerEngineHelper
_TEXT	ENDS
; Function compile flags: /Odtp /ZI
; File g:\网狐\happygamewh\服务端\系统模块\服务器组件\内核引擎\kernelenginehead.h
;	COMDAT ??0CTimerEngineHelper@@QAE@XZ
_TEXT	SEGMENT
_this$ = -4						; size = 4
??0CTimerEngineHelper@@QAE@XZ PROC			; CTimerEngineHelper::CTimerEngineHelper, COMDAT
; _this$ = ecx

; 843  : DECLARE_MODULE_HELPER(TimerEngine, KERNEL_ENGINE_DLL_NAME, "CreateTimerEngine")

  00000	55		 push	 ebp
  00001	8b ec		 mov	 ebp, esp
  00003	83 ec 44	 sub	 esp, 68			; 00000044H
  00006	53		 push	 ebx
  00007	56		 push	 esi
  00008	57		 push	 edi
  00009	89 4d fc	 mov	 DWORD PTR _this$[ebp], ecx
  0000c	68 00 00 00 00	 push	 OFFSET ??_C@_0BC@PLOLBCGN@CreateTimerEngine@
  00011	68 00 00 00 00	 push	 OFFSET ??_C@_0BB@BEMLEOHB@KernelEngine?4dll@
  00016	68 00 01 01 06	 push	 100729088		; 06010100H
  0001b	68 00 00 00 00	 push	 OFFSET ?IID_ITimerEngine@@3U_GUID@@B
  00020	8b 4d fc	 mov	 ecx, DWORD PTR _this$[ebp]
  00023	e8 00 00 00 00	 call	 ??0?$CTempldateHelper@UITimerEngine@@@@QAE@ABU_GUID@@KPBD1@Z ; CTempldateHelper<ITimerEngine>::CTempldateHelper<ITimerEngine>
  00028	8b 45 fc	 mov	 eax, DWORD PTR _this$[ebp]
  0002b	c7 00 00 00 00
	00		 mov	 DWORD PTR [eax], OFFSET ??_7CTimerEngineHelper@@6B@
  00031	8b 45 fc	 mov	 eax, DWORD PTR _this$[ebp]
  00034	5f		 pop	 edi
  00035	5e		 pop	 esi
  00036	5b		 pop	 ebx
  00037	8b e5		 mov	 esp, ebp
  00039	5d		 pop	 ebp
  0003a	c3		 ret	 0
??0CTimerEngineHelper@@QAE@XZ ENDP			; CTimerEngineHelper::CTimerEngineHelper
_TEXT	ENDS
; Function compile flags: /Odtp /ZI
;	COMDAT ??_G?$CTempldateHelper@UITimerEngine@@@@UAEPAXI@Z
_TEXT	SEGMENT
_this$ = -4						; size = 4
___flags$ = 8						; size = 4
??_G?$CTempldateHelper@UITimerEngine@@@@UAEPAXI@Z PROC	; CTempldateHelper<ITimerEngine>::`scalar deleting destructor', COMDAT
; _this$ = ecx
  00000	55		 push	 ebp
  00001	8b ec		 mov	 ebp, esp
  00003	83 ec 44	 sub	 esp, 68			; 00000044H
  00006	53		 push	 ebx
  00007	56		 push	 esi
  00008	57		 push	 edi
  00009	89 4d fc	 mov	 DWORD PTR _this$[ebp], ecx
  0000c	8b 4d fc	 mov	 ecx, DWORD PTR _this$[ebp]
  0000f	e8 00 00 00 00	 call	 ??1?$CTempldateHelper@UITimerEngine@@@@UAE@XZ ; CTempldateHelper<ITimerEngine>::~CTempldateHelper<ITimerEngine>
  00014	8b 45 08	 mov	 eax, DWORD PTR ___flags$[ebp]
  00017	83 e0 01	 and	 eax, 1
  0001a	74 11		 je	 SHORT $LN2@scalar
  0001c	68 d8 01 00 00	 push	 472			; 000001d8H
  00021	8b 45 fc	 mov	 eax, DWORD PTR _this$[ebp]
  00024	50		 push	 eax
  00025	e8 00 00 00 00	 call	 ??3@YAXPAXI@Z		; operator delete
  0002a	83 c4 08	 add	 esp, 8
$LN2@scalar:
  0002d	8b 45 fc	 mov	 eax, DWORD PTR _this$[ebp]
  00030	5f		 pop	 edi
  00031	5e		 pop	 esi
  00032	5b		 pop	 ebx
  00033	8b e5		 mov	 esp, ebp
  00035	5d		 pop	 ebp
  00036	c2 04 00	 ret	 4
??_G?$CTempldateHelper@UITimerEngine@@@@UAEPAXI@Z ENDP	; CTempldateHelper<ITimerEngine>::`scalar deleting destructor'
_TEXT	ENDS
; Function compile flags: /Odtp /ZI
; File g:\网狐\happygamewh\服务端\系统模块\全局定义\module.h
;	COMDAT ?GetInterface@?$CTempldateHelper@UITimerEngine@@@@QBEPAUITimerEngine@@XZ
_TEXT	SEGMENT
_this$ = -4						; size = 4
?GetInterface@?$CTempldateHelper@UITimerEngine@@@@QBEPAUITimerEngine@@XZ PROC ; CTempldateHelper<ITimerEngine>::GetInterface, COMDAT
; _this$ = ecx

; 316  : { 

  00000	55		 push	 ebp
  00001	8b ec		 mov	 ebp, esp
  00003	83 ec 44	 sub	 esp, 68			; 00000044H
  00006	53		 push	 ebx
  00007	56		 push	 esi
  00008	57		 push	 edi
  00009	89 4d fc	 mov	 DWORD PTR _this$[ebp], ecx

; 317  : 	return m_pIModeluInterface; 

  0000c	8b 45 fc	 mov	 eax, DWORD PTR _this$[ebp]
  0000f	8b 80 54 01 00
	00		 mov	 eax, DWORD PTR [eax+340]

; 318  : }

  00015	5f		 pop	 edi
  00016	5e		 pop	 esi
  00017	5b		 pop	 ebx
  00018	8b e5		 mov	 esp, ebp
  0001a	5d		 pop	 ebp
  0001b	c3		 ret	 0
?GetInterface@?$CTempldateHelper@UITimerEngine@@@@QBEPAUITimerEngine@@XZ ENDP ; CTempldateHelper<ITimerEngine>::GetInterface
_TEXT	ENDS
; Function compile flags: /Odtp /ZI
; File g:\网狐\happygamewh\服务端\系统模块\全局定义\module.h
;	COMDAT ??C?$CTempldateHelper@UITimerEngine@@@@QBEPAUITimerEngine@@XZ
_TEXT	SEGMENT
_this$ = -4						; size = 4
??C?$CTempldateHelper@UITimerEngine@@@@QBEPAUITimerEngine@@XZ PROC ; CTempldateHelper<ITimerEngine>::operator->, COMDAT
; _this$ = ecx

; 309  : { 

  00000	55		 push	 ebp
  00001	8b ec		 mov	 ebp, esp
  00003	83 ec 44	 sub	 esp, 68			; 00000044H
  00006	53		 push	 ebx
  00007	56		 push	 esi
  00008	57		 push	 edi
  00009	89 4d fc	 mov	 DWORD PTR _this$[ebp], ecx

; 310  : 	return GetInterface(); 

  0000c	8b 4d fc	 mov	 ecx, DWORD PTR _this$[ebp]
  0000f	e8 00 00 00 00	 call	 ?GetInterface@?$CTempldateHelper@UITimerEngine@@@@QBEPAUITimerEngine@@XZ ; CTempldateHelper<ITimerEngine>::GetInterface

; 311  : }

  00014	5f		 pop	 edi
  00015	5e		 pop	 esi
  00016	5b		 pop	 ebx
  00017	8b e5		 mov	 esp, ebp
  00019	5d		 pop	 ebp
  0001a	c3		 ret	 0
??C?$CTempldateHelper@UITimerEngine@@@@QBEPAUITimerEngine@@XZ ENDP ; CTempldateHelper<ITimerEngine>::operator->
_TEXT	ENDS
; Function compile flags: /Odtp /ZI
; File g:\网狐\happygamewh\服务端\系统模块\全局定义\module.h
;	COMDAT ?CreateInstance@?$CTempldateHelper@UITimerEngine@@@@QAE_NXZ
_TEXT	SEGMENT
tv173 = -100						; size = 4
tv172 = -100						; size = 4
tv171 = -100						; size = 4
tv170 = -100						; size = 4
$T2 = -94						; size = 1
$T3 = -93						; size = 1
_pszError$4 = -28					; size = 4
_CreateProc$5 = -24					; size = 4
_this$ = -20						; size = 4
__$EHRec$ = -16						; size = 16
?CreateInstance@?$CTempldateHelper@UITimerEngine@@@@QAE_NXZ PROC ; CTempldateHelper<ITimerEngine>::CreateInstance, COMDAT
; _this$ = ecx

; 212  : {

  00000	55		 push	 ebp
  00001	8b ec		 mov	 ebp, esp
  00003	6a ff		 push	 -1
  00005	68 00 00 00 00	 push	 __ehhandler$?CreateInstance@?$CTempldateHelper@UITimerEngine@@@@QAE_NXZ
  0000a	64 a1 00 00 00
	00		 mov	 eax, DWORD PTR fs:0
  00010	50		 push	 eax
  00011	51		 push	 ecx
  00012	83 ec 54	 sub	 esp, 84			; 00000054H
  00015	53		 push	 ebx
  00016	56		 push	 esi
  00017	57		 push	 edi
  00018	a1 00 00 00 00	 mov	 eax, DWORD PTR ___security_cookie
  0001d	33 c5		 xor	 eax, ebp
  0001f	50		 push	 eax
  00020	8d 45 f4	 lea	 eax, DWORD PTR __$EHRec$[ebp+4]
  00023	64 a3 00 00 00
	00		 mov	 DWORD PTR fs:0, eax
  00029	89 65 f0	 mov	 DWORD PTR __$EHRec$[ebp], esp
  0002c	89 4d ec	 mov	 DWORD PTR _this$[ebp], ecx

; 213  : 	//释放组件
; 214  : 	CloseInstance();

  0002f	8b 4d ec	 mov	 ecx, DWORD PTR _this$[ebp]
  00032	e8 00 00 00 00	 call	 ?CloseInstance@?$CTempldateHelper@UITimerEngine@@@@QAE_NXZ ; CTempldateHelper<ITimerEngine>::CloseInstance

; 215  : 
; 216  : 	//创建组件
; 217  : 	try

  00037	c7 45 fc 00 00
	00 00		 mov	 DWORD PTR __$EHRec$[ebp+12], 0

; 218  : 	{
; 219  : 		//效验参数
; 220  : 		ASSERT(m_szCreateProc[0]!=0);

  0003e	b8 01 00 00 00	 mov	 eax, 1
  00043	6b c8 00	 imul	 ecx, eax, 0
  00046	8b 55 ec	 mov	 edx, DWORD PTR _this$[ebp]
  00049	0f be 44 0a 0c	 movsx	 eax, BYTE PTR [edx+ecx+12]
  0004e	85 c0		 test	 eax, eax
  00050	75 19		 jne	 SHORT $LN7@CreateInst
  00052	68 dc 00 00 00	 push	 220			; 000000dcH
  00057	68 00 00 00 00	 push	 OFFSET ??_C@_0DG@CDIFDKED@g?3?2?M?x?$LK?$PM?2happygamewh?2?$LH?$PO?N?q?$LG?K?2?O?$LF?M?$LD@
  0005c	e8 00 00 00 00	 call	 ?AfxAssertFailedLine@@YGHPBDH@Z ; AfxAssertFailedLine
  00061	89 45 9c	 mov	 DWORD PTR tv170[ebp], eax
  00064	83 7d 9c 00	 cmp	 DWORD PTR tv170[ebp], 0
  00068	74 01		 je	 SHORT $LN7@CreateInst
  0006a	cc		 int	 3
$LN7@CreateInst:

; 221  : 		ASSERT(m_szModuleDllName[0]!=0);

  0006b	b8 01 00 00 00	 mov	 eax, 1
  00070	6b c8 00	 imul	 ecx, eax, 0
  00073	8b 55 ec	 mov	 edx, DWORD PTR _this$[ebp]
  00076	0f be 44 0a 4c	 movsx	 eax, BYTE PTR [edx+ecx+76]
  0007b	85 c0		 test	 eax, eax
  0007d	75 19		 jne	 SHORT $LN8@CreateInst
  0007f	68 dd 00 00 00	 push	 221			; 000000ddH
  00084	68 00 00 00 00	 push	 OFFSET ??_C@_0DG@CDIFDKED@g?3?2?M?x?$LK?$PM?2happygamewh?2?$LH?$PO?N?q?$LG?K?2?O?$LF?M?$LD@
  00089	e8 00 00 00 00	 call	 ?AfxAssertFailedLine@@YGHPBDH@Z ; AfxAssertFailedLine
  0008e	89 45 9c	 mov	 DWORD PTR tv171[ebp], eax
  00091	83 7d 9c 00	 cmp	 DWORD PTR tv171[ebp], 0
  00095	74 01		 je	 SHORT $LN8@CreateInst
  00097	cc		 int	 3
$LN8@CreateInst:

; 222  : 
; 223  : 		//加载模块
; 224  : 		m_hDllInstance=AfxLoadLibrary(m_szModuleDllName);

  00098	8b 45 ec	 mov	 eax, DWORD PTR _this$[ebp]
  0009b	83 c0 4c	 add	 eax, 76			; 0000004cH
  0009e	50		 push	 eax
  0009f	e8 00 00 00 00	 call	 ?AfxLoadLibrary@@YGPAUHINSTANCE__@@PBD@Z ; AfxLoadLibrary
  000a4	89 45 9c	 mov	 DWORD PTR tv172[ebp], eax
  000a7	8b 4d ec	 mov	 ecx, DWORD PTR _this$[ebp]
  000aa	8b 55 9c	 mov	 edx, DWORD PTR tv172[ebp]
  000ad	89 91 50 01 00
	00		 mov	 DWORD PTR [ecx+336], edx

; 225  : 		if (m_hDllInstance==NULL) 

  000b3	8b 45 ec	 mov	 eax, DWORD PTR _this$[ebp]
  000b6	83 b8 50 01 00
	00 00		 cmp	 DWORD PTR [eax+336], 0
  000bd	75 2a		 jne	 SHORT $LN3@CreateInst

; 226  : 		{
; 227  : 			_sntprintf_s(m_szDescribe,CountArray(m_szDescribe),TEXT("“%s”模块加载失败"),m_szModuleDllName);

  000bf	8b 45 ec	 mov	 eax, DWORD PTR _this$[ebp]
  000c2	83 c0 4c	 add	 eax, 76			; 0000004cH
  000c5	50		 push	 eax
  000c6	68 00 00 00 00	 push	 OFFSET ??_C@_0BD@LMOFNGMO@?$KB?$LA?$CFs?$KB?$LB?D?$KD?$LP?i?$LM?S?T?X?J?$KH?$LA?$NM@
  000cb	68 80 00 00 00	 push	 128			; 00000080H
  000d0	8b 4d ec	 mov	 ecx, DWORD PTR _this$[ebp]
  000d3	81 c1 58 01 00
	00		 add	 ecx, 344		; 00000158H
  000d9	51		 push	 ecx
  000da	e8 00 00 00 00	 call	 ??$_snprintf_s@$0IA@@@YAHAAY0IA@DIPBDZZ ; _snprintf_s<128>
  000df	83 c4 10	 add	 esp, 16			; 00000010H

; 228  : 			return false;

  000e2	32 c0		 xor	 al, al
  000e4	e9 34 01 00 00	 jmp	 $LN1@CreateInst
$LN3@CreateInst:

; 229  : 		}
; 230  : 
; 231  : 		//寻找函数
; 232  : 		ModuleCreateProc * CreateProc=(ModuleCreateProc *)GetProcAddress(m_hDllInstance,m_szCreateProc);

  000e9	8b 45 ec	 mov	 eax, DWORD PTR _this$[ebp]
  000ec	83 c0 0c	 add	 eax, 12			; 0000000cH
  000ef	50		 push	 eax
  000f0	8b 4d ec	 mov	 ecx, DWORD PTR _this$[ebp]
  000f3	8b 91 50 01 00
	00		 mov	 edx, DWORD PTR [ecx+336]
  000f9	52		 push	 edx
  000fa	ff 15 00 00 00
	00		 call	 DWORD PTR __imp__GetProcAddress@8
  00100	89 45 e8	 mov	 DWORD PTR _CreateProc$5[ebp], eax

; 233  : 		if (CreateProc==NULL) 

  00103	83 7d e8 00	 cmp	 DWORD PTR _CreateProc$5[ebp], 0
  00107	75 31		 jne	 SHORT $LN4@CreateInst

; 234  : 		{		
; 235  : 			_sntprintf_s(m_szDescribe, CountArray(m_szDescribe), TEXT("找不到组件创建函数“%s”:%d"), m_szCreateProc, GetLastError());

  00109	ff 15 00 00 00
	00		 call	 DWORD PTR __imp__GetLastError@0
  0010f	50		 push	 eax
  00110	8b 45 ec	 mov	 eax, DWORD PTR _this$[ebp]
  00113	83 c0 0c	 add	 eax, 12			; 0000000cH
  00116	50		 push	 eax
  00117	68 00 00 00 00	 push	 OFFSET ??_C@_0BM@PEGNCJOH@?U?R?$LC?$LL?$LF?$LN?W?i?$LM?$PO?$LE?$LE?$LN?$KI?$LK?$KP?J?$PN?$KB?$LA?$CFs?$KB?$LB?3?$CFd@
  0011c	68 80 00 00 00	 push	 128			; 00000080H
  00121	8b 4d ec	 mov	 ecx, DWORD PTR _this$[ebp]
  00124	81 c1 58 01 00
	00		 add	 ecx, 344		; 00000158H
  0012a	51		 push	 ecx
  0012b	e8 00 00 00 00	 call	 ??$_snprintf_s@$0IA@@@YAHAAY0IA@DIPBDZZ ; _snprintf_s<128>
  00130	83 c4 14	 add	 esp, 20			; 00000014H

; 236  : 			return false;

  00133	32 c0		 xor	 al, al
  00135	e9 e3 00 00 00	 jmp	 $LN1@CreateInst
$LN4@CreateInst:

; 237  : 		}
; 238  : 
; 239  : 		//创建组件
; 240  : 		m_pIModeluInterface=(IModeluInterface *)CreateProc(m_Guid,m_dwVersion);

  0013a	8b 45 ec	 mov	 eax, DWORD PTR _this$[ebp]
  0013d	8b 48 08	 mov	 ecx, DWORD PTR [eax+8]
  00140	51		 push	 ecx
  00141	8b 55 ec	 mov	 edx, DWORD PTR _this$[ebp]
  00144	8b 42 04	 mov	 eax, DWORD PTR [edx+4]
  00147	50		 push	 eax
  00148	ff 55 e8	 call	 DWORD PTR _CreateProc$5[ebp]
  0014b	83 c4 08	 add	 esp, 8
  0014e	89 45 9c	 mov	 DWORD PTR tv173[ebp], eax
  00151	8b 4d ec	 mov	 ecx, DWORD PTR _this$[ebp]
  00154	8b 55 9c	 mov	 edx, DWORD PTR tv173[ebp]
  00157	89 91 54 01 00
	00		 mov	 DWORD PTR [ecx+340], edx

; 241  : 		if (m_pIModeluInterface==NULL) 

  0015d	8b 45 ec	 mov	 eax, DWORD PTR _this$[ebp]
  00160	83 b8 54 01 00
	00 00		 cmp	 DWORD PTR [eax+340], 0
  00167	75 2a		 jne	 SHORT $LN5@CreateInst

; 242  : 		{
; 243  : 			_sntprintf_s(m_szDescribe,CountArray(m_szDescribe),TEXT("调用函数“%s”生成对象失败"),m_szCreateProc);

  00169	8b 45 ec	 mov	 eax, DWORD PTR _this$[ebp]
  0016c	83 c0 0c	 add	 eax, 12			; 0000000cH
  0016f	50		 push	 eax
  00170	68 00 00 00 00	 push	 OFFSET ??_C@_0BL@PDAODLKM@?$LF?w?S?C?$LK?$KP?J?$PN?$KB?$LA?$CFs?$KB?$LB?I?z?$LD?I?$LG?T?O?s?J?$KH?$LA?$NM@
  00175	68 80 00 00 00	 push	 128			; 00000080H
  0017a	8b 4d ec	 mov	 ecx, DWORD PTR _this$[ebp]
  0017d	81 c1 58 01 00
	00		 add	 ecx, 344		; 00000158H
  00183	51		 push	 ecx
  00184	e8 00 00 00 00	 call	 ??$_snprintf_s@$0IA@@@YAHAAY0IA@DIPBDZZ ; _snprintf_s<128>
  00189	83 c4 10	 add	 esp, 16			; 00000010H

; 244  : 			return false;

  0018c	32 c0		 xor	 al, al
  0018e	e9 8a 00 00 00	 jmp	 $LN1@CreateInst
$LN5@CreateInst:

; 245  : 		}
; 246  : 	}

  00193	eb 63		 jmp	 SHORT $LN9@CreateInst
__catch$?CreateInstance@?$CTempldateHelper@UITimerEngine@@@@QAE_NXZ$0:

; 247  : 	catch (LPCTSTR pszError)
; 248  : 	{
; 249  : 		_sntprintf_s(m_szDescribe,CountArray(m_szDescribe),TEXT("由于“%s”，组件创建失败"),pszError);

  00195	8b 45 e4	 mov	 eax, DWORD PTR _pszError$4[ebp]
  00198	50		 push	 eax
  00199	68 00 00 00 00	 push	 OFFSET ??_C@_0BJ@JGPFHIJF@?S?I?S?Z?$KB?$LA?$CFs?$KB?$LB?$KD?$KM?W?i?$LM?$PO?$LE?$LE?$LN?$KI?J?$KH?$LA?$NM@
  0019e	68 80 00 00 00	 push	 128			; 00000080H
  001a3	8b 4d ec	 mov	 ecx, DWORD PTR _this$[ebp]
  001a6	81 c1 58 01 00
	00		 add	 ecx, 344		; 00000158H
  001ac	51		 push	 ecx
  001ad	e8 00 00 00 00	 call	 ??$_snprintf_s@$0IA@@@YAHAAY0IA@DIPBDZZ ; _snprintf_s<128>
  001b2	83 c4 10	 add	 esp, 16			; 00000010H

; 250  : 		return false;

  001b5	c6 45 a3 00	 mov	 BYTE PTR $T3[ebp], 0
  001b9	b8 00 00 00 00	 mov	 eax, $LN13@CreateInst
  001be	c3		 ret	 0

; 251  : 	}

  001bf	b8 00 00 00 00	 mov	 eax, $LN9@CreateInst
  001c4	c3		 ret	 0
__catch$?CreateInstance@?$CTempldateHelper@UITimerEngine@@@@QAE_NXZ$1:

; 252  : 	catch (...)	
; 253  : 	{ 
; 254  : 		_sntprintf_s(m_szDescribe,CountArray(m_szDescribe),TEXT("组件创建函数“%s”产生未知异常错误，组件创建失败"),m_szCreateProc);

  001c5	8b 45 ec	 mov	 eax, DWORD PTR _this$[ebp]
  001c8	83 c0 0c	 add	 eax, 12			; 0000000cH
  001cb	50		 push	 eax
  001cc	68 00 00 00 00	 push	 OFFSET ??_C@_0DB@JBNKENAJ@?W?i?$LM?$PO?$LE?$LE?$LN?$KI?$LK?$KP?J?$PN?$KB?$LA?$CFs?$KB?$LB?$LC?z?I?z?N?$LE?V?$KK?R?l?$LD?$KD?$LE@
  001d1	68 80 00 00 00	 push	 128			; 00000080H
  001d6	8b 4d ec	 mov	 ecx, DWORD PTR _this$[ebp]
  001d9	81 c1 58 01 00
	00		 add	 ecx, 344		; 00000158H
  001df	51		 push	 ecx
  001e0	e8 00 00 00 00	 call	 ??$_snprintf_s@$0IA@@@YAHAAY0IA@DIPBDZZ ; _snprintf_s<128>
  001e5	83 c4 10	 add	 esp, 16			; 00000010H

; 255  : 		return false;

  001e8	c6 45 a2 00	 mov	 BYTE PTR $T2[ebp], 0
  001ec	b8 00 00 00 00	 mov	 eax, $LN15@CreateInst
  001f1	c3		 ret	 0

; 256  : 	}

  001f2	b8 00 00 00 00	 mov	 eax, $LN9@CreateInst
  001f7	c3		 ret	 0
$LN9@CreateInst:
  001f8	c7 45 fc ff ff
	ff ff		 mov	 DWORD PTR __$EHRec$[ebp+12], -1
  001ff	eb 0c		 jmp	 SHORT $LN14@CreateInst
$LN15@CreateInst:
  00201	c7 45 fc ff ff
	ff ff		 mov	 DWORD PTR __$EHRec$[ebp+12], -1

; 255  : 		return false;

  00208	8a 45 a2	 mov	 al, BYTE PTR $T2[ebp]
  0020b	eb 10		 jmp	 SHORT $LN1@CreateInst
$LN14@CreateInst:
  0020d	eb 0c		 jmp	 SHORT $LN12@CreateInst
$LN13@CreateInst:
  0020f	c7 45 fc ff ff
	ff ff		 mov	 DWORD PTR __$EHRec$[ebp+12], -1

; 250  : 		return false;

  00216	8a 45 a3	 mov	 al, BYTE PTR $T3[ebp]
  00219	eb 02		 jmp	 SHORT $LN1@CreateInst
$LN12@CreateInst:

; 257  : 
; 258  : 	return true;

  0021b	b0 01		 mov	 al, 1
$LN1@CreateInst:

; 259  : }

  0021d	8b 4d f4	 mov	 ecx, DWORD PTR __$EHRec$[ebp+4]
  00220	64 89 0d 00 00
	00 00		 mov	 DWORD PTR fs:0, ecx
  00227	59		 pop	 ecx
  00228	5f		 pop	 edi
  00229	5e		 pop	 esi
  0022a	5b		 pop	 ebx
  0022b	8b e5		 mov	 esp, ebp
  0022d	5d		 pop	 ebp
  0022e	c3		 ret	 0
_TEXT	ENDS
;	COMDAT text$x
text$x	SEGMENT
__ehhandler$?CreateInstance@?$CTempldateHelper@UITimerEngine@@@@QAE_NXZ:
  00000	8b 54 24 08	 mov	 edx, DWORD PTR [esp+8]
  00004	8d 42 0c	 lea	 eax, DWORD PTR [edx+12]
  00007	8b 4a 98	 mov	 ecx, DWORD PTR [edx-104]
  0000a	33 c8		 xor	 ecx, eax
  0000c	e8 00 00 00 00	 call	 @__security_check_cookie@4
  00011	b8 00 00 00 00	 mov	 eax, OFFSET __ehfuncinfo$?CreateInstance@?$CTempldateHelper@UITimerEngine@@@@QAE_NXZ
  00016	e9 00 00 00 00	 jmp	 ___CxxFrameHandler3
text$x	ENDS
?CreateInstance@?$CTempldateHelper@UITimerEngine@@@@QAE_NXZ ENDP ; CTempldateHelper<ITimerEngine>::CreateInstance
; Function compile flags: /Odtp /ZI
; File g:\网狐\happygamewh\服务端\系统模块\全局定义\module.h
;	COMDAT ?CloseInstance@?$CTempldateHelper@UITimerEngine@@@@QAE_NXZ
_TEXT	SEGMENT
_this$ = -4						; size = 4
?CloseInstance@?$CTempldateHelper@UITimerEngine@@@@QAE_NXZ PROC ; CTempldateHelper<ITimerEngine>::CloseInstance, COMDAT
; _this$ = ecx

; 264  : {

  00000	55		 push	 ebp
  00001	8b ec		 mov	 ebp, esp
  00003	83 ec 44	 sub	 esp, 68			; 00000044H
  00006	53		 push	 ebx
  00007	56		 push	 esi
  00008	57		 push	 edi
  00009	89 4d fc	 mov	 DWORD PTR _this$[ebp], ecx

; 265  : 	//设置变量
; 266  : 	m_szDescribe[0]=0;

  0000c	b8 01 00 00 00	 mov	 eax, 1
  00011	6b c8 00	 imul	 ecx, eax, 0
  00014	8b 55 fc	 mov	 edx, DWORD PTR _this$[ebp]
  00017	c6 84 0a 58 01
	00 00 00	 mov	 BYTE PTR [edx+ecx+344], 0

; 267  : 
; 268  : 	//销毁对象
; 269  : 	if (m_pIModeluInterface!=NULL)

  0001f	8b 45 fc	 mov	 eax, DWORD PTR _this$[ebp]
  00022	83 b8 54 01 00
	00 00		 cmp	 DWORD PTR [eax+340], 0
  00029	74 25		 je	 SHORT $LN2@CloseInsta

; 270  : 	{
; 271  : 		m_pIModeluInterface->Release();

  0002b	8b 45 fc	 mov	 eax, DWORD PTR _this$[ebp]
  0002e	8b 88 54 01 00
	00		 mov	 ecx, DWORD PTR [eax+340]
  00034	8b 55 fc	 mov	 edx, DWORD PTR _this$[ebp]
  00037	8b 01		 mov	 eax, DWORD PTR [ecx]
  00039	8b 8a 54 01 00
	00		 mov	 ecx, DWORD PTR [edx+340]
  0003f	8b 10		 mov	 edx, DWORD PTR [eax]
  00041	ff d2		 call	 edx

; 272  : 		m_pIModeluInterface=NULL;

  00043	8b 45 fc	 mov	 eax, DWORD PTR _this$[ebp]
  00046	c7 80 54 01 00
	00 00 00 00 00	 mov	 DWORD PTR [eax+340], 0
$LN2@CloseInsta:

; 273  : 	}
; 274  : 
; 275  : 	//释放 DLL
; 276  : 	if (m_hDllInstance!=NULL)

  00050	8b 45 fc	 mov	 eax, DWORD PTR _this$[ebp]
  00053	83 b8 50 01 00
	00 00		 cmp	 DWORD PTR [eax+336], 0
  0005a	74 1c		 je	 SHORT $LN3@CloseInsta

; 277  : 	{
; 278  : 		AfxFreeLibrary(m_hDllInstance);

  0005c	8b 45 fc	 mov	 eax, DWORD PTR _this$[ebp]
  0005f	8b 88 50 01 00
	00		 mov	 ecx, DWORD PTR [eax+336]
  00065	51		 push	 ecx
  00066	e8 00 00 00 00	 call	 ?AfxFreeLibrary@@YGHPAUHINSTANCE__@@@Z ; AfxFreeLibrary

; 279  : 		m_hDllInstance=NULL;

  0006b	8b 45 fc	 mov	 eax, DWORD PTR _this$[ebp]
  0006e	c7 80 50 01 00
	00 00 00 00 00	 mov	 DWORD PTR [eax+336], 0
$LN3@CloseInsta:

; 280  : 	}
; 281  : 
; 282  : 	return true;

  00078	b0 01		 mov	 al, 1

; 283  : }

  0007a	5f		 pop	 edi
  0007b	5e		 pop	 esi
  0007c	5b		 pop	 ebx
  0007d	8b e5		 mov	 esp, ebp
  0007f	5d		 pop	 ebp
  00080	c3		 ret	 0
?CloseInstance@?$CTempldateHelper@UITimerEngine@@@@QAE_NXZ ENDP ; CTempldateHelper<ITimerEngine>::CloseInstance
_TEXT	ENDS
; Function compile flags: /Odtp /ZI
; File g:\网狐\happygamewh\服务端\系统模块\全局定义\module.h
;	COMDAT ??1?$CTempldateHelper@UITimerEngine@@@@UAE@XZ
_TEXT	SEGMENT
_this$ = -16						; size = 4
__$EHRec$ = -12						; size = 12
??1?$CTempldateHelper@UITimerEngine@@@@UAE@XZ PROC	; CTempldateHelper<ITimerEngine>::~CTempldateHelper<ITimerEngine>, COMDAT
; _this$ = ecx

; 205  : {

  00000	55		 push	 ebp
  00001	8b ec		 mov	 ebp, esp
  00003	6a ff		 push	 -1
  00005	68 00 00 00 00	 push	 __ehhandler$??1?$CTempldateHelper@UITimerEngine@@@@UAE@XZ
  0000a	64 a1 00 00 00
	00		 mov	 eax, DWORD PTR fs:0
  00010	50		 push	 eax
  00011	83 ec 44	 sub	 esp, 68			; 00000044H
  00014	53		 push	 ebx
  00015	56		 push	 esi
  00016	57		 push	 edi
  00017	a1 00 00 00 00	 mov	 eax, DWORD PTR ___security_cookie
  0001c	33 c5		 xor	 eax, ebp
  0001e	50		 push	 eax
  0001f	8d 45 f4	 lea	 eax, DWORD PTR __$EHRec$[ebp]
  00022	64 a3 00 00 00
	00		 mov	 DWORD PTR fs:0, eax
  00028	89 4d f0	 mov	 DWORD PTR _this$[ebp], ecx
  0002b	8b 45 f0	 mov	 eax, DWORD PTR _this$[ebp]
  0002e	c7 00 00 00 00
	00		 mov	 DWORD PTR [eax], OFFSET ??_7?$CTempldateHelper@UITimerEngine@@@@6B@

; 206  : 	CloseInstance();

  00034	8b 4d f0	 mov	 ecx, DWORD PTR _this$[ebp]
  00037	e8 00 00 00 00	 call	 ?CloseInstance@?$CTempldateHelper@UITimerEngine@@@@QAE_NXZ ; CTempldateHelper<ITimerEngine>::CloseInstance

; 207  : }

  0003c	8b 4d f4	 mov	 ecx, DWORD PTR __$EHRec$[ebp]
  0003f	64 89 0d 00 00
	00 00		 mov	 DWORD PTR fs:0, ecx
  00046	59		 pop	 ecx
  00047	5f		 pop	 edi
  00048	5e		 pop	 esi
  00049	5b		 pop	 ebx
  0004a	8b e5		 mov	 esp, ebp
  0004c	5d		 pop	 ebp
  0004d	c3		 ret	 0
_TEXT	ENDS
;	COMDAT text$x
text$x	SEGMENT
__ehhandler$??1?$CTempldateHelper@UITimerEngine@@@@UAE@XZ:
  00000	8b 54 24 08	 mov	 edx, DWORD PTR [esp+8]
  00004	8d 42 0c	 lea	 eax, DWORD PTR [edx+12]
  00007	8b 4a ac	 mov	 ecx, DWORD PTR [edx-84]
  0000a	33 c8		 xor	 ecx, eax
  0000c	e8 00 00 00 00	 call	 @__security_check_cookie@4
  00011	b8 00 00 00 00	 mov	 eax, OFFSET __ehfuncinfo$??1?$CTempldateHelper@UITimerEngine@@@@UAE@XZ
  00016	e9 00 00 00 00	 jmp	 ___CxxFrameHandler3
text$x	ENDS
??1?$CTempldateHelper@UITimerEngine@@@@UAE@XZ ENDP	; CTempldateHelper<ITimerEngine>::~CTempldateHelper<ITimerEngine>
; Function compile flags: /Odtp /ZI
; File g:\网狐\happygamewh\服务端\系统模块\全局定义\module.h
;	COMDAT ??0?$CTempldateHelper@UITimerEngine@@@@QAE@ABU_GUID@@KPBD1@Z
_TEXT	SEGMENT
_this$ = -4						; size = 4
_Guid$ = 8						; size = 4
_dwVersion$ = 12					; size = 4
_pszModuleDll$ = 16					; size = 4
_pszCreateProc$ = 20					; size = 4
??0?$CTempldateHelper@UITimerEngine@@@@QAE@ABU_GUID@@KPBD1@Z PROC ; CTempldateHelper<ITimerEngine>::CTempldateHelper<ITimerEngine>, COMDAT
; _this$ = ecx

; 187  : {

  00000	55		 push	 ebp
  00001	8b ec		 mov	 ebp, esp
  00003	83 ec 44	 sub	 esp, 68			; 00000044H
  00006	53		 push	 ebx
  00007	56		 push	 esi
  00008	57		 push	 edi
  00009	89 4d fc	 mov	 DWORD PTR _this$[ebp], ecx
  0000c	8b 45 fc	 mov	 eax, DWORD PTR _this$[ebp]
  0000f	c7 00 00 00 00
	00		 mov	 DWORD PTR [eax], OFFSET ??_7?$CTempldateHelper@UITimerEngine@@@@6B@

; 186  : CTempldateHelper<IModeluInterface>::CTempldateHelper(REFGUID Guid, DWORD dwVersion, LPCTSTR pszModuleDll, LPCSTR pszCreateProc) : m_dwVersion(dwVersion), m_Guid(Guid)

  00015	8b 45 fc	 mov	 eax, DWORD PTR _this$[ebp]
  00018	8b 4d 08	 mov	 ecx, DWORD PTR _Guid$[ebp]
  0001b	89 48 04	 mov	 DWORD PTR [eax+4], ecx
  0001e	8b 45 fc	 mov	 eax, DWORD PTR _this$[ebp]
  00021	8b 4d 0c	 mov	 ecx, DWORD PTR _dwVersion$[ebp]
  00024	89 48 08	 mov	 DWORD PTR [eax+8], ecx

; 188  : 	//辅助变量
; 189  : 	m_szDescribe[0]=0;

  00027	b8 01 00 00 00	 mov	 eax, 1
  0002c	6b c8 00	 imul	 ecx, eax, 0
  0002f	8b 55 fc	 mov	 edx, DWORD PTR _this$[ebp]
  00032	c6 84 0a 58 01
	00 00 00	 mov	 BYTE PTR [edx+ecx+344], 0

; 190  : 
; 191  : 	//内核信息
; 192  : 	m_hDllInstance=NULL;

  0003a	8b 45 fc	 mov	 eax, DWORD PTR _this$[ebp]
  0003d	c7 80 50 01 00
	00 00 00 00 00	 mov	 DWORD PTR [eax+336], 0

; 193  : 	m_pIModeluInterface=NULL;

  00047	8b 45 fc	 mov	 eax, DWORD PTR _this$[ebp]
  0004a	c7 80 54 01 00
	00 00 00 00 00	 mov	 DWORD PTR [eax+340], 0

; 194  : 
; 195  : 	//组件属性
; 196  : 	lstrcpynA(m_szCreateProc,pszCreateProc,CountArray(m_szCreateProc));

  00054	6a 40		 push	 64			; 00000040H
  00056	8b 45 14	 mov	 eax, DWORD PTR _pszCreateProc$[ebp]
  00059	50		 push	 eax
  0005a	8b 4d fc	 mov	 ecx, DWORD PTR _this$[ebp]
  0005d	83 c1 0c	 add	 ecx, 12			; 0000000cH
  00060	51		 push	 ecx
  00061	ff 15 00 00 00
	00		 call	 DWORD PTR __imp__lstrcpynA@12

; 197  : 	lstrcpyn(m_szModuleDllName,pszModuleDll,CountArray(m_szModuleDllName));

  00067	68 04 01 00 00	 push	 260			; 00000104H
  0006c	8b 45 10	 mov	 eax, DWORD PTR _pszModuleDll$[ebp]
  0006f	50		 push	 eax
  00070	8b 4d fc	 mov	 ecx, DWORD PTR _this$[ebp]
  00073	83 c1 4c	 add	 ecx, 76			; 0000004cH
  00076	51		 push	 ecx
  00077	ff 15 00 00 00
	00		 call	 DWORD PTR __imp__lstrcpynA@12

; 198  : 
; 199  : 	return;
; 200  : }

  0007d	8b 45 fc	 mov	 eax, DWORD PTR _this$[ebp]
  00080	5f		 pop	 edi
  00081	5e		 pop	 esi
  00082	5b		 pop	 ebx
  00083	8b e5		 mov	 esp, ebp
  00085	5d		 pop	 ebp
  00086	c2 10 00	 ret	 16			; 00000010H
??0?$CTempldateHelper@UITimerEngine@@@@QAE@ABU_GUID@@KPBD1@Z ENDP ; CTempldateHelper<ITimerEngine>::CTempldateHelper<ITimerEngine>
_TEXT	ENDS
; Function compile flags: /Odtp /ZI
; File c:\program files (x86)\microsoft visual studio\2017\community\vc\tools\msvc\14.16.27023\atlmfc\include\atltypes.h
;	COMDAT ??0CRect@@QAE@HHHH@Z
_TEXT	SEGMENT
_this$ = -4						; size = 4
_l$ = 8							; size = 4
_t$ = 12						; size = 4
_r$ = 16						; size = 4
_b$ = 20						; size = 4
??0CRect@@QAE@HHHH@Z PROC				; CRect::CRect, COMDAT
; _this$ = ecx

; 539  : {

  00000	55		 push	 ebp
  00001	8b ec		 mov	 ebp, esp
  00003	83 ec 44	 sub	 esp, 68			; 00000044H
  00006	53		 push	 ebx
  00007	56		 push	 esi
  00008	57		 push	 edi
  00009	89 4d fc	 mov	 DWORD PTR _this$[ebp], ecx

; 540  : 	left = l;

  0000c	8b 45 fc	 mov	 eax, DWORD PTR _this$[ebp]
  0000f	8b 4d 08	 mov	 ecx, DWORD PTR _l$[ebp]
  00012	89 08		 mov	 DWORD PTR [eax], ecx

; 541  : 	top = t;

  00014	8b 45 fc	 mov	 eax, DWORD PTR _this$[ebp]
  00017	8b 4d 0c	 mov	 ecx, DWORD PTR _t$[ebp]
  0001a	89 48 04	 mov	 DWORD PTR [eax+4], ecx

; 542  : 	right = r;

  0001d	8b 45 fc	 mov	 eax, DWORD PTR _this$[ebp]
  00020	8b 4d 10	 mov	 ecx, DWORD PTR _r$[ebp]
  00023	89 48 08	 mov	 DWORD PTR [eax+8], ecx

; 543  : 	bottom = b;

  00026	8b 45 fc	 mov	 eax, DWORD PTR _this$[ebp]
  00029	8b 4d 14	 mov	 ecx, DWORD PTR _b$[ebp]
  0002c	89 48 0c	 mov	 DWORD PTR [eax+12], ecx

; 544  : }

  0002f	8b 45 fc	 mov	 eax, DWORD PTR _this$[ebp]
  00032	5f		 pop	 edi
  00033	5e		 pop	 esi
  00034	5b		 pop	 ebx
  00035	8b e5		 mov	 esp, ebp
  00037	5d		 pop	 ebp
  00038	c2 10 00	 ret	 16			; 00000010H
??0CRect@@QAE@HHHH@Z ENDP				; CRect::CRect
_TEXT	ENDS
; Function compile flags: /Odtp /ZI
; File c:\program files (x86)\microsoft visual studio\2017\community\vc\tools\msvc\14.16.27023\atlmfc\include\afx.h
;	COMDAT ?AfxAssertFailedLine@@YGHPBDH@Z
_TEXT	SEGMENT
_bResult$ = -36						; size = 4
_bQuit$ = -32						; size = 4
_msg$ = -28						; size = 28
_lpszFileName$ = 8					; size = 4
_nLine$ = 12						; size = 4
?AfxAssertFailedLine@@YGHPBDH@Z PROC			; AfxAssertFailedLine, COMDAT

; 312  : {

  00000	55		 push	 ebp
  00001	8b ec		 mov	 ebp, esp
  00003	83 ec 64	 sub	 esp, 100		; 00000064H
  00006	53		 push	 ebx
  00007	56		 push	 esi
  00008	57		 push	 edi

; 313  : 	// we remove WM_QUIT because if it is in the queue then the message box
; 314  : 	// won't display
; 315  : 	MSG msg;
; 316  : 	BOOL bQuit = PeekMessage(&msg, NULL, WM_QUIT, WM_QUIT, PM_REMOVE);

  00009	6a 01		 push	 1
  0000b	6a 12		 push	 18			; 00000012H
  0000d	6a 12		 push	 18			; 00000012H
  0000f	6a 00		 push	 0
  00011	8d 45 e4	 lea	 eax, DWORD PTR _msg$[ebp]
  00014	50		 push	 eax
  00015	ff 15 00 00 00
	00		 call	 DWORD PTR __imp__PeekMessageA@20
  0001b	89 45 e0	 mov	 DWORD PTR _bQuit$[ebp], eax

; 317  : 	BOOL bResult = _CrtDbgReport(_CRT_ASSERT, lpszFileName, nLine, NULL, NULL);

  0001e	6a 00		 push	 0
  00020	6a 00		 push	 0
  00022	8b 45 0c	 mov	 eax, DWORD PTR _nLine$[ebp]
  00025	50		 push	 eax
  00026	8b 4d 08	 mov	 ecx, DWORD PTR _lpszFileName$[ebp]
  00029	51		 push	 ecx
  0002a	6a 02		 push	 2
  0002c	ff 15 00 00 00
	00		 call	 DWORD PTR __imp___CrtDbgReport
  00032	83 c4 14	 add	 esp, 20			; 00000014H
  00035	89 45 dc	 mov	 DWORD PTR _bResult$[ebp], eax

; 318  : 	if (bQuit)

  00038	83 7d e0 00	 cmp	 DWORD PTR _bQuit$[ebp], 0
  0003c	74 0a		 je	 SHORT $LN2@AfxAssertF

; 319  : 		PostQuitMessage((int)msg.wParam);

  0003e	8b 45 ec	 mov	 eax, DWORD PTR _msg$[ebp+8]
  00041	50		 push	 eax
  00042	ff 15 00 00 00
	00		 call	 DWORD PTR __imp__PostQuitMessage@4
$LN2@AfxAssertF:

; 320  : 	return bResult;

  00048	8b 45 dc	 mov	 eax, DWORD PTR _bResult$[ebp]

; 321  : }

  0004b	5f		 pop	 edi
  0004c	5e		 pop	 esi
  0004d	5b		 pop	 ebx
  0004e	8b e5		 mov	 esp, ebp
  00050	5d		 pop	 ebp
  00051	c2 08 00	 ret	 8
?AfxAssertFailedLine@@YGHPBDH@Z ENDP			; AfxAssertFailedLine
_TEXT	ENDS
; Function compile flags: /Odtp /ZI
; File c:\program files (x86)\windows kits\10\include\10.0.17763.0\ucrt\stdio.h
;	COMDAT __vsnprintf_s
_TEXT	SEGMENT
__Buffer$ = 8						; size = 4
__BufferCount$ = 12					; size = 4
__MaxCount$ = 16					; size = 4
__Format$ = 20						; size = 4
__ArgList$ = 24						; size = 4
__vsnprintf_s PROC					; COMDAT

; 1605 :     {

  00000	55		 push	 ebp
  00001	8b ec		 mov	 ebp, esp
  00003	83 ec 40	 sub	 esp, 64			; 00000040H
  00006	53		 push	 ebx
  00007	56		 push	 esi
  00008	57		 push	 edi

; 1606 :         return _vsnprintf_s_l(_Buffer, _BufferCount, _MaxCount, _Format, NULL, _ArgList);

  00009	8b 45 18	 mov	 eax, DWORD PTR __ArgList$[ebp]
  0000c	50		 push	 eax
  0000d	6a 00		 push	 0
  0000f	8b 4d 14	 mov	 ecx, DWORD PTR __Format$[ebp]
  00012	51		 push	 ecx
  00013	8b 55 10	 mov	 edx, DWORD PTR __MaxCount$[ebp]
  00016	52		 push	 edx
  00017	8b 45 0c	 mov	 eax, DWORD PTR __BufferCount$[ebp]
  0001a	50		 push	 eax
  0001b	8b 4d 08	 mov	 ecx, DWORD PTR __Buffer$[ebp]
  0001e	51		 push	 ecx
  0001f	e8 00 00 00 00	 call	 __vsnprintf_s_l
  00024	83 c4 18	 add	 esp, 24			; 00000018H

; 1607 :     }

  00027	5f		 pop	 edi
  00028	5e		 pop	 esi
  00029	5b		 pop	 ebx
  0002a	8b e5		 mov	 esp, ebp
  0002c	5d		 pop	 ebp
  0002d	c3		 ret	 0
__vsnprintf_s ENDP
_TEXT	ENDS
; Function compile flags: /Odtp /ZI
; File c:\program files (x86)\windows kits\10\include\10.0.17763.0\ucrt\stdio.h
;	COMDAT __vsnprintf_s_l
_TEXT	SEGMENT
tv74 = -72						; size = 4
__Result$ = -4						; size = 4
__Buffer$ = 8						; size = 4
__BufferCount$ = 12					; size = 4
__MaxCount$ = 16					; size = 4
__Format$ = 20						; size = 4
__Locale$ = 24						; size = 4
__ArgList$ = 28						; size = 4
__vsnprintf_s_l PROC					; COMDAT

; 1584 :     {

  00000	55		 push	 ebp
  00001	8b ec		 mov	 ebp, esp
  00003	83 ec 48	 sub	 esp, 72			; 00000048H
  00006	53		 push	 ebx
  00007	56		 push	 esi
  00008	57		 push	 edi

; 1585 :         int const _Result = __stdio_common_vsnprintf_s(

  00009	8b 45 1c	 mov	 eax, DWORD PTR __ArgList$[ebp]
  0000c	50		 push	 eax
  0000d	8b 4d 18	 mov	 ecx, DWORD PTR __Locale$[ebp]
  00010	51		 push	 ecx
  00011	8b 55 14	 mov	 edx, DWORD PTR __Format$[ebp]
  00014	52		 push	 edx
  00015	8b 45 10	 mov	 eax, DWORD PTR __MaxCount$[ebp]
  00018	50		 push	 eax
  00019	8b 4d 0c	 mov	 ecx, DWORD PTR __BufferCount$[ebp]
  0001c	51		 push	 ecx
  0001d	8b 55 08	 mov	 edx, DWORD PTR __Buffer$[ebp]
  00020	52		 push	 edx
  00021	e8 00 00 00 00	 call	 ___local_stdio_printf_options
  00026	8b 48 04	 mov	 ecx, DWORD PTR [eax+4]
  00029	51		 push	 ecx
  0002a	8b 10		 mov	 edx, DWORD PTR [eax]
  0002c	52		 push	 edx
  0002d	ff 15 00 00 00
	00		 call	 DWORD PTR __imp____stdio_common_vsnprintf_s
  00033	83 c4 20	 add	 esp, 32			; 00000020H
  00036	89 45 fc	 mov	 DWORD PTR __Result$[ebp], eax

; 1586 :             _CRT_INTERNAL_LOCAL_PRINTF_OPTIONS,
; 1587 :             _Buffer, _BufferCount, _MaxCount, _Format, _Locale, _ArgList);
; 1588 : 
; 1589 :         return _Result < 0 ? -1 : _Result;

  00039	83 7d fc 00	 cmp	 DWORD PTR __Result$[ebp], 0
  0003d	7d 09		 jge	 SHORT $LN3@vsnprintf_
  0003f	c7 45 b8 ff ff
	ff ff		 mov	 DWORD PTR tv74[ebp], -1
  00046	eb 06		 jmp	 SHORT $LN4@vsnprintf_
$LN3@vsnprintf_:
  00048	8b 45 fc	 mov	 eax, DWORD PTR __Result$[ebp]
  0004b	89 45 b8	 mov	 DWORD PTR tv74[ebp], eax
$LN4@vsnprintf_:
  0004e	8b 45 b8	 mov	 eax, DWORD PTR tv74[ebp]

; 1590 :     }

  00051	5f		 pop	 edi
  00052	5e		 pop	 esi
  00053	5b		 pop	 ebx
  00054	8b e5		 mov	 esp, ebp
  00056	5d		 pop	 ebp
  00057	c3		 ret	 0
__vsnprintf_s_l ENDP
_TEXT	ENDS
; Function compile flags: /Odtp /ZI
; File c:\program files (x86)\windows kits\10\include\10.0.17763.0\ucrt\corecrt_stdio_config.h
;	COMDAT ___local_stdio_printf_options
_TEXT	SEGMENT
___local_stdio_printf_options PROC			; COMDAT

; 86   :     {

  00000	55		 push	 ebp
  00001	8b ec		 mov	 ebp, esp
  00003	83 ec 40	 sub	 esp, 64			; 00000040H
  00006	53		 push	 ebx
  00007	56		 push	 esi
  00008	57		 push	 edi

; 87   :         static unsigned __int64 _OptionsStorage;
; 88   :         return &_OptionsStorage;

  00009	b8 00 00 00 00	 mov	 eax, OFFSET ?_OptionsStorage@?1??__local_stdio_printf_options@@9@4_KA ; `__local_stdio_printf_options'::`2'::_OptionsStorage

; 89   :     }

  0000e	5f		 pop	 edi
  0000f	5e		 pop	 esi
  00010	5b		 pop	 ebx
  00011	8b e5		 mov	 esp, ebp
  00013	5d		 pop	 ebp
  00014	c3		 ret	 0
___local_stdio_printf_options ENDP
_TEXT	ENDS
; Function compile flags: /Odtp /ZI
; File g:\网狐\happygamewh\服务端\系统模块\服务器组件\登录服务器\serviceunits.cpp
;	COMDAT ?__empty_global_delete@@YAXPAXI@Z
_TEXT	SEGMENT
___formal$ = 8						; size = 4
___formal$ = 12						; size = 4
?__empty_global_delete@@YAXPAXI@Z PROC			; __empty_global_delete, COMDAT

  00000	55		 push	 ebp
  00001	8b ec		 mov	 ebp, esp
  00003	83 ec 40	 sub	 esp, 64			; 00000040H
  00006	53		 push	 ebx
  00007	56		 push	 esi
  00008	57		 push	 edi
  00009	5f		 pop	 edi
  0000a	5e		 pop	 esi
  0000b	5b		 pop	 ebx
  0000c	8b e5		 mov	 esp, ebp
  0000e	5d		 pop	 ebp
  0000f	c3		 ret	 0
?__empty_global_delete@@YAXPAXI@Z ENDP			; __empty_global_delete
_TEXT	ENDS
; Function compile flags: /Odtp /ZI
; File g:\网狐\happygamewh\服务端\系统模块\服务器组件\登录服务器\serviceunits.cpp
;	COMDAT ?__empty_global_delete@@YAXPAX@Z
_TEXT	SEGMENT
___formal$ = 8						; size = 4
?__empty_global_delete@@YAXPAX@Z PROC			; __empty_global_delete, COMDAT

  00000	55		 push	 ebp
  00001	8b ec		 mov	 ebp, esp
  00003	83 ec 40	 sub	 esp, 64			; 00000040H
  00006	53		 push	 ebx
  00007	56		 push	 esi
  00008	57		 push	 edi
  00009	5f		 pop	 edi
  0000a	5e		 pop	 esi
  0000b	5b		 pop	 ebx
  0000c	8b e5		 mov	 esp, ebp
  0000e	5d		 pop	 ebp
  0000f	c3		 ret	 0
?__empty_global_delete@@YAXPAX@Z ENDP			; __empty_global_delete
_TEXT	ENDS
; Function compile flags: /Odtp /ZI
;	COMDAT ??_H@YGXPAXIIP6EPAX0@Z@Z
_TEXT	SEGMENT
tv66 = -68						; size = 4
___t$ = 8						; size = 4
___s$ = 12						; size = 4
___n$ = 16						; size = 4
___f$ = 20						; size = 4
??_H@YGXPAXIIP6EPAX0@Z@Z PROC				; `vector constructor iterator', COMDAT
  00000	55		 push	 ebp
  00001	8b ec		 mov	 ebp, esp
  00003	83 ec 44	 sub	 esp, 68			; 00000044H
  00006	53		 push	 ebx
  00007	56		 push	 esi
  00008	57		 push	 edi
$LN2@vector:
  00009	8b 45 10	 mov	 eax, DWORD PTR ___n$[ebp]
  0000c	89 45 bc	 mov	 DWORD PTR tv66[ebp], eax
  0000f	8b 4d 10	 mov	 ecx, DWORD PTR ___n$[ebp]
  00012	83 e9 01	 sub	 ecx, 1
  00015	89 4d 10	 mov	 DWORD PTR ___n$[ebp], ecx
  00018	83 7d bc 00	 cmp	 DWORD PTR tv66[ebp], 0
  0001c	76 11		 jbe	 SHORT $LN1@vector
  0001e	8b 4d 08	 mov	 ecx, DWORD PTR ___t$[ebp]
  00021	ff 55 14	 call	 DWORD PTR ___f$[ebp]
  00024	8b 45 08	 mov	 eax, DWORD PTR ___t$[ebp]
  00027	03 45 0c	 add	 eax, DWORD PTR ___s$[ebp]
  0002a	89 45 08	 mov	 DWORD PTR ___t$[ebp], eax
  0002d	eb da		 jmp	 SHORT $LN2@vector
$LN1@vector:
  0002f	5f		 pop	 edi
  00030	5e		 pop	 esi
  00031	5b		 pop	 ebx
  00032	8b e5		 mov	 esp, ebp
  00034	5d		 pop	 ebp
  00035	c2 10 00	 ret	 16			; 00000010H
??_H@YGXPAXIIP6EPAX0@Z@Z ENDP				; `vector constructor iterator'
_TEXT	ENDS
END
