; Listing generated by Microsoft (R) Optimizing Compiler Version 19.16.27032.1 

	TITLE	G:\网狐\HappyGameWH\服务端\系统模块\服务器组件\比赛服务\ImmediateGroup.cpp
	.686P
	.XMM
	include listing.inc
	.model	flat

INCLUDELIB MSVCRTD
INCLUDELIB OLDNAMES

PUBLIC	?m_wChairCount@CImmediateGroup@@1GA		; CImmediateGroup::m_wChairCount
_BSS	SEGMENT
?m_wChairCount@CImmediateGroup@@1GA DW 01H DUP (?)	; CImmediateGroup::m_wChairCount
_BSS	ENDS
CONST	SEGMENT
?IID_IUnknownEx@@3U_GUID@@B DD 05feec21eH		; IID_IUnknownEx
	DW	0dbf3H
	DW	046f0H
	DB	09fH
	DB	057H
	DB	0d1H
	DB	0cdH
	DB	071H
	DB	01cH
	DB	046H
	DB	0deH
?IID_IMatchServiceManager@@3U_GUID@@B DD 07d381e8aH	; IID_IMatchServiceManager
	DW	08c10H
	DW	04443H
	DB	0b5H
	DB	0adH
	DB	075H
	DB	04bH
	DB	0e5H
	DB	050H
	DB	0c5H
	DB	053H
?IID_IMatchEventSink@@3U_GUID@@B DD 091cf29a0H		; IID_IMatchEventSink
	DW	04d3H
	DW	048daH
	DB	083H
	DB	036H
	DB	064H
	DB	0b2H
	DB	0daH
	DB	06aH
	DB	021H
	DB	0dbH
CONST	ENDS
PUBLIC	?__empty_global_delete@@YAXPAX@Z		; __empty_global_delete
PUBLIC	?__empty_global_delete@@YAXPAXI@Z		; __empty_global_delete
PUBLIC	??2@YAPAXIPAX@Z					; operator new
PUBLIC	_IsEqualGUID
PUBLIC	_==
PUBLIC	_HRESULT_FROM_WIN32
PUBLIC	___local_stdio_printf_options
PUBLIC	__vswprintf_s_l
PUBLIC	_swprintf_s
PUBLIC	__vsnprintf_s_l
PUBLIC	__vsnprintf_s
PUBLIC	__vscprintf_l
PUBLIC	__vscprintf
PUBLIC	?AfxAssertFailedLine@@YGHPBDH@Z			; AfxAssertFailedLine
PUBLIC	?AtlThrowImpl@ATL@@YGXJ@Z			; ATL::AtlThrowImpl
PUBLIC	??$AtlMultiply@I@ATL@@YAJPAIII@Z		; ATL::AtlMultiply<unsigned int>
PUBLIC	?Allocate@CCRTAllocator@ATL@@SAPAXI@Z		; ATL::CCRTAllocator::Allocate
PUBLIC	?Free@CCRTAllocator@ATL@@SAXPAX@Z		; ATL::CCRTAllocator::Free
PUBLIC	??0?$CTraceCategoryEx@$0CAAA@$0A@@ATL@@QAE@PBD@Z ; ATL::CTraceCategoryEx<8192,0>::CTraceCategoryEx<8192,0>
PUBLIC	??B?$CTraceCategoryEx@$0CAAA@$0A@@ATL@@QAEIXZ	; ATL::CTraceCategoryEx<8192,0>::operator unsigned int
PUBLIC	?GetCategoryName@CTrace@ATL@@CAPA_WI@Z		; ATL::CTrace::GetCategoryName
PUBLIC	?TraceV@CTrace@ATL@@CAXPBDHIIPB_W@Z		; ATL::CTrace::TraceV
PUBLIC	?TraceV@CTrace@ATL@@SAXPBDHII0PAD@Z		; ATL::CTrace::TraceV
PUBLIC	?RegisterCategory@CTrace@ATL@@SAXPBDI@Z		; ATL::CTrace::RegisterCategory
PUBLIC	??0?$CHeapPtrBase@_WVCCRTAllocator@ATL@@@ATL@@IAE@XZ ; ATL::CHeapPtrBase<wchar_t,ATL::CCRTAllocator>::CHeapPtrBase<wchar_t,ATL::CCRTAllocator>
PUBLIC	??1?$CHeapPtrBase@_WVCCRTAllocator@ATL@@@ATL@@QAE@XZ ; ATL::CHeapPtrBase<wchar_t,ATL::CCRTAllocator>::~CHeapPtrBase<wchar_t,ATL::CCRTAllocator>
PUBLIC	??B?$CHeapPtrBase@_WVCCRTAllocator@ATL@@@ATL@@QBEPA_WXZ ; ATL::CHeapPtrBase<wchar_t,ATL::CCRTAllocator>::operator wchar_t *
PUBLIC	?AllocateBytes@?$CHeapPtrBase@_WVCCRTAllocator@ATL@@@ATL@@QAE_NI@Z ; ATL::CHeapPtrBase<wchar_t,ATL::CCRTAllocator>::AllocateBytes
PUBLIC	?Free@?$CHeapPtrBase@_WVCCRTAllocator@ATL@@@ATL@@QAEXXZ ; ATL::CHeapPtrBase<wchar_t,ATL::CCRTAllocator>::Free
PUBLIC	??0?$CHeapPtr@_WVCCRTAllocator@ATL@@@ATL@@QAE@XZ ; ATL::CHeapPtr<wchar_t,ATL::CCRTAllocator>::CHeapPtr<wchar_t,ATL::CCRTAllocator>
PUBLIC	?Allocate@?$CHeapPtr@_WVCCRTAllocator@ATL@@@ATL@@QAE_NI@Z ; ATL::CHeapPtr<wchar_t,ATL::CCRTAllocator>::Allocate
PUBLIC	??1?$CHeapPtr@_WVCCRTAllocator@ATL@@@ATL@@QAE@XZ ; ATL::CHeapPtr<wchar_t,ATL::CCRTAllocator>::~CHeapPtr<wchar_t,ATL::CCRTAllocator>
PUBLIC	??0?$CHeapPtrBase@DVCCRTAllocator@ATL@@@ATL@@IAE@XZ ; ATL::CHeapPtrBase<char,ATL::CCRTAllocator>::CHeapPtrBase<char,ATL::CCRTAllocator>
PUBLIC	??1?$CHeapPtrBase@DVCCRTAllocator@ATL@@@ATL@@QAE@XZ ; ATL::CHeapPtrBase<char,ATL::CCRTAllocator>::~CHeapPtrBase<char,ATL::CCRTAllocator>
PUBLIC	??B?$CHeapPtrBase@DVCCRTAllocator@ATL@@@ATL@@QBEPADXZ ; ATL::CHeapPtrBase<char,ATL::CCRTAllocator>::operator char *
PUBLIC	?AllocateBytes@?$CHeapPtrBase@DVCCRTAllocator@ATL@@@ATL@@QAE_NI@Z ; ATL::CHeapPtrBase<char,ATL::CCRTAllocator>::AllocateBytes
PUBLIC	?Free@?$CHeapPtrBase@DVCCRTAllocator@ATL@@@ATL@@QAEXXZ ; ATL::CHeapPtrBase<char,ATL::CCRTAllocator>::Free
PUBLIC	??0?$CHeapPtr@DVCCRTAllocator@ATL@@@ATL@@QAE@XZ	; ATL::CHeapPtr<char,ATL::CCRTAllocator>::CHeapPtr<char,ATL::CCRTAllocator>
PUBLIC	?Allocate@?$CHeapPtr@DVCCRTAllocator@ATL@@@ATL@@QAE_NI@Z ; ATL::CHeapPtr<char,ATL::CCRTAllocator>::Allocate
PUBLIC	??1?$CHeapPtr@DVCCRTAllocator@ATL@@@ATL@@QAE@XZ	; ATL::CHeapPtr<char,ATL::CCRTAllocator>::~CHeapPtr<char,ATL::CCRTAllocator>
PUBLIC	??0CPreserveLastError@ATL@@QAE@XZ		; ATL::CPreserveLastError::CPreserveLastError
PUBLIC	??1CPreserveLastError@ATL@@QAE@XZ		; ATL::CPreserveLastError::~CPreserveLastError
PUBLIC	??0CTraceFileAndLineInfo@ATL@@QAE@PBDH@Z	; ATL::CTraceFileAndLineInfo::CTraceFileAndLineInfo
PUBLIC	??RCTraceFileAndLineInfo@ATL@@QBAXHIPBDZZ	; ATL::CTraceFileAndLineInfo::operator()
PUBLIC	?GetTickCount@CTime@ATL@@SG?AV12@XZ		; ATL::CTime::GetTickCount
PUBLIC	??0CTime@ATL@@QAE@_J@Z				; ATL::CTime::CTime
PUBLIC	?GetLocalTm@CTime@ATL@@QBEPAUtm@@PAU3@@Z	; ATL::CTime::GetLocalTm
PUBLIC	?GetAsSystemTime@CTime@ATL@@QBE_NAAU_SYSTEMTIME@@@Z ; ATL::CTime::GetAsSystemTime
PUBLIC	?data@CPlex@@QAEPAXXZ				; CPlex::data
PUBLIC	??$HashKey@K@@YGIK@Z				; HashKey<unsigned long>
PUBLIC	??0IUnknownEx@@QAE@XZ				; IUnknownEx::IUnknownEx
PUBLIC	?GetProductVer@@YAEK@Z				; GetProductVer
PUBLIC	?GetMainVer@@YAEK@Z				; GetMainVer
PUBLIC	?GetSubVer@@YAEK@Z				; GetSubVer
PUBLIC	?GetBuildVer@@YAEK@Z				; GetBuildVer
PUBLIC	?InterfaceVersionCompare@@YA_NKK@Z		; InterfaceVersionCompare
PUBLIC	??$SerializeElements@K@@YGXAAVCArchive@@PAKH@Z	; SerializeElements<unsigned long>
PUBLIC	??$DumpElements@K@@YGXAAVCDumpContext@@PBKH@Z	; DumpElements<unsigned long>
PUBLIC	??$CompareElements@KK@@YGHPBK0@Z		; CompareElements<unsigned long,unsigned long>
PUBLIC	??0IMatchEventSink@@QAE@XZ			; IMatchEventSink::IMatchEventSink
PUBLIC	??0?$CMap@KKPAUIServerUserItem@@PAU1@@@QAE@H@Z	; CMap<unsigned long,unsigned long,IServerUserItem *,IServerUserItem *>::CMap<unsigned long,unsigned long,IServerUserItem *,IServerUserItem *>
PUBLIC	?GetCount@?$CMap@KKPAUIServerUserItem@@PAU1@@@QBEHXZ ; CMap<unsigned long,unsigned long,IServerUserItem *,IServerUserItem *>::GetCount
PUBLIC	?Lookup@?$CMap@KKPAUIServerUserItem@@PAU1@@@QBEHKAAPAUIServerUserItem@@@Z ; CMap<unsigned long,unsigned long,IServerUserItem *,IServerUserItem *>::Lookup
PUBLIC	??A?$CMap@KKPAUIServerUserItem@@PAU1@@@QAEAAPAUIServerUserItem@@K@Z ; CMap<unsigned long,unsigned long,IServerUserItem *,IServerUserItem *>::operator[]
PUBLIC	?SetAt@?$CMap@KKPAUIServerUserItem@@PAU1@@@QAEXKPAUIServerUserItem@@@Z ; CMap<unsigned long,unsigned long,IServerUserItem *,IServerUserItem *>::SetAt
PUBLIC	?RemoveKey@?$CMap@KKPAUIServerUserItem@@PAU1@@@QAEHK@Z ; CMap<unsigned long,unsigned long,IServerUserItem *,IServerUserItem *>::RemoveKey
PUBLIC	?RemoveAll@?$CMap@KKPAUIServerUserItem@@PAU1@@@QAEXXZ ; CMap<unsigned long,unsigned long,IServerUserItem *,IServerUserItem *>::RemoveAll
PUBLIC	?GetStartPosition@?$CMap@KKPAUIServerUserItem@@PAU1@@@QBEPAU__POSITION@@XZ ; CMap<unsigned long,unsigned long,IServerUserItem *,IServerUserItem *>::GetStartPosition
PUBLIC	?GetNextAssoc@?$CMap@KKPAUIServerUserItem@@PAU1@@@QBEXAAPAU__POSITION@@AAKAAPAUIServerUserItem@@@Z ; CMap<unsigned long,unsigned long,IServerUserItem *,IServerUserItem *>::GetNextAssoc
PUBLIC	?InitHashTable@?$CMap@KKPAUIServerUserItem@@PAU1@@@QAEXIH@Z ; CMap<unsigned long,unsigned long,IServerUserItem *,IServerUserItem *>::InitHashTable
PUBLIC	?NewAssoc@?$CMap@KKPAUIServerUserItem@@PAU1@@@IAEPAVCAssoc@1@K@Z ; CMap<unsigned long,unsigned long,IServerUserItem *,IServerUserItem *>::NewAssoc
PUBLIC	?FreeAssoc@?$CMap@KKPAUIServerUserItem@@PAU1@@@IAEXPAVCAssoc@1@@Z ; CMap<unsigned long,unsigned long,IServerUserItem *,IServerUserItem *>::FreeAssoc
PUBLIC	?GetAssocAt@?$CMap@KKPAUIServerUserItem@@PAU1@@@IBEPAVCAssoc@1@KAAI0@Z ; CMap<unsigned long,unsigned long,IServerUserItem *,IServerUserItem *>::GetAssocAt
PUBLIC	??1?$CMap@KKPAUIServerUserItem@@PAU1@@@UAE@XZ	; CMap<unsigned long,unsigned long,IServerUserItem *,IServerUserItem *>::~CMap<unsigned long,unsigned long,IServerUserItem *,IServerUserItem *>
PUBLIC	?Serialize@?$CMap@KKPAUIServerUserItem@@PAU1@@@UAEXAAVCArchive@@@Z ; CMap<unsigned long,unsigned long,IServerUserItem *,IServerUserItem *>::Serialize
PUBLIC	?Dump@?$CMap@KKPAUIServerUserItem@@PAU1@@@UBEXAAVCDumpContext@@@Z ; CMap<unsigned long,unsigned long,IServerUserItem *,IServerUserItem *>::Dump
PUBLIC	?AssertValid@?$CMap@KKPAUIServerUserItem@@PAU1@@@UBEXXZ ; CMap<unsigned long,unsigned long,IServerUserItem *,IServerUserItem *>::AssertValid
PUBLIC	??_G?$CMap@KKPAUIServerUserItem@@PAU1@@@UAEPAXI@Z ; CMap<unsigned long,unsigned long,IServerUserItem *,IServerUserItem *>::`scalar deleting destructor'
PUBLIC	??0?$CWHArray@PAUIServerUserItem@@ABQAU1@@@QAE@XZ ; CWHArray<IServerUserItem *,IServerUserItem * const &>::CWHArray<IServerUserItem *,IServerUserItem * const &>
PUBLIC	??1?$CWHArray@PAUIServerUserItem@@ABQAU1@@@UAE@XZ ; CWHArray<IServerUserItem *,IServerUserItem * const &>::~CWHArray<IServerUserItem *,IServerUserItem * const &>
PUBLIC	?GetCount@?$CWHArray@PAUIServerUserItem@@ABQAU1@@@QBEHXZ ; CWHArray<IServerUserItem *,IServerUserItem * const &>::GetCount
PUBLIC	?Add@?$CWHArray@PAUIServerUserItem@@ABQAU1@@@QAEHABQAUIServerUserItem@@@Z ; CWHArray<IServerUserItem *,IServerUserItem * const &>::Add
PUBLIC	?ElementAt@?$CWHArray@PAUIServerUserItem@@ABQAU1@@@QAEAAPAUIServerUserItem@@H@Z ; CWHArray<IServerUserItem *,IServerUserItem * const &>::ElementAt
PUBLIC	?SetSize@?$CWHArray@PAUIServerUserItem@@ABQAU1@@@QAEXH@Z ; CWHArray<IServerUserItem *,IServerUserItem * const &>::SetSize
PUBLIC	?SetAtGrow@?$CWHArray@PAUIServerUserItem@@ABQAU1@@@QAEXHABQAUIServerUserItem@@@Z ; CWHArray<IServerUserItem *,IServerUserItem * const &>::SetAtGrow
PUBLIC	?RemoveAt@?$CWHArray@PAUIServerUserItem@@ABQAU1@@@QAEXHH@Z ; CWHArray<IServerUserItem *,IServerUserItem * const &>::RemoveAt
PUBLIC	?RemoveAll@?$CWHArray@PAUIServerUserItem@@ABQAU1@@@QAEXXZ ; CWHArray<IServerUserItem *,IServerUserItem * const &>::RemoveAll
PUBLIC	??A?$CWHArray@PAUIServerUserItem@@ABQAU1@@@QAEAAPAUIServerUserItem@@H@Z ; CWHArray<IServerUserItem *,IServerUserItem * const &>::operator[]
PUBLIC	?AllocMemory@?$CWHArray@PAUIServerUserItem@@ABQAU1@@@QAEXH@Z ; CWHArray<IServerUserItem *,IServerUserItem * const &>::AllocMemory
PUBLIC	??_G?$CWHArray@PAUIServerUserItem@@ABQAU1@@@UAEPAXI@Z ; CWHArray<IServerUserItem *,IServerUserItem * const &>::`scalar deleting destructor'
PUBLIC	??0?$CWHArray@PAUtagTableFrameInfo@@ABQAU1@@@QAE@XZ ; CWHArray<tagTableFrameInfo *,tagTableFrameInfo * const &>::CWHArray<tagTableFrameInfo *,tagTableFrameInfo * const &>
PUBLIC	??1?$CWHArray@PAUtagTableFrameInfo@@ABQAU1@@@UAE@XZ ; CWHArray<tagTableFrameInfo *,tagTableFrameInfo * const &>::~CWHArray<tagTableFrameInfo *,tagTableFrameInfo * const &>
PUBLIC	?GetCount@?$CWHArray@PAUtagTableFrameInfo@@ABQAU1@@@QBEHXZ ; CWHArray<tagTableFrameInfo *,tagTableFrameInfo * const &>::GetCount
PUBLIC	?Add@?$CWHArray@PAUtagTableFrameInfo@@ABQAU1@@@QAEHABQAUtagTableFrameInfo@@@Z ; CWHArray<tagTableFrameInfo *,tagTableFrameInfo * const &>::Add
PUBLIC	?ElementAt@?$CWHArray@PAUtagTableFrameInfo@@ABQAU1@@@QAEAAPAUtagTableFrameInfo@@H@Z ; CWHArray<tagTableFrameInfo *,tagTableFrameInfo * const &>::ElementAt
PUBLIC	?SetSize@?$CWHArray@PAUtagTableFrameInfo@@ABQAU1@@@QAEXH@Z ; CWHArray<tagTableFrameInfo *,tagTableFrameInfo * const &>::SetSize
PUBLIC	?SetAtGrow@?$CWHArray@PAUtagTableFrameInfo@@ABQAU1@@@QAEXHABQAUtagTableFrameInfo@@@Z ; CWHArray<tagTableFrameInfo *,tagTableFrameInfo * const &>::SetAtGrow
PUBLIC	?RemoveAll@?$CWHArray@PAUtagTableFrameInfo@@ABQAU1@@@QAEXXZ ; CWHArray<tagTableFrameInfo *,tagTableFrameInfo * const &>::RemoveAll
PUBLIC	??A?$CWHArray@PAUtagTableFrameInfo@@ABQAU1@@@QAEAAPAUtagTableFrameInfo@@H@Z ; CWHArray<tagTableFrameInfo *,tagTableFrameInfo * const &>::operator[]
PUBLIC	?AllocMemory@?$CWHArray@PAUtagTableFrameInfo@@ABQAU1@@@QAEXH@Z ; CWHArray<tagTableFrameInfo *,tagTableFrameInfo * const &>::AllocMemory
PUBLIC	??_G?$CWHArray@PAUtagTableFrameInfo@@ABQAU1@@@UAEPAXI@Z ; CWHArray<tagTableFrameInfo *,tagTableFrameInfo * const &>::`scalar deleting destructor'
PUBLIC	??0?$CWHArray@PAUtagMatchTimer@@ABQAU1@@@QAE@XZ	; CWHArray<tagMatchTimer *,tagMatchTimer * const &>::CWHArray<tagMatchTimer *,tagMatchTimer * const &>
PUBLIC	??1?$CWHArray@PAUtagMatchTimer@@ABQAU1@@@UAE@XZ	; CWHArray<tagMatchTimer *,tagMatchTimer * const &>::~CWHArray<tagMatchTimer *,tagMatchTimer * const &>
PUBLIC	?GetCount@?$CWHArray@PAUtagMatchTimer@@ABQAU1@@@QBEHXZ ; CWHArray<tagMatchTimer *,tagMatchTimer * const &>::GetCount
PUBLIC	?Add@?$CWHArray@PAUtagMatchTimer@@ABQAU1@@@QAEHABQAUtagMatchTimer@@@Z ; CWHArray<tagMatchTimer *,tagMatchTimer * const &>::Add
PUBLIC	?ElementAt@?$CWHArray@PAUtagMatchTimer@@ABQAU1@@@QAEAAPAUtagMatchTimer@@H@Z ; CWHArray<tagMatchTimer *,tagMatchTimer * const &>::ElementAt
PUBLIC	?SetSize@?$CWHArray@PAUtagMatchTimer@@ABQAU1@@@QAEXH@Z ; CWHArray<tagMatchTimer *,tagMatchTimer * const &>::SetSize
PUBLIC	?SetAtGrow@?$CWHArray@PAUtagMatchTimer@@ABQAU1@@@QAEXHABQAUtagMatchTimer@@@Z ; CWHArray<tagMatchTimer *,tagMatchTimer * const &>::SetAtGrow
PUBLIC	?RemoveAt@?$CWHArray@PAUtagMatchTimer@@ABQAU1@@@QAEXHH@Z ; CWHArray<tagMatchTimer *,tagMatchTimer * const &>::RemoveAt
PUBLIC	??A?$CWHArray@PAUtagMatchTimer@@ABQAU1@@@QAEAAPAUtagMatchTimer@@H@Z ; CWHArray<tagMatchTimer *,tagMatchTimer * const &>::operator[]
PUBLIC	?AllocMemory@?$CWHArray@PAUtagMatchTimer@@ABQAU1@@@QAEXH@Z ; CWHArray<tagMatchTimer *,tagMatchTimer * const &>::AllocMemory
PUBLIC	??_G?$CWHArray@PAUtagMatchTimer@@ABQAU1@@@UAEPAXI@Z ; CWHArray<tagMatchTimer *,tagMatchTimer * const &>::`scalar deleting destructor'
PUBLIC	??0CImmediateGroup@@QAE@_JPAUtagGameMatchOption@@PAUIImmediateGroupSink@@@Z ; CImmediateGroup::CImmediateGroup
PUBLIC	??1CImmediateGroup@@UAE@XZ			; CImmediateGroup::~CImmediateGroup
PUBLIC	?Release@CImmediateGroup@@UAEXXZ		; CImmediateGroup::Release
PUBLIC	?QueryInterface@CImmediateGroup@@UAEPAXABU_GUID@@K@Z ; CImmediateGroup::QueryInterface
PUBLIC	?OnEventGameStart@CImmediateGroup@@UAE_NPAUITableFrame@@G@Z ; CImmediateGroup::OnEventGameStart
PUBLIC	?OnEventGameEnd@CImmediateGroup@@UAE_NPAUITableFrame@@GPAUIServerUserItem@@E@Z ; CImmediateGroup::OnEventGameEnd
PUBLIC	?OnEventUserReturnMatch@CImmediateGroup@@UAE_NPAUITableFrame@@PAUIServerUserItem@@@Z ; CImmediateGroup::OnEventUserReturnMatch
PUBLIC	?OnActionUserSitDown@CImmediateGroup@@UAE_NGGPAUIServerUserItem@@_N@Z ; CImmediateGroup::OnActionUserSitDown
PUBLIC	?OnActionUserStandUp@CImmediateGroup@@UAE_NGGPAUIServerUserItem@@_N@Z ; CImmediateGroup::OnActionUserStandUp
PUBLIC	?OnActionUserOnReady@CImmediateGroup@@UAE_NGGPAUIServerUserItem@@PAXG@Z ; CImmediateGroup::OnActionUserOnReady
PUBLIC	?OnUserSignUpMatch@CImmediateGroup@@QAE_NPAUIServerUserItem@@@Z ; CImmediateGroup::OnUserSignUpMatch
PUBLIC	?OnUserQuitMatch@CImmediateGroup@@QAE_NPAUIServerUserItem@@@Z ; CImmediateGroup::OnUserQuitMatch
PUBLIC	?InsertFreeGroup@CImmediateGroup@@IAEXPAUIServerUserItem@@@Z ; CImmediateGroup::InsertFreeGroup
PUBLIC	?OnTimeMessage@CImmediateGroup@@IAE_NKI@Z	; CImmediateGroup::OnTimeMessage
PUBLIC	?MatchOver@CImmediateGroup@@IAEXXZ		; CImmediateGroup::MatchOver
PUBLIC	?EfficacyStartMatch@CImmediateGroup@@IAEXXZ	; CImmediateGroup::EfficacyStartMatch
PUBLIC	?ContinueGame@CImmediateGroup@@IAEXPAUITableFrame@@@Z ; CImmediateGroup::ContinueGame
PUBLIC	?SortMapUser@CImmediateGroup@@IAEGQAUtagMatchScore@@@Z ; CImmediateGroup::SortMapUser
PUBLIC	?GetTableInterface@CImmediateGroup@@IAEPAUtagTableFrameInfo@@PAUITableFrame@@@Z ; CImmediateGroup::GetTableInterface
PUBLIC	?GetUserRank@CImmediateGroup@@IAEGPAUIServerUserItem@@PAUITableFrame@@@Z ; CImmediateGroup::GetUserRank
PUBLIC	?SendGroupMessage@CImmediateGroup@@IAEXPBD@Z	; CImmediateGroup::SendGroupMessage
PUBLIC	?SendTableMatchInfo@CImmediateGroup@@IAEXPAUITableFrame@@G@Z ; CImmediateGroup::SendTableMatchInfo
PUBLIC	?SendWaitMessage@CImmediateGroup@@IAEXPAUITableFrame@@G@Z ; CImmediateGroup::SendWaitMessage
PUBLIC	?PerformDistributeTable@CImmediateGroup@@IAEXXZ	; CImmediateGroup::PerformDistributeTable
PUBLIC	?PerformAllUserStandUp@CImmediateGroup@@IAEXXZ	; CImmediateGroup::PerformAllUserStandUp
PUBLIC	?PerformAllUserStandUp@CImmediateGroup@@IAEXPAUITableFrame@@@Z ; CImmediateGroup::PerformAllUserStandUp
PUBLIC	?CheckMatchUser@CImmediateGroup@@IAE_NXZ	; CImmediateGroup::CheckMatchUser
PUBLIC	?CheckMatchTaskFinish@CImmediateGroup@@IAE_NXZ	; CImmediateGroup::CheckMatchTaskFinish
PUBLIC	?CheckSwitchTaskFinish@CImmediateGroup@@IAE_NXZ	; CImmediateGroup::CheckSwitchTaskFinish
PUBLIC	?CheckTableStart@CImmediateGroup@@IAEXPAUITableFrame@@@Z ; CImmediateGroup::CheckTableStart
PUBLIC	?CaptureMatchTimer@CImmediateGroup@@IAEXXZ	; CImmediateGroup::CaptureMatchTimer
PUBLIC	?AllKillMatchTimer@CImmediateGroup@@IAEXXZ	; CImmediateGroup::AllKillMatchTimer
PUBLIC	?KillMatchTimer@CImmediateGroup@@IAE_NH@Z	; CImmediateGroup::KillMatchTimer
PUBLIC	?KillMatchGameTimer@CImmediateGroup@@IAEXK@Z	; CImmediateGroup::KillMatchGameTimer
PUBLIC	?KillMatchTimer@CImmediateGroup@@IAE_NKI@Z	; CImmediateGroup::KillMatchTimer
PUBLIC	?PostMatchTimer@CImmediateGroup@@IAEXKHIJ@Z	; CImmediateGroup::PostMatchTimer
PUBLIC	?SetMatchGameTimer@CImmediateGroup@@IAEXKKKI@Z	; CImmediateGroup::SetMatchGameTimer
PUBLIC	??_GCImmediateGroup@@UAEPAXI@Z			; CImmediateGroup::`scalar deleting destructor'
PUBLIC	??$_snprintf_s@$0EAA@@@YAHAAY0EAA@DIPBDZZ	; _snprintf_s<1024>
PUBLIC	??$_snprintf_s@$0BAA@@@YAHAAY0BAA@DIPBDZZ	; _snprintf_s<256>
PUBLIC	??$_snprintf_s@$0IA@@@YAHAAY0IA@DIPBDZZ		; _snprintf_s<128>
PUBLIC	??$_snprintf_s@$0EA@@@YAHAAY0EA@DIPBDZZ		; _snprintf_s<64>
PUBLIC	??0CPair@?$CMap@KKPAUIServerUserItem@@PAU1@@@IAE@K@Z ; CMap<unsigned long,unsigned long,IServerUserItem *,IServerUserItem *>::CPair::CPair
PUBLIC	??0CAssoc@?$CMap@KKPAUIServerUserItem@@PAU1@@@QAE@K@Z ; CMap<unsigned long,unsigned long,IServerUserItem *,IServerUserItem *>::CAssoc::CAssoc
PUBLIC	??$SerializeElements@PAUIServerUserItem@@@@YGXAAVCArchive@@PAPAUIServerUserItem@@H@Z ; SerializeElements<IServerUserItem *>
PUBLIC	??$DumpElements@PAUIServerUserItem@@@@YGXAAVCDumpContext@@PBQAUIServerUserItem@@H@Z ; DumpElements<IServerUserItem *>
PUBLIC	?_OptionsStorage@?1??__local_stdio_printf_options@@9@4_KA ; `__local_stdio_printf_options'::`2'::_OptionsStorage
PUBLIC	??_C@_17CNPHIMPH@?$AA?$CF?$AAl?$AAs@		; `string'
PUBLIC	??_C@_1OE@IAPLKPHI@?$AAc?$AA?3?$AA?2?$AAp?$AAr?$AAo?$AAg?$AAr?$AAa?$AAm?$AA?5?$AAf?$AAi?$AAl?$AAe@ ; `string'
PUBLIC	?atlTraceException@ATL@@3V?$CTraceCategoryEx@$0CAAA@$0A@@1@A ; ATL::atlTraceException
PUBLIC	??_C@_0BC@PGMFNIFA@atlTraceException@		; `string'
PUBLIC	?m_nLevel@CTrace@ATL@@1IA			; ATL::CTrace::m_nLevel
PUBLIC	?m_nCategory@CTrace@ATL@@1IA			; ATL::CTrace::m_nCategory
PUBLIC	?m_nLastCategory@CTrace@ATL@@1IA		; ATL::CTrace::m_nLastCategory
PUBLIC	?m_nMap@CTrace@ATL@@1PAUCategoryMap@12@A	; ATL::CTrace::m_nMap
PUBLIC	??_C@_1O@LFNDFEBP@?$AA?$CF?$AAl?$AAs?$AA?5?$AA?9?$AA?5@ ; `string'
PUBLIC	??_C@_1M@PGKOAACE@?$AA?$CF?$AAu?$AA?5?$AA?9?$AA?5@ ; `string'
PUBLIC	??_C@_1O@OAIPCDPO@?$AA?$CF?$AAl?$AAs?$AA?$CF?$AAl?$AAs@ ; `string'
PUBLIC	??_C@_17LGGGMOOB@?$AA?$CF?$AAh?$AAs@		; `string'
PUBLIC	??_C@_1EO@EBPPKGOM@?$AAf?$AAa?$AAl?$AAs?$AAe?$AA?5?$AA?$CG?$AA?$CG?$AA?5?$AA?$CC?$AAT?$AAo?$AAo?$AA?5?$AAm@ ; `string'
PUBLIC	??_C@_1OE@PDFAMNPL@?$AAc?$AA?3?$AA?2?$AAp?$AAr?$AAo?$AAg?$AAr?$AAa?$AAm?$AA?5?$AAf?$AAi?$AAl?$AAe@ ; `string'
PUBLIC	?__LINE__Var@?0??AtlThrowImpl@ATL@@YGXJ@Z@4JA	; `ATL::AtlThrowImpl'::`1'::__LINE__Var
PUBLIC	??_C@_0HD@OEBHCJKM@c?3?2program?5files?5?$CIx86?$CJ?2microsof@ ; `string'
PUBLIC	??_C@_0BF@IAAKIJDJ@AtlThrow?3?5hr?5?$DN?50x?$CFx?6@ ; `string'
PUBLIC	??_C@_1BM@GBBOFEAE@?$AA_?$AA_?$AAa?$AAt?$AAl?$AA_?$AAc?$AAo?$AAn?$AAd?$AAV?$AAa?$AAl@ ; `string'
PUBLIC	??_C@_1OC@IALJLBM@?$AAc?$AA?3?$AA?2?$AAp?$AAr?$AAo?$AAg?$AAr?$AAa?$AAm?$AA?5?$AAf?$AAi?$AAl?$AAe@ ; `string'
PUBLIC	?__LINE__Var@?0??GetLocalTm@CTime@ATL@@QBEPAUtm@@PAU4@@Z@4JA ; `ATL::CTime::GetLocalTm'::`1'::__LINE__Var
PUBLIC	??_C@_00CNPNBAHC@@				; `string'
PUBLIC	??_7IUnknownEx@@6B@				; IUnknownEx::`vftable'
PUBLIC	??_C@_1BK@NHECDDNK@?$AAm?$AA_?$AAp?$AAD?$AAa?$AAt?$AAa?$AA?5?$AA?$DN?$AA?$DN?$AA?5?$AA0@ ; `string'
PUBLIC	??_C@_0HC@HBCNBCLF@c?3?2program?5files?5?$CIx86?$CJ?2microsof@ ; `string'
PUBLIC	??_C@_05PLCFPPOI@with?5@			; `string'
PUBLIC	??_C@_09HCLNAIDE@?5elements@			; `string'
PUBLIC	??_C@_01EEMJAFIK@?6@				; `string'
PUBLIC	??_C@_03OHJIHPJH@?6?7?$FL@			; `string'
PUBLIC	??_C@_04OAFLPOMH@?$FN?5?$DN?5@			; `string'
PUBLIC	??_R1A@?0A@EA@CObject@@8			; CObject::`RTTI Base Class Descriptor at (0,-1,0,64)'
PUBLIC	??_R0?AVCObject@@@8				; CObject `RTTI Type Descriptor'
PUBLIC	??_R3CObject@@8					; CObject::`RTTI Class Hierarchy Descriptor'
PUBLIC	??_R2CObject@@8					; CObject::`RTTI Base Class Array'
PUBLIC	??_7IMatchEventSink@@6B@			; IMatchEventSink::`vftable'
PUBLIC	??_7?$CMap@KKPAUIServerUserItem@@PAU1@@@6B@	; CMap<unsigned long,unsigned long,IServerUserItem *,IServerUserItem *>::`vftable'
PUBLIC	??_7?$CWHArray@PAUIServerUserItem@@ABQAU1@@@6B@	; CWHArray<IServerUserItem *,IServerUserItem * const &>::`vftable'
PUBLIC	??_7?$CWHArray@PAUtagTableFrameInfo@@ABQAU1@@@6B@ ; CWHArray<tagTableFrameInfo *,tagTableFrameInfo * const &>::`vftable'
PUBLIC	??_7?$CWHArray@PAUtagMatchTimer@@ABQAU1@@@6B@	; CWHArray<tagMatchTimer *,tagMatchTimer * const &>::`vftable'
PUBLIC	??_7CImmediateGroup@@6B@			; CImmediateGroup::`vftable'
PUBLIC	?__LINE__Var@?0???1CImmediateGroup@@UAE@XZ@4JA	; `CImmediateGroup::~CImmediateGroup'::`1'::__LINE__Var
PUBLIC	??_C@_0EL@ONMMFGFJ@g?3?2?M?x?$LK?$PM?2happygamewh?2?$LH?$PO?N?q?$LG?K?2?O?$LF?M?$LD@ ; `string'
PUBLIC	?__LINE__Var@?0??OnUserSignUpMatch@CImmediateGroup@@QAE_NPAUIServerUserItem@@@Z@4JA ; `CImmediateGroup::OnUserSignUpMatch'::`1'::__LINE__Var
PUBLIC	?__LINE__Var@?0??EfficacyStartMatch@CImmediateGroup@@IAEXXZ@4JA ; `CImmediateGroup::EfficacyStartMatch'::`1'::__LINE__Var
PUBLIC	??_C@_0EF@OFDKLJHC@?$LB?$KH?G?$LI?$KD?$KM?S?I?S?Z?D?$LD?S?C?$LL?$KH?G?$LP?P?P?M?K?$LD?v?$LB?H?H?$PM?$KD?$KM?$LI@ ; `string'
PUBLIC	??_C@_0EA@BEFMOLA@?$LB?$KH?G?$LI?$KD?$KM?S?I?S?Z?$LJ?$PN?$LG?$OA?S?C?$LL?$KH?W?$MA?W?S?J?$PN?A?$LP?$LC?$LL?$LJ?$LL?$KD@ ; `string'
PUBLIC	?__LINE__Var@?0??OnUserQuitMatch@CImmediateGroup@@QAE_NPAUIServerUserItem@@@Z@4JA ; `CImmediateGroup::OnUserQuitMatch'::`1'::__LINE__Var
PUBLIC	??_C@_0CB@BLALCHJO@?$LG?$KI?$LO?V?E?E?C?$PL?H?$PM?$LF?Z?$CFd?$LO?V?$LP?$KK?J?$LM?$KD?$KI?$LJ?$LC?$CFd?$LO?V?$KD?$KJ?$KB@ ; `string'
PUBLIC	?__LINE__Var@?0??OnEventGameEnd@CImmediateGroup@@UAE_NPAUITableFrame@@GPAUIServerUserItem@@E@Z@4JA ; `CImmediateGroup::OnEventGameEnd'::`1'::__LINE__Var
PUBLIC	??_C@_0EE@LPJNIANI@?$LJ?$KH?O?$LC?D?z?0?D?z?R?Q?M?f?B?z?$CFd?$LO?V?S?N?O?$LH?0?$LF?H?F?d?K?$PL?W@ ; `string'
PUBLIC	??_C@_0DC@OCDKCEOG@?$LB?$LO?$LO?V?R?Q?$LN?a?J?x?$KD?$KM?G?k?D?M?P?D?$LF?H?$LE?$PN?F?d?K?$PL?W?$MA?M?j?$LD@ ; `string'
PUBLIC	??_C@_0CC@GOIHMJKJ@?$LB?$LO?$LO?V?R?Q?$LN?a?J?x?$KD?$KM?G?k?I?T?$LK?r?$KD?$KM?O?$LF?M?$LD?E?d?W?$MA?V?P?4@ ; `string'
PUBLIC	?__LINE__Var@?0??GetUserRank@CImmediateGroup@@IAEGPAUIServerUserItem@@PAUITableFrame@@@Z@4JA ; `CImmediateGroup::GetUserRank'::`1'::__LINE__Var
PUBLIC	??_C@_0L@EGCIENHN@?W?x?O?B?J?$KH?$LA?$NM?$KD?$LP@ ; `string'
PUBLIC	?__LINE__Var@?0??PerformAllUserStandUp@CImmediateGroup@@IAEXPAUITableFrame@@@Z@4JA ; `CImmediateGroup::PerformAllUserStandUp'::`1'::__LINE__Var
PUBLIC	?__LINE__Var@?0??ContinueGame@CImmediateGroup@@IAEXPAUITableFrame@@@Z@4JA ; `CImmediateGroup::ContinueGame'::`1'::__LINE__Var
PUBLIC	??_C@_0BC@IKPCOJMH@?$LM?L?P?x?S?N?O?$LH_?F?p?A?$KC?J?$KH?$LA?$NM@ ; `string'
PUBLIC	??_C@_0BC@LKGHNAEH@?$LM?L?P?x?S?N?O?$LH_?W?x?O?B?J?$KH?$LA?$NM@ ; `string'
PUBLIC	?__LINE__Var@?0??CheckMatchUser@CImmediateGroup@@IAE_NXZ@4JA ; `CImmediateGroup::CheckMatchUser'::`1'::__LINE__Var
PUBLIC	??_C@_0M@NKMAPECH@?$LM?l?$LC?i?H?K?J?$PN?4?4?4@	; `string'
PUBLIC	??_C@_0FD@PIICFLBL@?$LB?$KH?G?$LI?$KD?$KM?S?I?S?Z?$LB?H?H?$PM?S?C?$LL?$KH?G?$LP?P?P?M?K?$LD?v?$LB?H?H?$PM?$KD@ ; `string'
PUBLIC	?__LINE__Var@?0??CheckTableStart@CImmediateGroup@@IAEXPAUITableFrame@@@Z@4JA ; `CImmediateGroup::CheckTableStart'::`1'::__LINE__Var
PUBLIC	?__LINE__Var@?0??InsertFreeGroup@CImmediateGroup@@IAEXPAUIServerUserItem@@@Z@4JA ; `CImmediateGroup::InsertFreeGroup'::`1'::__LINE__Var
PUBLIC	?__LINE__Var@?0??SendTableMatchInfo@CImmediateGroup@@IAEXPAUITableFrame@@G@Z@4JA ; `CImmediateGroup::SendTableMatchInfo'::`1'::__LINE__Var
PUBLIC	??_C@_0BD@KNNGNBNI@?$LL?$PN?$LH?V?$LH?$LN?J?$LN?$KD?$LK?$MA?$NL?$LM?F?$LL?$PN?$LH?V@ ; `string'
PUBLIC	??_C@_0N@JCGEHOBO@?S?N?O?$LH?$LL?y?J?$PN?$KD?$LK?$CFd@ ; `string'
PUBLIC	??_C@_0BD@EJMLEOOM@?$LO?V?V?F?C?$PL?$LD?F?$KD?$LK?$LG?$KI?$LO?V?E?E?C?$PL@ ; `string'
PUBLIC	??_C@_0BD@DGPONMAO@?P?h?R?$KK?M?j?$LD?I?$KD?$LK?$CFd?$LO?V?$LB?H?H?$PM@ ; `string'
PUBLIC	?__LINE__Var@?0??CaptureMatchTimer@CImmediateGroup@@IAEXXZ@4JA ; `CImmediateGroup::CaptureMatchTimer'::`1'::__LINE__Var
PUBLIC	?__LINE__Var@?0??KillMatchTimer@CImmediateGroup@@IAE_NKI@Z@4JA ; `CImmediateGroup::KillMatchTimer'::`1'::__LINE__Var
PUBLIC	?__LINE__Var@?0??KillMatchTimer@CImmediateGroup@@IAE_NH@Z@4JA ; `CImmediateGroup::KillMatchTimer'::`1'::__LINE__Var
PUBLIC	?__LINE__Var@?0??AllKillMatchTimer@CImmediateGroup@@IAEXXZ@4JA ; `CImmediateGroup::AllKillMatchTimer'::`1'::__LINE__Var
PUBLIC	??_C@_0DF@LDFGAABH@g?3?2?M?x?$LK?$PM?2happygamewh?2?$LH?$PO?N?q?$LG?K?2?O?$LF?M?$LD@ ; `string'
PUBLIC	??_R4IUnknownEx@@6B@				; IUnknownEx::`RTTI Complete Object Locator'
PUBLIC	??_R0?AUIUnknownEx@@@8				; IUnknownEx `RTTI Type Descriptor'
PUBLIC	??_R3IUnknownEx@@8				; IUnknownEx::`RTTI Class Hierarchy Descriptor'
PUBLIC	??_R2IUnknownEx@@8				; IUnknownEx::`RTTI Base Class Array'
PUBLIC	??_R1A@?0A@EA@IUnknownEx@@8			; IUnknownEx::`RTTI Base Class Descriptor at (0,-1,0,64)'
PUBLIC	??_R4IMatchEventSink@@6B@			; IMatchEventSink::`RTTI Complete Object Locator'
PUBLIC	??_R0?AUIMatchEventSink@@@8			; IMatchEventSink `RTTI Type Descriptor'
PUBLIC	??_R3IMatchEventSink@@8				; IMatchEventSink::`RTTI Class Hierarchy Descriptor'
PUBLIC	??_R2IMatchEventSink@@8				; IMatchEventSink::`RTTI Base Class Array'
PUBLIC	??_R1A@?0A@EA@IMatchEventSink@@8		; IMatchEventSink::`RTTI Base Class Descriptor at (0,-1,0,64)'
PUBLIC	??_R4?$CWHArray@PAUtagMatchTimer@@ABQAU1@@@6B@	; CWHArray<tagMatchTimer *,tagMatchTimer * const &>::`RTTI Complete Object Locator'
PUBLIC	??_R0?AV?$CWHArray@PAUtagMatchTimer@@ABQAU1@@@@8 ; CWHArray<tagMatchTimer *,tagMatchTimer * const &> `RTTI Type Descriptor'
PUBLIC	??_R3?$CWHArray@PAUtagMatchTimer@@ABQAU1@@@8	; CWHArray<tagMatchTimer *,tagMatchTimer * const &>::`RTTI Class Hierarchy Descriptor'
PUBLIC	??_R2?$CWHArray@PAUtagMatchTimer@@ABQAU1@@@8	; CWHArray<tagMatchTimer *,tagMatchTimer * const &>::`RTTI Base Class Array'
PUBLIC	??_R1A@?0A@EA@?$CWHArray@PAUtagMatchTimer@@ABQAU1@@@8 ; CWHArray<tagMatchTimer *,tagMatchTimer * const &>::`RTTI Base Class Descriptor at (0,-1,0,64)'
PUBLIC	??_R4?$CWHArray@PAUIServerUserItem@@ABQAU1@@@6B@ ; CWHArray<IServerUserItem *,IServerUserItem * const &>::`RTTI Complete Object Locator'
PUBLIC	??_R0?AV?$CWHArray@PAUIServerUserItem@@ABQAU1@@@@8 ; CWHArray<IServerUserItem *,IServerUserItem * const &> `RTTI Type Descriptor'
PUBLIC	??_R3?$CWHArray@PAUIServerUserItem@@ABQAU1@@@8	; CWHArray<IServerUserItem *,IServerUserItem * const &>::`RTTI Class Hierarchy Descriptor'
PUBLIC	??_R2?$CWHArray@PAUIServerUserItem@@ABQAU1@@@8	; CWHArray<IServerUserItem *,IServerUserItem * const &>::`RTTI Base Class Array'
PUBLIC	??_R1A@?0A@EA@?$CWHArray@PAUIServerUserItem@@ABQAU1@@@8 ; CWHArray<IServerUserItem *,IServerUserItem * const &>::`RTTI Base Class Descriptor at (0,-1,0,64)'
PUBLIC	??_R4?$CWHArray@PAUtagTableFrameInfo@@ABQAU1@@@6B@ ; CWHArray<tagTableFrameInfo *,tagTableFrameInfo * const &>::`RTTI Complete Object Locator'
PUBLIC	??_R0?AV?$CWHArray@PAUtagTableFrameInfo@@ABQAU1@@@@8 ; CWHArray<tagTableFrameInfo *,tagTableFrameInfo * const &> `RTTI Type Descriptor'
PUBLIC	??_R3?$CWHArray@PAUtagTableFrameInfo@@ABQAU1@@@8 ; CWHArray<tagTableFrameInfo *,tagTableFrameInfo * const &>::`RTTI Class Hierarchy Descriptor'
PUBLIC	??_R2?$CWHArray@PAUtagTableFrameInfo@@ABQAU1@@@8 ; CWHArray<tagTableFrameInfo *,tagTableFrameInfo * const &>::`RTTI Base Class Array'
PUBLIC	??_R1A@?0A@EA@?$CWHArray@PAUtagTableFrameInfo@@ABQAU1@@@8 ; CWHArray<tagTableFrameInfo *,tagTableFrameInfo * const &>::`RTTI Base Class Descriptor at (0,-1,0,64)'
PUBLIC	??_R4?$CMap@KKPAUIServerUserItem@@PAU1@@@6B@	; CMap<unsigned long,unsigned long,IServerUserItem *,IServerUserItem *>::`RTTI Complete Object Locator'
PUBLIC	??_R0?AV?$CMap@KKPAUIServerUserItem@@PAU1@@@@8	; CMap<unsigned long,unsigned long,IServerUserItem *,IServerUserItem *> `RTTI Type Descriptor'
PUBLIC	??_R3?$CMap@KKPAUIServerUserItem@@PAU1@@@8	; CMap<unsigned long,unsigned long,IServerUserItem *,IServerUserItem *>::`RTTI Class Hierarchy Descriptor'
PUBLIC	??_R2?$CMap@KKPAUIServerUserItem@@PAU1@@@8	; CMap<unsigned long,unsigned long,IServerUserItem *,IServerUserItem *>::`RTTI Base Class Array'
PUBLIC	??_R1A@?0A@EA@?$CMap@KKPAUIServerUserItem@@PAU1@@@8 ; CMap<unsigned long,unsigned long,IServerUserItem *,IServerUserItem *>::`RTTI Base Class Descriptor at (0,-1,0,64)'
PUBLIC	??_R4CImmediateGroup@@6B@			; CImmediateGroup::`RTTI Complete Object Locator'
PUBLIC	??_R0?AVCImmediateGroup@@@8			; CImmediateGroup `RTTI Type Descriptor'
PUBLIC	??_R3CImmediateGroup@@8				; CImmediateGroup::`RTTI Class Hierarchy Descriptor'
PUBLIC	??_R2CImmediateGroup@@8				; CImmediateGroup::`RTTI Base Class Array'
PUBLIC	??_R1A@?0A@EA@CImmediateGroup@@8		; CImmediateGroup::`RTTI Base Class Descriptor at (0,-1,0,64)'
EXTRN	__purecall:PROC
EXTRN	??2@YAPAXI@Z:PROC				; operator new
EXTRN	??3@YAXPAXI@Z:PROC				; operator delete
EXTRN	?__global_delete@@YAXPAXI@Z:PROC		; __global_delete
EXTRN	??_U@YAPAXI@Z:PROC				; operator new[]
EXTRN	??_V@YAXPAX@Z:PROC				; operator delete[]
EXTRN	_memcmp:PROC
EXTRN	_memcpy:PROC
EXTRN	_memmove:PROC
EXTRN	_memset:PROC
EXTRN	__imp__wcscpy_s:PROC
EXTRN	__imp__wcslen:PROC
EXTRN	__imp__GetLastError@0:PROC
EXTRN	__imp__SetLastError@4:PROC
EXTRN	__imp__lstrcpynA@12:PROC
EXTRN	__imp__lstrlenA@4:PROC
EXTRN	__imp__PeekMessageA@20:PROC
EXTRN	__imp__PostQuitMessage@4:PROC
EXTRN	__imp__MultiByteToWideChar@24:PROC
EXTRN	__imp____stdio_common_vswprintf_s:PROC
EXTRN	__imp____stdio_common_vsprintf:PROC
EXTRN	__imp____stdio_common_vsnprintf_s:PROC
EXTRN	__imp__free:PROC
EXTRN	__imp__malloc:PROC
EXTRN	__imp__ldiv:PROC
EXTRN	__imp__rand:PROC
EXTRN	__imp___localtime64_s:PROC
EXTRN	__imp___time64:PROC
EXTRN	__imp___CrtDbgReport:PROC
EXTRN	__imp___CrtDbgReportW:PROC
EXTRN	?AfxAssertValidObject@@YGXPBVCObject@@PBDH@Z:PROC ; AfxAssertValidObject
EXTRN	?AfxThrowMemoryException@@YGXXZ:PROC		; AfxThrowMemoryException
EXTRN	?AfxThrowInvalidArgException@@YGXXZ:PROC	; AfxThrowInvalidArgException
EXTRN	?AfxThrowOleException@@YGXJ@Z:PROC		; AfxThrowOleException
EXTRN	?GetRuntimeClass@CObject@@UBEPAUCRuntimeClass@@XZ:PROC ; CObject::GetRuntimeClass
EXTRN	??1CObject@@UAE@XZ:PROC				; CObject::~CObject
EXTRN	??3CObject@@SGXPAX@Z:PROC			; CObject::operator delete
EXTRN	??0CObject@@IAE@XZ:PROC				; CObject::CObject
EXTRN	?Serialize@CObject@@UAEXAAVCArchive@@@Z:PROC	; CObject::Serialize
EXTRN	?AssertValid@CObject@@UBEXXZ:PROC		; CObject::AssertValid
EXTRN	?Dump@CObject@@UBEXAAVCDumpContext@@@Z:PROC	; CObject::Dump
EXTRN	__imp_??B?$CSimpleStringT@D$00@ATL@@QBEPBDXZ:PROC
EXTRN	__imp_??0?$CStringT@DV?$StrTraitMFC_DLL@DV?$ChTraitsCRT@D@ATL@@@@@ATL@@QAE@XZ:PROC
EXTRN	__imp_??1?$CStringT@DV?$StrTraitMFC_DLL@DV?$ChTraitsCRT@D@ATL@@@@@ATL@@QAE@XZ:PROC
EXTRN	__imp_?Format@?$CStringT@DV?$StrTraitMFC_DLL@DV?$ChTraitsCRT@D@ATL@@@@@ATL@@QAAXPBDZZ:PROC
EXTRN	?AfxIsValidAddress@@YGHPBXIH@Z:PROC		; AfxIsValidAddress
EXTRN	??_U@YAPAXIPBDH@Z:PROC				; operator new[]
EXTRN	?IsStoring@CArchive@@QBEHXZ:PROC		; CArchive::IsStoring
EXTRN	?EnsureRead@CArchive@@QAEXPAXI@Z:PROC		; CArchive::EnsureRead
EXTRN	?Write@CArchive@@QAEXPBXI@Z:PROC		; CArchive::Write
EXTRN	?ReadCount@CArchive@@QAEKXZ:PROC		; CArchive::ReadCount
EXTRN	?WriteCount@CArchive@@QAEXK@Z:PROC		; CArchive::WriteCount
EXTRN	?GetDepth@CDumpContext@@QBEHXZ:PROC		; CDumpContext::GetDepth
EXTRN	??6CDumpContext@@QAEAAV0@PBD@Z:PROC		; CDumpContext::operator<<
EXTRN	??6CDumpContext@@QAEAAV0@H@Z:PROC		; CDumpContext::operator<<
EXTRN	?Create@CPlex@@SGPAU1@AAPAU1@II@Z:PROC		; CPlex::Create
EXTRN	?FreeDataChain@CPlex@@QAEXXZ:PROC		; CPlex::FreeDataChain
EXTRN	__imp_?TraceString@CTraceService@@SA_NPBDW4enTraceLevel@@@Z:PROC
EXTRN	??_E?$CMap@KKPAUIServerUserItem@@PAU1@@@UAEPAXI@Z:PROC ; CMap<unsigned long,unsigned long,IServerUserItem *,IServerUserItem *>::`vector deleting destructor'
EXTRN	??_E?$CWHArray@PAUIServerUserItem@@ABQAU1@@@UAEPAXI@Z:PROC ; CWHArray<IServerUserItem *,IServerUserItem * const &>::`vector deleting destructor'
EXTRN	??_E?$CWHArray@PAUtagTableFrameInfo@@ABQAU1@@@UAEPAXI@Z:PROC ; CWHArray<tagTableFrameInfo *,tagTableFrameInfo * const &>::`vector deleting destructor'
EXTRN	??_E?$CWHArray@PAUtagMatchTimer@@ABQAU1@@@UAEPAXI@Z:PROC ; CWHArray<tagMatchTimer *,tagMatchTimer * const &>::`vector deleting destructor'
EXTRN	??_ECImmediateGroup@@UAEPAXI@Z:PROC		; CImmediateGroup::`vector deleting destructor'
EXTRN	@__security_check_cookie@4:PROC
EXTRN	___CxxFrameHandler3:PROC
EXTRN	_memset:PROC
EXTRN	??_7type_info@@6B@:QWORD			; type_info::`vftable'
EXTRN	___security_cookie:DWORD
;	COMDAT ?_OptionsStorage@?1??__local_stdio_printf_options@@9@4_KA
_BSS	SEGMENT
?_OptionsStorage@?1??__local_stdio_printf_options@@9@4_KA DQ 01H DUP (?) ; `__local_stdio_printf_options'::`2'::_OptionsStorage
_BSS	ENDS
;	COMDAT ?atlTraceException@ATL@@3V?$CTraceCategoryEx@$0CAAA@$0A@@1@A
_BSS	SEGMENT
?atlTraceException@ATL@@3V?$CTraceCategoryEx@$0CAAA@$0A@@1@A DD 01H DUP (?) ; ATL::atlTraceException
_BSS	ENDS
;	COMDAT ?m_nLevel@CTrace@ATL@@1IA
_BSS	SEGMENT
?m_nLevel@CTrace@ATL@@1IA DD 01H DUP (?)		; ATL::CTrace::m_nLevel
_BSS	ENDS
;	COMDAT ?m_nLastCategory@CTrace@ATL@@1IA
_BSS	SEGMENT
?m_nLastCategory@CTrace@ATL@@1IA DD 01H DUP (?)		; ATL::CTrace::m_nLastCategory
_BSS	ENDS
;	COMDAT ?m_nMap@CTrace@ATL@@1PAUCategoryMap@12@A
_BSS	SEGMENT
?m_nMap@CTrace@ATL@@1PAUCategoryMap@12@A DB 02080H DUP (?) ; ATL::CTrace::m_nMap
_BSS	ENDS
;	COMDAT CRT$XCU
CRT$XCU	SEGMENT
?atlTraceException$initializer$@ATL@@3P6AXXZA DD FLAT:??__EatlTraceException@ATL@@YAXXZ ; ATL::atlTraceException$initializer$
CRT$XCU	ENDS
;	COMDAT ??_R1A@?0A@EA@CImmediateGroup@@8
rdata$r	SEGMENT
??_R1A@?0A@EA@CImmediateGroup@@8 DD FLAT:??_R0?AVCImmediateGroup@@@8 ; CImmediateGroup::`RTTI Base Class Descriptor at (0,-1,0,64)'
	DD	02H
	DD	00H
	DD	0ffffffffH
	DD	00H
	DD	040H
	DD	FLAT:??_R3CImmediateGroup@@8
rdata$r	ENDS
;	COMDAT ??_R2CImmediateGroup@@8
rdata$r	SEGMENT
??_R2CImmediateGroup@@8 DD FLAT:??_R1A@?0A@EA@CImmediateGroup@@8 ; CImmediateGroup::`RTTI Base Class Array'
	DD	FLAT:??_R1A@?0A@EA@IMatchEventSink@@8
	DD	FLAT:??_R1A@?0A@EA@IUnknownEx@@8
rdata$r	ENDS
;	COMDAT ??_R3CImmediateGroup@@8
rdata$r	SEGMENT
??_R3CImmediateGroup@@8 DD 00H				; CImmediateGroup::`RTTI Class Hierarchy Descriptor'
	DD	00H
	DD	03H
	DD	FLAT:??_R2CImmediateGroup@@8
rdata$r	ENDS
;	COMDAT ??_R0?AVCImmediateGroup@@@8
data$r	SEGMENT
??_R0?AVCImmediateGroup@@@8 DD FLAT:??_7type_info@@6B@	; CImmediateGroup `RTTI Type Descriptor'
	DD	00H
	DB	'.?AVCImmediateGroup@@', 00H
data$r	ENDS
;	COMDAT ??_R4CImmediateGroup@@6B@
rdata$r	SEGMENT
??_R4CImmediateGroup@@6B@ DD 00H			; CImmediateGroup::`RTTI Complete Object Locator'
	DD	00H
	DD	00H
	DD	FLAT:??_R0?AVCImmediateGroup@@@8
	DD	FLAT:??_R3CImmediateGroup@@8
rdata$r	ENDS
;	COMDAT ??_R1A@?0A@EA@?$CMap@KKPAUIServerUserItem@@PAU1@@@8
rdata$r	SEGMENT
??_R1A@?0A@EA@?$CMap@KKPAUIServerUserItem@@PAU1@@@8 DD FLAT:??_R0?AV?$CMap@KKPAUIServerUserItem@@PAU1@@@@8 ; CMap<unsigned long,unsigned long,IServerUserItem *,IServerUserItem *>::`RTTI Base Class Descriptor at (0,-1,0,64)'
	DD	01H
	DD	00H
	DD	0ffffffffH
	DD	00H
	DD	040H
	DD	FLAT:??_R3?$CMap@KKPAUIServerUserItem@@PAU1@@@8
rdata$r	ENDS
;	COMDAT ??_R2?$CMap@KKPAUIServerUserItem@@PAU1@@@8
rdata$r	SEGMENT
??_R2?$CMap@KKPAUIServerUserItem@@PAU1@@@8 DD FLAT:??_R1A@?0A@EA@?$CMap@KKPAUIServerUserItem@@PAU1@@@8 ; CMap<unsigned long,unsigned long,IServerUserItem *,IServerUserItem *>::`RTTI Base Class Array'
	DD	FLAT:??_R1A@?0A@EA@CObject@@8
rdata$r	ENDS
;	COMDAT ??_R3?$CMap@KKPAUIServerUserItem@@PAU1@@@8
rdata$r	SEGMENT
??_R3?$CMap@KKPAUIServerUserItem@@PAU1@@@8 DD 00H	; CMap<unsigned long,unsigned long,IServerUserItem *,IServerUserItem *>::`RTTI Class Hierarchy Descriptor'
	DD	00H
	DD	02H
	DD	FLAT:??_R2?$CMap@KKPAUIServerUserItem@@PAU1@@@8
rdata$r	ENDS
;	COMDAT ??_R0?AV?$CMap@KKPAUIServerUserItem@@PAU1@@@@8
data$r	SEGMENT
??_R0?AV?$CMap@KKPAUIServerUserItem@@PAU1@@@@8 DD FLAT:??_7type_info@@6B@ ; CMap<unsigned long,unsigned long,IServerUserItem *,IServerUserItem *> `RTTI Type Descriptor'
	DD	00H
	DB	'.?AV?$CMap@KKPAUIServerUserItem@@PAU1@@@', 00H
data$r	ENDS
;	COMDAT ??_R4?$CMap@KKPAUIServerUserItem@@PAU1@@@6B@
rdata$r	SEGMENT
??_R4?$CMap@KKPAUIServerUserItem@@PAU1@@@6B@ DD 00H	; CMap<unsigned long,unsigned long,IServerUserItem *,IServerUserItem *>::`RTTI Complete Object Locator'
	DD	00H
	DD	00H
	DD	FLAT:??_R0?AV?$CMap@KKPAUIServerUserItem@@PAU1@@@@8
	DD	FLAT:??_R3?$CMap@KKPAUIServerUserItem@@PAU1@@@8
rdata$r	ENDS
;	COMDAT ??_R1A@?0A@EA@?$CWHArray@PAUtagTableFrameInfo@@ABQAU1@@@8
rdata$r	SEGMENT
??_R1A@?0A@EA@?$CWHArray@PAUtagTableFrameInfo@@ABQAU1@@@8 DD FLAT:??_R0?AV?$CWHArray@PAUtagTableFrameInfo@@ABQAU1@@@@8 ; CWHArray<tagTableFrameInfo *,tagTableFrameInfo * const &>::`RTTI Base Class Descriptor at (0,-1,0,64)'
	DD	00H
	DD	00H
	DD	0ffffffffH
	DD	00H
	DD	040H
	DD	FLAT:??_R3?$CWHArray@PAUtagTableFrameInfo@@ABQAU1@@@8
rdata$r	ENDS
;	COMDAT ??_R2?$CWHArray@PAUtagTableFrameInfo@@ABQAU1@@@8
rdata$r	SEGMENT
??_R2?$CWHArray@PAUtagTableFrameInfo@@ABQAU1@@@8 DD FLAT:??_R1A@?0A@EA@?$CWHArray@PAUtagTableFrameInfo@@ABQAU1@@@8 ; CWHArray<tagTableFrameInfo *,tagTableFrameInfo * const &>::`RTTI Base Class Array'
rdata$r	ENDS
;	COMDAT ??_R3?$CWHArray@PAUtagTableFrameInfo@@ABQAU1@@@8
rdata$r	SEGMENT
??_R3?$CWHArray@PAUtagTableFrameInfo@@ABQAU1@@@8 DD 00H	; CWHArray<tagTableFrameInfo *,tagTableFrameInfo * const &>::`RTTI Class Hierarchy Descriptor'
	DD	00H
	DD	01H
	DD	FLAT:??_R2?$CWHArray@PAUtagTableFrameInfo@@ABQAU1@@@8
rdata$r	ENDS
;	COMDAT ??_R0?AV?$CWHArray@PAUtagTableFrameInfo@@ABQAU1@@@@8
data$r	SEGMENT
??_R0?AV?$CWHArray@PAUtagTableFrameInfo@@ABQAU1@@@@8 DD FLAT:??_7type_info@@6B@ ; CWHArray<tagTableFrameInfo *,tagTableFrameInfo * const &> `RTTI Type Descriptor'
	DD	00H
	DB	'.?AV?$CWHArray@PAUtagTableFrameInfo@@ABQAU1@@@', 00H
data$r	ENDS
;	COMDAT ??_R4?$CWHArray@PAUtagTableFrameInfo@@ABQAU1@@@6B@
rdata$r	SEGMENT
??_R4?$CWHArray@PAUtagTableFrameInfo@@ABQAU1@@@6B@ DD 00H ; CWHArray<tagTableFrameInfo *,tagTableFrameInfo * const &>::`RTTI Complete Object Locator'
	DD	00H
	DD	00H
	DD	FLAT:??_R0?AV?$CWHArray@PAUtagTableFrameInfo@@ABQAU1@@@@8
	DD	FLAT:??_R3?$CWHArray@PAUtagTableFrameInfo@@ABQAU1@@@8
rdata$r	ENDS
;	COMDAT ??_R1A@?0A@EA@?$CWHArray@PAUIServerUserItem@@ABQAU1@@@8
rdata$r	SEGMENT
??_R1A@?0A@EA@?$CWHArray@PAUIServerUserItem@@ABQAU1@@@8 DD FLAT:??_R0?AV?$CWHArray@PAUIServerUserItem@@ABQAU1@@@@8 ; CWHArray<IServerUserItem *,IServerUserItem * const &>::`RTTI Base Class Descriptor at (0,-1,0,64)'
	DD	00H
	DD	00H
	DD	0ffffffffH
	DD	00H
	DD	040H
	DD	FLAT:??_R3?$CWHArray@PAUIServerUserItem@@ABQAU1@@@8
rdata$r	ENDS
;	COMDAT ??_R2?$CWHArray@PAUIServerUserItem@@ABQAU1@@@8
rdata$r	SEGMENT
??_R2?$CWHArray@PAUIServerUserItem@@ABQAU1@@@8 DD FLAT:??_R1A@?0A@EA@?$CWHArray@PAUIServerUserItem@@ABQAU1@@@8 ; CWHArray<IServerUserItem *,IServerUserItem * const &>::`RTTI Base Class Array'
rdata$r	ENDS
;	COMDAT ??_R3?$CWHArray@PAUIServerUserItem@@ABQAU1@@@8
rdata$r	SEGMENT
??_R3?$CWHArray@PAUIServerUserItem@@ABQAU1@@@8 DD 00H	; CWHArray<IServerUserItem *,IServerUserItem * const &>::`RTTI Class Hierarchy Descriptor'
	DD	00H
	DD	01H
	DD	FLAT:??_R2?$CWHArray@PAUIServerUserItem@@ABQAU1@@@8
rdata$r	ENDS
;	COMDAT ??_R0?AV?$CWHArray@PAUIServerUserItem@@ABQAU1@@@@8
data$r	SEGMENT
??_R0?AV?$CWHArray@PAUIServerUserItem@@ABQAU1@@@@8 DD FLAT:??_7type_info@@6B@ ; CWHArray<IServerUserItem *,IServerUserItem * const &> `RTTI Type Descriptor'
	DD	00H
	DB	'.?AV?$CWHArray@PAUIServerUserItem@@ABQAU1@@@', 00H
data$r	ENDS
;	COMDAT ??_R4?$CWHArray@PAUIServerUserItem@@ABQAU1@@@6B@
rdata$r	SEGMENT
??_R4?$CWHArray@PAUIServerUserItem@@ABQAU1@@@6B@ DD 00H	; CWHArray<IServerUserItem *,IServerUserItem * const &>::`RTTI Complete Object Locator'
	DD	00H
	DD	00H
	DD	FLAT:??_R0?AV?$CWHArray@PAUIServerUserItem@@ABQAU1@@@@8
	DD	FLAT:??_R3?$CWHArray@PAUIServerUserItem@@ABQAU1@@@8
rdata$r	ENDS
;	COMDAT ??_R1A@?0A@EA@?$CWHArray@PAUtagMatchTimer@@ABQAU1@@@8
rdata$r	SEGMENT
??_R1A@?0A@EA@?$CWHArray@PAUtagMatchTimer@@ABQAU1@@@8 DD FLAT:??_R0?AV?$CWHArray@PAUtagMatchTimer@@ABQAU1@@@@8 ; CWHArray<tagMatchTimer *,tagMatchTimer * const &>::`RTTI Base Class Descriptor at (0,-1,0,64)'
	DD	00H
	DD	00H
	DD	0ffffffffH
	DD	00H
	DD	040H
	DD	FLAT:??_R3?$CWHArray@PAUtagMatchTimer@@ABQAU1@@@8
rdata$r	ENDS
;	COMDAT ??_R2?$CWHArray@PAUtagMatchTimer@@ABQAU1@@@8
rdata$r	SEGMENT
??_R2?$CWHArray@PAUtagMatchTimer@@ABQAU1@@@8 DD FLAT:??_R1A@?0A@EA@?$CWHArray@PAUtagMatchTimer@@ABQAU1@@@8 ; CWHArray<tagMatchTimer *,tagMatchTimer * const &>::`RTTI Base Class Array'
rdata$r	ENDS
;	COMDAT ??_R3?$CWHArray@PAUtagMatchTimer@@ABQAU1@@@8
rdata$r	SEGMENT
??_R3?$CWHArray@PAUtagMatchTimer@@ABQAU1@@@8 DD 00H	; CWHArray<tagMatchTimer *,tagMatchTimer * const &>::`RTTI Class Hierarchy Descriptor'
	DD	00H
	DD	01H
	DD	FLAT:??_R2?$CWHArray@PAUtagMatchTimer@@ABQAU1@@@8
rdata$r	ENDS
;	COMDAT ??_R0?AV?$CWHArray@PAUtagMatchTimer@@ABQAU1@@@@8
data$r	SEGMENT
??_R0?AV?$CWHArray@PAUtagMatchTimer@@ABQAU1@@@@8 DD FLAT:??_7type_info@@6B@ ; CWHArray<tagMatchTimer *,tagMatchTimer * const &> `RTTI Type Descriptor'
	DD	00H
	DB	'.?AV?$CWHArray@PAUtagMatchTimer@@ABQAU1@@@', 00H
data$r	ENDS
;	COMDAT ??_R4?$CWHArray@PAUtagMatchTimer@@ABQAU1@@@6B@
rdata$r	SEGMENT
??_R4?$CWHArray@PAUtagMatchTimer@@ABQAU1@@@6B@ DD 00H	; CWHArray<tagMatchTimer *,tagMatchTimer * const &>::`RTTI Complete Object Locator'
	DD	00H
	DD	00H
	DD	FLAT:??_R0?AV?$CWHArray@PAUtagMatchTimer@@ABQAU1@@@@8
	DD	FLAT:??_R3?$CWHArray@PAUtagMatchTimer@@ABQAU1@@@8
rdata$r	ENDS
;	COMDAT ??_R1A@?0A@EA@IMatchEventSink@@8
rdata$r	SEGMENT
??_R1A@?0A@EA@IMatchEventSink@@8 DD FLAT:??_R0?AUIMatchEventSink@@@8 ; IMatchEventSink::`RTTI Base Class Descriptor at (0,-1,0,64)'
	DD	01H
	DD	00H
	DD	0ffffffffH
	DD	00H
	DD	040H
	DD	FLAT:??_R3IMatchEventSink@@8
rdata$r	ENDS
;	COMDAT ??_R2IMatchEventSink@@8
rdata$r	SEGMENT
??_R2IMatchEventSink@@8 DD FLAT:??_R1A@?0A@EA@IMatchEventSink@@8 ; IMatchEventSink::`RTTI Base Class Array'
	DD	FLAT:??_R1A@?0A@EA@IUnknownEx@@8
rdata$r	ENDS
;	COMDAT ??_R3IMatchEventSink@@8
rdata$r	SEGMENT
??_R3IMatchEventSink@@8 DD 00H				; IMatchEventSink::`RTTI Class Hierarchy Descriptor'
	DD	00H
	DD	02H
	DD	FLAT:??_R2IMatchEventSink@@8
rdata$r	ENDS
;	COMDAT ??_R0?AUIMatchEventSink@@@8
data$r	SEGMENT
??_R0?AUIMatchEventSink@@@8 DD FLAT:??_7type_info@@6B@	; IMatchEventSink `RTTI Type Descriptor'
	DD	00H
	DB	'.?AUIMatchEventSink@@', 00H
data$r	ENDS
;	COMDAT ??_R4IMatchEventSink@@6B@
rdata$r	SEGMENT
??_R4IMatchEventSink@@6B@ DD 00H			; IMatchEventSink::`RTTI Complete Object Locator'
	DD	00H
	DD	00H
	DD	FLAT:??_R0?AUIMatchEventSink@@@8
	DD	FLAT:??_R3IMatchEventSink@@8
rdata$r	ENDS
;	COMDAT ??_R1A@?0A@EA@IUnknownEx@@8
rdata$r	SEGMENT
??_R1A@?0A@EA@IUnknownEx@@8 DD FLAT:??_R0?AUIUnknownEx@@@8 ; IUnknownEx::`RTTI Base Class Descriptor at (0,-1,0,64)'
	DD	00H
	DD	00H
	DD	0ffffffffH
	DD	00H
	DD	040H
	DD	FLAT:??_R3IUnknownEx@@8
rdata$r	ENDS
;	COMDAT ??_R2IUnknownEx@@8
rdata$r	SEGMENT
??_R2IUnknownEx@@8 DD FLAT:??_R1A@?0A@EA@IUnknownEx@@8	; IUnknownEx::`RTTI Base Class Array'
rdata$r	ENDS
;	COMDAT ??_R3IUnknownEx@@8
rdata$r	SEGMENT
??_R3IUnknownEx@@8 DD 00H				; IUnknownEx::`RTTI Class Hierarchy Descriptor'
	DD	00H
	DD	01H
	DD	FLAT:??_R2IUnknownEx@@8
rdata$r	ENDS
;	COMDAT ??_R0?AUIUnknownEx@@@8
data$r	SEGMENT
??_R0?AUIUnknownEx@@@8 DD FLAT:??_7type_info@@6B@	; IUnknownEx `RTTI Type Descriptor'
	DD	00H
	DB	'.?AUIUnknownEx@@', 00H
data$r	ENDS
;	COMDAT ??_R4IUnknownEx@@6B@
rdata$r	SEGMENT
??_R4IUnknownEx@@6B@ DD 00H				; IUnknownEx::`RTTI Complete Object Locator'
	DD	00H
	DD	00H
	DD	FLAT:??_R0?AUIUnknownEx@@@8
	DD	FLAT:??_R3IUnknownEx@@8
rdata$r	ENDS
;	COMDAT ??_C@_0DF@LDFGAABH@g?3?2?M?x?$LK?$PM?2happygamewh?2?$LH?$PO?N?q?$LG?K?2?O?$LF?M?$LD@
CONST	SEGMENT
??_C@_0DF@LDFGAABH@g?3?2?M?x?$LK?$PM?2happygamewh?2?$LH?$PO?N?q?$LG?K?2?O?$LF?M?$LD@ DB 'g'
	DB	':\', 0cdH, 0f8H, 0baH, 0fcH, '\happygamewh\', 0b7H, 0feH, 0ceH
	DB	0f1H, 0b6H, 0cbH, '\', 0cfH, 0b5H, 0cdH, 0b3H, 0c4H, 0a3H, 0bfH
	DB	0e9H, '\', 0c8H, 0abH, 0beH, 0d6H, 0b6H, 0a8H, 0d2H, 0e5H, '\a'
	DB	'rray.h', 00H				; `string'
CONST	ENDS
;	COMDAT ?__LINE__Var@?0??AllKillMatchTimer@CImmediateGroup@@IAEXXZ@4JA
_DATA	SEGMENT
?__LINE__Var@?0??AllKillMatchTimer@CImmediateGroup@@IAEXXZ@4JA DD 03fbH ; `CImmediateGroup::AllKillMatchTimer'::`1'::__LINE__Var
_DATA	ENDS
;	COMDAT ?__LINE__Var@?0??KillMatchTimer@CImmediateGroup@@IAE_NH@Z@4JA
_DATA	SEGMENT
?__LINE__Var@?0??KillMatchTimer@CImmediateGroup@@IAE_NH@Z@4JA DD 03eeH ; `CImmediateGroup::KillMatchTimer'::`1'::__LINE__Var
_DATA	ENDS
;	COMDAT ?__LINE__Var@?0??KillMatchTimer@CImmediateGroup@@IAE_NKI@Z@4JA
_DATA	SEGMENT
?__LINE__Var@?0??KillMatchTimer@CImmediateGroup@@IAE_NKI@Z@4JA DD 03dfH ; `CImmediateGroup::KillMatchTimer'::`1'::__LINE__Var
_DATA	ENDS
;	COMDAT ?__LINE__Var@?0??CaptureMatchTimer@CImmediateGroup@@IAEXXZ@4JA
_DATA	SEGMENT
?__LINE__Var@?0??CaptureMatchTimer@CImmediateGroup@@IAEXXZ@4JA DD 03b7H ; `CImmediateGroup::CaptureMatchTimer'::`1'::__LINE__Var
_DATA	ENDS
;	COMDAT ??_C@_0BD@DGPONMAO@?P?h?R?$KK?M?j?$LD?I?$KD?$LK?$CFd?$LO?V?$LB?H?H?$PM@
CONST	SEGMENT
??_C@_0BD@DGPONMAO@?P?h?R?$KK?M?j?$LD?I?$KD?$LK?$CFd?$LO?V?$LB?H?H?$PM@ DB 0d0H
	DB	0e8H, 0d2H, 0aaH, 0cdH, 0eaH, 0b3H, 0c9H, 0a3H, 0baH, '%d', 0beH
	DB	0d6H, 0b1H, 0c8H, 0c8H, 0fcH, 00H		; `string'
CONST	ENDS
;	COMDAT ??_C@_0BD@EJMLEOOM@?$LO?V?V?F?C?$PL?$LD?F?$KD?$LK?$LG?$KI?$LO?V?E?E?C?$PL@
CONST	SEGMENT
??_C@_0BD@EJMLEOOM@?$LO?V?V?F?C?$PL?$LD?F?$KD?$LK?$LG?$KI?$LO?V?E?E?C?$PL@ DB 0beH
	DB	0d6H, 0d6H, 0c6H, 0c3H, 0fbH, 0b3H, 0c6H, 0a3H, 0baH, 0b6H, 0a8H
	DB	0beH, 0d6H, 0c5H, 0c5H, 0c3H, 0fbH, 00H	; `string'
CONST	ENDS
;	COMDAT ??_C@_0N@JCGEHOBO@?S?N?O?$LH?$LL?y?J?$PN?$KD?$LK?$CFd@
CONST	SEGMENT
??_C@_0N@JCGEHOBO@?S?N?O?$LH?$LL?y?J?$PN?$KD?$LK?$CFd@ DB 0d3H, 0ceH, 0cfH
	DB	0b7H, 0bbH, 0f9H, 0caH, 0fdH, 0a3H, 0baH, '%d', 00H ; `string'
CONST	ENDS
;	COMDAT ??_C@_0BD@KNNGNBNI@?$LL?$PN?$LH?V?$LH?$LN?J?$LN?$KD?$LK?$MA?$NL?$LM?F?$LL?$PN?$LH?V@
CONST	SEGMENT
??_C@_0BD@KNNGNBNI@?$LL?$PN?$LH?V?$LH?$LN?J?$LN?$KD?$LK?$MA?$NL?$LM?F?$LL?$PN?$LH?V@ DB 0bbH
	DB	0fdH, 0b7H, 0d6H, 0b7H, 0bdH, 0caH, 0bdH, 0a3H, 0baH, 0c0H, 0dbH
	DB	0bcH, 0c6H, 0bbH, 0fdH, 0b7H, 0d6H, 00H	; `string'
CONST	ENDS
;	COMDAT ?__LINE__Var@?0??SendTableMatchInfo@CImmediateGroup@@IAEXPAUITableFrame@@G@Z@4JA
_DATA	SEGMENT
?__LINE__Var@?0??SendTableMatchInfo@CImmediateGroup@@IAEXPAUITableFrame@@G@Z@4JA DD 0388H ; `CImmediateGroup::SendTableMatchInfo'::`1'::__LINE__Var
_DATA	ENDS
;	COMDAT ?__LINE__Var@?0??InsertFreeGroup@CImmediateGroup@@IAEXPAUIServerUserItem@@@Z@4JA
_DATA	SEGMENT
?__LINE__Var@?0??InsertFreeGroup@CImmediateGroup@@IAEXPAUIServerUserItem@@@Z@4JA DD 0379H ; `CImmediateGroup::InsertFreeGroup'::`1'::__LINE__Var
_DATA	ENDS
;	COMDAT ?__LINE__Var@?0??CheckTableStart@CImmediateGroup@@IAEXPAUITableFrame@@@Z@4JA
_DATA	SEGMENT
?__LINE__Var@?0??CheckTableStart@CImmediateGroup@@IAEXPAUITableFrame@@@Z@4JA DD 0362H ; `CImmediateGroup::CheckTableStart'::`1'::__LINE__Var
_DATA	ENDS
;	COMDAT ??_C@_0FD@PIICFLBL@?$LB?$KH?G?$LI?$KD?$KM?S?I?S?Z?$LB?H?H?$PM?S?C?$LL?$KH?G?$LP?P?P?M?K?$LD?v?$LB?H?H?$PM?$KD@
CONST	SEGMENT
??_C@_0FD@PIICFLBL@?$LB?$KH?G?$LI?$KD?$KM?S?I?S?Z?$LB?H?H?$PM?S?C?$LL?$KH?G?$LP?P?P?M?K?$LD?v?$LB?H?H?$PM?$KD@ DB 0b1H
	DB	0a7H, 0c7H, 0b8H, 0a3H, 0acH, 0d3H, 0c9H, 0d3H, 0daH, 0b1H, 0c8H
	DB	0c8H, 0fcH, 0d3H, 0c3H, 0bbH, 0a7H, 0c7H, 0bfH, 0d0H, 0d0H, 0cdH
	DB	0cbH, 0b3H, 0f6H, 0b1H, 0c8H, 0c8H, 0fcH, 0a3H, 0acH, 0c8H, 0cbH
	DB	0caH, 0fdH, 0b2H, 0bbH, 0d7H, 0e3H, ' %d ', 0c8H, 0cbH, 0a3H, 0acH
	DB	0ccH, 0e1H, 0c7H, 0b0H, 0bdH, 0e1H, 0cbH, 0e3H, 0a1H, 0a3H, 0bbH
	DB	0b6H, 0d3H, 0adH, 0c4H, 0faH, 0bcH, 0ccH, 0d0H, 0f8H, 0b1H, 0a8H
	DB	0c3H, 0fbH, 0b2H, 0ceH, 0bcH, 0d3H, 0b1H, 0c8H, 0c8H, 0fcH, 0a3H
	DB	0a1H, 00H					; `string'
CONST	ENDS
;	COMDAT ??_C@_0M@NKMAPECH@?$LM?l?$LC?i?H?K?J?$PN?4?4?4@
CONST	SEGMENT
??_C@_0M@NKMAPECH@?$LM?l?$LC?i?H?K?J?$PN?4?4?4@ DB 0bcH, 0ecH, 0b2H, 0e9H
	DB	0c8H, 0cbH, 0caH, 0fdH, '...', 00H		; `string'
CONST	ENDS
;	COMDAT ?__LINE__Var@?0??CheckMatchUser@CImmediateGroup@@IAE_NXZ@4JA
_DATA	SEGMENT
?__LINE__Var@?0??CheckMatchUser@CImmediateGroup@@IAE_NXZ@4JA DD 034bH ; `CImmediateGroup::CheckMatchUser'::`1'::__LINE__Var
_DATA	ENDS
;	COMDAT ??_C@_0BC@LKGHNAEH@?$LM?L?P?x?S?N?O?$LH_?W?x?O?B?J?$KH?$LA?$NM@
CONST	SEGMENT
??_C@_0BC@LKGHNAEH@?$LM?L?P?x?S?N?O?$LH_?W?x?O?B?J?$KH?$LA?$NM@ DB 0bcH, 0ccH
	DB	0d0H, 0f8H, 0d3H, 0ceH, 0cfH, 0b7H, '_', 0d7H, 0f8H, 0cfH, 0c2H
	DB	0caH, 0a7H, 0b0H, 0dcH, 00H			; `string'
CONST	ENDS
;	COMDAT ??_C@_0BC@IKPCOJMH@?$LM?L?P?x?S?N?O?$LH_?F?p?A?$KC?J?$KH?$LA?$NM@
CONST	SEGMENT
??_C@_0BC@IKPCOJMH@?$LM?L?P?x?S?N?O?$LH_?F?p?A?$KC?J?$KH?$LA?$NM@ DB 0bcH
	DB	0ccH, 0d0H, 0f8H, 0d3H, 0ceH, 0cfH, 0b7H, '_', 0c6H, 0f0H, 0c1H
	DB	0a2H, 0caH, 0a7H, 0b0H, 0dcH, 00H		; `string'
CONST	ENDS
;	COMDAT ?__LINE__Var@?0??ContinueGame@CImmediateGroup@@IAEXPAUITableFrame@@@Z@4JA
_DATA	SEGMENT
?__LINE__Var@?0??ContinueGame@CImmediateGroup@@IAEXPAUITableFrame@@@Z@4JA DD 0311H ; `CImmediateGroup::ContinueGame'::`1'::__LINE__Var
_DATA	ENDS
;	COMDAT ?__LINE__Var@?0??PerformAllUserStandUp@CImmediateGroup@@IAEXPAUITableFrame@@@Z@4JA
_DATA	SEGMENT
?__LINE__Var@?0??PerformAllUserStandUp@CImmediateGroup@@IAEXPAUITableFrame@@@Z@4JA DD 02ffH ; `CImmediateGroup::PerformAllUserStandUp'::`1'::__LINE__Var
_DATA	ENDS
;	COMDAT ??_C@_0L@EGCIENHN@?W?x?O?B?J?$KH?$LA?$NM?$KD?$LP@
CONST	SEGMENT
??_C@_0L@EGCIENHN@?W?x?O?B?J?$KH?$LA?$NM?$KD?$LP@ DB 0d7H, 0f8H, 0cfH, 0c2H
	DB	0caH, 0a7H, 0b0H, 0dcH, 0a3H, 0bfH, 00H	; `string'
CONST	ENDS
;	COMDAT ?__LINE__Var@?0??GetUserRank@CImmediateGroup@@IAEGPAUIServerUserItem@@PAUITableFrame@@@Z@4JA
_DATA	SEGMENT
?__LINE__Var@?0??GetUserRank@CImmediateGroup@@IAEGPAUIServerUserItem@@PAUITableFrame@@@Z@4JA DD 01e0H ; `CImmediateGroup::GetUserRank'::`1'::__LINE__Var
_DATA	ENDS
;	COMDAT ??_C@_0CC@GOIHMJKJ@?$LB?$LO?$LO?V?R?Q?$LN?a?J?x?$KD?$KM?G?k?I?T?$LK?r?$KD?$KM?O?$LF?M?$LD?E?d?W?$MA?V?P?4@
CONST	SEGMENT
??_C@_0CC@GOIHMJKJ@?$LB?$LO?$LO?V?R?Q?$LN?a?J?x?$KD?$KM?G?k?I?T?$LK?r?$KD?$KM?O?$LF?M?$LD?E?d?W?$MA?V?P?4@ DB 0b1H
	DB	0beH, 0beH, 0d6H, 0d2H, 0d1H, 0bdH, 0e1H, 0caH, 0f8H, 0a3H, 0acH
	DB	0c7H, 0ebH, 0c9H, 0d4H, 0baH, 0f2H, 0a3H, 0acH, 0cfH, 0b5H, 0cdH
	DB	0b3H, 0c5H, 0e4H, 0d7H, 0c0H, 0d6H, 0d0H, '...', 00H ; `string'
CONST	ENDS
;	COMDAT ??_C@_0DC@OCDKCEOG@?$LB?$LO?$LO?V?R?Q?$LN?a?J?x?$KD?$KM?G?k?D?M?P?D?$LF?H?$LE?$PN?F?d?K?$PL?W?$MA?M?j?$LD@
CONST	SEGMENT
??_C@_0DC@OCDKCEOG@?$LB?$LO?$LO?V?R?Q?$LN?a?J?x?$KD?$KM?G?k?D?M?P?D?$LF?H?$LE?$PN?F?d?K?$PL?W?$MA?M?j?$LD@ DB 0b1H
	DB	0beH, 0beH, 0d6H, 0d2H, 0d1H, 0bdH, 0e1H, 0caH, 0f8H, 0a3H, 0acH
	DB	0c7H, 0ebH, 0c4H, 0cdH, 0d0H, 0c4H, 0b5H, 0c8H, 0b4H, 0fdH, 0c6H
	DB	0e4H, 0cbH, 0fbH, 0d7H, 0c0H, 0cdH, 0eaH, 0b3H, 0c9H, 0a3H, 0acH
	DB	0c9H, 0d4H, 0baH, 0f3H, 0ceH, 0aaH, 0c4H, 0faH, 0c5H, 0e4H, 0d7H
	DB	0c0H, '...', 00H				; `string'
CONST	ENDS
;	COMDAT ??_C@_0EE@LPJNIANI@?$LJ?$KH?O?$LC?D?z?0?D?z?R?Q?M?f?B?z?$CFd?$LO?V?S?N?O?$LH?0?$LF?H?F?d?K?$PL?W@
CONST	SEGMENT
??_C@_0EE@LPJNIANI@?$LJ?$KH?O?$LC?D?z?0?D?z?R?Q?M?f?B?z?$CFd?$LO?V?S?N?O?$LH?0?$LF?H?F?d?K?$PL?W@ DB 0b9H
	DB	0a7H, 0cfH, 0b2H, 0c4H, 0faH, ',', 0c4H, 0faH, 0d2H, 0d1H, 0cdH
	DB	0e6H, 0c2H, 0faH, '%d', 0beH, 0d6H, 0d3H, 0ceH, 0cfH, 0b7H, ','
	DB	0b5H, 0c8H, 0c6H, 0e4H, 0cbH, 0fbH, 0d7H, 0c0H, 0cdH, 0eaH, 0b3H
	DB	0c9H, 0baH, 0f3H, 0cfH, 0b5H, 0cdH, 0b3H, 0bdH, 0abH, 0bdH, 0f8H
	DB	0d0H, 0d0H, 0c5H, 0c5H, 0c3H, 0fbH, ',', 0c7H, 0ebH, 0c4H, 0faH
	DB	0c4H, 0cdH, 0d0H, 0c4H, 0b5H, 0c8H, 0b4H, 0fdH, 0a3H, 0a1H, 00H ; `string'
CONST	ENDS
;	COMDAT ?__LINE__Var@?0??OnEventGameEnd@CImmediateGroup@@UAE_NPAUITableFrame@@GPAUIServerUserItem@@E@Z@4JA
_DATA	SEGMENT
?__LINE__Var@?0??OnEventGameEnd@CImmediateGroup@@UAE_NPAUITableFrame@@GPAUIServerUserItem@@E@Z@4JA DD 016bH ; `CImmediateGroup::OnEventGameEnd'::`1'::__LINE__Var
_DATA	ENDS
;	COMDAT ??_C@_0CB@BLALCHJO@?$LG?$KI?$LO?V?E?E?C?$PL?H?$PM?$LF?Z?$CFd?$LO?V?$LP?$KK?J?$LM?$KD?$KI?$LJ?$LC?$CFd?$LO?V?$KD?$KJ?$KB@
CONST	SEGMENT
??_C@_0CB@BLALCHJO@?$LG?$KI?$LO?V?E?E?C?$PL?H?$PM?$LF?Z?$CFd?$LO?V?$LP?$KK?J?$LM?$KD?$KI?$LJ?$LC?$CFd?$LO?V?$KD?$KJ?$KB@ DB 0b6H
	DB	0a8H, 0beH, 0d6H, 0c5H, 0c5H, 0c3H, 0fbH, 0c8H, 0fcH, 0b5H, 0daH
	DB	'%d', 0beH, 0d6H, 0bfH, 0aaH, 0caH, 0bcH, 0a3H, 0a8H, 0b9H, 0b2H
	DB	'%d', 0beH, 0d6H, 0a3H, 0a9H, 0a1H, 0a3H, 00H ; `string'
CONST	ENDS
;	COMDAT ?__LINE__Var@?0??OnUserQuitMatch@CImmediateGroup@@QAE_NPAUIServerUserItem@@@Z@4JA
_DATA	SEGMENT
?__LINE__Var@?0??OnUserQuitMatch@CImmediateGroup@@QAE_NPAUIServerUserItem@@@Z@4JA DD 0dbH ; `CImmediateGroup::OnUserQuitMatch'::`1'::__LINE__Var
_DATA	ENDS
;	COMDAT ??_C@_0EA@BEFMOLA@?$LB?$KH?G?$LI?$KD?$KM?S?I?S?Z?$LJ?$PN?$LG?$OA?S?C?$LL?$KH?W?$MA?W?S?J?$PN?A?$LP?$LC?$LL?$LJ?$LL?$KD@
CONST	SEGMENT
??_C@_0EA@BEFMOLA@?$LB?$KH?G?$LI?$KD?$KM?S?I?S?Z?$LJ?$PN?$LG?$OA?S?C?$LL?$KH?W?$MA?W?S?J?$PN?A?$LP?$LC?$LL?$LJ?$LL?$KD@ DB 0b1H
	DB	0a7H, 0c7H, 0b8H, 0a3H, 0acH, 0d3H, 0c9H, 0d3H, 0daH, 0b9H, 0fdH
	DB	0b6H, 0e0H, 0d3H, 0c3H, 0bbH, 0a7H, 0d7H, 0c0H, 0d7H, 0d3H, 0caH
	DB	0fdH, 0c1H, 0bfH, 0b2H, 0bbH, 0b9H, 0bbH, 0a3H, 0a1H, 0bbH, 0b9H
	DB	0b2H, 0eeH, ' %d ', 0d5H, 0c5H, 0d7H, 0c0H, 0d7H, 0d3H, 0bfH, 0aaH
	DB	0c8H, 0fcH, ',', 0c7H, 0ebH, 0b5H, 0c8H, 0b4H, 0fdH, 0a1H, 0a3H
	DB	0a1H, 0a3H, 0a1H, 0a3H, 00H			; `string'
CONST	ENDS
;	COMDAT ??_C@_0EF@OFDKLJHC@?$LB?$KH?G?$LI?$KD?$KM?S?I?S?Z?D?$LD?S?C?$LL?$KH?G?$LP?P?P?M?K?$LD?v?$LB?H?H?$PM?$KD?$KM?$LI@
CONST	SEGMENT
??_C@_0EF@OFDKLJHC@?$LB?$KH?G?$LI?$KD?$KM?S?I?S?Z?D?$LD?S?C?$LL?$KH?G?$LP?P?P?M?K?$LD?v?$LB?H?H?$PM?$KD?$KM?$LI@ DB 0b1H
	DB	0a7H, 0c7H, 0b8H, 0a3H, 0acH, 0d3H, 0c9H, 0d3H, 0daH, 0c4H, 0b3H
	DB	0d3H, 0c3H, 0bbH, 0a7H, 0c7H, 0bfH, 0d0H, 0d0H, 0cdH, 0cbH, 0b3H
	DB	0f6H, 0b1H, 0c8H, 0c8H, 0fcH, 0a3H, 0acH, 0b8H, 0c3H, 0b3H, 0a1H
	DB	0b1H, 0c8H, 0c8H, 0fcH, 0ccH, 0e1H, 0c7H, 0b0H, 0bdH, 0e1H, 0caH
	DB	0f8H, 0a1H, 0a3H, 0c4H, 0e3H, 0bfH, 0c9H, 0d2H, 0d4H, 0bcH, 0ccH
	DB	0d0H, 0f8H, 0b5H, 0c8H, 0b4H, 0fdH, 0b1H, 0c8H, 0c8H, 0fcH, 0a3H
	DB	0a1H, 00H					; `string'
CONST	ENDS
;	COMDAT ?__LINE__Var@?0??EfficacyStartMatch@CImmediateGroup@@IAEXXZ@4JA
_DATA	SEGMENT
?__LINE__Var@?0??EfficacyStartMatch@CImmediateGroup@@IAEXXZ@4JA DD 08bH ; `CImmediateGroup::EfficacyStartMatch'::`1'::__LINE__Var
_DATA	ENDS
;	COMDAT ?__LINE__Var@?0??OnUserSignUpMatch@CImmediateGroup@@QAE_NPAUIServerUserItem@@@Z@4JA
_DATA	SEGMENT
?__LINE__Var@?0??OnUserSignUpMatch@CImmediateGroup@@QAE_NPAUIServerUserItem@@@Z@4JA DD 04aH ; `CImmediateGroup::OnUserSignUpMatch'::`1'::__LINE__Var
_DATA	ENDS
;	COMDAT ??_C@_0EL@ONMMFGFJ@g?3?2?M?x?$LK?$PM?2happygamewh?2?$LH?$PO?N?q?$LG?K?2?O?$LF?M?$LD@
CONST	SEGMENT
??_C@_0EL@ONMMFGFJ@g?3?2?M?x?$LK?$PM?2happygamewh?2?$LH?$PO?N?q?$LG?K?2?O?$LF?M?$LD@ DB 'g'
	DB	':\', 0cdH, 0f8H, 0baH, 0fcH, '\happygamewh\', 0b7H, 0feH, 0ceH
	DB	0f1H, 0b6H, 0cbH, '\', 0cfH, 0b5H, 0cdH, 0b3H, 0c4H, 0a3H, 0bfH
	DB	0e9H, '\', 0b7H, 0feH, 0ceH, 0f1H, 0c6H, 0f7H, 0d7H, 0e9H, 0bcH
	DB	0feH, '\', 0b1H, 0c8H, 0c8H, 0fcH, 0b7H, 0feH, 0ceH, 0f1H, '\i'
	DB	'mmediategroup.cpp', 00H			; `string'
CONST	ENDS
;	COMDAT ?__LINE__Var@?0???1CImmediateGroup@@UAE@XZ@4JA
_DATA	SEGMENT
?__LINE__Var@?0???1CImmediateGroup@@UAE@XZ@4JA DD 02cH	; `CImmediateGroup::~CImmediateGroup'::`1'::__LINE__Var
_DATA	ENDS
;	COMDAT ??_7CImmediateGroup@@6B@
CONST	SEGMENT
??_7CImmediateGroup@@6B@ DD FLAT:??_R4CImmediateGroup@@6B@ ; CImmediateGroup::`vftable'
	DD	FLAT:?Release@CImmediateGroup@@UAEXXZ
	DD	FLAT:?QueryInterface@CImmediateGroup@@UAEPAXABU_GUID@@K@Z
	DD	FLAT:?OnEventGameStart@CImmediateGroup@@UAE_NPAUITableFrame@@G@Z
	DD	FLAT:?OnEventGameEnd@CImmediateGroup@@UAE_NPAUITableFrame@@GPAUIServerUserItem@@E@Z
	DD	FLAT:?OnEventUserReturnMatch@CImmediateGroup@@UAE_NPAUITableFrame@@PAUIServerUserItem@@@Z
	DD	FLAT:?OnActionUserSitDown@CImmediateGroup@@UAE_NGGPAUIServerUserItem@@_N@Z
	DD	FLAT:?OnActionUserStandUp@CImmediateGroup@@UAE_NGGPAUIServerUserItem@@_N@Z
	DD	FLAT:?OnActionUserOnReady@CImmediateGroup@@UAE_NGGPAUIServerUserItem@@PAXG@Z
	DD	FLAT:??_ECImmediateGroup@@UAEPAXI@Z
CONST	ENDS
;	COMDAT ??_7?$CWHArray@PAUtagMatchTimer@@ABQAU1@@@6B@
CONST	SEGMENT
??_7?$CWHArray@PAUtagMatchTimer@@ABQAU1@@@6B@ DD FLAT:??_R4?$CWHArray@PAUtagMatchTimer@@ABQAU1@@@6B@ ; CWHArray<tagMatchTimer *,tagMatchTimer * const &>::`vftable'
	DD	FLAT:??_E?$CWHArray@PAUtagMatchTimer@@ABQAU1@@@UAEPAXI@Z
CONST	ENDS
;	COMDAT ??_7?$CWHArray@PAUtagTableFrameInfo@@ABQAU1@@@6B@
CONST	SEGMENT
??_7?$CWHArray@PAUtagTableFrameInfo@@ABQAU1@@@6B@ DD FLAT:??_R4?$CWHArray@PAUtagTableFrameInfo@@ABQAU1@@@6B@ ; CWHArray<tagTableFrameInfo *,tagTableFrameInfo * const &>::`vftable'
	DD	FLAT:??_E?$CWHArray@PAUtagTableFrameInfo@@ABQAU1@@@UAEPAXI@Z
CONST	ENDS
;	COMDAT ??_7?$CWHArray@PAUIServerUserItem@@ABQAU1@@@6B@
CONST	SEGMENT
??_7?$CWHArray@PAUIServerUserItem@@ABQAU1@@@6B@ DD FLAT:??_R4?$CWHArray@PAUIServerUserItem@@ABQAU1@@@6B@ ; CWHArray<IServerUserItem *,IServerUserItem * const &>::`vftable'
	DD	FLAT:??_E?$CWHArray@PAUIServerUserItem@@ABQAU1@@@UAEPAXI@Z
CONST	ENDS
;	COMDAT ??_7?$CMap@KKPAUIServerUserItem@@PAU1@@@6B@
CONST	SEGMENT
??_7?$CMap@KKPAUIServerUserItem@@PAU1@@@6B@ DD FLAT:??_R4?$CMap@KKPAUIServerUserItem@@PAU1@@@6B@ ; CMap<unsigned long,unsigned long,IServerUserItem *,IServerUserItem *>::`vftable'
	DD	FLAT:?GetRuntimeClass@CObject@@UBEPAUCRuntimeClass@@XZ
	DD	FLAT:??_E?$CMap@KKPAUIServerUserItem@@PAU1@@@UAEPAXI@Z
	DD	FLAT:?Serialize@?$CMap@KKPAUIServerUserItem@@PAU1@@@UAEXAAVCArchive@@@Z
	DD	FLAT:?AssertValid@?$CMap@KKPAUIServerUserItem@@PAU1@@@UBEXXZ
	DD	FLAT:?Dump@?$CMap@KKPAUIServerUserItem@@PAU1@@@UBEXAAVCDumpContext@@@Z
CONST	ENDS
;	COMDAT ??_7IMatchEventSink@@6B@
CONST	SEGMENT
??_7IMatchEventSink@@6B@ DD FLAT:??_R4IMatchEventSink@@6B@ ; IMatchEventSink::`vftable'
	DD	FLAT:__purecall
	DD	FLAT:__purecall
	DD	FLAT:__purecall
	DD	FLAT:__purecall
	DD	FLAT:__purecall
	DD	FLAT:__purecall
	DD	FLAT:__purecall
	DD	FLAT:__purecall
CONST	ENDS
;	COMDAT ??_R2CObject@@8
rdata$r	SEGMENT
??_R2CObject@@8 DD FLAT:??_R1A@?0A@EA@CObject@@8	; CObject::`RTTI Base Class Array'
rdata$r	ENDS
;	COMDAT ??_R3CObject@@8
rdata$r	SEGMENT
??_R3CObject@@8 DD 00H					; CObject::`RTTI Class Hierarchy Descriptor'
	DD	00H
	DD	01H
	DD	FLAT:??_R2CObject@@8
rdata$r	ENDS
;	COMDAT ??_R0?AVCObject@@@8
data$r	SEGMENT
??_R0?AVCObject@@@8 DD FLAT:??_7type_info@@6B@		; CObject `RTTI Type Descriptor'
	DD	00H
	DB	'.?AVCObject@@', 00H
data$r	ENDS
;	COMDAT ??_R1A@?0A@EA@CObject@@8
rdata$r	SEGMENT
??_R1A@?0A@EA@CObject@@8 DD FLAT:??_R0?AVCObject@@@8	; CObject::`RTTI Base Class Descriptor at (0,-1,0,64)'
	DD	00H
	DD	00H
	DD	0ffffffffH
	DD	00H
	DD	040H
	DD	FLAT:??_R3CObject@@8
rdata$r	ENDS
;	COMDAT ??_C@_04OAFLPOMH@?$FN?5?$DN?5@
CONST	SEGMENT
??_C@_04OAFLPOMH@?$FN?5?$DN?5@ DB '] = ', 00H		; `string'
CONST	ENDS
;	COMDAT ??_C@_03OHJIHPJH@?6?7?$FL@
CONST	SEGMENT
??_C@_03OHJIHPJH@?6?7?$FL@ DB 0aH, 09H, '[', 00H	; `string'
CONST	ENDS
;	COMDAT ??_C@_01EEMJAFIK@?6@
CONST	SEGMENT
??_C@_01EEMJAFIK@?6@ DB 0aH, 00H			; `string'
CONST	ENDS
;	COMDAT ??_C@_09HCLNAIDE@?5elements@
CONST	SEGMENT
??_C@_09HCLNAIDE@?5elements@ DB ' elements', 00H	; `string'
CONST	ENDS
;	COMDAT ??_C@_05PLCFPPOI@with?5@
CONST	SEGMENT
??_C@_05PLCFPPOI@with?5@ DB 'with ', 00H		; `string'
CONST	ENDS
;	COMDAT ??_C@_0HC@HBCNBCLF@c?3?2program?5files?5?$CIx86?$CJ?2microsof@
CONST	SEGMENT
??_C@_0HC@HBCNBCLF@c?3?2program?5files?5?$CIx86?$CJ?2microsof@ DB 'c:\pro'
	DB	'gram files (x86)\microsoft visual studio\2017\community\vc\to'
	DB	'ols\msvc\14.16.27023\atlmfc\include\afxtempl.h', 00H ; `string'
CONST	ENDS
;	COMDAT ??_C@_1BK@NHECDDNK@?$AAm?$AA_?$AAp?$AAD?$AAa?$AAt?$AAa?$AA?5?$AA?$DN?$AA?$DN?$AA?5?$AA0@
CONST	SEGMENT
??_C@_1BK@NHECDDNK@?$AAm?$AA_?$AAp?$AAD?$AAa?$AAt?$AAa?$AA?5?$AA?$DN?$AA?$DN?$AA?5?$AA0@ DB 'm'
	DB	00H, '_', 00H, 'p', 00H, 'D', 00H, 'a', 00H, 't', 00H, 'a', 00H
	DB	' ', 00H, '=', 00H, '=', 00H, ' ', 00H, '0', 00H, 00H, 00H ; `string'
CONST	ENDS
;	COMDAT ??_7IUnknownEx@@6B@
CONST	SEGMENT
??_7IUnknownEx@@6B@ DD FLAT:??_R4IUnknownEx@@6B@	; IUnknownEx::`vftable'
	DD	FLAT:__purecall
	DD	FLAT:__purecall
CONST	ENDS
;	COMDAT ??_C@_00CNPNBAHC@@
CONST	SEGMENT
??_C@_00CNPNBAHC@@ DB 00H				; `string'
CONST	ENDS
;	COMDAT ?__LINE__Var@?0??GetLocalTm@CTime@ATL@@QBEPAUtm@@PAU4@@Z@4JA
_DATA	SEGMENT
?__LINE__Var@?0??GetLocalTm@CTime@ATL@@QBEPAUtm@@PAU4@@Z@4JA DD 025fH ; `ATL::CTime::GetLocalTm'::`1'::__LINE__Var
_DATA	ENDS
;	COMDAT ??_C@_1OC@IALJLBM@?$AAc?$AA?3?$AA?2?$AAp?$AAr?$AAo?$AAg?$AAr?$AAa?$AAm?$AA?5?$AAf?$AAi?$AAl?$AAe@
CONST	SEGMENT
??_C@_1OC@IALJLBM@?$AAc?$AA?3?$AA?2?$AAp?$AAr?$AAo?$AAg?$AAr?$AAa?$AAm?$AA?5?$AAf?$AAi?$AAl?$AAe@ DB 'c'
	DB	00H, ':', 00H, '\', 00H, 'p', 00H, 'r', 00H, 'o', 00H, 'g', 00H
	DB	'r', 00H, 'a', 00H, 'm', 00H, ' ', 00H, 'f', 00H, 'i', 00H, 'l'
	DB	00H, 'e', 00H, 's', 00H, ' ', 00H, '(', 00H, 'x', 00H, '8', 00H
	DB	'6', 00H, ')', 00H, '\', 00H, 'm', 00H, 'i', 00H, 'c', 00H, 'r'
	DB	00H, 'o', 00H, 's', 00H, 'o', 00H, 'f', 00H, 't', 00H, ' ', 00H
	DB	'v', 00H, 'i', 00H, 's', 00H, 'u', 00H, 'a', 00H, 'l', 00H, ' '
	DB	00H, 's', 00H, 't', 00H, 'u', 00H, 'd', 00H, 'i', 00H, 'o', 00H
	DB	'\', 00H, '2', 00H, '0', 00H, '1', 00H, '7', 00H, '\', 00H, 'c'
	DB	00H, 'o', 00H, 'm', 00H, 'm', 00H, 'u', 00H, 'n', 00H, 'i', 00H
	DB	't', 00H, 'y', 00H, '\', 00H, 'v', 00H, 'c', 00H, '\', 00H, 't'
	DB	00H, 'o', 00H, 'o', 00H, 'l', 00H, 's', 00H, '\', 00H, 'm', 00H
	DB	's', 00H, 'v', 00H, 'c', 00H, '\', 00H, '1', 00H, '4', 00H, '.'
	DB	00H, '1', 00H, '6', 00H, '.', 00H, '2', 00H, '7', 00H, '0', 00H
	DB	'2', 00H, '3', 00H, '\', 00H, 'a', 00H, 't', 00H, 'l', 00H, 'm'
	DB	00H, 'f', 00H, 'c', 00H, '\', 00H, 'i', 00H, 'n', 00H, 'c', 00H
	DB	'l', 00H, 'u', 00H, 'd', 00H, 'e', 00H, '\', 00H, 'a', 00H, 't'
	DB	00H, 'l', 00H, 't', 00H, 'i', 00H, 'm', 00H, 'e', 00H, '.', 00H
	DB	'h', 00H, 00H, 00H				; `string'
CONST	ENDS
;	COMDAT ??_C@_1BM@GBBOFEAE@?$AA_?$AA_?$AAa?$AAt?$AAl?$AA_?$AAc?$AAo?$AAn?$AAd?$AAV?$AAa?$AAl@
CONST	SEGMENT
??_C@_1BM@GBBOFEAE@?$AA_?$AA_?$AAa?$AAt?$AAl?$AA_?$AAc?$AAo?$AAn?$AAd?$AAV?$AAa?$AAl@ DB '_'
	DB	00H, '_', 00H, 'a', 00H, 't', 00H, 'l', 00H, '_', 00H, 'c', 00H
	DB	'o', 00H, 'n', 00H, 'd', 00H, 'V', 00H, 'a', 00H, 'l', 00H, 00H
	DB	00H						; `string'
CONST	ENDS
;	COMDAT ??_C@_0BF@IAAKIJDJ@AtlThrow?3?5hr?5?$DN?50x?$CFx?6@
CONST	SEGMENT
??_C@_0BF@IAAKIJDJ@AtlThrow?3?5hr?5?$DN?50x?$CFx?6@ DB 'AtlThrow: hr = 0x'
	DB	'%x', 0aH, 00H				; `string'
CONST	ENDS
;	COMDAT ??_C@_0HD@OEBHCJKM@c?3?2program?5files?5?$CIx86?$CJ?2microsof@
CONST	SEGMENT
??_C@_0HD@OEBHCJKM@c?3?2program?5files?5?$CIx86?$CJ?2microsof@ DB 'c:\pro'
	DB	'gram files (x86)\microsoft visual studio\2017\community\vc\to'
	DB	'ols\msvc\14.16.27023\atlmfc\include\atlexcept.h', 00H ; `string'
CONST	ENDS
;	COMDAT ?__LINE__Var@?0??AtlThrowImpl@ATL@@YGXJ@Z@4JA
_DATA	SEGMENT
?__LINE__Var@?0??AtlThrowImpl@ATL@@YGXJ@Z@4JA DD 041H	; `ATL::AtlThrowImpl'::`1'::__LINE__Var
_DATA	ENDS
;	COMDAT ??_C@_1OE@PDFAMNPL@?$AAc?$AA?3?$AA?2?$AAp?$AAr?$AAo?$AAg?$AAr?$AAa?$AAm?$AA?5?$AAf?$AAi?$AAl?$AAe@
CONST	SEGMENT
??_C@_1OE@PDFAMNPL@?$AAc?$AA?3?$AA?2?$AAp?$AAr?$AAo?$AAg?$AAr?$AAa?$AAm?$AA?5?$AAf?$AAi?$AAl?$AAe@ DB 'c'
	DB	00H, ':', 00H, '\', 00H, 'p', 00H, 'r', 00H, 'o', 00H, 'g', 00H
	DB	'r', 00H, 'a', 00H, 'm', 00H, ' ', 00H, 'f', 00H, 'i', 00H, 'l'
	DB	00H, 'e', 00H, 's', 00H, ' ', 00H, '(', 00H, 'x', 00H, '8', 00H
	DB	'6', 00H, ')', 00H, '\', 00H, 'm', 00H, 'i', 00H, 'c', 00H, 'r'
	DB	00H, 'o', 00H, 's', 00H, 'o', 00H, 'f', 00H, 't', 00H, ' ', 00H
	DB	'v', 00H, 'i', 00H, 's', 00H, 'u', 00H, 'a', 00H, 'l', 00H, ' '
	DB	00H, 's', 00H, 't', 00H, 'u', 00H, 'd', 00H, 'i', 00H, 'o', 00H
	DB	'\', 00H, '2', 00H, '0', 00H, '1', 00H, '7', 00H, '\', 00H, 'c'
	DB	00H, 'o', 00H, 'm', 00H, 'm', 00H, 'u', 00H, 'n', 00H, 'i', 00H
	DB	't', 00H, 'y', 00H, '\', 00H, 'v', 00H, 'c', 00H, '\', 00H, 't'
	DB	00H, 'o', 00H, 'o', 00H, 'l', 00H, 's', 00H, '\', 00H, 'm', 00H
	DB	's', 00H, 'v', 00H, 'c', 00H, '\', 00H, '1', 00H, '4', 00H, '.'
	DB	00H, '1', 00H, '6', 00H, '.', 00H, '2', 00H, '7', 00H, '0', 00H
	DB	'2', 00H, '3', 00H, '\', 00H, 'a', 00H, 't', 00H, 'l', 00H, 'm'
	DB	00H, 'f', 00H, 'c', 00H, '\', 00H, 'i', 00H, 'n', 00H, 'c', 00H
	DB	'l', 00H, 'u', 00H, 'd', 00H, 'e', 00H, '\', 00H, 'a', 00H, 't'
	DB	00H, 'l', 00H, 't', 00H, 'r', 00H, 'a', 00H, 'c', 00H, 'e', 00H
	DB	'.', 00H, 'h', 00H, 00H, 00H			; `string'
CONST	ENDS
;	COMDAT ??_C@_1EO@EBPPKGOM@?$AAf?$AAa?$AAl?$AAs?$AAe?$AA?5?$AA?$CG?$AA?$CG?$AA?5?$AA?$CC?$AAT?$AAo?$AAo?$AA?5?$AAm@
CONST	SEGMENT
??_C@_1EO@EBPPKGOM@?$AAf?$AAa?$AAl?$AAs?$AAe?$AA?5?$AA?$CG?$AA?$CG?$AA?5?$AA?$CC?$AAT?$AAo?$AAo?$AA?5?$AAm@ DB 'f'
	DB	00H, 'a', 00H, 'l', 00H, 's', 00H, 'e', 00H, ' ', 00H, '&', 00H
	DB	'&', 00H, ' ', 00H, '"', 00H, 'T', 00H, 'o', 00H, 'o', 00H, ' '
	DB	00H, 'm', 00H, 'a', 00H, 'n', 00H, 'y', 00H, ' ', 00H, 'c', 00H
	DB	'a', 00H, 't', 00H, 'e', 00H, 'g', 00H, 'o', 00H, 'r', 00H, 'i'
	DB	00H, 'e', 00H, 's', 00H, ' ', 00H, 'd', 00H, 'e', 00H, 'f', 00H
	DB	'i', 00H, 'n', 00H, 'e', 00H, 'd', 00H, '"', 00H, 00H, 00H ; `string'
CONST	ENDS
;	COMDAT ??_C@_17LGGGMOOB@?$AA?$CF?$AAh?$AAs@
CONST	SEGMENT
??_C@_17LGGGMOOB@?$AA?$CF?$AAh?$AAs@ DB '%', 00H, 'h', 00H, 's', 00H, 00H
	DB	00H						; `string'
CONST	ENDS
;	COMDAT ??_C@_1O@OAIPCDPO@?$AA?$CF?$AAl?$AAs?$AA?$CF?$AAl?$AAs@
CONST	SEGMENT
??_C@_1O@OAIPCDPO@?$AA?$CF?$AAl?$AAs?$AA?$CF?$AAl?$AAs@ DB '%', 00H, 'l', 00H
	DB	's', 00H, '%', 00H, 'l', 00H, 's', 00H, 00H, 00H ; `string'
CONST	ENDS
;	COMDAT ??_C@_1M@PGKOAACE@?$AA?$CF?$AAu?$AA?5?$AA?9?$AA?5@
CONST	SEGMENT
??_C@_1M@PGKOAACE@?$AA?$CF?$AAu?$AA?5?$AA?9?$AA?5@ DB '%', 00H, 'u', 00H, ' '
	DB	00H, '-', 00H, ' ', 00H, 00H, 00H		; `string'
CONST	ENDS
;	COMDAT ??_C@_1O@LFNDFEBP@?$AA?$CF?$AAl?$AAs?$AA?5?$AA?9?$AA?5@
CONST	SEGMENT
??_C@_1O@LFNDFEBP@?$AA?$CF?$AAl?$AAs?$AA?5?$AA?9?$AA?5@ DB '%', 00H, 'l', 00H
	DB	's', 00H, ' ', 00H, '-', 00H, ' ', 00H, 00H, 00H ; `string'
CONST	ENDS
;	COMDAT ?m_nCategory@CTrace@ATL@@1IA
_DATA	SEGMENT
?m_nCategory@CTrace@ATL@@1IA DD 0ffffffffH		; ATL::CTrace::m_nCategory
_DATA	ENDS
;	COMDAT ??_C@_0BC@PGMFNIFA@atlTraceException@
CONST	SEGMENT
??_C@_0BC@PGMFNIFA@atlTraceException@ DB 'atlTraceException', 00H ; `string'
CONST	ENDS
;	COMDAT ??_C@_1OE@IAPLKPHI@?$AAc?$AA?3?$AA?2?$AAp?$AAr?$AAo?$AAg?$AAr?$AAa?$AAm?$AA?5?$AAf?$AAi?$AAl?$AAe@
CONST	SEGMENT
??_C@_1OE@IAPLKPHI@?$AAc?$AA?3?$AA?2?$AAp?$AAr?$AAo?$AAg?$AAr?$AAa?$AAm?$AA?5?$AAf?$AAi?$AAl?$AAe@ DB 'c'
	DB	00H, ':', 00H, '\', 00H, 'p', 00H, 'r', 00H, 'o', 00H, 'g', 00H
	DB	'r', 00H, 'a', 00H, 'm', 00H, ' ', 00H, 'f', 00H, 'i', 00H, 'l'
	DB	00H, 'e', 00H, 's', 00H, ' ', 00H, '(', 00H, 'x', 00H, '8', 00H
	DB	'6', 00H, ')', 00H, '\', 00H, 'm', 00H, 'i', 00H, 'c', 00H, 'r'
	DB	00H, 'o', 00H, 's', 00H, 'o', 00H, 'f', 00H, 't', 00H, ' ', 00H
	DB	'v', 00H, 'i', 00H, 's', 00H, 'u', 00H, 'a', 00H, 'l', 00H, ' '
	DB	00H, 's', 00H, 't', 00H, 'u', 00H, 'd', 00H, 'i', 00H, 'o', 00H
	DB	'\', 00H, '2', 00H, '0', 00H, '1', 00H, '7', 00H, '\', 00H, 'c'
	DB	00H, 'o', 00H, 'm', 00H, 'm', 00H, 'u', 00H, 'n', 00H, 'i', 00H
	DB	't', 00H, 'y', 00H, '\', 00H, 'v', 00H, 'c', 00H, '\', 00H, 't'
	DB	00H, 'o', 00H, 'o', 00H, 'l', 00H, 's', 00H, '\', 00H, 'm', 00H
	DB	's', 00H, 'v', 00H, 'c', 00H, '\', 00H, '1', 00H, '4', 00H, '.'
	DB	00H, '1', 00H, '6', 00H, '.', 00H, '2', 00H, '7', 00H, '0', 00H
	DB	'2', 00H, '3', 00H, '\', 00H, 'a', 00H, 't', 00H, 'l', 00H, 'm'
	DB	00H, 'f', 00H, 'c', 00H, '\', 00H, 'i', 00H, 'n', 00H, 'c', 00H
	DB	'l', 00H, 'u', 00H, 'd', 00H, 'e', 00H, '\', 00H, 'a', 00H, 't'
	DB	00H, 'l', 00H, 'a', 00H, 'l', 00H, 'l', 00H, 'o', 00H, 'c', 00H
	DB	'.', 00H, 'h', 00H, 00H, 00H			; `string'
CONST	ENDS
;	COMDAT ??_C@_17CNPHIMPH@?$AA?$CF?$AAl?$AAs@
CONST	SEGMENT
??_C@_17CNPHIMPH@?$AA?$CF?$AAl?$AAs@ DB '%', 00H, 'l', 00H, 's', 00H, 00H
	DB	00H						; `string'
CONST	ENDS
;	COMDAT xdata$x
xdata$x	SEGMENT
__catchsym$?KillMatchTimer@CImmediateGroup@@IAE_NKI@Z$2 DD 040H
	DD	00H
	DD	00H
	DD	FLAT:__catch$?KillMatchTimer@CImmediateGroup@@IAE_NKI@Z$0
__unwindtable$?KillMatchTimer@CImmediateGroup@@IAE_NKI@Z DD 0ffffffffH
	DD	00H
	DD	0ffffffffH
	DD	00H
__tryblocktable$?KillMatchTimer@CImmediateGroup@@IAE_NKI@Z DD 00H
	DD	00H
	DD	01H
	DD	01H
	DD	FLAT:__catchsym$?KillMatchTimer@CImmediateGroup@@IAE_NKI@Z$2
__ehfuncinfo$?KillMatchTimer@CImmediateGroup@@IAE_NKI@Z DD 019930522H
	DD	02H
	DD	FLAT:__unwindtable$?KillMatchTimer@CImmediateGroup@@IAE_NKI@Z
	DD	01H
	DD	FLAT:__tryblocktable$?KillMatchTimer@CImmediateGroup@@IAE_NKI@Z
	DD	2 DUP(00H)
	DD	00H
	DD	01H
xdata$x	ENDS
;	COMDAT xdata$x
xdata$x	SEGMENT
__catchsym$?KillMatchTimer@CImmediateGroup@@IAE_NH@Z$2 DD 040H
	DD	00H
	DD	00H
	DD	FLAT:__catch$?KillMatchTimer@CImmediateGroup@@IAE_NH@Z$0
__unwindtable$?KillMatchTimer@CImmediateGroup@@IAE_NH@Z DD 0ffffffffH
	DD	00H
	DD	0ffffffffH
	DD	00H
__tryblocktable$?KillMatchTimer@CImmediateGroup@@IAE_NH@Z DD 00H
	DD	00H
	DD	01H
	DD	01H
	DD	FLAT:__catchsym$?KillMatchTimer@CImmediateGroup@@IAE_NH@Z$2
__ehfuncinfo$?KillMatchTimer@CImmediateGroup@@IAE_NH@Z DD 019930522H
	DD	02H
	DD	FLAT:__unwindtable$?KillMatchTimer@CImmediateGroup@@IAE_NH@Z
	DD	01H
	DD	FLAT:__tryblocktable$?KillMatchTimer@CImmediateGroup@@IAE_NH@Z
	DD	2 DUP(00H)
	DD	00H
	DD	01H
xdata$x	ENDS
;	COMDAT xdata$x
xdata$x	SEGMENT
__catchsym$?AllKillMatchTimer@CImmediateGroup@@IAEXXZ$2 DD 040H
	DD	00H
	DD	00H
	DD	FLAT:__catch$?AllKillMatchTimer@CImmediateGroup@@IAEXXZ$0
__unwindtable$?AllKillMatchTimer@CImmediateGroup@@IAEXXZ DD 0ffffffffH
	DD	00H
	DD	0ffffffffH
	DD	00H
__tryblocktable$?AllKillMatchTimer@CImmediateGroup@@IAEXXZ DD 00H
	DD	00H
	DD	01H
	DD	01H
	DD	FLAT:__catchsym$?AllKillMatchTimer@CImmediateGroup@@IAEXXZ$2
__ehfuncinfo$?AllKillMatchTimer@CImmediateGroup@@IAEXXZ DD 019930522H
	DD	02H
	DD	FLAT:__unwindtable$?AllKillMatchTimer@CImmediateGroup@@IAEXXZ
	DD	01H
	DD	FLAT:__tryblocktable$?AllKillMatchTimer@CImmediateGroup@@IAEXXZ
	DD	2 DUP(00H)
	DD	00H
	DD	01H
xdata$x	ENDS
;	COMDAT xdata$x
xdata$x	SEGMENT
__unwindtable$?CheckMatchUser@CImmediateGroup@@IAE_NXZ DD 0ffffffffH
	DD	FLAT:__unwindfunclet$?CheckMatchUser@CImmediateGroup@@IAE_NXZ$0
__ehfuncinfo$?CheckMatchUser@CImmediateGroup@@IAE_NXZ DD 019930522H
	DD	01H
	DD	FLAT:__unwindtable$?CheckMatchUser@CImmediateGroup@@IAE_NXZ
	DD	2 DUP(00H)
	DD	2 DUP(00H)
	DD	00H
	DD	01H
xdata$x	ENDS
;	COMDAT xdata$x
xdata$x	SEGMENT
__unwindtable$?PerformDistributeTable@CImmediateGroup@@IAEXXZ DD 0ffffffffH
	DD	FLAT:__unwindfunclet$?PerformDistributeTable@CImmediateGroup@@IAEXXZ$0
__ehfuncinfo$?PerformDistributeTable@CImmediateGroup@@IAEXXZ DD 019930522H
	DD	01H
	DD	FLAT:__unwindtable$?PerformDistributeTable@CImmediateGroup@@IAEXXZ
	DD	2 DUP(00H)
	DD	2 DUP(00H)
	DD	00H
	DD	01H
xdata$x	ENDS
;	COMDAT xdata$x
xdata$x	SEGMENT
__catchsym$?OnEventGameEnd@CImmediateGroup@@UAE_NPAUITableFrame@@GPAUIServerUserItem@@E@Z$2 DD 040H
	DD	00H
	DD	00H
	DD	FLAT:__catch$?OnEventGameEnd@CImmediateGroup@@UAE_NPAUITableFrame@@GPAUIServerUserItem@@E@Z$0
__unwindtable$?OnEventGameEnd@CImmediateGroup@@UAE_NPAUITableFrame@@GPAUIServerUserItem@@E@Z DD 0ffffffffH
	DD	00H
	DD	0ffffffffH
	DD	00H
__tryblocktable$?OnEventGameEnd@CImmediateGroup@@UAE_NPAUITableFrame@@GPAUIServerUserItem@@E@Z DD 00H
	DD	00H
	DD	01H
	DD	01H
	DD	FLAT:__catchsym$?OnEventGameEnd@CImmediateGroup@@UAE_NPAUITableFrame@@GPAUIServerUserItem@@E@Z$2
__ehfuncinfo$?OnEventGameEnd@CImmediateGroup@@UAE_NPAUITableFrame@@GPAUIServerUserItem@@E@Z DD 019930522H
	DD	02H
	DD	FLAT:__unwindtable$?OnEventGameEnd@CImmediateGroup@@UAE_NPAUITableFrame@@GPAUIServerUserItem@@E@Z
	DD	01H
	DD	FLAT:__tryblocktable$?OnEventGameEnd@CImmediateGroup@@UAE_NPAUITableFrame@@GPAUIServerUserItem@@E@Z
	DD	2 DUP(00H)
	DD	00H
	DD	01H
xdata$x	ENDS
;	COMDAT xdata$x
xdata$x	SEGMENT
__catchsym$??1CImmediateGroup@@UAE@XZ$6 DD 040H
	DD	00H
	DD	00H
	DD	FLAT:__catch$??1CImmediateGroup@@UAE@XZ$0
__tryblocktable$??1CImmediateGroup@@UAE@XZ DD 04H
	DD	04H
	DD	05H
	DD	01H
	DD	FLAT:__catchsym$??1CImmediateGroup@@UAE@XZ$6
__ehfuncinfo$??1CImmediateGroup@@UAE@XZ DD 019930522H
	DD	06H
	DD	FLAT:__unwindtable$??1CImmediateGroup@@UAE@XZ
	DD	01H
	DD	FLAT:__tryblocktable$??1CImmediateGroup@@UAE@XZ
	DD	2 DUP(00H)
	DD	00H
	DD	05H
__unwindtable$??1CImmediateGroup@@UAE@XZ DD 0ffffffffH
	DD	FLAT:__unwindfunclet$??1CImmediateGroup@@UAE@XZ$2
	DD	00H
	DD	FLAT:__unwindfunclet$??1CImmediateGroup@@UAE@XZ$3
	DD	01H
	DD	FLAT:__unwindfunclet$??1CImmediateGroup@@UAE@XZ$4
	DD	02H
	DD	FLAT:__unwindfunclet$??1CImmediateGroup@@UAE@XZ$5
	DD	03H
	DD	00H
	DD	03H
	DD	00H
xdata$x	ENDS
;	COMDAT xdata$x
xdata$x	SEGMENT
__unwindtable$??0CImmediateGroup@@QAE@_JPAUtagGameMatchOption@@PAUIImmediateGroupSink@@@Z DD 0ffffffffH
	DD	FLAT:__unwindfunclet$??0CImmediateGroup@@QAE@_JPAUtagGameMatchOption@@PAUIImmediateGroupSink@@@Z$0
	DD	00H
	DD	FLAT:__unwindfunclet$??0CImmediateGroup@@QAE@_JPAUtagGameMatchOption@@PAUIImmediateGroupSink@@@Z$1
	DD	01H
	DD	FLAT:__unwindfunclet$??0CImmediateGroup@@QAE@_JPAUtagGameMatchOption@@PAUIImmediateGroupSink@@@Z$2
	DD	02H
	DD	FLAT:__unwindfunclet$??0CImmediateGroup@@QAE@_JPAUtagGameMatchOption@@PAUIImmediateGroupSink@@@Z$3
__ehfuncinfo$??0CImmediateGroup@@QAE@_JPAUtagGameMatchOption@@PAUIImmediateGroupSink@@@Z DD 019930522H
	DD	04H
	DD	FLAT:__unwindtable$??0CImmediateGroup@@QAE@_JPAUtagGameMatchOption@@PAUIImmediateGroupSink@@@Z
	DD	2 DUP(00H)
	DD	2 DUP(00H)
	DD	00H
	DD	01H
xdata$x	ENDS
;	COMDAT xdata$x
xdata$x	SEGMENT
__ehfuncinfo$??1?$CMap@KKPAUIServerUserItem@@PAU1@@@UAE@XZ DD 019930522H
	DD	00H
	DD	00H
	DD	2 DUP(00H)
	DD	2 DUP(00H)
	DD	00H
	DD	05H
xdata$x	ENDS
;	COMDAT xdata$x
xdata$x	SEGMENT
__unwindtable$??0?$CMap@KKPAUIServerUserItem@@PAU1@@@QAE@H@Z DD 0ffffffffH
	DD	FLAT:__unwindfunclet$??0?$CMap@KKPAUIServerUserItem@@PAU1@@@QAE@H@Z$0
__ehfuncinfo$??0?$CMap@KKPAUIServerUserItem@@PAU1@@@QAE@H@Z DD 019930522H
	DD	01H
	DD	FLAT:__unwindtable$??0?$CMap@KKPAUIServerUserItem@@PAU1@@@QAE@H@Z
	DD	2 DUP(00H)
	DD	2 DUP(00H)
	DD	00H
	DD	01H
xdata$x	ENDS
;	COMDAT xdata$x
xdata$x	SEGMENT
__unwindtable$??RCTraceFileAndLineInfo@ATL@@QBAXHIPBDZZ DD 0ffffffffH
	DD	FLAT:__unwindfunclet$??RCTraceFileAndLineInfo@ATL@@QBAXHIPBDZZ$0
__ehfuncinfo$??RCTraceFileAndLineInfo@ATL@@QBAXHIPBDZZ DD 019930522H
	DD	01H
	DD	FLAT:__unwindtable$??RCTraceFileAndLineInfo@ATL@@QBAXHIPBDZZ
	DD	2 DUP(00H)
	DD	2 DUP(00H)
	DD	00H
	DD	01H
xdata$x	ENDS
;	COMDAT xdata$x
xdata$x	SEGMENT
__unwindtable$?TraceV@CTrace@ATL@@SAXPBDHII0PAD@Z DD 0ffffffffH
	DD	FLAT:__unwindfunclet$?TraceV@CTrace@ATL@@SAXPBDHII0PAD@Z$0
	DD	00H
	DD	FLAT:__unwindfunclet$?TraceV@CTrace@ATL@@SAXPBDHII0PAD@Z$1
__ehfuncinfo$?TraceV@CTrace@ATL@@SAXPBDHII0PAD@Z DD 019930522H
	DD	02H
	DD	FLAT:__unwindtable$?TraceV@CTrace@ATL@@SAXPBDHII0PAD@Z
	DD	2 DUP(00H)
	DD	2 DUP(00H)
	DD	00H
	DD	01H
xdata$x	ENDS
; Function compile flags: /Odtp /ZI
; File c:\program files (x86)\microsoft visual studio\2017\community\vc\tools\msvc\14.16.27023\atlmfc\include\afxtempl.h
;	COMDAT ??$DumpElements@PAUIServerUserItem@@@@YGXAAVCDumpContext@@PBQAUIServerUserItem@@H@Z
_TEXT	SEGMENT
tv66 = -72						; size = 4
___afx_condVal$1 = -4					; size = 4
_dc$ = 8						; size = 4
_pElements$ = 12					; size = 4
_nCount$ = 16						; size = 4
??$DumpElements@PAUIServerUserItem@@@@YGXAAVCDumpContext@@PBQAUIServerUserItem@@H@Z PROC ; DumpElements<IServerUserItem *>, COMDAT

; 137  : {

  00000	55		 push	 ebp
  00001	8b ec		 mov	 ebp, esp
  00003	83 ec 48	 sub	 esp, 72			; 00000048H
  00006	53		 push	 ebx
  00007	56		 push	 esi
  00008	57		 push	 edi
$LN4@DumpElemen:

; 138  : 	ENSURE(nCount == 0 || pElements != NULL);

  00009	83 7d 10 00	 cmp	 DWORD PTR _nCount$[ebp], 0
  0000d	74 0f		 je	 SHORT $LN7@DumpElemen
  0000f	83 7d 0c 00	 cmp	 DWORD PTR _pElements$[ebp], 0
  00013	75 09		 jne	 SHORT $LN7@DumpElemen
  00015	c7 45 b8 00 00
	00 00		 mov	 DWORD PTR tv66[ebp], 0
  0001c	eb 07		 jmp	 SHORT $LN8@DumpElemen
$LN7@DumpElemen:
  0001e	c7 45 b8 01 00
	00 00		 mov	 DWORD PTR tv66[ebp], 1
$LN8@DumpElemen:
  00025	8b 45 b8	 mov	 eax, DWORD PTR tv66[ebp]
  00028	89 45 fc	 mov	 DWORD PTR ___afx_condVal$1[ebp], eax
  0002b	83 7d fc 00	 cmp	 DWORD PTR ___afx_condVal$1[ebp], 0
  0002f	75 14		 jne	 SHORT $LN9@DumpElemen
  00031	68 8a 00 00 00	 push	 138			; 0000008aH
  00036	68 00 00 00 00	 push	 OFFSET ??_C@_0HC@HBCNBCLF@c?3?2program?5files?5?$CIx86?$CJ?2microsof@
  0003b	e8 00 00 00 00	 call	 ?AfxAssertFailedLine@@YGHPBDH@Z ; AfxAssertFailedLine
  00040	85 c0		 test	 eax, eax
  00042	74 01		 je	 SHORT $LN9@DumpElemen
  00044	cc		 int	 3
$LN9@DumpElemen:
  00045	83 7d fc 00	 cmp	 DWORD PTR ___afx_condVal$1[ebp], 0
  00049	75 05		 jne	 SHORT $LN2@DumpElemen
  0004b	e8 00 00 00 00	 call	 ?AfxThrowInvalidArgException@@YGXXZ ; AfxThrowInvalidArgException
$LN2@DumpElemen:
  00050	33 c0		 xor	 eax, eax
  00052	75 b5		 jne	 SHORT $LN4@DumpElemen

; 139  : 	ASSERT(nCount == 0 ||

  00054	83 7d 10 00	 cmp	 DWORD PTR _nCount$[ebp], 0
  00058	74 2a		 je	 SHORT $LN6@DumpElemen
  0005a	6a 00		 push	 0
  0005c	8b 45 10	 mov	 eax, DWORD PTR _nCount$[ebp]
  0005f	c1 e0 02	 shl	 eax, 2
  00062	50		 push	 eax
  00063	8b 4d 0c	 mov	 ecx, DWORD PTR _pElements$[ebp]
  00066	51		 push	 ecx
  00067	e8 00 00 00 00	 call	 ?AfxIsValidAddress@@YGHPBXIH@Z ; AfxIsValidAddress
  0006c	85 c0		 test	 eax, eax
  0006e	75 14		 jne	 SHORT $LN6@DumpElemen
  00070	68 8c 00 00 00	 push	 140			; 0000008cH
  00075	68 00 00 00 00	 push	 OFFSET ??_C@_0HC@HBCNBCLF@c?3?2program?5files?5?$CIx86?$CJ?2microsof@
  0007a	e8 00 00 00 00	 call	 ?AfxAssertFailedLine@@YGHPBDH@Z ; AfxAssertFailedLine
  0007f	85 c0		 test	 eax, eax
  00081	74 01		 je	 SHORT $LN6@DumpElemen
  00083	cc		 int	 3
$LN6@DumpElemen:

; 140  : 		AfxIsValidAddress(pElements, (size_t)nCount * sizeof(TYPE), FALSE));
; 141  : 	(dc); // not used
; 142  : 	(pElements);  // not used
; 143  : 	(nCount); // not used
; 144  : 
; 145  : 	// default does nothing
; 146  : }

  00084	5f		 pop	 edi
  00085	5e		 pop	 esi
  00086	5b		 pop	 ebx
  00087	8b e5		 mov	 esp, ebp
  00089	5d		 pop	 ebp
  0008a	c2 0c 00	 ret	 12			; 0000000cH
??$DumpElements@PAUIServerUserItem@@@@YGXAAVCDumpContext@@PBQAUIServerUserItem@@H@Z ENDP ; DumpElements<IServerUserItem *>
_TEXT	ENDS
; Function compile flags: /Odtp /ZI
; File c:\program files (x86)\microsoft visual studio\2017\community\vc\tools\msvc\14.16.27023\atlmfc\include\afxtempl.h
;	COMDAT ??$SerializeElements@PAUIServerUserItem@@@@YGXAAVCArchive@@PAPAUIServerUserItem@@H@Z
_TEXT	SEGMENT
tv134 = -96						; size = 4
tv92 = -96						; size = 4
tv66 = -96						; size = 4
_nElementsToRead$1 = -28				; size = 4
_nElementsLeft$2 = -24					; size = 4
_pData$3 = -20						; size = 4
_nElementsToWrite$4 = -16				; size = 4
_nElementsLeft$5 = -12					; size = 4
_pData$6 = -8						; size = 4
___afx_condVal$7 = -4					; size = 4
_ar$ = 8						; size = 4
_pElements$ = 12					; size = 4
_nCount$ = 16						; size = 4
??$SerializeElements@PAUIServerUserItem@@@@YGXAAVCArchive@@PAPAUIServerUserItem@@H@Z PROC ; SerializeElements<IServerUserItem *>, COMDAT

; 67   : {

  00000	55		 push	 ebp
  00001	8b ec		 mov	 ebp, esp
  00003	83 ec 60	 sub	 esp, 96			; 00000060H
  00006	53		 push	 ebx
  00007	56		 push	 esi
  00008	57		 push	 edi
$LN4@SerializeE:

; 68   : 	ENSURE(nCount == 0 || pElements != NULL);

  00009	83 7d 10 00	 cmp	 DWORD PTR _nCount$[ebp], 0
  0000d	74 0f		 je	 SHORT $LN13@SerializeE
  0000f	83 7d 0c 00	 cmp	 DWORD PTR _pElements$[ebp], 0
  00013	75 09		 jne	 SHORT $LN13@SerializeE
  00015	c7 45 a0 00 00
	00 00		 mov	 DWORD PTR tv66[ebp], 0
  0001c	eb 07		 jmp	 SHORT $LN14@SerializeE
$LN13@SerializeE:
  0001e	c7 45 a0 01 00
	00 00		 mov	 DWORD PTR tv66[ebp], 1
$LN14@SerializeE:
  00025	8b 45 a0	 mov	 eax, DWORD PTR tv66[ebp]
  00028	89 45 fc	 mov	 DWORD PTR ___afx_condVal$7[ebp], eax
  0002b	83 7d fc 00	 cmp	 DWORD PTR ___afx_condVal$7[ebp], 0
  0002f	75 11		 jne	 SHORT $LN15@SerializeE
  00031	6a 44		 push	 68			; 00000044H
  00033	68 00 00 00 00	 push	 OFFSET ??_C@_0HC@HBCNBCLF@c?3?2program?5files?5?$CIx86?$CJ?2microsof@
  00038	e8 00 00 00 00	 call	 ?AfxAssertFailedLine@@YGHPBDH@Z ; AfxAssertFailedLine
  0003d	85 c0		 test	 eax, eax
  0003f	74 01		 je	 SHORT $LN15@SerializeE
  00041	cc		 int	 3
$LN15@SerializeE:
  00042	83 7d fc 00	 cmp	 DWORD PTR ___afx_condVal$7[ebp], 0
  00046	75 05		 jne	 SHORT $LN2@SerializeE
  00048	e8 00 00 00 00	 call	 ?AfxThrowInvalidArgException@@YGXXZ ; AfxThrowInvalidArgException
$LN2@SerializeE:
  0004d	33 c0		 xor	 eax, eax
  0004f	75 b8		 jne	 SHORT $LN4@SerializeE

; 69   : 	ASSERT(nCount == 0 ||

  00051	83 7d 10 00	 cmp	 DWORD PTR _nCount$[ebp], 0
  00055	74 27		 je	 SHORT $LN16@SerializeE
  00057	6a 01		 push	 1
  00059	8b 45 10	 mov	 eax, DWORD PTR _nCount$[ebp]
  0005c	c1 e0 02	 shl	 eax, 2
  0005f	50		 push	 eax
  00060	8b 4d 0c	 mov	 ecx, DWORD PTR _pElements$[ebp]
  00063	51		 push	 ecx
  00064	e8 00 00 00 00	 call	 ?AfxIsValidAddress@@YGHPBXIH@Z ; AfxIsValidAddress
  00069	85 c0		 test	 eax, eax
  0006b	75 11		 jne	 SHORT $LN16@SerializeE
  0006d	6a 46		 push	 70			; 00000046H
  0006f	68 00 00 00 00	 push	 OFFSET ??_C@_0HC@HBCNBCLF@c?3?2program?5files?5?$CIx86?$CJ?2microsof@
  00074	e8 00 00 00 00	 call	 ?AfxAssertFailedLine@@YGHPBDH@Z ; AfxAssertFailedLine
  00079	85 c0		 test	 eax, eax
  0007b	74 01		 je	 SHORT $LN16@SerializeE
  0007d	cc		 int	 3
$LN16@SerializeE:

; 70   : 		AfxIsValidAddress(pElements, (size_t)nCount * sizeof(TYPE)));
; 71   : 
; 72   : 	// default is bit-wise read/write
; 73   : 	if (ar.IsStoring())

  0007e	8b 4d 08	 mov	 ecx, DWORD PTR _ar$[ebp]
  00081	e8 00 00 00 00	 call	 ?IsStoring@CArchive@@QBEHXZ ; CArchive::IsStoring
  00086	85 c0		 test	 eax, eax
  00088	74 5c		 je	 SHORT $LN10@SerializeE

; 74   : 	{
; 75   : 		TYPE* pData;
; 76   : 		UINT_PTR nElementsLeft;
; 77   : 
; 78   : 		nElementsLeft = nCount;

  0008a	8b 45 10	 mov	 eax, DWORD PTR _nCount$[ebp]
  0008d	89 45 f4	 mov	 DWORD PTR _nElementsLeft$5[ebp], eax

; 79   : 		pData = pElements;

  00090	8b 45 0c	 mov	 eax, DWORD PTR _pElements$[ebp]
  00093	89 45 f8	 mov	 DWORD PTR _pData$6[ebp], eax
$LN5@SerializeE:

; 80   : 		while( nElementsLeft > 0 )

  00096	83 7d f4 00	 cmp	 DWORD PTR _nElementsLeft$5[ebp], 0
  0009a	76 48		 jbe	 SHORT $LN6@SerializeE

; 81   : 		{
; 82   : 			UINT nElementsToWrite;
; 83   : 
; 84   : 			nElementsToWrite = UINT(__min(nElementsLeft, INT_MAX/sizeof(TYPE)));

  0009c	81 7d f4 ff ff
	ff 1f		 cmp	 DWORD PTR _nElementsLeft$5[ebp], 536870911 ; 1fffffffH
  000a3	73 08		 jae	 SHORT $LN17@SerializeE
  000a5	8b 45 f4	 mov	 eax, DWORD PTR _nElementsLeft$5[ebp]
  000a8	89 45 a0	 mov	 DWORD PTR tv92[ebp], eax
  000ab	eb 07		 jmp	 SHORT $LN18@SerializeE
$LN17@SerializeE:
  000ad	c7 45 a0 ff ff
	ff 1f		 mov	 DWORD PTR tv92[ebp], 536870911 ; 1fffffffH
$LN18@SerializeE:
  000b4	8b 4d a0	 mov	 ecx, DWORD PTR tv92[ebp]
  000b7	89 4d f0	 mov	 DWORD PTR _nElementsToWrite$4[ebp], ecx

; 85   : 			ar.Write(pData, nElementsToWrite*sizeof(TYPE));

  000ba	8b 45 f0	 mov	 eax, DWORD PTR _nElementsToWrite$4[ebp]
  000bd	c1 e0 02	 shl	 eax, 2
  000c0	50		 push	 eax
  000c1	8b 4d f8	 mov	 ecx, DWORD PTR _pData$6[ebp]
  000c4	51		 push	 ecx
  000c5	8b 4d 08	 mov	 ecx, DWORD PTR _ar$[ebp]
  000c8	e8 00 00 00 00	 call	 ?Write@CArchive@@QAEXPBXI@Z ; CArchive::Write

; 86   : 			nElementsLeft -= nElementsToWrite;

  000cd	8b 45 f4	 mov	 eax, DWORD PTR _nElementsLeft$5[ebp]
  000d0	2b 45 f0	 sub	 eax, DWORD PTR _nElementsToWrite$4[ebp]
  000d3	89 45 f4	 mov	 DWORD PTR _nElementsLeft$5[ebp], eax

; 87   : 			pData += nElementsToWrite;

  000d6	8b 45 f0	 mov	 eax, DWORD PTR _nElementsToWrite$4[ebp]
  000d9	8b 4d f8	 mov	 ecx, DWORD PTR _pData$6[ebp]
  000dc	8d 14 81	 lea	 edx, DWORD PTR [ecx+eax*4]
  000df	89 55 f8	 mov	 DWORD PTR _pData$6[ebp], edx

; 88   : 		}

  000e2	eb b2		 jmp	 SHORT $LN5@SerializeE
$LN6@SerializeE:

; 89   : 	}
; 90   : 	else

  000e4	eb 5a		 jmp	 SHORT $LN12@SerializeE
$LN10@SerializeE:

; 91   : 	{
; 92   : 		TYPE* pData;
; 93   : 		UINT_PTR nElementsLeft;
; 94   : 
; 95   : 		nElementsLeft = nCount;

  000e6	8b 45 10	 mov	 eax, DWORD PTR _nCount$[ebp]
  000e9	89 45 e8	 mov	 DWORD PTR _nElementsLeft$2[ebp], eax

; 96   : 		pData = pElements;

  000ec	8b 45 0c	 mov	 eax, DWORD PTR _pElements$[ebp]
  000ef	89 45 ec	 mov	 DWORD PTR _pData$3[ebp], eax
$LN7@SerializeE:

; 97   : 		while( nElementsLeft > 0 )

  000f2	83 7d e8 00	 cmp	 DWORD PTR _nElementsLeft$2[ebp], 0
  000f6	76 48		 jbe	 SHORT $LN12@SerializeE

; 98   : 		{
; 99   : 			UINT nElementsToRead;
; 100  : 
; 101  : 			nElementsToRead = UINT(__min(nElementsLeft, INT_MAX/sizeof(TYPE)));

  000f8	81 7d e8 ff ff
	ff 1f		 cmp	 DWORD PTR _nElementsLeft$2[ebp], 536870911 ; 1fffffffH
  000ff	73 08		 jae	 SHORT $LN19@SerializeE
  00101	8b 45 e8	 mov	 eax, DWORD PTR _nElementsLeft$2[ebp]
  00104	89 45 a0	 mov	 DWORD PTR tv134[ebp], eax
  00107	eb 07		 jmp	 SHORT $LN20@SerializeE
$LN19@SerializeE:
  00109	c7 45 a0 ff ff
	ff 1f		 mov	 DWORD PTR tv134[ebp], 536870911 ; 1fffffffH
$LN20@SerializeE:
  00110	8b 4d a0	 mov	 ecx, DWORD PTR tv134[ebp]
  00113	89 4d e4	 mov	 DWORD PTR _nElementsToRead$1[ebp], ecx

; 102  : 			ar.EnsureRead(pData, nElementsToRead*sizeof(TYPE));

  00116	8b 45 e4	 mov	 eax, DWORD PTR _nElementsToRead$1[ebp]
  00119	c1 e0 02	 shl	 eax, 2
  0011c	50		 push	 eax
  0011d	8b 4d ec	 mov	 ecx, DWORD PTR _pData$3[ebp]
  00120	51		 push	 ecx
  00121	8b 4d 08	 mov	 ecx, DWORD PTR _ar$[ebp]
  00124	e8 00 00 00 00	 call	 ?EnsureRead@CArchive@@QAEXPAXI@Z ; CArchive::EnsureRead

; 103  : 			nElementsLeft -= nElementsToRead;

  00129	8b 45 e8	 mov	 eax, DWORD PTR _nElementsLeft$2[ebp]
  0012c	2b 45 e4	 sub	 eax, DWORD PTR _nElementsToRead$1[ebp]
  0012f	89 45 e8	 mov	 DWORD PTR _nElementsLeft$2[ebp], eax

; 104  : 			pData += nElementsToRead;

  00132	8b 45 e4	 mov	 eax, DWORD PTR _nElementsToRead$1[ebp]
  00135	8b 4d ec	 mov	 ecx, DWORD PTR _pData$3[ebp]
  00138	8d 14 81	 lea	 edx, DWORD PTR [ecx+eax*4]
  0013b	89 55 ec	 mov	 DWORD PTR _pData$3[ebp], edx

; 105  : 		}

  0013e	eb b2		 jmp	 SHORT $LN7@SerializeE
$LN12@SerializeE:

; 106  : 	}
; 107  : }

  00140	5f		 pop	 edi
  00141	5e		 pop	 esi
  00142	5b		 pop	 ebx
  00143	8b e5		 mov	 esp, ebp
  00145	5d		 pop	 ebp
  00146	c2 0c 00	 ret	 12			; 0000000cH
??$SerializeElements@PAUIServerUserItem@@@@YGXAAVCArchive@@PAPAUIServerUserItem@@H@Z ENDP ; SerializeElements<IServerUserItem *>
_TEXT	ENDS
; Function compile flags: /Odtp /ZI
; File c:\program files (x86)\microsoft visual studio\2017\community\vc\tools\msvc\14.16.27023\atlmfc\include\afxtempl.h
;	COMDAT ??0CAssoc@?$CMap@KKPAUIServerUserItem@@PAU1@@@QAE@K@Z
_TEXT	SEGMENT
_this$ = -4						; size = 4
_key$ = 8						; size = 4
??0CAssoc@?$CMap@KKPAUIServerUserItem@@PAU1@@@QAE@K@Z PROC ; CMap<unsigned long,unsigned long,IServerUserItem *,IServerUserItem *>::CAssoc::CAssoc, COMDAT
; _this$ = ecx

; 1267 : 		CAssoc( ARG_KEY key ) : CPair( key ) {}

  00000	55		 push	 ebp
  00001	8b ec		 mov	 ebp, esp
  00003	83 ec 44	 sub	 esp, 68			; 00000044H
  00006	53		 push	 ebx
  00007	56		 push	 esi
  00008	57		 push	 edi
  00009	89 4d fc	 mov	 DWORD PTR _this$[ebp], ecx
  0000c	8b 45 08	 mov	 eax, DWORD PTR _key$[ebp]
  0000f	50		 push	 eax
  00010	8b 4d fc	 mov	 ecx, DWORD PTR _this$[ebp]
  00013	e8 00 00 00 00	 call	 ??0CPair@?$CMap@KKPAUIServerUserItem@@PAU1@@@IAE@K@Z ; CMap<unsigned long,unsigned long,IServerUserItem *,IServerUserItem *>::CPair::CPair
  00018	8b 45 fc	 mov	 eax, DWORD PTR _this$[ebp]
  0001b	5f		 pop	 edi
  0001c	5e		 pop	 esi
  0001d	5b		 pop	 ebx
  0001e	8b e5		 mov	 esp, ebp
  00020	5d		 pop	 ebp
  00021	c2 04 00	 ret	 4
??0CAssoc@?$CMap@KKPAUIServerUserItem@@PAU1@@@QAE@K@Z ENDP ; CMap<unsigned long,unsigned long,IServerUserItem *,IServerUserItem *>::CAssoc::CAssoc
_TEXT	ENDS
; Function compile flags: /Odtp /ZI
; File c:\program files (x86)\microsoft visual studio\2017\community\vc\tools\msvc\14.16.27023\atlmfc\include\afxtempl.h
;	COMDAT ??0CPair@?$CMap@KKPAUIServerUserItem@@PAU1@@@IAE@K@Z
_TEXT	SEGMENT
_this$ = -4						; size = 4
_keyval$ = 8						; size = 4
??0CPair@?$CMap@KKPAUIServerUserItem@@PAU1@@@IAE@K@Z PROC ; CMap<unsigned long,unsigned long,IServerUserItem *,IServerUserItem *>::CPair::CPair, COMDAT
; _this$ = ecx

; 1256 : 		CPair( ARG_KEY keyval ) : key( keyval )	{}

  00000	55		 push	 ebp
  00001	8b ec		 mov	 ebp, esp
  00003	83 ec 44	 sub	 esp, 68			; 00000044H
  00006	53		 push	 ebx
  00007	56		 push	 esi
  00008	57		 push	 edi
  00009	89 4d fc	 mov	 DWORD PTR _this$[ebp], ecx
  0000c	8b 45 fc	 mov	 eax, DWORD PTR _this$[ebp]
  0000f	8b 4d 08	 mov	 ecx, DWORD PTR _keyval$[ebp]
  00012	89 08		 mov	 DWORD PTR [eax], ecx
  00014	8b 45 fc	 mov	 eax, DWORD PTR _this$[ebp]
  00017	5f		 pop	 edi
  00018	5e		 pop	 esi
  00019	5b		 pop	 ebx
  0001a	8b e5		 mov	 esp, ebp
  0001c	5d		 pop	 ebp
  0001d	c2 04 00	 ret	 4
??0CPair@?$CMap@KKPAUIServerUserItem@@PAU1@@@IAE@K@Z ENDP ; CMap<unsigned long,unsigned long,IServerUserItem *,IServerUserItem *>::CPair::CPair
_TEXT	ENDS
; Function compile flags: /Odtp /ZI
; File c:\program files (x86)\windows kits\10\include\10.0.17763.0\ucrt\stdio.h
;	COMDAT ??$_snprintf_s@$0EA@@@YAHAAY0EA@DIPBDZZ
_TEXT	SEGMENT
__ArgList$ = -4						; size = 4
__Buffer$ = 8						; size = 4
__BufferCount$ = 12					; size = 4
__Format$ = 16						; size = 4
??$_snprintf_s@$0EA@@@YAHAAY0EA@DIPBDZZ PROC		; _snprintf_s<64>, COMDAT

; 2079 :         )

  00000	55		 push	 ebp
  00001	8b ec		 mov	 ebp, esp
  00003	83 ec 48	 sub	 esp, 72			; 00000048H
  00006	53		 push	 ebx
  00007	56		 push	 esi
  00008	57		 push	 edi

; 2073 :     __DEFINE_CPP_OVERLOAD_SECURE_FUNC_0_2_ARGLIST(

  00009	8d 45 14	 lea	 eax, DWORD PTR __Format$[ebp+4]
  0000c	89 45 fc	 mov	 DWORD PTR __ArgList$[ebp], eax
  0000f	8b 45 fc	 mov	 eax, DWORD PTR __ArgList$[ebp]
  00012	50		 push	 eax
  00013	8b 4d 10	 mov	 ecx, DWORD PTR __Format$[ebp]
  00016	51		 push	 ecx
  00017	8b 55 0c	 mov	 edx, DWORD PTR __BufferCount$[ebp]
  0001a	52		 push	 edx
  0001b	6a 40		 push	 64			; 00000040H
  0001d	8b 45 08	 mov	 eax, DWORD PTR __Buffer$[ebp]
  00020	50		 push	 eax
  00021	e8 00 00 00 00	 call	 __vsnprintf_s
  00026	83 c4 14	 add	 esp, 20			; 00000014H
  00029	5f		 pop	 edi
  0002a	5e		 pop	 esi
  0002b	5b		 pop	 ebx
  0002c	8b e5		 mov	 esp, ebp
  0002e	5d		 pop	 ebp
  0002f	c3		 ret	 0
??$_snprintf_s@$0EA@@@YAHAAY0EA@DIPBDZZ ENDP		; _snprintf_s<64>
_TEXT	ENDS
; Function compile flags: /Odtp /ZI
; File c:\program files (x86)\windows kits\10\include\10.0.17763.0\ucrt\stdio.h
;	COMDAT ??$_snprintf_s@$0IA@@@YAHAAY0IA@DIPBDZZ
_TEXT	SEGMENT
__ArgList$ = -4						; size = 4
__Buffer$ = 8						; size = 4
__BufferCount$ = 12					; size = 4
__Format$ = 16						; size = 4
??$_snprintf_s@$0IA@@@YAHAAY0IA@DIPBDZZ PROC		; _snprintf_s<128>, COMDAT

; 2079 :         )

  00000	55		 push	 ebp
  00001	8b ec		 mov	 ebp, esp
  00003	83 ec 48	 sub	 esp, 72			; 00000048H
  00006	53		 push	 ebx
  00007	56		 push	 esi
  00008	57		 push	 edi

; 2073 :     __DEFINE_CPP_OVERLOAD_SECURE_FUNC_0_2_ARGLIST(

  00009	8d 45 14	 lea	 eax, DWORD PTR __Format$[ebp+4]
  0000c	89 45 fc	 mov	 DWORD PTR __ArgList$[ebp], eax
  0000f	8b 45 fc	 mov	 eax, DWORD PTR __ArgList$[ebp]
  00012	50		 push	 eax
  00013	8b 4d 10	 mov	 ecx, DWORD PTR __Format$[ebp]
  00016	51		 push	 ecx
  00017	8b 55 0c	 mov	 edx, DWORD PTR __BufferCount$[ebp]
  0001a	52		 push	 edx
  0001b	68 80 00 00 00	 push	 128			; 00000080H
  00020	8b 45 08	 mov	 eax, DWORD PTR __Buffer$[ebp]
  00023	50		 push	 eax
  00024	e8 00 00 00 00	 call	 __vsnprintf_s
  00029	83 c4 14	 add	 esp, 20			; 00000014H
  0002c	5f		 pop	 edi
  0002d	5e		 pop	 esi
  0002e	5b		 pop	 ebx
  0002f	8b e5		 mov	 esp, ebp
  00031	5d		 pop	 ebp
  00032	c3		 ret	 0
??$_snprintf_s@$0IA@@@YAHAAY0IA@DIPBDZZ ENDP		; _snprintf_s<128>
_TEXT	ENDS
; Function compile flags: /Odtp /ZI
; File c:\program files (x86)\windows kits\10\include\10.0.17763.0\ucrt\stdio.h
;	COMDAT ??$_snprintf_s@$0BAA@@@YAHAAY0BAA@DIPBDZZ
_TEXT	SEGMENT
__ArgList$ = -4						; size = 4
__Buffer$ = 8						; size = 4
__BufferCount$ = 12					; size = 4
__Format$ = 16						; size = 4
??$_snprintf_s@$0BAA@@@YAHAAY0BAA@DIPBDZZ PROC		; _snprintf_s<256>, COMDAT

; 2079 :         )

  00000	55		 push	 ebp
  00001	8b ec		 mov	 ebp, esp
  00003	83 ec 48	 sub	 esp, 72			; 00000048H
  00006	53		 push	 ebx
  00007	56		 push	 esi
  00008	57		 push	 edi

; 2073 :     __DEFINE_CPP_OVERLOAD_SECURE_FUNC_0_2_ARGLIST(

  00009	8d 45 14	 lea	 eax, DWORD PTR __Format$[ebp+4]
  0000c	89 45 fc	 mov	 DWORD PTR __ArgList$[ebp], eax
  0000f	8b 45 fc	 mov	 eax, DWORD PTR __ArgList$[ebp]
  00012	50		 push	 eax
  00013	8b 4d 10	 mov	 ecx, DWORD PTR __Format$[ebp]
  00016	51		 push	 ecx
  00017	8b 55 0c	 mov	 edx, DWORD PTR __BufferCount$[ebp]
  0001a	52		 push	 edx
  0001b	68 00 01 00 00	 push	 256			; 00000100H
  00020	8b 45 08	 mov	 eax, DWORD PTR __Buffer$[ebp]
  00023	50		 push	 eax
  00024	e8 00 00 00 00	 call	 __vsnprintf_s
  00029	83 c4 14	 add	 esp, 20			; 00000014H
  0002c	5f		 pop	 edi
  0002d	5e		 pop	 esi
  0002e	5b		 pop	 ebx
  0002f	8b e5		 mov	 esp, ebp
  00031	5d		 pop	 ebp
  00032	c3		 ret	 0
??$_snprintf_s@$0BAA@@@YAHAAY0BAA@DIPBDZZ ENDP		; _snprintf_s<256>
_TEXT	ENDS
; Function compile flags: /Odtp /ZI
; File c:\program files (x86)\windows kits\10\include\10.0.17763.0\ucrt\stdio.h
;	COMDAT ??$_snprintf_s@$0EAA@@@YAHAAY0EAA@DIPBDZZ
_TEXT	SEGMENT
__ArgList$ = -4						; size = 4
__Buffer$ = 8						; size = 4
__BufferCount$ = 12					; size = 4
__Format$ = 16						; size = 4
??$_snprintf_s@$0EAA@@@YAHAAY0EAA@DIPBDZZ PROC		; _snprintf_s<1024>, COMDAT

; 2079 :         )

  00000	55		 push	 ebp
  00001	8b ec		 mov	 ebp, esp
  00003	83 ec 48	 sub	 esp, 72			; 00000048H
  00006	53		 push	 ebx
  00007	56		 push	 esi
  00008	57		 push	 edi

; 2073 :     __DEFINE_CPP_OVERLOAD_SECURE_FUNC_0_2_ARGLIST(

  00009	8d 45 14	 lea	 eax, DWORD PTR __Format$[ebp+4]
  0000c	89 45 fc	 mov	 DWORD PTR __ArgList$[ebp], eax
  0000f	8b 45 fc	 mov	 eax, DWORD PTR __ArgList$[ebp]
  00012	50		 push	 eax
  00013	8b 4d 10	 mov	 ecx, DWORD PTR __Format$[ebp]
  00016	51		 push	 ecx
  00017	8b 55 0c	 mov	 edx, DWORD PTR __BufferCount$[ebp]
  0001a	52		 push	 edx
  0001b	68 00 04 00 00	 push	 1024			; 00000400H
  00020	8b 45 08	 mov	 eax, DWORD PTR __Buffer$[ebp]
  00023	50		 push	 eax
  00024	e8 00 00 00 00	 call	 __vsnprintf_s
  00029	83 c4 14	 add	 esp, 20			; 00000014H
  0002c	5f		 pop	 edi
  0002d	5e		 pop	 esi
  0002e	5b		 pop	 ebx
  0002f	8b e5		 mov	 esp, ebp
  00031	5d		 pop	 ebp
  00032	c3		 ret	 0
??$_snprintf_s@$0EAA@@@YAHAAY0EAA@DIPBDZZ ENDP		; _snprintf_s<1024>
_TEXT	ENDS
; Function compile flags: /Odtp /ZI
;	COMDAT ??_GCImmediateGroup@@UAEPAXI@Z
_TEXT	SEGMENT
_this$ = -4						; size = 4
___flags$ = 8						; size = 4
??_GCImmediateGroup@@UAEPAXI@Z PROC			; CImmediateGroup::`scalar deleting destructor', COMDAT
; _this$ = ecx
  00000	55		 push	 ebp
  00001	8b ec		 mov	 ebp, esp
  00003	83 ec 44	 sub	 esp, 68			; 00000044H
  00006	53		 push	 ebx
  00007	56		 push	 esi
  00008	57		 push	 edi
  00009	89 4d fc	 mov	 DWORD PTR _this$[ebp], ecx
  0000c	8b 4d fc	 mov	 ecx, DWORD PTR _this$[ebp]
  0000f	e8 00 00 00 00	 call	 ??1CImmediateGroup@@UAE@XZ ; CImmediateGroup::~CImmediateGroup
  00014	8b 45 08	 mov	 eax, DWORD PTR ___flags$[ebp]
  00017	83 e0 01	 and	 eax, 1
  0001a	74 11		 je	 SHORT $LN2@scalar
  0001c	68 90 00 00 00	 push	 144			; 00000090H
  00021	8b 45 fc	 mov	 eax, DWORD PTR _this$[ebp]
  00024	50		 push	 eax
  00025	e8 00 00 00 00	 call	 ??3@YAXPAXI@Z		; operator delete
  0002a	83 c4 08	 add	 esp, 8
$LN2@scalar:
  0002d	8b 45 fc	 mov	 eax, DWORD PTR _this$[ebp]
  00030	5f		 pop	 edi
  00031	5e		 pop	 esi
  00032	5b		 pop	 ebx
  00033	8b e5		 mov	 esp, ebp
  00035	5d		 pop	 ebp
  00036	c2 04 00	 ret	 4
??_GCImmediateGroup@@UAEPAXI@Z ENDP			; CImmediateGroup::`scalar deleting destructor'
_TEXT	ENDS
; Function compile flags: /Odtp /ZI
; File g:\网狐\happygamewh\服务端\系统模块\服务器组件\比赛服务\immediategroup.cpp
;	COMDAT ?SetMatchGameTimer@CImmediateGroup@@IAEXKKKI@Z
_TEXT	SEGMENT
_this$ = -4						; size = 4
_dwTimerID$ = 8						; size = 4
_dwElapse$ = 12						; size = 4
_dwRepeat$ = 16						; size = 4
_dwBindParameter$ = 20					; size = 4
?SetMatchGameTimer@CImmediateGroup@@IAEXKKKI@Z PROC	; CImmediateGroup::SetMatchGameTimer, COMDAT
; _this$ = ecx

; 825  : {

  00000	55		 push	 ebp
  00001	8b ec		 mov	 ebp, esp
  00003	83 ec 44	 sub	 esp, 68			; 00000044H
  00006	53		 push	 ebx
  00007	56		 push	 esi
  00008	57		 push	 edi
  00009	89 4d fc	 mov	 DWORD PTR _this$[ebp], ecx

; 826  : 	if (m_pMatchSink!=NULL)

  0000c	8b 45 fc	 mov	 eax, DWORD PTR _this$[ebp]
  0000f	83 78 2c 00	 cmp	 DWORD PTR [eax+44], 0
  00013	74 31		 je	 SHORT $LN1@SetMatchGa

; 827  : 	{
; 828  : 		m_pMatchSink->SetGameTimer(dwTimerID+10*m_LoopTimer,dwElapse,dwRepeat,dwBindParameter,this);

  00015	8b 45 fc	 mov	 eax, DWORD PTR _this$[ebp]
  00018	50		 push	 eax
  00019	8b 4d 14	 mov	 ecx, DWORD PTR _dwBindParameter$[ebp]
  0001c	51		 push	 ecx
  0001d	8b 55 10	 mov	 edx, DWORD PTR _dwRepeat$[ebp]
  00020	52		 push	 edx
  00021	8b 45 0c	 mov	 eax, DWORD PTR _dwElapse$[ebp]
  00024	50		 push	 eax
  00025	8b 4d fc	 mov	 ecx, DWORD PTR _this$[ebp]
  00028	0f b6 51 19	 movzx	 edx, BYTE PTR [ecx+25]
  0002c	6b c2 0a	 imul	 eax, edx, 10
  0002f	03 45 08	 add	 eax, DWORD PTR _dwTimerID$[ebp]
  00032	50		 push	 eax
  00033	8b 4d fc	 mov	 ecx, DWORD PTR _this$[ebp]
  00036	8b 51 2c	 mov	 edx, DWORD PTR [ecx+44]
  00039	8b 45 fc	 mov	 eax, DWORD PTR _this$[ebp]
  0003c	8b 12		 mov	 edx, DWORD PTR [edx]
  0003e	8b 48 2c	 mov	 ecx, DWORD PTR [eax+44]
  00041	8b 42 0c	 mov	 eax, DWORD PTR [edx+12]
  00044	ff d0		 call	 eax
$LN1@SetMatchGa:

; 829  : 	}
; 830  : }

  00046	5f		 pop	 edi
  00047	5e		 pop	 esi
  00048	5b		 pop	 ebx
  00049	8b e5		 mov	 esp, ebp
  0004b	5d		 pop	 ebp
  0004c	c2 10 00	 ret	 16			; 00000010H
?SetMatchGameTimer@CImmediateGroup@@IAEXKKKI@Z ENDP	; CImmediateGroup::SetMatchGameTimer
_TEXT	ENDS
; Function compile flags: /Odtp /ZI
; File g:\网狐\happygamewh\服务端\系统模块\服务器组件\比赛服务\immediategroup.cpp
;	COMDAT ?PostMatchTimer@CImmediateGroup@@IAEXKHIJ@Z
_TEXT	SEGMENT
$T1 = -76						; size = 4
_pMatchTimer$ = -8					; size = 4
_this$ = -4						; size = 4
_dwTimerID$ = 8						; size = 4
_iElapse$ = 12						; size = 4
_wParam$ = 16						; size = 4
_lParam$ = 20						; size = 4
?PostMatchTimer@CImmediateGroup@@IAEXKHIJ@Z PROC	; CImmediateGroup::PostMatchTimer, COMDAT
; _this$ = ecx

; 979  : {

  00000	55		 push	 ebp
  00001	8b ec		 mov	 ebp, esp
  00003	83 ec 4c	 sub	 esp, 76			; 0000004cH
  00006	53		 push	 ebx
  00007	56		 push	 esi
  00008	57		 push	 edi
  00009	89 4d fc	 mov	 DWORD PTR _this$[ebp], ecx

; 980  : 	tagMatchTimer* pMatchTimer=new tagMatchTimer;

  0000c	6a 10		 push	 16			; 00000010H
  0000e	e8 00 00 00 00	 call	 ??2@YAPAXI@Z		; operator new
  00013	83 c4 04	 add	 esp, 4
  00016	89 45 b4	 mov	 DWORD PTR $T1[ebp], eax
  00019	8b 45 b4	 mov	 eax, DWORD PTR $T1[ebp]
  0001c	89 45 f8	 mov	 DWORD PTR _pMatchTimer$[ebp], eax

; 981  : 	pMatchTimer->dwTimerID=dwTimerID;

  0001f	8b 45 f8	 mov	 eax, DWORD PTR _pMatchTimer$[ebp]
  00022	8b 4d 08	 mov	 ecx, DWORD PTR _dwTimerID$[ebp]
  00025	89 08		 mov	 DWORD PTR [eax], ecx

; 982  : 	pMatchTimer->iElapse=iElapse;

  00027	8b 45 f8	 mov	 eax, DWORD PTR _pMatchTimer$[ebp]
  0002a	8b 4d 0c	 mov	 ecx, DWORD PTR _iElapse$[ebp]
  0002d	89 48 04	 mov	 DWORD PTR [eax+4], ecx

; 983  : 	//pMatchTimer->dwRepeat=dwRepeat;
; 984  : 	pMatchTimer->wParam=wParam;

  00030	8b 45 f8	 mov	 eax, DWORD PTR _pMatchTimer$[ebp]
  00033	8b 4d 10	 mov	 ecx, DWORD PTR _wParam$[ebp]
  00036	89 48 08	 mov	 DWORD PTR [eax+8], ecx

; 985  : 	pMatchTimer->lParam=lParam;

  00039	8b 45 f8	 mov	 eax, DWORD PTR _pMatchTimer$[ebp]
  0003c	8b 4d 14	 mov	 ecx, DWORD PTR _lParam$[ebp]
  0003f	89 48 0c	 mov	 DWORD PTR [eax+12], ecx

; 986  : 	m_MatchTimerArray.Add(pMatchTimer);

  00042	8d 45 f8	 lea	 eax, DWORD PTR _pMatchTimer$[ebp]
  00045	50		 push	 eax
  00046	8b 4d fc	 mov	 ecx, DWORD PTR _this$[ebp]
  00049	83 c1 7c	 add	 ecx, 124		; 0000007cH
  0004c	e8 00 00 00 00	 call	 ?Add@?$CWHArray@PAUtagMatchTimer@@ABQAU1@@@QAEHABQAUtagMatchTimer@@@Z ; CWHArray<tagMatchTimer *,tagMatchTimer * const &>::Add

; 987  : }

  00051	5f		 pop	 edi
  00052	5e		 pop	 esi
  00053	5b		 pop	 ebx
  00054	8b e5		 mov	 esp, ebp
  00056	5d		 pop	 ebp
  00057	c2 10 00	 ret	 16			; 00000010H
?PostMatchTimer@CImmediateGroup@@IAEXKHIJ@Z ENDP	; CImmediateGroup::PostMatchTimer
_TEXT	ENDS
; Function compile flags: /Odtp /ZI
; File g:\网狐\happygamewh\服务端\系统模块\服务器组件\比赛服务\immediategroup.cpp
;	COMDAT ?KillMatchTimer@CImmediateGroup@@IAE_NKI@Z
_TEXT	SEGMENT
$T2 = -96						; size = 4
_pMatchTimer$3 = -28					; size = 4
_i$4 = -24						; size = 4
_this$ = -20						; size = 4
__$EHRec$ = -16						; size = 16
_dwTimerID$ = 8						; size = 4
_wParam$ = 12						; size = 4
?KillMatchTimer@CImmediateGroup@@IAE_NKI@Z PROC		; CImmediateGroup::KillMatchTimer, COMDAT
; _this$ = ecx

; 991  : {

  00000	55		 push	 ebp
  00001	8b ec		 mov	 ebp, esp
  00003	6a ff		 push	 -1
  00005	68 00 00 00 00	 push	 __ehhandler$?KillMatchTimer@CImmediateGroup@@IAE_NKI@Z
  0000a	64 a1 00 00 00
	00		 mov	 eax, DWORD PTR fs:0
  00010	50		 push	 eax
  00011	51		 push	 ecx
  00012	83 ec 50	 sub	 esp, 80			; 00000050H
  00015	53		 push	 ebx
  00016	56		 push	 esi
  00017	57		 push	 edi
  00018	a1 00 00 00 00	 mov	 eax, DWORD PTR ___security_cookie
  0001d	33 c5		 xor	 eax, ebp
  0001f	50		 push	 eax
  00020	8d 45 f4	 lea	 eax, DWORD PTR __$EHRec$[ebp+4]
  00023	64 a3 00 00 00
	00		 mov	 DWORD PTR fs:0, eax
  00029	89 65 f0	 mov	 DWORD PTR __$EHRec$[ebp], esp
  0002c	89 4d ec	 mov	 DWORD PTR _this$[ebp], ecx

; 992  : 	for(int i=0;i<m_MatchTimerArray.GetCount();i++)

  0002f	c7 45 e8 00 00
	00 00		 mov	 DWORD PTR _i$4[ebp], 0
  00036	eb 09		 jmp	 SHORT $LN4@KillMatchT
$LN2@KillMatchT:
  00038	8b 45 e8	 mov	 eax, DWORD PTR _i$4[ebp]
  0003b	83 c0 01	 add	 eax, 1
  0003e	89 45 e8	 mov	 DWORD PTR _i$4[ebp], eax
$LN4@KillMatchT:
  00041	8b 4d ec	 mov	 ecx, DWORD PTR _this$[ebp]
  00044	83 c1 7c	 add	 ecx, 124		; 0000007cH
  00047	e8 00 00 00 00	 call	 ?GetCount@?$CWHArray@PAUtagMatchTimer@@ABQAU1@@@QBEHXZ ; CWHArray<tagMatchTimer *,tagMatchTimer * const &>::GetCount
  0004c	39 45 e8	 cmp	 DWORD PTR _i$4[ebp], eax
  0004f	0f 8d be 00 00
	00		 jge	 $LN3@KillMatchT

; 993  : 	{
; 994  : 		if(m_MatchTimerArray[i]->dwTimerID==dwTimerID&&m_MatchTimerArray[i]->wParam==wParam)

  00055	8b 45 e8	 mov	 eax, DWORD PTR _i$4[ebp]
  00058	50		 push	 eax
  00059	8b 4d ec	 mov	 ecx, DWORD PTR _this$[ebp]
  0005c	83 c1 7c	 add	 ecx, 124		; 0000007cH
  0005f	e8 00 00 00 00	 call	 ??A?$CWHArray@PAUtagMatchTimer@@ABQAU1@@@QAEAAPAUtagMatchTimer@@H@Z ; CWHArray<tagMatchTimer *,tagMatchTimer * const &>::operator[]
  00064	8b 08		 mov	 ecx, DWORD PTR [eax]
  00066	8b 11		 mov	 edx, DWORD PTR [ecx]
  00068	3b 55 08	 cmp	 edx, DWORD PTR _dwTimerID$[ebp]
  0006b	0f 85 9d 00 00
	00		 jne	 $LN5@KillMatchT
  00071	8b 45 e8	 mov	 eax, DWORD PTR _i$4[ebp]
  00074	50		 push	 eax
  00075	8b 4d ec	 mov	 ecx, DWORD PTR _this$[ebp]
  00078	83 c1 7c	 add	 ecx, 124		; 0000007cH
  0007b	e8 00 00 00 00	 call	 ??A?$CWHArray@PAUtagMatchTimer@@ABQAU1@@@QAEAAPAUtagMatchTimer@@H@Z ; CWHArray<tagMatchTimer *,tagMatchTimer * const &>::operator[]
  00080	8b 08		 mov	 ecx, DWORD PTR [eax]
  00082	8b 51 08	 mov	 edx, DWORD PTR [ecx+8]
  00085	3b 55 0c	 cmp	 edx, DWORD PTR _wParam$[ebp]
  00088	0f 85 80 00 00
	00		 jne	 $LN5@KillMatchT

; 995  : 		{
; 996  : 			tagMatchTimer* pMatchTimer=m_MatchTimerArray[i];

  0008e	8b 45 e8	 mov	 eax, DWORD PTR _i$4[ebp]
  00091	50		 push	 eax
  00092	8b 4d ec	 mov	 ecx, DWORD PTR _this$[ebp]
  00095	83 c1 7c	 add	 ecx, 124		; 0000007cH
  00098	e8 00 00 00 00	 call	 ??A?$CWHArray@PAUtagMatchTimer@@ABQAU1@@@QAEAAPAUtagMatchTimer@@H@Z ; CWHArray<tagMatchTimer *,tagMatchTimer * const &>::operator[]
  0009d	8b 08		 mov	 ecx, DWORD PTR [eax]
  0009f	89 4d e4	 mov	 DWORD PTR _pMatchTimer$3[ebp], ecx

; 997  : 			m_MatchTimerArray.RemoveAt(i);

  000a2	6a 01		 push	 1
  000a4	8b 45 e8	 mov	 eax, DWORD PTR _i$4[ebp]
  000a7	50		 push	 eax
  000a8	8b 4d ec	 mov	 ecx, DWORD PTR _this$[ebp]
  000ab	83 c1 7c	 add	 ecx, 124		; 0000007cH
  000ae	e8 00 00 00 00	 call	 ?RemoveAt@?$CWHArray@PAUtagMatchTimer@@ABQAU1@@@QAEXHH@Z ; CWHArray<tagMatchTimer *,tagMatchTimer * const &>::RemoveAt

; 998  : 			SafeDelete(pMatchTimer);

  000b3	c7 45 fc 00 00
	00 00		 mov	 DWORD PTR __$EHRec$[ebp+12], 0
  000ba	8b 45 e4	 mov	 eax, DWORD PTR _pMatchTimer$3[ebp]
  000bd	89 45 a0	 mov	 DWORD PTR $T2[ebp], eax
  000c0	6a 10		 push	 16			; 00000010H
  000c2	8b 4d a0	 mov	 ecx, DWORD PTR $T2[ebp]
  000c5	51		 push	 ecx
  000c6	e8 00 00 00 00	 call	 ??3@YAXPAXI@Z		; operator delete
  000cb	83 c4 08	 add	 esp, 8
  000ce	eb 23		 jmp	 SHORT $LN9@KillMatchT
__catch$?KillMatchTimer@CImmediateGroup@@IAE_NKI@Z$0:
  000d0	33 c0		 xor	 eax, eax
  000d2	75 19		 jne	 SHORT $LN8@KillMatchT
  000d4	8b 0d 00 00 00
	00		 mov	 ecx, DWORD PTR ?__LINE__Var@?0??KillMatchTimer@CImmediateGroup@@IAE_NKI@Z@4JA
  000da	83 c1 07	 add	 ecx, 7
  000dd	51		 push	 ecx
  000de	68 00 00 00 00	 push	 OFFSET ??_C@_0EL@ONMMFGFJ@g?3?2?M?x?$LK?$PM?2happygamewh?2?$LH?$PO?N?q?$LG?K?2?O?$LF?M?$LD@
  000e3	e8 00 00 00 00	 call	 ?AfxAssertFailedLine@@YGHPBDH@Z ; AfxAssertFailedLine
  000e8	85 c0		 test	 eax, eax
  000ea	74 01		 je	 SHORT $LN8@KillMatchT
  000ec	cc		 int	 3
$LN8@KillMatchT:
  000ed	b8 00 00 00 00	 mov	 eax, $LN12@KillMatchT
  000f2	c3		 ret	 0
$LN9@KillMatchT:
  000f3	c7 45 fc ff ff
	ff ff		 mov	 DWORD PTR __$EHRec$[ebp+12], -1
  000fa	eb 07		 jmp	 SHORT __tryend$?KillMatchTimer@CImmediateGroup@@IAE_NKI@Z$1
$LN12@KillMatchT:
  000fc	c7 45 fc ff ff
	ff ff		 mov	 DWORD PTR __$EHRec$[ebp+12], -1
__tryend$?KillMatchTimer@CImmediateGroup@@IAE_NKI@Z$1:
  00103	c7 45 e4 00 00
	00 00		 mov	 DWORD PTR _pMatchTimer$3[ebp], 0

; 999  : 			return true;

  0010a	b0 01		 mov	 al, 1
  0010c	eb 07		 jmp	 SHORT $LN1@KillMatchT
$LN5@KillMatchT:

; 1000 : 		}
; 1001 : 	}

  0010e	e9 25 ff ff ff	 jmp	 $LN2@KillMatchT
$LN3@KillMatchT:

; 1002 : 	return false;

  00113	32 c0		 xor	 al, al
$LN1@KillMatchT:

; 1003 : }

  00115	8b 4d f4	 mov	 ecx, DWORD PTR __$EHRec$[ebp+4]
  00118	64 89 0d 00 00
	00 00		 mov	 DWORD PTR fs:0, ecx
  0011f	59		 pop	 ecx
  00120	5f		 pop	 edi
  00121	5e		 pop	 esi
  00122	5b		 pop	 ebx
  00123	8b e5		 mov	 esp, ebp
  00125	5d		 pop	 ebp
  00126	c2 08 00	 ret	 8
_TEXT	ENDS
;	COMDAT text$x
text$x	SEGMENT
__ehhandler$?KillMatchTimer@CImmediateGroup@@IAE_NKI@Z:
  00000	8b 54 24 08	 mov	 edx, DWORD PTR [esp+8]
  00004	8d 42 0c	 lea	 eax, DWORD PTR [edx+12]
  00007	8b 4a 9c	 mov	 ecx, DWORD PTR [edx-100]
  0000a	33 c8		 xor	 ecx, eax
  0000c	e8 00 00 00 00	 call	 @__security_check_cookie@4
  00011	b8 00 00 00 00	 mov	 eax, OFFSET __ehfuncinfo$?KillMatchTimer@CImmediateGroup@@IAE_NKI@Z
  00016	e9 00 00 00 00	 jmp	 ___CxxFrameHandler3
text$x	ENDS
?KillMatchTimer@CImmediateGroup@@IAE_NKI@Z ENDP		; CImmediateGroup::KillMatchTimer
; Function compile flags: /Odtp /ZI
; File g:\网狐\happygamewh\服务端\系统模块\服务器组件\比赛服务\immediategroup.cpp
;	COMDAT ?KillMatchGameTimer@CImmediateGroup@@IAEXK@Z
_TEXT	SEGMENT
_this$ = -4						; size = 4
_dwTimerID$ = 8						; size = 4
?KillMatchGameTimer@CImmediateGroup@@IAEXK@Z PROC	; CImmediateGroup::KillMatchGameTimer, COMDAT
; _this$ = ecx

; 834  : {

  00000	55		 push	 ebp
  00001	8b ec		 mov	 ebp, esp
  00003	83 ec 44	 sub	 esp, 68			; 00000044H
  00006	53		 push	 ebx
  00007	56		 push	 esi
  00008	57		 push	 edi
  00009	89 4d fc	 mov	 DWORD PTR _this$[ebp], ecx

; 835  : 	if (m_pMatchSink!=NULL)

  0000c	8b 45 fc	 mov	 eax, DWORD PTR _this$[ebp]
  0000f	83 78 2c 00	 cmp	 DWORD PTR [eax+44], 0
  00013	74 25		 je	 SHORT $LN1@KillMatchG

; 836  : 	{
; 837  : 		m_pMatchSink->KillGameTimer(dwTimerID+10*m_LoopTimer,this);

  00015	8b 45 fc	 mov	 eax, DWORD PTR _this$[ebp]
  00018	50		 push	 eax
  00019	8b 4d fc	 mov	 ecx, DWORD PTR _this$[ebp]
  0001c	0f b6 51 19	 movzx	 edx, BYTE PTR [ecx+25]
  00020	6b c2 0a	 imul	 eax, edx, 10
  00023	03 45 08	 add	 eax, DWORD PTR _dwTimerID$[ebp]
  00026	50		 push	 eax
  00027	8b 4d fc	 mov	 ecx, DWORD PTR _this$[ebp]
  0002a	8b 51 2c	 mov	 edx, DWORD PTR [ecx+44]
  0002d	8b 45 fc	 mov	 eax, DWORD PTR _this$[ebp]
  00030	8b 12		 mov	 edx, DWORD PTR [edx]
  00032	8b 48 2c	 mov	 ecx, DWORD PTR [eax+44]
  00035	8b 42 08	 mov	 eax, DWORD PTR [edx+8]
  00038	ff d0		 call	 eax
$LN1@KillMatchG:

; 838  : 	}
; 839  : }

  0003a	5f		 pop	 edi
  0003b	5e		 pop	 esi
  0003c	5b		 pop	 ebx
  0003d	8b e5		 mov	 esp, ebp
  0003f	5d		 pop	 ebp
  00040	c2 04 00	 ret	 4
?KillMatchGameTimer@CImmediateGroup@@IAEXK@Z ENDP	; CImmediateGroup::KillMatchGameTimer
_TEXT	ENDS
; Function compile flags: /Odtp /ZI
; File g:\网狐\happygamewh\服务端\系统模块\服务器组件\比赛服务\immediategroup.cpp
;	COMDAT ?KillMatchTimer@CImmediateGroup@@IAE_NH@Z
_TEXT	SEGMENT
$T2 = -92						; size = 4
_pMatchTimer$3 = -24					; size = 4
_this$ = -20						; size = 4
__$EHRec$ = -16						; size = 16
_dwIndexID$ = 8						; size = 4
?KillMatchTimer@CImmediateGroup@@IAE_NH@Z PROC		; CImmediateGroup::KillMatchTimer, COMDAT
; _this$ = ecx

; 1006 : {

  00000	55		 push	 ebp
  00001	8b ec		 mov	 ebp, esp
  00003	6a ff		 push	 -1
  00005	68 00 00 00 00	 push	 __ehhandler$?KillMatchTimer@CImmediateGroup@@IAE_NH@Z
  0000a	64 a1 00 00 00
	00		 mov	 eax, DWORD PTR fs:0
  00010	50		 push	 eax
  00011	51		 push	 ecx
  00012	83 ec 4c	 sub	 esp, 76			; 0000004cH
  00015	53		 push	 ebx
  00016	56		 push	 esi
  00017	57		 push	 edi
  00018	a1 00 00 00 00	 mov	 eax, DWORD PTR ___security_cookie
  0001d	33 c5		 xor	 eax, ebp
  0001f	50		 push	 eax
  00020	8d 45 f4	 lea	 eax, DWORD PTR __$EHRec$[ebp+4]
  00023	64 a3 00 00 00
	00		 mov	 DWORD PTR fs:0, eax
  00029	89 65 f0	 mov	 DWORD PTR __$EHRec$[ebp], esp
  0002c	89 4d ec	 mov	 DWORD PTR _this$[ebp], ecx

; 1007 : 	ASSERT(dwIndexID >= 0 && dwIndexID < m_MatchTimerArray.GetCount());

  0002f	83 7d 08 00	 cmp	 DWORD PTR _dwIndexID$[ebp], 0
  00033	7c 10		 jl	 SHORT $LN5@KillMatchT
  00035	8b 4d ec	 mov	 ecx, DWORD PTR _this$[ebp]
  00038	83 c1 7c	 add	 ecx, 124		; 0000007cH
  0003b	e8 00 00 00 00	 call	 ?GetCount@?$CWHArray@PAUtagMatchTimer@@ABQAU1@@@QBEHXZ ; CWHArray<tagMatchTimer *,tagMatchTimer * const &>::GetCount
  00040	39 45 08	 cmp	 DWORD PTR _dwIndexID$[ebp], eax
  00043	7c 18		 jl	 SHORT $LN6@KillMatchT
$LN5@KillMatchT:
  00045	a1 00 00 00 00	 mov	 eax, DWORD PTR ?__LINE__Var@?0??KillMatchTimer@CImmediateGroup@@IAE_NH@Z@4JA
  0004a	83 c0 01	 add	 eax, 1
  0004d	50		 push	 eax
  0004e	68 00 00 00 00	 push	 OFFSET ??_C@_0EL@ONMMFGFJ@g?3?2?M?x?$LK?$PM?2happygamewh?2?$LH?$PO?N?q?$LG?K?2?O?$LF?M?$LD@
  00053	e8 00 00 00 00	 call	 ?AfxAssertFailedLine@@YGHPBDH@Z ; AfxAssertFailedLine
  00058	85 c0		 test	 eax, eax
  0005a	74 01		 je	 SHORT $LN6@KillMatchT
  0005c	cc		 int	 3
$LN6@KillMatchT:

; 1008 : 	if( dwIndexID >= 0 && dwIndexID < m_MatchTimerArray.GetCount() )

  0005d	83 7d 08 00	 cmp	 DWORD PTR _dwIndexID$[ebp], 0
  00061	0f 8c 94 00 00
	00		 jl	 $LN2@KillMatchT
  00067	8b 4d ec	 mov	 ecx, DWORD PTR _this$[ebp]
  0006a	83 c1 7c	 add	 ecx, 124		; 0000007cH
  0006d	e8 00 00 00 00	 call	 ?GetCount@?$CWHArray@PAUtagMatchTimer@@ABQAU1@@@QBEHXZ ; CWHArray<tagMatchTimer *,tagMatchTimer * const &>::GetCount
  00072	39 45 08	 cmp	 DWORD PTR _dwIndexID$[ebp], eax
  00075	0f 8d 80 00 00
	00		 jge	 $LN2@KillMatchT

; 1009 : 	{
; 1010 : 		tagMatchTimer* pMatchTimer=m_MatchTimerArray[dwIndexID];

  0007b	8b 45 08	 mov	 eax, DWORD PTR _dwIndexID$[ebp]
  0007e	50		 push	 eax
  0007f	8b 4d ec	 mov	 ecx, DWORD PTR _this$[ebp]
  00082	83 c1 7c	 add	 ecx, 124		; 0000007cH
  00085	e8 00 00 00 00	 call	 ??A?$CWHArray@PAUtagMatchTimer@@ABQAU1@@@QAEAAPAUtagMatchTimer@@H@Z ; CWHArray<tagMatchTimer *,tagMatchTimer * const &>::operator[]
  0008a	8b 08		 mov	 ecx, DWORD PTR [eax]
  0008c	89 4d e8	 mov	 DWORD PTR _pMatchTimer$3[ebp], ecx

; 1011 : 		m_MatchTimerArray.RemoveAt(dwIndexID);

  0008f	6a 01		 push	 1
  00091	8b 45 08	 mov	 eax, DWORD PTR _dwIndexID$[ebp]
  00094	50		 push	 eax
  00095	8b 4d ec	 mov	 ecx, DWORD PTR _this$[ebp]
  00098	83 c1 7c	 add	 ecx, 124		; 0000007cH
  0009b	e8 00 00 00 00	 call	 ?RemoveAt@?$CWHArray@PAUtagMatchTimer@@ABQAU1@@@QAEXHH@Z ; CWHArray<tagMatchTimer *,tagMatchTimer * const &>::RemoveAt

; 1012 : 		SafeDelete(pMatchTimer);

  000a0	c7 45 fc 00 00
	00 00		 mov	 DWORD PTR __$EHRec$[ebp+12], 0
  000a7	8b 45 e8	 mov	 eax, DWORD PTR _pMatchTimer$3[ebp]
  000aa	89 45 a4	 mov	 DWORD PTR $T2[ebp], eax
  000ad	6a 10		 push	 16			; 00000010H
  000af	8b 4d a4	 mov	 ecx, DWORD PTR $T2[ebp]
  000b2	51		 push	 ecx
  000b3	e8 00 00 00 00	 call	 ??3@YAXPAXI@Z		; operator delete
  000b8	83 c4 08	 add	 esp, 8
  000bb	eb 23		 jmp	 SHORT $LN8@KillMatchT
__catch$?KillMatchTimer@CImmediateGroup@@IAE_NH@Z$0:
  000bd	33 c0		 xor	 eax, eax
  000bf	75 19		 jne	 SHORT $LN7@KillMatchT
  000c1	8b 0d 00 00 00
	00		 mov	 ecx, DWORD PTR ?__LINE__Var@?0??KillMatchTimer@CImmediateGroup@@IAE_NH@Z@4JA
  000c7	83 c1 06	 add	 ecx, 6
  000ca	51		 push	 ecx
  000cb	68 00 00 00 00	 push	 OFFSET ??_C@_0EL@ONMMFGFJ@g?3?2?M?x?$LK?$PM?2happygamewh?2?$LH?$PO?N?q?$LG?K?2?O?$LF?M?$LD@
  000d0	e8 00 00 00 00	 call	 ?AfxAssertFailedLine@@YGHPBDH@Z ; AfxAssertFailedLine
  000d5	85 c0		 test	 eax, eax
  000d7	74 01		 je	 SHORT $LN7@KillMatchT
  000d9	cc		 int	 3
$LN7@KillMatchT:
  000da	b8 00 00 00 00	 mov	 eax, $LN11@KillMatchT
  000df	c3		 ret	 0
$LN8@KillMatchT:
  000e0	c7 45 fc ff ff
	ff ff		 mov	 DWORD PTR __$EHRec$[ebp+12], -1
  000e7	eb 07		 jmp	 SHORT __tryend$?KillMatchTimer@CImmediateGroup@@IAE_NH@Z$1
$LN11@KillMatchT:
  000e9	c7 45 fc ff ff
	ff ff		 mov	 DWORD PTR __$EHRec$[ebp+12], -1
__tryend$?KillMatchTimer@CImmediateGroup@@IAE_NH@Z$1:
  000f0	c7 45 e8 00 00
	00 00		 mov	 DWORD PTR _pMatchTimer$3[ebp], 0

; 1013 : 		return true;

  000f7	b0 01		 mov	 al, 1
  000f9	eb 02		 jmp	 SHORT $LN1@KillMatchT
$LN2@KillMatchT:

; 1014 : 	}
; 1015 : 	return false;

  000fb	32 c0		 xor	 al, al
$LN1@KillMatchT:

; 1016 : }

  000fd	8b 4d f4	 mov	 ecx, DWORD PTR __$EHRec$[ebp+4]
  00100	64 89 0d 00 00
	00 00		 mov	 DWORD PTR fs:0, ecx
  00107	59		 pop	 ecx
  00108	5f		 pop	 edi
  00109	5e		 pop	 esi
  0010a	5b		 pop	 ebx
  0010b	8b e5		 mov	 esp, ebp
  0010d	5d		 pop	 ebp
  0010e	c2 04 00	 ret	 4
_TEXT	ENDS
;	COMDAT text$x
text$x	SEGMENT
__ehhandler$?KillMatchTimer@CImmediateGroup@@IAE_NH@Z:
  00000	8b 54 24 08	 mov	 edx, DWORD PTR [esp+8]
  00004	8d 42 0c	 lea	 eax, DWORD PTR [edx+12]
  00007	8b 4a a0	 mov	 ecx, DWORD PTR [edx-96]
  0000a	33 c8		 xor	 ecx, eax
  0000c	e8 00 00 00 00	 call	 @__security_check_cookie@4
  00011	b8 00 00 00 00	 mov	 eax, OFFSET __ehfuncinfo$?KillMatchTimer@CImmediateGroup@@IAE_NH@Z
  00016	e9 00 00 00 00	 jmp	 ___CxxFrameHandler3
text$x	ENDS
?KillMatchTimer@CImmediateGroup@@IAE_NH@Z ENDP		; CImmediateGroup::KillMatchTimer
; Function compile flags: /Odtp /ZI
; File g:\网狐\happygamewh\服务端\系统模块\服务器组件\比赛服务\immediategroup.cpp
;	COMDAT ?AllKillMatchTimer@CImmediateGroup@@IAEXXZ
_TEXT	SEGMENT
$T2 = -96						; size = 4
_pMatchTimer$3 = -28					; size = 4
_i$4 = -24						; size = 4
_this$ = -20						; size = 4
__$EHRec$ = -16						; size = 16
?AllKillMatchTimer@CImmediateGroup@@IAEXXZ PROC		; CImmediateGroup::AllKillMatchTimer, COMDAT
; _this$ = ecx

; 1019 : {

  00000	55		 push	 ebp
  00001	8b ec		 mov	 ebp, esp
  00003	6a ff		 push	 -1
  00005	68 00 00 00 00	 push	 __ehhandler$?AllKillMatchTimer@CImmediateGroup@@IAEXXZ
  0000a	64 a1 00 00 00
	00		 mov	 eax, DWORD PTR fs:0
  00010	50		 push	 eax
  00011	51		 push	 ecx
  00012	83 ec 50	 sub	 esp, 80			; 00000050H
  00015	53		 push	 ebx
  00016	56		 push	 esi
  00017	57		 push	 edi
  00018	a1 00 00 00 00	 mov	 eax, DWORD PTR ___security_cookie
  0001d	33 c5		 xor	 eax, ebp
  0001f	50		 push	 eax
  00020	8d 45 f4	 lea	 eax, DWORD PTR __$EHRec$[ebp+4]
  00023	64 a3 00 00 00
	00		 mov	 DWORD PTR fs:0, eax
  00029	89 65 f0	 mov	 DWORD PTR __$EHRec$[ebp], esp
  0002c	89 4d ec	 mov	 DWORD PTR _this$[ebp], ecx

; 1020 : 	for(int i=0;i<m_MatchTimerArray.GetCount();/*i++*/)

  0002f	c7 45 e8 00 00
	00 00		 mov	 DWORD PTR _i$4[ebp], 0
$LN4@AllKillMat:
  00036	8b 4d ec	 mov	 ecx, DWORD PTR _this$[ebp]
  00039	83 c1 7c	 add	 ecx, 124		; 0000007cH
  0003c	e8 00 00 00 00	 call	 ?GetCount@?$CWHArray@PAUtagMatchTimer@@ABQAU1@@@QBEHXZ ; CWHArray<tagMatchTimer *,tagMatchTimer * const &>::GetCount
  00041	39 45 e8	 cmp	 DWORD PTR _i$4[ebp], eax
  00044	0f 8d 81 00 00
	00		 jge	 $LN1@AllKillMat

; 1021 : 	{
; 1022 : 		tagMatchTimer* pMatchTimer=m_MatchTimerArray[i];

  0004a	8b 45 e8	 mov	 eax, DWORD PTR _i$4[ebp]
  0004d	50		 push	 eax
  0004e	8b 4d ec	 mov	 ecx, DWORD PTR _this$[ebp]
  00051	83 c1 7c	 add	 ecx, 124		; 0000007cH
  00054	e8 00 00 00 00	 call	 ??A?$CWHArray@PAUtagMatchTimer@@ABQAU1@@@QAEAAPAUtagMatchTimer@@H@Z ; CWHArray<tagMatchTimer *,tagMatchTimer * const &>::operator[]
  00059	8b 08		 mov	 ecx, DWORD PTR [eax]
  0005b	89 4d e4	 mov	 DWORD PTR _pMatchTimer$3[ebp], ecx

; 1023 : 		m_MatchTimerArray.RemoveAt(i);

  0005e	6a 01		 push	 1
  00060	8b 45 e8	 mov	 eax, DWORD PTR _i$4[ebp]
  00063	50		 push	 eax
  00064	8b 4d ec	 mov	 ecx, DWORD PTR _this$[ebp]
  00067	83 c1 7c	 add	 ecx, 124		; 0000007cH
  0006a	e8 00 00 00 00	 call	 ?RemoveAt@?$CWHArray@PAUtagMatchTimer@@ABQAU1@@@QAEXHH@Z ; CWHArray<tagMatchTimer *,tagMatchTimer * const &>::RemoveAt

; 1024 : 		SafeDelete(pMatchTimer);

  0006f	c7 45 fc 00 00
	00 00		 mov	 DWORD PTR __$EHRec$[ebp+12], 0
  00076	8b 45 e4	 mov	 eax, DWORD PTR _pMatchTimer$3[ebp]
  00079	89 45 a0	 mov	 DWORD PTR $T2[ebp], eax
  0007c	6a 10		 push	 16			; 00000010H
  0007e	8b 4d a0	 mov	 ecx, DWORD PTR $T2[ebp]
  00081	51		 push	 ecx
  00082	e8 00 00 00 00	 call	 ??3@YAXPAXI@Z		; operator delete
  00087	83 c4 08	 add	 esp, 8
  0008a	eb 23		 jmp	 SHORT $LN8@AllKillMat
__catch$?AllKillMatchTimer@CImmediateGroup@@IAEXXZ$0:
  0008c	33 c0		 xor	 eax, eax
  0008e	75 19		 jne	 SHORT $LN7@AllKillMat
  00090	8b 0d 00 00 00
	00		 mov	 ecx, DWORD PTR ?__LINE__Var@?0??AllKillMatchTimer@CImmediateGroup@@IAEXXZ@4JA
  00096	83 c1 05	 add	 ecx, 5
  00099	51		 push	 ecx
  0009a	68 00 00 00 00	 push	 OFFSET ??_C@_0EL@ONMMFGFJ@g?3?2?M?x?$LK?$PM?2happygamewh?2?$LH?$PO?N?q?$LG?K?2?O?$LF?M?$LD@
  0009f	e8 00 00 00 00	 call	 ?AfxAssertFailedLine@@YGHPBDH@Z ; AfxAssertFailedLine
  000a4	85 c0		 test	 eax, eax
  000a6	74 01		 je	 SHORT $LN7@AllKillMat
  000a8	cc		 int	 3
$LN7@AllKillMat:
  000a9	b8 00 00 00 00	 mov	 eax, $LN11@AllKillMat
  000ae	c3		 ret	 0
$LN8@AllKillMat:
  000af	c7 45 fc ff ff
	ff ff		 mov	 DWORD PTR __$EHRec$[ebp+12], -1
  000b6	eb 07		 jmp	 SHORT __tryend$?AllKillMatchTimer@CImmediateGroup@@IAEXXZ$1
$LN11@AllKillMat:
  000b8	c7 45 fc ff ff
	ff ff		 mov	 DWORD PTR __$EHRec$[ebp+12], -1
__tryend$?AllKillMatchTimer@CImmediateGroup@@IAEXXZ$1:
  000bf	c7 45 e4 00 00
	00 00		 mov	 DWORD PTR _pMatchTimer$3[ebp], 0

; 1025 : 	}

  000c6	e9 6b ff ff ff	 jmp	 $LN4@AllKillMat
$LN1@AllKillMat:

; 1026 : }

  000cb	8b 4d f4	 mov	 ecx, DWORD PTR __$EHRec$[ebp+4]
  000ce	64 89 0d 00 00
	00 00		 mov	 DWORD PTR fs:0, ecx
  000d5	59		 pop	 ecx
  000d6	5f		 pop	 edi
  000d7	5e		 pop	 esi
  000d8	5b		 pop	 ebx
  000d9	8b e5		 mov	 esp, ebp
  000db	5d		 pop	 ebp
  000dc	c3		 ret	 0
_TEXT	ENDS
;	COMDAT text$x
text$x	SEGMENT
__ehhandler$?AllKillMatchTimer@CImmediateGroup@@IAEXXZ:
  00000	8b 54 24 08	 mov	 edx, DWORD PTR [esp+8]
  00004	8d 42 0c	 lea	 eax, DWORD PTR [edx+12]
  00007	8b 4a 9c	 mov	 ecx, DWORD PTR [edx-100]
  0000a	33 c8		 xor	 ecx, eax
  0000c	e8 00 00 00 00	 call	 @__security_check_cookie@4
  00011	b8 00 00 00 00	 mov	 eax, OFFSET __ehfuncinfo$?AllKillMatchTimer@CImmediateGroup@@IAEXXZ
  00016	e9 00 00 00 00	 jmp	 ___CxxFrameHandler3
text$x	ENDS
?AllKillMatchTimer@CImmediateGroup@@IAEXXZ ENDP		; CImmediateGroup::AllKillMatchTimer
; Function compile flags: /Odtp /ZI
; File g:\网狐\happygamewh\服务端\系统模块\服务器组件\比赛服务\immediategroup.cpp
;	COMDAT ?CaptureMatchTimer@CImmediateGroup@@IAEXXZ
_TEXT	SEGMENT
tv74 = -76						; size = 4
_i$1 = -8						; size = 4
_this$ = -4						; size = 4
?CaptureMatchTimer@CImmediateGroup@@IAEXXZ PROC		; CImmediateGroup::CaptureMatchTimer, COMDAT
; _this$ = ecx

; 951  : {

  00000	55		 push	 ebp
  00001	8b ec		 mov	 ebp, esp
  00003	83 ec 4c	 sub	 esp, 76			; 0000004cH
  00006	53		 push	 ebx
  00007	56		 push	 esi
  00008	57		 push	 edi
  00009	89 4d fc	 mov	 DWORD PTR _this$[ebp], ecx

; 952  : 	for(int i=0;i<m_MatchTimerArray.GetCount();i++)

  0000c	c7 45 f8 00 00
	00 00		 mov	 DWORD PTR _i$1[ebp], 0
  00013	eb 09		 jmp	 SHORT $LN4@CaptureMat
$LN2@CaptureMat:
  00015	8b 45 f8	 mov	 eax, DWORD PTR _i$1[ebp]
  00018	83 c0 01	 add	 eax, 1
  0001b	89 45 f8	 mov	 DWORD PTR _i$1[ebp], eax
$LN4@CaptureMat:
  0001e	8b 4d fc	 mov	 ecx, DWORD PTR _this$[ebp]
  00021	83 c1 7c	 add	 ecx, 124		; 0000007cH
  00024	e8 00 00 00 00	 call	 ?GetCount@?$CWHArray@PAUtagMatchTimer@@ABQAU1@@@QBEHXZ ; CWHArray<tagMatchTimer *,tagMatchTimer * const &>::GetCount
  00029	39 45 f8	 cmp	 DWORD PTR _i$1[ebp], eax
  0002c	0f 8d 0d 01 00
	00		 jge	 $LN1@CaptureMat

; 953  : 	{
; 954  : 		if(--m_MatchTimerArray[i]->iElapse<=0)

  00032	8b 45 f8	 mov	 eax, DWORD PTR _i$1[ebp]
  00035	50		 push	 eax
  00036	8b 4d fc	 mov	 ecx, DWORD PTR _this$[ebp]
  00039	83 c1 7c	 add	 ecx, 124		; 0000007cH
  0003c	e8 00 00 00 00	 call	 ??A?$CWHArray@PAUtagMatchTimer@@ABQAU1@@@QAEAAPAUtagMatchTimer@@H@Z ; CWHArray<tagMatchTimer *,tagMatchTimer * const &>::operator[]
  00041	8b 08		 mov	 ecx, DWORD PTR [eax]
  00043	83 c1 04	 add	 ecx, 4
  00046	89 4d b4	 mov	 DWORD PTR tv74[ebp], ecx
  00049	8b 55 b4	 mov	 edx, DWORD PTR tv74[ebp]
  0004c	8b 02		 mov	 eax, DWORD PTR [edx]
  0004e	83 e8 01	 sub	 eax, 1
  00051	8b 4d b4	 mov	 ecx, DWORD PTR tv74[ebp]
  00054	89 01		 mov	 DWORD PTR [ecx], eax
  00056	8b 55 b4	 mov	 edx, DWORD PTR tv74[ebp]
  00059	83 3a 00	 cmp	 DWORD PTR [edx], 0
  0005c	0f 8f d8 00 00
	00		 jg	 $LN5@CaptureMat

; 955  : 		{
; 956  : 			if (m_MatchTimerArray[i]->dwTimerID==IDI_CONTINUE_GAME)

  00062	8b 45 f8	 mov	 eax, DWORD PTR _i$1[ebp]
  00065	50		 push	 eax
  00066	8b 4d fc	 mov	 ecx, DWORD PTR _this$[ebp]
  00069	83 c1 7c	 add	 ecx, 124		; 0000007cH
  0006c	e8 00 00 00 00	 call	 ??A?$CWHArray@PAUtagMatchTimer@@ABQAU1@@@QAEAAPAUtagMatchTimer@@H@Z ; CWHArray<tagMatchTimer *,tagMatchTimer * const &>::operator[]
  00071	8b 08		 mov	 ecx, DWORD PTR [eax]
  00073	83 39 01	 cmp	 DWORD PTR [ecx], 1
  00076	75 1f		 jne	 SHORT $LN6@CaptureMat

; 957  : 			{
; 958  : 				//继续游戏
; 959  : 				ContinueGame((ITableFrame*)m_MatchTimerArray[i]->wParam);

  00078	8b 45 f8	 mov	 eax, DWORD PTR _i$1[ebp]
  0007b	50		 push	 eax
  0007c	8b 4d fc	 mov	 ecx, DWORD PTR _this$[ebp]
  0007f	83 c1 7c	 add	 ecx, 124		; 0000007cH
  00082	e8 00 00 00 00	 call	 ??A?$CWHArray@PAUtagMatchTimer@@ABQAU1@@@QAEAAPAUtagMatchTimer@@H@Z ; CWHArray<tagMatchTimer *,tagMatchTimer * const &>::operator[]
  00087	8b 08		 mov	 ecx, DWORD PTR [eax]
  00089	8b 51 08	 mov	 edx, DWORD PTR [ecx+8]
  0008c	52		 push	 edx
  0008d	8b 4d fc	 mov	 ecx, DWORD PTR _this$[ebp]
  00090	e8 00 00 00 00	 call	 ?ContinueGame@CImmediateGroup@@IAEXPAUITableFrame@@@Z ; CImmediateGroup::ContinueGame
  00095	eb 68		 jmp	 SHORT $LN7@CaptureMat
$LN6@CaptureMat:

; 960  : 			}
; 961  : 			else if(m_MatchTimerArray[i]->dwTimerID==IDI_LEAVE_TABLE)

  00097	8b 45 f8	 mov	 eax, DWORD PTR _i$1[ebp]
  0009a	50		 push	 eax
  0009b	8b 4d fc	 mov	 ecx, DWORD PTR _this$[ebp]
  0009e	83 c1 7c	 add	 ecx, 124		; 0000007cH
  000a1	e8 00 00 00 00	 call	 ??A?$CWHArray@PAUtagMatchTimer@@ABQAU1@@@QAEAAPAUtagMatchTimer@@H@Z ; CWHArray<tagMatchTimer *,tagMatchTimer * const &>::operator[]
  000a6	8b 08		 mov	 ecx, DWORD PTR [eax]
  000a8	83 39 02	 cmp	 DWORD PTR [ecx], 2
  000ab	75 1f		 jne	 SHORT $LN8@CaptureMat

; 962  : 			{
; 963  : 				//离开本桌
; 964  : 				PerformAllUserStandUp((ITableFrame*)m_MatchTimerArray[i]->wParam);

  000ad	8b 45 f8	 mov	 eax, DWORD PTR _i$1[ebp]
  000b0	50		 push	 eax
  000b1	8b 4d fc	 mov	 ecx, DWORD PTR _this$[ebp]
  000b4	83 c1 7c	 add	 ecx, 124		; 0000007cH
  000b7	e8 00 00 00 00	 call	 ??A?$CWHArray@PAUtagMatchTimer@@ABQAU1@@@QAEAAPAUtagMatchTimer@@H@Z ; CWHArray<tagMatchTimer *,tagMatchTimer * const &>::operator[]
  000bc	8b 08		 mov	 ecx, DWORD PTR [eax]
  000be	8b 51 08	 mov	 edx, DWORD PTR [ecx+8]
  000c1	52		 push	 edx
  000c2	8b 4d fc	 mov	 ecx, DWORD PTR _this$[ebp]
  000c5	e8 00 00 00 00	 call	 ?PerformAllUserStandUp@CImmediateGroup@@IAEXPAUITableFrame@@@Z ; CImmediateGroup::PerformAllUserStandUp
  000ca	eb 33		 jmp	 SHORT $LN7@CaptureMat
$LN8@CaptureMat:

; 965  : 
; 966  : 			}else if(m_MatchTimerArray[i]->dwTimerID==IDI_CHECK_TABLE_START)

  000cc	8b 45 f8	 mov	 eax, DWORD PTR _i$1[ebp]
  000cf	50		 push	 eax
  000d0	8b 4d fc	 mov	 ecx, DWORD PTR _this$[ebp]
  000d3	83 c1 7c	 add	 ecx, 124		; 0000007cH
  000d6	e8 00 00 00 00	 call	 ??A?$CWHArray@PAUtagMatchTimer@@ABQAU1@@@QAEAAPAUtagMatchTimer@@H@Z ; CWHArray<tagMatchTimer *,tagMatchTimer * const &>::operator[]
  000db	8b 08		 mov	 ecx, DWORD PTR [eax]
  000dd	83 39 03	 cmp	 DWORD PTR [ecx], 3
  000e0	75 1d		 jne	 SHORT $LN7@CaptureMat

; 967  : 			{
; 968  : 				//检查桌子
; 969  : 				CheckTableStart((ITableFrame*)m_MatchTimerArray[i]->wParam);

  000e2	8b 45 f8	 mov	 eax, DWORD PTR _i$1[ebp]
  000e5	50		 push	 eax
  000e6	8b 4d fc	 mov	 ecx, DWORD PTR _this$[ebp]
  000e9	83 c1 7c	 add	 ecx, 124		; 0000007cH
  000ec	e8 00 00 00 00	 call	 ??A?$CWHArray@PAUtagMatchTimer@@ABQAU1@@@QAEAAPAUtagMatchTimer@@H@Z ; CWHArray<tagMatchTimer *,tagMatchTimer * const &>::operator[]
  000f1	8b 08		 mov	 ecx, DWORD PTR [eax]
  000f3	8b 51 08	 mov	 edx, DWORD PTR [ecx+8]
  000f6	52		 push	 edx
  000f7	8b 4d fc	 mov	 ecx, DWORD PTR _this$[ebp]
  000fa	e8 00 00 00 00	 call	 ?CheckTableStart@CImmediateGroup@@IAEXPAUITableFrame@@@Z ; CImmediateGroup::CheckTableStart
$LN7@CaptureMat:

; 970  : 			}
; 971  : 			//删除定时器
; 972  : 			if (KillMatchTimer(i)) i--;

  000ff	8b 45 f8	 mov	 eax, DWORD PTR _i$1[ebp]
  00102	50		 push	 eax
  00103	8b 4d fc	 mov	 ecx, DWORD PTR _this$[ebp]
  00106	e8 00 00 00 00	 call	 ?KillMatchTimer@CImmediateGroup@@IAE_NH@Z ; CImmediateGroup::KillMatchTimer
  0010b	0f b6 c8	 movzx	 ecx, al
  0010e	85 c9		 test	 ecx, ecx
  00110	74 0b		 je	 SHORT $LN11@CaptureMat
  00112	8b 45 f8	 mov	 eax, DWORD PTR _i$1[ebp]
  00115	83 e8 01	 sub	 eax, 1
  00118	89 45 f8	 mov	 DWORD PTR _i$1[ebp], eax
  0011b	eb 1d		 jmp	 SHORT $LN5@CaptureMat
$LN11@CaptureMat:

; 973  : 			else ASSERT(false);

  0011d	33 c0		 xor	 eax, eax
  0011f	75 19		 jne	 SHORT $LN5@CaptureMat
  00121	8b 0d 00 00 00
	00		 mov	 ecx, DWORD PTR ?__LINE__Var@?0??CaptureMatchTimer@CImmediateGroup@@IAEXXZ@4JA
  00127	83 c1 16	 add	 ecx, 22			; 00000016H
  0012a	51		 push	 ecx
  0012b	68 00 00 00 00	 push	 OFFSET ??_C@_0EL@ONMMFGFJ@g?3?2?M?x?$LK?$PM?2happygamewh?2?$LH?$PO?N?q?$LG?K?2?O?$LF?M?$LD@
  00130	e8 00 00 00 00	 call	 ?AfxAssertFailedLine@@YGHPBDH@Z ; AfxAssertFailedLine
  00135	85 c0		 test	 eax, eax
  00137	74 01		 je	 SHORT $LN5@CaptureMat
  00139	cc		 int	 3
$LN5@CaptureMat:

; 974  : 		}
; 975  : 	}

  0013a	e9 d6 fe ff ff	 jmp	 $LN2@CaptureMat
$LN1@CaptureMat:

; 976  : }

  0013f	5f		 pop	 edi
  00140	5e		 pop	 esi
  00141	5b		 pop	 ebx
  00142	8b e5		 mov	 esp, ebp
  00144	5d		 pop	 ebp
  00145	c3		 ret	 0
?CaptureMatchTimer@CImmediateGroup@@IAEXXZ ENDP		; CImmediateGroup::CaptureMatchTimer
_TEXT	ENDS
; Function compile flags: /Odtp /ZI
; File g:\网狐\happygamewh\服务端\系统模块\服务器组件\比赛服务\immediategroup.cpp
;	COMDAT ?CheckTableStart@CImmediateGroup@@IAEXPAUITableFrame@@@Z
_TEXT	SEGMENT
_pIServerUserItem$1 = -12				; size = 4
_i$2 = -8						; size = 4
_this$ = -4						; size = 4
_pITableFrame$ = 8					; size = 4
?CheckTableStart@CImmediateGroup@@IAEXPAUITableFrame@@@Z PROC ; CImmediateGroup::CheckTableStart, COMDAT
; _this$ = ecx

; 866  : {

  00000	55		 push	 ebp
  00001	8b ec		 mov	 ebp, esp
  00003	83 ec 4c	 sub	 esp, 76			; 0000004cH
  00006	53		 push	 ebx
  00007	56		 push	 esi
  00008	57		 push	 edi
  00009	89 4d fc	 mov	 DWORD PTR _this$[ebp], ecx

; 867  : 	//校验参数
; 868  : 	ASSERT(pITableFrame!=NULL);

  0000c	83 7d 08 00	 cmp	 DWORD PTR _pITableFrame$[ebp], 0
  00010	75 18		 jne	 SHORT $LN11@CheckTable
  00012	a1 00 00 00 00	 mov	 eax, DWORD PTR ?__LINE__Var@?0??CheckTableStart@CImmediateGroup@@IAEXPAUITableFrame@@@Z@4JA
  00017	83 c0 02	 add	 eax, 2
  0001a	50		 push	 eax
  0001b	68 00 00 00 00	 push	 OFFSET ??_C@_0EL@ONMMFGFJ@g?3?2?M?x?$LK?$PM?2happygamewh?2?$LH?$PO?N?q?$LG?K?2?O?$LF?M?$LD@
  00020	e8 00 00 00 00	 call	 ?AfxAssertFailedLine@@YGHPBDH@Z ; AfxAssertFailedLine
  00025	85 c0		 test	 eax, eax
  00027	74 01		 je	 SHORT $LN11@CheckTable
  00029	cc		 int	 3
$LN11@CheckTable:

; 869  : 	if (pITableFrame==NULL) return;

  0002a	83 7d 08 00	 cmp	 DWORD PTR _pITableFrame$[ebp], 0
  0002e	75 05		 jne	 SHORT $LN5@CheckTable
  00030	e9 be 00 00 00	 jmp	 $LN1@CheckTable
$LN5@CheckTable:

; 870  : 
; 871  : 	if(pITableFrame&&pITableFrame->IsGameStarted()==false)

  00035	83 7d 08 00	 cmp	 DWORD PTR _pITableFrame$[ebp], 0
  00039	0f 84 b4 00 00
	00		 je	 $LN1@CheckTable
  0003f	8b 45 08	 mov	 eax, DWORD PTR _pITableFrame$[ebp]
  00042	8b 10		 mov	 edx, DWORD PTR [eax]
  00044	8b 4d 08	 mov	 ecx, DWORD PTR _pITableFrame$[ebp]
  00047	8b 42 3c	 mov	 eax, DWORD PTR [edx+60]
  0004a	ff d0		 call	 eax
  0004c	0f b6 c8	 movzx	 ecx, al
  0004f	85 c9		 test	 ecx, ecx
  00051	0f 85 9c 00 00
	00		 jne	 $LN1@CheckTable

; 872  : 	{
; 873  : 		for (int i=0;i<m_wChairCount;i++)

  00057	c7 45 f8 00 00
	00 00		 mov	 DWORD PTR _i$2[ebp], 0
  0005e	eb 09		 jmp	 SHORT $LN4@CheckTable
$LN2@CheckTable:
  00060	8b 45 f8	 mov	 eax, DWORD PTR _i$2[ebp]
  00063	83 c0 01	 add	 eax, 1
  00066	89 45 f8	 mov	 DWORD PTR _i$2[ebp], eax
$LN4@CheckTable:
  00069	0f b7 05 00 00
	00 00		 movzx	 eax, WORD PTR ?m_wChairCount@CImmediateGroup@@1GA ; CImmediateGroup::m_wChairCount
  00070	39 45 f8	 cmp	 DWORD PTR _i$2[ebp], eax
  00073	7d 7e		 jge	 SHORT $LN1@CheckTable

; 874  : 		{
; 875  : 			IServerUserItem * pIServerUserItem=pITableFrame->GetTableUserItem(i);

  00075	0f b7 45 f8	 movzx	 eax, WORD PTR _i$2[ebp]
  00079	50		 push	 eax
  0007a	8b 4d 08	 mov	 ecx, DWORD PTR _pITableFrame$[ebp]
  0007d	8b 11		 mov	 edx, DWORD PTR [ecx]
  0007f	8b 4d 08	 mov	 ecx, DWORD PTR _pITableFrame$[ebp]
  00082	8b 82 9c 00 00
	00		 mov	 eax, DWORD PTR [edx+156]
  00088	ff d0		 call	 eax
  0008a	89 45 f4	 mov	 DWORD PTR _pIServerUserItem$1[ebp], eax

; 876  : 			if (pIServerUserItem && pIServerUserItem->GetTableID()!=INVALID_TABLE)

  0008d	83 7d f4 00	 cmp	 DWORD PTR _pIServerUserItem$1[ebp], 0
  00091	74 5b		 je	 SHORT $LN7@CheckTable
  00093	8b 45 f4	 mov	 eax, DWORD PTR _pIServerUserItem$1[ebp]
  00096	8b 10		 mov	 edx, DWORD PTR [eax]
  00098	8b 4d f4	 mov	 ecx, DWORD PTR _pIServerUserItem$1[ebp]
  0009b	8b 42 68	 mov	 eax, DWORD PTR [edx+104]
  0009e	ff d0		 call	 eax
  000a0	0f b7 c8	 movzx	 ecx, ax
  000a3	81 f9 ff ff 00
	00		 cmp	 ecx, 65535		; 0000ffffH
  000a9	74 43		 je	 SHORT $LN7@CheckTable

; 877  : 			{
; 878  : 				if (pIServerUserItem->IsClientReady()==false || pIServerUserItem->IsTrusteeUser()==true)

  000ab	8b 45 f4	 mov	 eax, DWORD PTR _pIServerUserItem$1[ebp]
  000ae	8b 10		 mov	 edx, DWORD PTR [eax]
  000b0	8b 4d f4	 mov	 ecx, DWORD PTR _pIServerUserItem$1[ebp]
  000b3	8b 82 c0 00 00
	00		 mov	 eax, DWORD PTR [edx+192]
  000b9	ff d0		 call	 eax
  000bb	0f b6 c8	 movzx	 ecx, al
  000be	85 c9		 test	 ecx, ecx
  000c0	74 18		 je	 SHORT $LN9@CheckTable
  000c2	8b 45 f4	 mov	 eax, DWORD PTR _pIServerUserItem$1[ebp]
  000c5	8b 10		 mov	 edx, DWORD PTR [eax]
  000c7	8b 4d f4	 mov	 ecx, DWORD PTR _pIServerUserItem$1[ebp]
  000ca	8b 82 b8 00 00
	00		 mov	 eax, DWORD PTR [edx+184]
  000d0	ff d0		 call	 eax
  000d2	0f b6 c8	 movzx	 ecx, al
  000d5	83 f9 01	 cmp	 ecx, 1
  000d8	75 14		 jne	 SHORT $LN7@CheckTable
$LN9@CheckTable:

; 879  : 				{
; 880  : 					pITableFrame->ImitateGameOption(pIServerUserItem);

  000da	8b 45 f4	 mov	 eax, DWORD PTR _pIServerUserItem$1[ebp]
  000dd	50		 push	 eax
  000de	8b 4d 08	 mov	 ecx, DWORD PTR _pITableFrame$[ebp]
  000e1	8b 11		 mov	 edx, DWORD PTR [ecx]
  000e3	8b 4d 08	 mov	 ecx, DWORD PTR _pITableFrame$[ebp]
  000e6	8b 82 f0 00 00
	00		 mov	 eax, DWORD PTR [edx+240]
  000ec	ff d0		 call	 eax
$LN7@CheckTable:

; 881  : 				}
; 882  : 			}
; 883  : 		}

  000ee	e9 6d ff ff ff	 jmp	 $LN2@CheckTable
$LN1@CheckTable:

; 884  : 	}
; 885  : }

  000f3	5f		 pop	 edi
  000f4	5e		 pop	 esi
  000f5	5b		 pop	 ebx
  000f6	8b e5		 mov	 esp, ebp
  000f8	5d		 pop	 ebp
  000f9	c2 04 00	 ret	 4
?CheckTableStart@CImmediateGroup@@IAEXPAUITableFrame@@@Z ENDP ; CImmediateGroup::CheckTableStart
_TEXT	ENDS
; Function compile flags: /Odtp /ZI
; File g:\网狐\happygamewh\服务端\系统模块\服务器组件\比赛服务\immediategroup.cpp
;	COMDAT ?CheckSwitchTaskFinish@CImmediateGroup@@IAE_NXZ
_TEXT	SEGMENT
_i$1 = -8						; size = 4
_this$ = -4						; size = 4
?CheckSwitchTaskFinish@CImmediateGroup@@IAE_NXZ PROC	; CImmediateGroup::CheckSwitchTaskFinish, COMDAT
; _this$ = ecx

; 729  : {

  00000	55		 push	 ebp
  00001	8b ec		 mov	 ebp, esp
  00003	83 ec 48	 sub	 esp, 72			; 00000048H
  00006	53		 push	 ebx
  00007	56		 push	 esi
  00008	57		 push	 edi
  00009	89 4d fc	 mov	 DWORD PTR _this$[ebp], ecx

; 730  : 	for (int i=0;i<m_MatchTableArray.GetCount();i++)

  0000c	c7 45 f8 00 00
	00 00		 mov	 DWORD PTR _i$1[ebp], 0
  00013	eb 09		 jmp	 SHORT $LN4@CheckSwitc
$LN2@CheckSwitc:
  00015	8b 45 f8	 mov	 eax, DWORD PTR _i$1[ebp]
  00018	83 c0 01	 add	 eax, 1
  0001b	89 45 f8	 mov	 DWORD PTR _i$1[ebp], eax
$LN4@CheckSwitc:
  0001e	8b 4d fc	 mov	 ecx, DWORD PTR _this$[ebp]
  00021	83 c1 68	 add	 ecx, 104		; 00000068H
  00024	e8 00 00 00 00	 call	 ?GetCount@?$CWHArray@PAUtagTableFrameInfo@@ABQAU1@@@QBEHXZ ; CWHArray<tagTableFrameInfo *,tagTableFrameInfo * const &>::GetCount
  00029	39 45 f8	 cmp	 DWORD PTR _i$1[ebp], eax
  0002c	7d 1f		 jge	 SHORT $LN3@CheckSwitc

; 731  : 	{
; 732  : 		if(m_MatchTableArray[i]->bSwtichTaskFinish==false) return false;

  0002e	8b 45 f8	 mov	 eax, DWORD PTR _i$1[ebp]
  00031	50		 push	 eax
  00032	8b 4d fc	 mov	 ecx, DWORD PTR _this$[ebp]
  00035	83 c1 68	 add	 ecx, 104		; 00000068H
  00038	e8 00 00 00 00	 call	 ??A?$CWHArray@PAUtagTableFrameInfo@@ABQAU1@@@QAEAAPAUtagTableFrameInfo@@H@Z ; CWHArray<tagTableFrameInfo *,tagTableFrameInfo * const &>::operator[]
  0003d	8b 08		 mov	 ecx, DWORD PTR [eax]
  0003f	0f b6 51 13	 movzx	 edx, BYTE PTR [ecx+19]
  00043	85 d2		 test	 edx, edx
  00045	75 04		 jne	 SHORT $LN5@CheckSwitc
  00047	32 c0		 xor	 al, al
  00049	eb 04		 jmp	 SHORT $LN1@CheckSwitc
$LN5@CheckSwitc:

; 733  : 	}

  0004b	eb c8		 jmp	 SHORT $LN2@CheckSwitc
$LN3@CheckSwitc:

; 734  : 
; 735  : 	return true;

  0004d	b0 01		 mov	 al, 1
$LN1@CheckSwitc:

; 736  : }

  0004f	5f		 pop	 edi
  00050	5e		 pop	 esi
  00051	5b		 pop	 ebx
  00052	8b e5		 mov	 esp, ebp
  00054	5d		 pop	 ebp
  00055	c3		 ret	 0
?CheckSwitchTaskFinish@CImmediateGroup@@IAE_NXZ ENDP	; CImmediateGroup::CheckSwitchTaskFinish
_TEXT	ENDS
; Function compile flags: /Odtp /ZI
; File g:\网狐\happygamewh\服务端\系统模块\服务器组件\比赛服务\immediategroup.cpp
;	COMDAT ?CheckMatchTaskFinish@CImmediateGroup@@IAE_NXZ
_TEXT	SEGMENT
_i$1 = -8						; size = 4
_this$ = -4						; size = 4
?CheckMatchTaskFinish@CImmediateGroup@@IAE_NXZ PROC	; CImmediateGroup::CheckMatchTaskFinish, COMDAT
; _this$ = ecx

; 718  : {

  00000	55		 push	 ebp
  00001	8b ec		 mov	 ebp, esp
  00003	83 ec 48	 sub	 esp, 72			; 00000048H
  00006	53		 push	 ebx
  00007	56		 push	 esi
  00008	57		 push	 edi
  00009	89 4d fc	 mov	 DWORD PTR _this$[ebp], ecx

; 719  : 	for (int i=0;i<m_MatchTableArray.GetCount();i++)

  0000c	c7 45 f8 00 00
	00 00		 mov	 DWORD PTR _i$1[ebp], 0
  00013	eb 09		 jmp	 SHORT $LN4@CheckMatch
$LN2@CheckMatch:
  00015	8b 45 f8	 mov	 eax, DWORD PTR _i$1[ebp]
  00018	83 c0 01	 add	 eax, 1
  0001b	89 45 f8	 mov	 DWORD PTR _i$1[ebp], eax
$LN4@CheckMatch:
  0001e	8b 4d fc	 mov	 ecx, DWORD PTR _this$[ebp]
  00021	83 c1 68	 add	 ecx, 104		; 00000068H
  00024	e8 00 00 00 00	 call	 ?GetCount@?$CWHArray@PAUtagTableFrameInfo@@ABQAU1@@@QBEHXZ ; CWHArray<tagTableFrameInfo *,tagTableFrameInfo * const &>::GetCount
  00029	39 45 f8	 cmp	 DWORD PTR _i$1[ebp], eax
  0002c	7d 1f		 jge	 SHORT $LN3@CheckMatch

; 720  : 	{
; 721  : 		if (m_MatchTableArray[i]->bMatchTaskFinish==false) return false;

  0002e	8b 45 f8	 mov	 eax, DWORD PTR _i$1[ebp]
  00031	50		 push	 eax
  00032	8b 4d fc	 mov	 ecx, DWORD PTR _this$[ebp]
  00035	83 c1 68	 add	 ecx, 104		; 00000068H
  00038	e8 00 00 00 00	 call	 ??A?$CWHArray@PAUtagTableFrameInfo@@ABQAU1@@@QAEAAPAUtagTableFrameInfo@@H@Z ; CWHArray<tagTableFrameInfo *,tagTableFrameInfo * const &>::operator[]
  0003d	8b 08		 mov	 ecx, DWORD PTR [eax]
  0003f	0f b6 51 12	 movzx	 edx, BYTE PTR [ecx+18]
  00043	85 d2		 test	 edx, edx
  00045	75 04		 jne	 SHORT $LN5@CheckMatch
  00047	32 c0		 xor	 al, al
  00049	eb 04		 jmp	 SHORT $LN1@CheckMatch
$LN5@CheckMatch:

; 722  : 	}

  0004b	eb c8		 jmp	 SHORT $LN2@CheckMatch
$LN3@CheckMatch:

; 723  : 
; 724  : 	return true;

  0004d	b0 01		 mov	 al, 1
$LN1@CheckMatch:

; 725  : }

  0004f	5f		 pop	 edi
  00050	5e		 pop	 esi
  00051	5b		 pop	 ebx
  00052	8b e5		 mov	 esp, ebp
  00054	5d		 pop	 ebp
  00055	c3		 ret	 0
?CheckMatchTaskFinish@CImmediateGroup@@IAE_NXZ ENDP	; CImmediateGroup::CheckMatchTaskFinish
_TEXT	ENDS
; Function compile flags: /Odtp /ZI
; File g:\网狐\happygamewh\服务端\系统模块\服务器组件\比赛服务\immediategroup.cpp
;	COMDAT ?CheckMatchUser@CImmediateGroup@@IAE_NXZ
_TEXT	SEGMENT
$T2 = -89						; size = 1
_szString$3 = -24					; size = 4
_nCurUserCount$ = -20					; size = 4
_this$ = -16						; size = 4
__$EHRec$ = -12						; size = 12
?CheckMatchUser@CImmediateGroup@@IAE_NXZ PROC		; CImmediateGroup::CheckMatchUser, COMDAT
; _this$ = ecx

; 843  : {

  00000	55		 push	 ebp
  00001	8b ec		 mov	 ebp, esp
  00003	6a ff		 push	 -1
  00005	68 00 00 00 00	 push	 __ehhandler$?CheckMatchUser@CImmediateGroup@@IAE_NXZ
  0000a	64 a1 00 00 00
	00		 mov	 eax, DWORD PTR fs:0
  00010	50		 push	 eax
  00011	83 ec 50	 sub	 esp, 80			; 00000050H
  00014	53		 push	 ebx
  00015	56		 push	 esi
  00016	57		 push	 edi
  00017	a1 00 00 00 00	 mov	 eax, DWORD PTR ___security_cookie
  0001c	33 c5		 xor	 eax, ebp
  0001e	50		 push	 eax
  0001f	8d 45 f4	 lea	 eax, DWORD PTR __$EHRec$[ebp]
  00022	64 a3 00 00 00
	00		 mov	 DWORD PTR fs:0, eax
  00028	89 4d f0	 mov	 DWORD PTR _this$[ebp], ecx

; 844  : 	//参赛用户不够 椅子数量就要终止比赛
; 845  : 	DWORD nCurUserCount=(DWORD)m_OnMatchUserMap.GetCount();

  0002b	8b 4d f0	 mov	 ecx, DWORD PTR _this$[ebp]
  0002e	83 c1 38	 add	 ecx, 56			; 00000038H
  00031	e8 00 00 00 00	 call	 ?GetCount@?$CMap@KKPAUIServerUserItem@@PAU1@@@QBEHXZ ; CMap<unsigned long,unsigned long,IServerUserItem *,IServerUserItem *>::GetCount
  00036	89 45 ec	 mov	 DWORD PTR _nCurUserCount$[ebp], eax

; 846  : 	if (nCurUserCount<m_wChairCount)

  00039	0f b7 05 00 00
	00 00		 movzx	 eax, WORD PTR ?m_wChairCount@CImmediateGroup@@1GA ; CImmediateGroup::m_wChairCount
  00040	39 45 ec	 cmp	 DWORD PTR _nCurUserCount$[ebp], eax
  00043	0f 83 8e 00 00
	00		 jae	 $LN2@CheckMatch

; 847  : 	{
; 848  : 		ASSERT(FALSE);

  00049	33 c0		 xor	 eax, eax
  0004b	75 19		 jne	 SHORT $LN4@CheckMatch
  0004d	8b 0d 00 00 00
	00		 mov	 ecx, DWORD PTR ?__LINE__Var@?0??CheckMatchUser@CImmediateGroup@@IAE_NXZ@4JA
  00053	83 c1 05	 add	 ecx, 5
  00056	51		 push	 ecx
  00057	68 00 00 00 00	 push	 OFFSET ??_C@_0EL@ONMMFGFJ@g?3?2?M?x?$LK?$PM?2happygamewh?2?$LH?$PO?N?q?$LG?K?2?O?$LF?M?$LD@
  0005c	e8 00 00 00 00	 call	 ?AfxAssertFailedLine@@YGHPBDH@Z ; AfxAssertFailedLine
  00061	85 c0		 test	 eax, eax
  00063	74 01		 je	 SHORT $LN4@CheckMatch
  00065	cc		 int	 3
$LN4@CheckMatch:

; 849  : 		CTraceService::TraceString(TEXT("检查人数..."),TraceLevel_Exception);

  00066	6a 03		 push	 3
  00068	68 00 00 00 00	 push	 OFFSET ??_C@_0M@NKMAPECH@?$LM?l?$LC?i?H?K?J?$PN?4?4?4@
  0006d	ff 15 00 00 00
	00		 call	 DWORD PTR __imp_?TraceString@CTraceService@@SA_NPBDW4enTraceLevel@@@Z
  00073	83 c4 08	 add	 esp, 8

; 850  : 		return false;

  00076	32 c0		 xor	 al, al
  00078	eb 5f		 jmp	 SHORT $LN1@CheckMatch

; 851  : 
; 852  : 		//构造数据包
; 853  : 		CString szString;

  0007a	8d 4d e8	 lea	 ecx, DWORD PTR _szString$3[ebp]
  0007d	ff 15 00 00 00
	00		 call	 DWORD PTR __imp_??0?$CStringT@DV?$StrTraitMFC_DLL@DV?$ChTraitsCRT@D@ATL@@@@@ATL@@QAE@XZ
  00083	c7 45 fc 00 00
	00 00		 mov	 DWORD PTR __$EHRec$[ebp+8], 0

; 854  : 		szString.Format(TEXT("抱歉，由于比赛用户强行退出比赛，人数不足 %d 人，提前结算。欢迎您继续报名参加比赛！"),m_wChairCount);

  0008a	0f b7 05 00 00
	00 00		 movzx	 eax, WORD PTR ?m_wChairCount@CImmediateGroup@@1GA ; CImmediateGroup::m_wChairCount
  00091	50		 push	 eax
  00092	68 00 00 00 00	 push	 OFFSET ??_C@_0FD@PIICFLBL@?$LB?$KH?G?$LI?$KD?$KM?S?I?S?Z?$LB?H?H?$PM?S?C?$LL?$KH?G?$LP?P?P?M?K?$LD?v?$LB?H?H?$PM?$KD@
  00097	8d 4d e8	 lea	 ecx, DWORD PTR _szString$3[ebp]
  0009a	51		 push	 ecx
  0009b	ff 15 00 00 00
	00		 call	 DWORD PTR __imp_?Format@?$CStringT@DV?$StrTraitMFC_DLL@DV?$ChTraitsCRT@D@ATL@@@@@ATL@@QAAXPBDZZ
  000a1	83 c4 0c	 add	 esp, 12			; 0000000cH

; 855  : 		SendGroupMessage(szString);

  000a4	8d 4d e8	 lea	 ecx, DWORD PTR _szString$3[ebp]
  000a7	ff 15 00 00 00
	00		 call	 DWORD PTR __imp_??B?$CSimpleStringT@D$00@ATL@@QBEPBDXZ
  000ad	50		 push	 eax
  000ae	8b 4d f0	 mov	 ecx, DWORD PTR _this$[ebp]
  000b1	e8 00 00 00 00	 call	 ?SendGroupMessage@CImmediateGroup@@IAEXPBD@Z ; CImmediateGroup::SendGroupMessage

; 856  : 
; 857  : 		MatchOver();

  000b6	8b 4d f0	 mov	 ecx, DWORD PTR _this$[ebp]
  000b9	e8 00 00 00 00	 call	 ?MatchOver@CImmediateGroup@@IAEXXZ ; CImmediateGroup::MatchOver

; 858  : 
; 859  : 		return true;

  000be	c6 45 a7 01	 mov	 BYTE PTR $T2[ebp], 1
  000c2	c7 45 fc ff ff
	ff ff		 mov	 DWORD PTR __$EHRec$[ebp+8], -1
  000c9	8d 4d e8	 lea	 ecx, DWORD PTR _szString$3[ebp]
  000cc	ff 15 00 00 00
	00		 call	 DWORD PTR __imp_??1?$CStringT@DV?$StrTraitMFC_DLL@DV?$ChTraitsCRT@D@ATL@@@@@ATL@@QAE@XZ
  000d2	8a 45 a7	 mov	 al, BYTE PTR $T2[ebp]
  000d5	eb 02		 jmp	 SHORT $LN1@CheckMatch
$LN2@CheckMatch:

; 860  : 	}
; 861  : 	return false;

  000d7	32 c0		 xor	 al, al
$LN1@CheckMatch:

; 862  : }

  000d9	8b 4d f4	 mov	 ecx, DWORD PTR __$EHRec$[ebp]
  000dc	64 89 0d 00 00
	00 00		 mov	 DWORD PTR fs:0, ecx
  000e3	59		 pop	 ecx
  000e4	5f		 pop	 edi
  000e5	5e		 pop	 esi
  000e6	5b		 pop	 ebx
  000e7	8b e5		 mov	 esp, ebp
  000e9	5d		 pop	 ebp
  000ea	c3		 ret	 0
_TEXT	ENDS
;	COMDAT text$x
text$x	SEGMENT
__unwindfunclet$?CheckMatchUser@CImmediateGroup@@IAE_NXZ$0:
  00000	8d 4d e8	 lea	 ecx, DWORD PTR _szString$3[ebp]
  00003	ff 25 00 00 00
	00		 jmp	 DWORD PTR __imp_??1?$CStringT@DV?$StrTraitMFC_DLL@DV?$ChTraitsCRT@D@ATL@@@@@ATL@@QAE@XZ
__ehhandler$?CheckMatchUser@CImmediateGroup@@IAE_NXZ:
  00009	8b 54 24 08	 mov	 edx, DWORD PTR [esp+8]
  0000d	8d 42 0c	 lea	 eax, DWORD PTR [edx+12]
  00010	8b 4a a0	 mov	 ecx, DWORD PTR [edx-96]
  00013	33 c8		 xor	 ecx, eax
  00015	e8 00 00 00 00	 call	 @__security_check_cookie@4
  0001a	b8 00 00 00 00	 mov	 eax, OFFSET __ehfuncinfo$?CheckMatchUser@CImmediateGroup@@IAE_NXZ
  0001f	e9 00 00 00 00	 jmp	 ___CxxFrameHandler3
text$x	ENDS
?CheckMatchUser@CImmediateGroup@@IAE_NXZ ENDP		; CImmediateGroup::CheckMatchUser
; Function compile flags: /Odtp /ZI
; File g:\网狐\happygamewh\服务端\系统模块\服务器组件\比赛服务\immediategroup.cpp
;	COMDAT ?PerformAllUserStandUp@CImmediateGroup@@IAEXPAUITableFrame@@@Z
_TEXT	SEGMENT
_pUserServerItem$1 = -12				; size = 4
_i$2 = -8						; size = 4
_this$ = -4						; size = 4
_pITableFrame$ = 8					; size = 4
?PerformAllUserStandUp@CImmediateGroup@@IAEXPAUITableFrame@@@Z PROC ; CImmediateGroup::PerformAllUserStandUp, COMDAT
; _this$ = ecx

; 767  : {

  00000	55		 push	 ebp
  00001	8b ec		 mov	 ebp, esp
  00003	83 ec 4c	 sub	 esp, 76			; 0000004cH
  00006	53		 push	 ebx
  00007	56		 push	 esi
  00008	57		 push	 edi
  00009	89 4d fc	 mov	 DWORD PTR _this$[ebp], ecx

; 768  : 	//参数校验
; 769  : 	ASSERT(pITableFrame!=NULL);

  0000c	83 7d 08 00	 cmp	 DWORD PTR _pITableFrame$[ebp], 0
  00010	75 18		 jne	 SHORT $LN8@PerformAll
  00012	a1 00 00 00 00	 mov	 eax, DWORD PTR ?__LINE__Var@?0??PerformAllUserStandUp@CImmediateGroup@@IAEXPAUITableFrame@@@Z@4JA
  00017	83 c0 02	 add	 eax, 2
  0001a	50		 push	 eax
  0001b	68 00 00 00 00	 push	 OFFSET ??_C@_0EL@ONMMFGFJ@g?3?2?M?x?$LK?$PM?2happygamewh?2?$LH?$PO?N?q?$LG?K?2?O?$LF?M?$LD@
  00020	e8 00 00 00 00	 call	 ?AfxAssertFailedLine@@YGHPBDH@Z ; AfxAssertFailedLine
  00025	85 c0		 test	 eax, eax
  00027	74 01		 je	 SHORT $LN8@PerformAll
  00029	cc		 int	 3
$LN8@PerformAll:

; 770  : 	if (pITableFrame==NULL) return;

  0002a	83 7d 08 00	 cmp	 DWORD PTR _pITableFrame$[ebp], 0
  0002e	75 02		 jne	 SHORT $LN5@PerformAll
  00030	eb 6c		 jmp	 SHORT $LN1@PerformAll
$LN5@PerformAll:

; 771  : 
; 772  : 	//处理起立
; 773  : 	for (int i=0;i<m_wChairCount;i++)

  00032	c7 45 f8 00 00
	00 00		 mov	 DWORD PTR _i$2[ebp], 0
  00039	eb 09		 jmp	 SHORT $LN4@PerformAll
$LN2@PerformAll:
  0003b	8b 45 f8	 mov	 eax, DWORD PTR _i$2[ebp]
  0003e	83 c0 01	 add	 eax, 1
  00041	89 45 f8	 mov	 DWORD PTR _i$2[ebp], eax
$LN4@PerformAll:
  00044	0f b7 05 00 00
	00 00		 movzx	 eax, WORD PTR ?m_wChairCount@CImmediateGroup@@1GA ; CImmediateGroup::m_wChairCount
  0004b	39 45 f8	 cmp	 DWORD PTR _i$2[ebp], eax
  0004e	7d 4e		 jge	 SHORT $LN1@PerformAll

; 774  : 	{
; 775  : 		//获取用户
; 776  : 		IServerUserItem * pUserServerItem=pITableFrame->GetTableUserItem(i);

  00050	0f b7 45 f8	 movzx	 eax, WORD PTR _i$2[ebp]
  00054	50		 push	 eax
  00055	8b 4d 08	 mov	 ecx, DWORD PTR _pITableFrame$[ebp]
  00058	8b 11		 mov	 edx, DWORD PTR [ecx]
  0005a	8b 4d 08	 mov	 ecx, DWORD PTR _pITableFrame$[ebp]
  0005d	8b 82 9c 00 00
	00		 mov	 eax, DWORD PTR [edx+156]
  00063	ff d0		 call	 eax
  00065	89 45 f4	 mov	 DWORD PTR _pUserServerItem$1[ebp], eax

; 777  : 		if(pUserServerItem&&pUserServerItem->GetTableID()!=INVALID_TABLE)

  00068	83 7d f4 00	 cmp	 DWORD PTR _pUserServerItem$1[ebp], 0
  0006c	74 2e		 je	 SHORT $LN6@PerformAll
  0006e	8b 45 f4	 mov	 eax, DWORD PTR _pUserServerItem$1[ebp]
  00071	8b 10		 mov	 edx, DWORD PTR [eax]
  00073	8b 4d f4	 mov	 ecx, DWORD PTR _pUserServerItem$1[ebp]
  00076	8b 42 68	 mov	 eax, DWORD PTR [edx+104]
  00079	ff d0		 call	 eax
  0007b	0f b7 c8	 movzx	 ecx, ax
  0007e	81 f9 ff ff 00
	00		 cmp	 ecx, 65535		; 0000ffffH
  00084	74 16		 je	 SHORT $LN6@PerformAll

; 778  : 		{
; 779  : 			pITableFrame->PerformStandUpAction(pUserServerItem);

  00086	6a 00		 push	 0
  00088	8b 45 f4	 mov	 eax, DWORD PTR _pUserServerItem$1[ebp]
  0008b	50		 push	 eax
  0008c	8b 4d 08	 mov	 ecx, DWORD PTR _pITableFrame$[ebp]
  0008f	8b 11		 mov	 edx, DWORD PTR [ecx]
  00091	8b 4d 08	 mov	 ecx, DWORD PTR _pITableFrame$[ebp]
  00094	8b 82 d8 00 00
	00		 mov	 eax, DWORD PTR [edx+216]
  0009a	ff d0		 call	 eax
$LN6@PerformAll:

; 780  : 		}
; 781  : 	}	

  0009c	eb 9d		 jmp	 SHORT $LN2@PerformAll
$LN1@PerformAll:

; 782  : }

  0009e	5f		 pop	 edi
  0009f	5e		 pop	 esi
  000a0	5b		 pop	 ebx
  000a1	8b e5		 mov	 esp, ebp
  000a3	5d		 pop	 ebp
  000a4	c2 04 00	 ret	 4
?PerformAllUserStandUp@CImmediateGroup@@IAEXPAUITableFrame@@@Z ENDP ; CImmediateGroup::PerformAllUserStandUp
_TEXT	ENDS
; Function compile flags: /Odtp /ZI
; File g:\网狐\happygamewh\服务端\系统模块\服务器组件\比赛服务\immediategroup.cpp
;	COMDAT ?PerformAllUserStandUp@CImmediateGroup@@IAEXXZ
_TEXT	SEGMENT
_pTableFrame$1 = -16					; size = 4
_pTableFrameInfo$2 = -12				; size = 4
_i$3 = -8						; size = 2
_this$ = -4						; size = 4
?PerformAllUserStandUp@CImmediateGroup@@IAEXXZ PROC	; CImmediateGroup::PerformAllUserStandUp, COMDAT
; _this$ = ecx

; 741  : {	

  00000	55		 push	 ebp
  00001	8b ec		 mov	 ebp, esp
  00003	83 ec 50	 sub	 esp, 80			; 00000050H
  00006	53		 push	 ebx
  00007	56		 push	 esi
  00008	57		 push	 edi
  00009	89 4d fc	 mov	 DWORD PTR _this$[ebp], ecx

; 742  : 	//遍历桌子
; 743  : 	for (WORD i=0; i<m_MatchTableArray.GetCount();i++)

  0000c	33 c0		 xor	 eax, eax
  0000e	66 89 45 f8	 mov	 WORD PTR _i$3[ebp], ax
  00012	eb 0c		 jmp	 SHORT $LN4@PerformAll
$LN2@PerformAll:
  00014	66 8b 45 f8	 mov	 ax, WORD PTR _i$3[ebp]
  00018	66 83 c0 01	 add	 ax, 1
  0001c	66 89 45 f8	 mov	 WORD PTR _i$3[ebp], ax
$LN4@PerformAll:
  00020	0f b7 75 f8	 movzx	 esi, WORD PTR _i$3[ebp]
  00024	8b 4d fc	 mov	 ecx, DWORD PTR _this$[ebp]
  00027	83 c1 68	 add	 ecx, 104		; 00000068H
  0002a	e8 00 00 00 00	 call	 ?GetCount@?$CWHArray@PAUtagTableFrameInfo@@ABQAU1@@@QBEHXZ ; CWHArray<tagTableFrameInfo *,tagTableFrameInfo * const &>::GetCount
  0002f	3b f0		 cmp	 esi, eax
  00031	7d 5d		 jge	 SHORT $LN1@PerformAll

; 744  : 	{
; 745  : 		//桌子信息
; 746  : 		tagTableFrameInfo * pTableFrameInfo=m_MatchTableArray[i];

  00033	0f b7 45 f8	 movzx	 eax, WORD PTR _i$3[ebp]
  00037	50		 push	 eax
  00038	8b 4d fc	 mov	 ecx, DWORD PTR _this$[ebp]
  0003b	83 c1 68	 add	 ecx, 104		; 00000068H
  0003e	e8 00 00 00 00	 call	 ??A?$CWHArray@PAUtagTableFrameInfo@@ABQAU1@@@QAEAAPAUtagTableFrameInfo@@H@Z ; CWHArray<tagTableFrameInfo *,tagTableFrameInfo * const &>::operator[]
  00043	8b 08		 mov	 ecx, DWORD PTR [eax]
  00045	89 4d f4	 mov	 DWORD PTR _pTableFrameInfo$2[ebp], ecx

; 747  : 		if (pTableFrameInfo==NULL) continue;

  00048	83 7d f4 00	 cmp	 DWORD PTR _pTableFrameInfo$2[ebp], 0
  0004c	75 02		 jne	 SHORT $LN5@PerformAll
  0004e	eb c4		 jmp	 SHORT $LN2@PerformAll
$LN5@PerformAll:

; 748  : 
; 749  : 		//桌子指针
; 750  : 		ITableFrame* pTableFrame=pTableFrameInfo->pTableFrame;		

  00050	8b 45 f4	 mov	 eax, DWORD PTR _pTableFrameInfo$2[ebp]
  00053	8b 08		 mov	 ecx, DWORD PTR [eax]
  00055	89 4d f0	 mov	 DWORD PTR _pTableFrame$1[ebp], ecx

; 751  : 		if (pTableFrame==NULL) continue;

  00058	83 7d f0 00	 cmp	 DWORD PTR _pTableFrame$1[ebp], 0
  0005c	75 02		 jne	 SHORT $LN6@PerformAll
  0005e	eb b4		 jmp	 SHORT $LN2@PerformAll
$LN6@PerformAll:

; 752  : 
; 753  : 		//强制解散游戏
; 754  : 		if (pTableFrame->IsGameStarted()==true)

  00060	8b 45 f0	 mov	 eax, DWORD PTR _pTableFrame$1[ebp]
  00063	8b 10		 mov	 edx, DWORD PTR [eax]
  00065	8b 4d f0	 mov	 ecx, DWORD PTR _pTableFrame$1[ebp]
  00068	8b 42 3c	 mov	 eax, DWORD PTR [edx+60]
  0006b	ff d0		 call	 eax
  0006d	0f b6 c8	 movzx	 ecx, al
  00070	83 f9 01	 cmp	 ecx, 1
  00073	75 0d		 jne	 SHORT $LN7@PerformAll

; 755  : 		{
; 756  : 			pTableFrame->DismissGame();			

  00075	8b 45 f0	 mov	 eax, DWORD PTR _pTableFrame$1[ebp]
  00078	8b 10		 mov	 edx, DWORD PTR [eax]
  0007a	8b 4d f0	 mov	 ecx, DWORD PTR _pTableFrame$1[ebp]
  0007d	8b 42 78	 mov	 eax, DWORD PTR [edx+120]
  00080	ff d0		 call	 eax
$LN7@PerformAll:

; 757  : 		}
; 758  : 
; 759  : 		//绦衅鹆
; 760  : 		PerformAllUserStandUp(pTableFrame);

  00082	8b 45 f0	 mov	 eax, DWORD PTR _pTableFrame$1[ebp]
  00085	50		 push	 eax
  00086	8b 4d fc	 mov	 ecx, DWORD PTR _this$[ebp]
  00089	e8 00 00 00 00	 call	 ?PerformAllUserStandUp@CImmediateGroup@@IAEXPAUITableFrame@@@Z ; CImmediateGroup::PerformAllUserStandUp

; 761  : 	}

  0008e	eb 84		 jmp	 SHORT $LN2@PerformAll
$LN1@PerformAll:

; 762  : 	return;
; 763  : }

  00090	5f		 pop	 edi
  00091	5e		 pop	 esi
  00092	5b		 pop	 ebx
  00093	8b e5		 mov	 esp, ebp
  00095	5d		 pop	 ebp
  00096	c3		 ret	 0
?PerformAllUserStandUp@CImmediateGroup@@IAEXXZ ENDP	; CImmediateGroup::PerformAllUserStandUp
_TEXT	ENDS
; Function compile flags: /Odtp /ZI
; File g:\网狐\happygamewh\服务端\系统模块\服务器组件\比赛服务\immediategroup.cpp
;	COMDAT ?PerformDistributeTable@CImmediateGroup@@IAEXXZ
_TEXT	SEGMENT
tv239 = -144						; size = 4
tv228 = -144						; size = 4
tv83 = -144						; size = 4
_m$2 = -76						; size = 4
_pIServerUserItem$3 = -72				; size = 4
_wRandID$4 = -68					; size = 2
_wChairID$5 = -64					; size = 2
_nCurUserCount$6 = -60					; size = 4
_i$7 = -56						; size = 4
_j$8 = -52						; size = 4
_cbIsInsert$9 = -45					; size = 1
_cbTimer$10 = -44					; size = 4
_i$11 = -40						; size = 4
_FreeTableArray$ = -36					; size = 20
_this$ = -16						; size = 4
__$EHRec$ = -12						; size = 12
?PerformDistributeTable@CImmediateGroup@@IAEXXZ PROC	; CImmediateGroup::PerformDistributeTable, COMDAT
; _this$ = ecx

; 620  : {

  00000	55		 push	 ebp
  00001	8b ec		 mov	 ebp, esp
  00003	6a ff		 push	 -1
  00005	68 00 00 00 00	 push	 __ehhandler$?PerformDistributeTable@CImmediateGroup@@IAEXXZ
  0000a	64 a1 00 00 00
	00		 mov	 eax, DWORD PTR fs:0
  00010	50		 push	 eax
  00011	81 ec 84 00 00
	00		 sub	 esp, 132		; 00000084H
  00017	53		 push	 ebx
  00018	56		 push	 esi
  00019	57		 push	 edi
  0001a	a1 00 00 00 00	 mov	 eax, DWORD PTR ___security_cookie
  0001f	33 c5		 xor	 eax, ebp
  00021	50		 push	 eax
  00022	8d 45 f4	 lea	 eax, DWORD PTR __$EHRec$[ebp]
  00025	64 a3 00 00 00
	00		 mov	 DWORD PTR fs:0, eax
  0002b	89 4d f0	 mov	 DWORD PTR _this$[ebp], ecx

; 621  : 	//检查人数
; 622  : 	if (CheckMatchUser()) return;

  0002e	8b 4d f0	 mov	 ecx, DWORD PTR _this$[ebp]
  00031	e8 00 00 00 00	 call	 ?CheckMatchUser@CImmediateGroup@@IAE_NXZ ; CImmediateGroup::CheckMatchUser
  00036	0f b6 c0	 movzx	 eax, al
  00039	85 c0		 test	 eax, eax
  0003b	74 05		 je	 SHORT $LN17@PerformDis
  0003d	e9 37 03 00 00	 jmp	 $LN1@PerformDis
$LN17@PerformDis:

; 623  : 
; 624  : 	//变量定义
; 625  : 	CTableFrameMananerArray	FreeTableArray;	

  00042	8d 4d dc	 lea	 ecx, DWORD PTR _FreeTableArray$[ebp]
  00045	e8 00 00 00 00	 call	 ??0?$CWHArray@PAUtagTableFrameInfo@@ABQAU1@@@QAE@XZ ; CWHArray<tagTableFrameInfo *,tagTableFrameInfo * const &>::CWHArray<tagTableFrameInfo *,tagTableFrameInfo * const &>
  0004a	c7 45 fc 00 00
	00 00		 mov	 DWORD PTR __$EHRec$[ebp+8], 0

; 626  : 
; 627  : 	//获取空桌
; 628  : 	for (INT_PTR i=0;i<m_MatchTableArray.GetCount();i++)

  00051	c7 45 d8 00 00
	00 00		 mov	 DWORD PTR _i$11[ebp], 0
  00058	eb 09		 jmp	 SHORT $LN4@PerformDis
$LN2@PerformDis:
  0005a	8b 45 d8	 mov	 eax, DWORD PTR _i$11[ebp]
  0005d	83 c0 01	 add	 eax, 1
  00060	89 45 d8	 mov	 DWORD PTR _i$11[ebp], eax
$LN4@PerformDis:
  00063	8b 4d f0	 mov	 ecx, DWORD PTR _this$[ebp]
  00066	83 c1 68	 add	 ecx, 104		; 00000068H
  00069	e8 00 00 00 00	 call	 ?GetCount@?$CWHArray@PAUtagTableFrameInfo@@ABQAU1@@@QBEHXZ ; CWHArray<tagTableFrameInfo *,tagTableFrameInfo * const &>::GetCount
  0006e	39 45 d8	 cmp	 DWORD PTR _i$11[ebp], eax
  00071	0f 8d 03 01 00
	00		 jge	 $LN3@PerformDis

; 629  : 	{
; 630  : 		if (m_MatchTableArray[i]->pTableFrame->IsGameStarted()==false&&m_MatchTableArray[i]->bMatchTaskFinish==false)

  00077	8b 45 d8	 mov	 eax, DWORD PTR _i$11[ebp]
  0007a	50		 push	 eax
  0007b	8b 4d f0	 mov	 ecx, DWORD PTR _this$[ebp]
  0007e	83 c1 68	 add	 ecx, 104		; 00000068H
  00081	e8 00 00 00 00	 call	 ??A?$CWHArray@PAUtagTableFrameInfo@@ABQAU1@@@QAEAAPAUtagTableFrameInfo@@H@Z ; CWHArray<tagTableFrameInfo *,tagTableFrameInfo * const &>::operator[]
  00086	8b 08		 mov	 ecx, DWORD PTR [eax]
  00088	8b 11		 mov	 edx, DWORD PTR [ecx]
  0008a	89 95 70 ff ff
	ff		 mov	 DWORD PTR tv83[ebp], edx
  00090	8b 85 70 ff ff
	ff		 mov	 eax, DWORD PTR tv83[ebp]
  00096	8b 10		 mov	 edx, DWORD PTR [eax]
  00098	8b 8d 70 ff ff
	ff		 mov	 ecx, DWORD PTR tv83[ebp]
  0009e	8b 42 3c	 mov	 eax, DWORD PTR [edx+60]
  000a1	ff d0		 call	 eax
  000a3	0f b6 c8	 movzx	 ecx, al
  000a6	85 c9		 test	 ecx, ecx
  000a8	0f 85 c7 00 00
	00		 jne	 $LN18@PerformDis
  000ae	8b 45 d8	 mov	 eax, DWORD PTR _i$11[ebp]
  000b1	50		 push	 eax
  000b2	8b 4d f0	 mov	 ecx, DWORD PTR _this$[ebp]
  000b5	83 c1 68	 add	 ecx, 104		; 00000068H
  000b8	e8 00 00 00 00	 call	 ??A?$CWHArray@PAUtagTableFrameInfo@@ABQAU1@@@QAEAAPAUtagTableFrameInfo@@H@Z ; CWHArray<tagTableFrameInfo *,tagTableFrameInfo * const &>::operator[]
  000bd	8b 08		 mov	 ecx, DWORD PTR [eax]
  000bf	0f b6 51 12	 movzx	 edx, BYTE PTR [ecx+18]
  000c3	85 d2		 test	 edx, edx
  000c5	0f 85 aa 00 00
	00		 jne	 $LN18@PerformDis

; 631  : 		{
; 632  : 			//获取数量
; 633  : 			INT_PTR cbTimer=m_MatchTimerArray.GetCount();

  000cb	8b 4d f0	 mov	 ecx, DWORD PTR _this$[ebp]
  000ce	83 c1 7c	 add	 ecx, 124		; 0000007cH
  000d1	e8 00 00 00 00	 call	 ?GetCount@?$CWHArray@PAUtagMatchTimer@@ABQAU1@@@QBEHXZ ; CWHArray<tagMatchTimer *,tagMatchTimer * const &>::GetCount
  000d6	89 45 d4	 mov	 DWORD PTR _cbTimer$10[ebp], eax

; 634  : 			bool cbIsInsert=true;

  000d9	c6 45 d3 01	 mov	 BYTE PTR _cbIsInsert$9[ebp], 1

; 635  : 			for (int j=0;j<cbTimer;j++)

  000dd	c7 45 cc 00 00
	00 00		 mov	 DWORD PTR _j$8[ebp], 0
  000e4	eb 09		 jmp	 SHORT $LN7@PerformDis
$LN5@PerformDis:
  000e6	8b 45 cc	 mov	 eax, DWORD PTR _j$8[ebp]
  000e9	83 c0 01	 add	 eax, 1
  000ec	89 45 cc	 mov	 DWORD PTR _j$8[ebp], eax
$LN7@PerformDis:
  000ef	8b 45 cc	 mov	 eax, DWORD PTR _j$8[ebp]
  000f2	3b 45 d4	 cmp	 eax, DWORD PTR _cbTimer$10[ebp]
  000f5	7d 5d		 jge	 SHORT $LN6@PerformDis

; 636  : 			{
; 637  : 				//判断一下有没有卡赛的桌子在等待
; 638  : 				if ((m_MatchTimerArray[j]->dwTimerID==IDI_CHECK_TABLE_START||m_MatchTimerArray[j]->dwTimerID==IDI_CONTINUE_GAME)&&(ITableFrame*)(m_MatchTimerArray[j]->wParam)==m_MatchTableArray[i]->pTableFrame)

  000f7	8b 45 cc	 mov	 eax, DWORD PTR _j$8[ebp]
  000fa	50		 push	 eax
  000fb	8b 4d f0	 mov	 ecx, DWORD PTR _this$[ebp]
  000fe	83 c1 7c	 add	 ecx, 124		; 0000007cH
  00101	e8 00 00 00 00	 call	 ??A?$CWHArray@PAUtagMatchTimer@@ABQAU1@@@QAEAAPAUtagMatchTimer@@H@Z ; CWHArray<tagMatchTimer *,tagMatchTimer * const &>::operator[]
  00106	8b 08		 mov	 ecx, DWORD PTR [eax]
  00108	83 39 03	 cmp	 DWORD PTR [ecx], 3
  0010b	74 16		 je	 SHORT $LN20@PerformDis
  0010d	8b 45 cc	 mov	 eax, DWORD PTR _j$8[ebp]
  00110	50		 push	 eax
  00111	8b 4d f0	 mov	 ecx, DWORD PTR _this$[ebp]
  00114	83 c1 7c	 add	 ecx, 124		; 0000007cH
  00117	e8 00 00 00 00	 call	 ??A?$CWHArray@PAUtagMatchTimer@@ABQAU1@@@QAEAAPAUtagMatchTimer@@H@Z ; CWHArray<tagMatchTimer *,tagMatchTimer * const &>::operator[]
  0011c	8b 08		 mov	 ecx, DWORD PTR [eax]
  0011e	83 39 01	 cmp	 DWORD PTR [ecx], 1
  00121	75 2f		 jne	 SHORT $LN19@PerformDis
$LN20@PerformDis:
  00123	8b 45 cc	 mov	 eax, DWORD PTR _j$8[ebp]
  00126	50		 push	 eax
  00127	8b 4d f0	 mov	 ecx, DWORD PTR _this$[ebp]
  0012a	83 c1 7c	 add	 ecx, 124		; 0000007cH
  0012d	e8 00 00 00 00	 call	 ??A?$CWHArray@PAUtagMatchTimer@@ABQAU1@@@QAEAAPAUtagMatchTimer@@H@Z ; CWHArray<tagMatchTimer *,tagMatchTimer * const &>::operator[]
  00132	8b 30		 mov	 esi, DWORD PTR [eax]
  00134	8b 4d d8	 mov	 ecx, DWORD PTR _i$11[ebp]
  00137	51		 push	 ecx
  00138	8b 4d f0	 mov	 ecx, DWORD PTR _this$[ebp]
  0013b	83 c1 68	 add	 ecx, 104		; 00000068H
  0013e	e8 00 00 00 00	 call	 ??A?$CWHArray@PAUtagTableFrameInfo@@ABQAU1@@@QAEAAPAUtagTableFrameInfo@@H@Z ; CWHArray<tagTableFrameInfo *,tagTableFrameInfo * const &>::operator[]
  00143	8b 10		 mov	 edx, DWORD PTR [eax]
  00145	8b 46 08	 mov	 eax, DWORD PTR [esi+8]
  00148	3b 02		 cmp	 eax, DWORD PTR [edx]
  0014a	75 06		 jne	 SHORT $LN19@PerformDis

; 639  : 				{
; 640  : 					cbIsInsert=false;

  0014c	c6 45 d3 00	 mov	 BYTE PTR _cbIsInsert$9[ebp], 0

; 641  : 					break;

  00150	eb 02		 jmp	 SHORT $LN6@PerformDis
$LN19@PerformDis:

; 642  : 				}
; 643  : 			}

  00152	eb 92		 jmp	 SHORT $LN5@PerformDis
$LN6@PerformDis:

; 644  : 
; 645  : 			//插入判断
; 646  : 			if (cbIsInsert==true)

  00154	0f b6 45 d3	 movzx	 eax, BYTE PTR _cbIsInsert$9[ebp]
  00158	83 f8 01	 cmp	 eax, 1
  0015b	75 18		 jne	 SHORT $LN18@PerformDis

; 647  : 			{
; 648  : 				FreeTableArray.Add(m_MatchTableArray[i]);

  0015d	8b 45 d8	 mov	 eax, DWORD PTR _i$11[ebp]
  00160	50		 push	 eax
  00161	8b 4d f0	 mov	 ecx, DWORD PTR _this$[ebp]
  00164	83 c1 68	 add	 ecx, 104		; 00000068H
  00167	e8 00 00 00 00	 call	 ??A?$CWHArray@PAUtagTableFrameInfo@@ABQAU1@@@QAEAAPAUtagTableFrameInfo@@H@Z ; CWHArray<tagTableFrameInfo *,tagTableFrameInfo * const &>::operator[]
  0016c	50		 push	 eax
  0016d	8d 4d dc	 lea	 ecx, DWORD PTR _FreeTableArray$[ebp]
  00170	e8 00 00 00 00	 call	 ?Add@?$CWHArray@PAUtagTableFrameInfo@@ABQAU1@@@QAEHABQAUtagTableFrameInfo@@@Z ; CWHArray<tagTableFrameInfo *,tagTableFrameInfo * const &>::Add
$LN18@PerformDis:

; 649  : 			}
; 650  : 		}
; 651  : 	}

  00175	e9 e0 fe ff ff	 jmp	 $LN2@PerformDis
$LN3@PerformDis:

; 652  : 
; 653  : 	for (INT_PTR i=0;i<FreeTableArray.GetCount();i++)

  0017a	c7 45 c8 00 00
	00 00		 mov	 DWORD PTR _i$7[ebp], 0
  00181	eb 09		 jmp	 SHORT $LN10@PerformDis
$LN8@PerformDis:
  00183	8b 45 c8	 mov	 eax, DWORD PTR _i$7[ebp]
  00186	83 c0 01	 add	 eax, 1
  00189	89 45 c8	 mov	 DWORD PTR _i$7[ebp], eax
$LN10@PerformDis:
  0018c	8d 4d dc	 lea	 ecx, DWORD PTR _FreeTableArray$[ebp]
  0018f	e8 00 00 00 00	 call	 ?GetCount@?$CWHArray@PAUtagTableFrameInfo@@ABQAU1@@@QBEHXZ ; CWHArray<tagTableFrameInfo *,tagTableFrameInfo * const &>::GetCount
  00194	39 45 c8	 cmp	 DWORD PTR _i$7[ebp], eax
  00197	0f 8d cd 01 00
	00		 jge	 $LN9@PerformDis

; 654  : 	{
; 655  : 		DWORD nCurUserCount=(DWORD)m_FreeUserArray.GetCount();		

  0019d	8b 4d f0	 mov	 ecx, DWORD PTR _this$[ebp]
  001a0	83 c1 54	 add	 ecx, 84			; 00000054H
  001a3	e8 00 00 00 00	 call	 ?GetCount@?$CWHArray@PAUIServerUserItem@@ABQAU1@@@QBEHXZ ; CWHArray<IServerUserItem *,IServerUserItem * const &>::GetCount
  001a8	89 45 c4	 mov	 DWORD PTR _nCurUserCount$6[ebp], eax

; 656  : 		if(nCurUserCount/m_wChairCount>0)

  001ab	0f b7 0d 00 00
	00 00		 movzx	 ecx, WORD PTR ?m_wChairCount@CImmediateGroup@@1GA ; CImmediateGroup::m_wChairCount
  001b2	8b 45 c4	 mov	 eax, DWORD PTR _nCurUserCount$6[ebp]
  001b5	33 d2		 xor	 edx, edx
  001b7	f7 f1		 div	 ecx
  001b9	85 c0		 test	 eax, eax
  001bb	0f 86 a4 01 00
	00		 jbe	 $LN22@PerformDis

; 657  : 		{
; 658  : 			//全部起立
; 659  : 			PerformAllUserStandUp(FreeTableArray[i]->pTableFrame);

  001c1	8b 45 c8	 mov	 eax, DWORD PTR _i$7[ebp]
  001c4	50		 push	 eax
  001c5	8d 4d dc	 lea	 ecx, DWORD PTR _FreeTableArray$[ebp]
  001c8	e8 00 00 00 00	 call	 ??A?$CWHArray@PAUtagTableFrameInfo@@ABQAU1@@@QAEAAPAUtagTableFrameInfo@@H@Z ; CWHArray<tagTableFrameInfo *,tagTableFrameInfo * const &>::operator[]
  001cd	8b 08		 mov	 ecx, DWORD PTR [eax]
  001cf	8b 11		 mov	 edx, DWORD PTR [ecx]
  001d1	52		 push	 edx
  001d2	8b 4d f0	 mov	 ecx, DWORD PTR _this$[ebp]
  001d5	e8 00 00 00 00	 call	 ?PerformAllUserStandUp@CImmediateGroup@@IAEXPAUITableFrame@@@Z ; CImmediateGroup::PerformAllUserStandUp

; 660  : 
; 661  : 			//处理坐下
; 662  : 			for (WORD wChairID=0; wChairID<m_wChairCount; wChairID++)

  001da	33 c0		 xor	 eax, eax
  001dc	66 89 45 c0	 mov	 WORD PTR _wChairID$5[ebp], ax
  001e0	eb 0c		 jmp	 SHORT $LN13@PerformDis
$LN11@PerformDis:
  001e2	66 8b 45 c0	 mov	 ax, WORD PTR _wChairID$5[ebp]
  001e6	66 83 c0 01	 add	 ax, 1
  001ea	66 89 45 c0	 mov	 WORD PTR _wChairID$5[ebp], ax
$LN13@PerformDis:
  001ee	0f b7 45 c0	 movzx	 eax, WORD PTR _wChairID$5[ebp]
  001f2	0f b7 0d 00 00
	00 00		 movzx	 ecx, WORD PTR ?m_wChairCount@CImmediateGroup@@1GA ; CImmediateGroup::m_wChairCount
  001f9	3b c1		 cmp	 eax, ecx
  001fb	0f 8d 45 01 00
	00		 jge	 $LN12@PerformDis

; 663  : 			{
; 664  : 				//用户插入该桌
; 665  : 				WORD wRandID=rand()%(WORD)m_FreeUserArray.GetCount();

  00201	ff 15 00 00 00
	00		 call	 DWORD PTR __imp__rand
  00207	8b f0		 mov	 esi, eax
  00209	8b 4d f0	 mov	 ecx, DWORD PTR _this$[ebp]
  0020c	83 c1 54	 add	 ecx, 84			; 00000054H
  0020f	e8 00 00 00 00	 call	 ?GetCount@?$CWHArray@PAUIServerUserItem@@ABQAU1@@@QBEHXZ ; CWHArray<IServerUserItem *,IServerUserItem * const &>::GetCount
  00214	0f b7 c8	 movzx	 ecx, ax
  00217	8b c6		 mov	 eax, esi
  00219	99		 cdq
  0021a	f7 f9		 idiv	 ecx
  0021c	66 89 55 bc	 mov	 WORD PTR _wRandID$4[ebp], dx

; 666  : 
; 667  : 				//获取用户
; 668  : 				IServerUserItem *pIServerUserItem=m_FreeUserArray[wRandID];				

  00220	0f b7 45 bc	 movzx	 eax, WORD PTR _wRandID$4[ebp]
  00224	50		 push	 eax
  00225	8b 4d f0	 mov	 ecx, DWORD PTR _this$[ebp]
  00228	83 c1 54	 add	 ecx, 84			; 00000054H
  0022b	e8 00 00 00 00	 call	 ??A?$CWHArray@PAUIServerUserItem@@ABQAU1@@@QAEAAPAUIServerUserItem@@H@Z ; CWHArray<IServerUserItem *,IServerUserItem * const &>::operator[]
  00230	8b 08		 mov	 ecx, DWORD PTR [eax]
  00232	89 4d b8	 mov	 DWORD PTR _pIServerUserItem$3[ebp], ecx

; 669  : 				if (pIServerUserItem==NULL) continue;

  00235	83 7d b8 00	 cmp	 DWORD PTR _pIServerUserItem$3[ebp], 0
  00239	75 02		 jne	 SHORT $LN23@PerformDis
  0023b	eb a5		 jmp	 SHORT $LN11@PerformDis
$LN23@PerformDis:

; 670  : 				
; 671  : 				//先起立在坐下 让该桌的人全部起立
; 672  : 				if(pIServerUserItem->GetTableID()!=INVALID_TABLE)

  0023d	8b 45 b8	 mov	 eax, DWORD PTR _pIServerUserItem$3[ebp]
  00240	8b 10		 mov	 edx, DWORD PTR [eax]
  00242	8b 4d b8	 mov	 ecx, DWORD PTR _pIServerUserItem$3[ebp]
  00245	8b 42 68	 mov	 eax, DWORD PTR [edx+104]
  00248	ff d0		 call	 eax
  0024a	0f b7 c8	 movzx	 ecx, ax
  0024d	81 f9 ff ff 00
	00		 cmp	 ecx, 65535		; 0000ffffH
  00253	0f 84 84 00 00
	00		 je	 $LN24@PerformDis

; 673  : 				{
; 674  : 					for(int m=0;m<m_MatchTableArray.GetCount();m++)

  00259	c7 45 b4 00 00
	00 00		 mov	 DWORD PTR _m$2[ebp], 0
  00260	eb 09		 jmp	 SHORT $LN16@PerformDis
$LN14@PerformDis:
  00262	8b 45 b4	 mov	 eax, DWORD PTR _m$2[ebp]
  00265	83 c0 01	 add	 eax, 1
  00268	89 45 b4	 mov	 DWORD PTR _m$2[ebp], eax
$LN16@PerformDis:
  0026b	8b 4d f0	 mov	 ecx, DWORD PTR _this$[ebp]
  0026e	83 c1 68	 add	 ecx, 104		; 00000068H
  00271	e8 00 00 00 00	 call	 ?GetCount@?$CWHArray@PAUtagTableFrameInfo@@ABQAU1@@@QBEHXZ ; CWHArray<tagTableFrameInfo *,tagTableFrameInfo * const &>::GetCount
  00276	39 45 b4	 cmp	 DWORD PTR _m$2[ebp], eax
  00279	7d 62		 jge	 SHORT $LN24@PerformDis

; 675  : 					{
; 676  : 						if(pIServerUserItem->GetTableID()==m_MatchTableArray[m]->wTableID)

  0027b	8b 45 b8	 mov	 eax, DWORD PTR _pIServerUserItem$3[ebp]
  0027e	8b 10		 mov	 edx, DWORD PTR [eax]
  00280	8b 4d b8	 mov	 ecx, DWORD PTR _pIServerUserItem$3[ebp]
  00283	8b 42 68	 mov	 eax, DWORD PTR [edx+104]
  00286	ff d0		 call	 eax
  00288	0f b7 f0	 movzx	 esi, ax
  0028b	8b 4d b4	 mov	 ecx, DWORD PTR _m$2[ebp]
  0028e	51		 push	 ecx
  0028f	8b 4d f0	 mov	 ecx, DWORD PTR _this$[ebp]
  00292	83 c1 68	 add	 ecx, 104		; 00000068H
  00295	e8 00 00 00 00	 call	 ??A?$CWHArray@PAUtagTableFrameInfo@@ABQAU1@@@QAEAAPAUtagTableFrameInfo@@H@Z ; CWHArray<tagTableFrameInfo *,tagTableFrameInfo * const &>::operator[]
  0029a	8b 10		 mov	 edx, DWORD PTR [eax]
  0029c	0f b7 42 04	 movzx	 eax, WORD PTR [edx+4]
  002a0	3b f0		 cmp	 esi, eax
  002a2	75 37		 jne	 SHORT $LN25@PerformDis

; 677  : 						{
; 678  : 							m_MatchTableArray[m]->pTableFrame->PerformStandUpAction(pIServerUserItem);

  002a4	8b 45 b4	 mov	 eax, DWORD PTR _m$2[ebp]
  002a7	50		 push	 eax
  002a8	8b 4d f0	 mov	 ecx, DWORD PTR _this$[ebp]
  002ab	83 c1 68	 add	 ecx, 104		; 00000068H
  002ae	e8 00 00 00 00	 call	 ??A?$CWHArray@PAUtagTableFrameInfo@@ABQAU1@@@QAEAAPAUtagTableFrameInfo@@H@Z ; CWHArray<tagTableFrameInfo *,tagTableFrameInfo * const &>::operator[]
  002b3	8b 08		 mov	 ecx, DWORD PTR [eax]
  002b5	8b 11		 mov	 edx, DWORD PTR [ecx]
  002b7	89 95 70 ff ff
	ff		 mov	 DWORD PTR tv228[ebp], edx
  002bd	6a 00		 push	 0
  002bf	8b 45 b8	 mov	 eax, DWORD PTR _pIServerUserItem$3[ebp]
  002c2	50		 push	 eax
  002c3	8b 8d 70 ff ff
	ff		 mov	 ecx, DWORD PTR tv228[ebp]
  002c9	8b 11		 mov	 edx, DWORD PTR [ecx]
  002cb	8b 8d 70 ff ff
	ff		 mov	 ecx, DWORD PTR tv228[ebp]
  002d1	8b 82 d8 00 00
	00		 mov	 eax, DWORD PTR [edx+216]
  002d7	ff d0		 call	 eax

; 679  : 							break;

  002d9	eb 02		 jmp	 SHORT $LN24@PerformDis
$LN25@PerformDis:

; 680  : 						}
; 681  : 					}

  002db	eb 85		 jmp	 SHORT $LN14@PerformDis
$LN24@PerformDis:

; 682  : 				}
; 683  : 
; 684  : 				if (FreeTableArray[i]->pTableFrame->PerformSitDownAction(wChairID,pIServerUserItem))

  002dd	8b 45 c8	 mov	 eax, DWORD PTR _i$7[ebp]
  002e0	50		 push	 eax
  002e1	8d 4d dc	 lea	 ecx, DWORD PTR _FreeTableArray$[ebp]
  002e4	e8 00 00 00 00	 call	 ??A?$CWHArray@PAUtagTableFrameInfo@@ABQAU1@@@QAEAAPAUtagTableFrameInfo@@H@Z ; CWHArray<tagTableFrameInfo *,tagTableFrameInfo * const &>::operator[]
  002e9	8b 08		 mov	 ecx, DWORD PTR [eax]
  002eb	8b 11		 mov	 edx, DWORD PTR [ecx]
  002ed	89 95 70 ff ff
	ff		 mov	 DWORD PTR tv239[ebp], edx
  002f3	6a 00		 push	 0
  002f5	6a 00		 push	 0
  002f7	8b 45 b8	 mov	 eax, DWORD PTR _pIServerUserItem$3[ebp]
  002fa	50		 push	 eax
  002fb	0f b7 4d c0	 movzx	 ecx, WORD PTR _wChairID$5[ebp]
  002ff	51		 push	 ecx
  00300	8b 95 70 ff ff
	ff		 mov	 edx, DWORD PTR tv239[ebp]
  00306	8b 02		 mov	 eax, DWORD PTR [edx]
  00308	8b 8d 70 ff ff
	ff		 mov	 ecx, DWORD PTR tv239[ebp]
  0030e	8b 90 e0 00 00
	00		 mov	 edx, DWORD PTR [eax+224]
  00314	ff d2		 call	 edx
  00316	0f b6 c0	 movzx	 eax, al
  00319	85 c0		 test	 eax, eax
  0031b	74 14		 je	 SHORT $LN26@PerformDis

; 685  : 				{
; 686  : 					m_FreeUserArray.RemoveAt(wRandID);

  0031d	6a 01		 push	 1
  0031f	0f b7 45 bc	 movzx	 eax, WORD PTR _wRandID$4[ebp]
  00323	50		 push	 eax
  00324	8b 4d f0	 mov	 ecx, DWORD PTR _this$[ebp]
  00327	83 c1 54	 add	 ecx, 84			; 00000054H
  0032a	e8 00 00 00 00	 call	 ?RemoveAt@?$CWHArray@PAUIServerUserItem@@ABQAU1@@@QAEXHH@Z ; CWHArray<IServerUserItem *,IServerUserItem * const &>::RemoveAt

; 687  : 				}
; 688  : 				else

  0032f	eb 10		 jmp	 SHORT $LN27@PerformDis
$LN26@PerformDis:

; 689  : 				{
; 690  : 					CTraceService::TraceString(TEXT("坐下失败？"),TraceLevel_Exception);

  00331	6a 03		 push	 3
  00333	68 00 00 00 00	 push	 OFFSET ??_C@_0L@EGCIENHN@?W?x?O?B?J?$KH?$LA?$NM?$KD?$LP@
  00338	ff 15 00 00 00
	00		 call	 DWORD PTR __imp_?TraceString@CTraceService@@SA_NPBDW4enTraceLevel@@@Z
  0033e	83 c4 08	 add	 esp, 8
$LN27@PerformDis:

; 691  : 				}
; 692  : 			}

  00341	e9 9c fe ff ff	 jmp	 $LN11@PerformDis
$LN12@PerformDis:

; 693  : 
; 694  : 			//10秒后做一个检查 发现该桌还没有开始游戏 说明已经卡掉了
; 695  : 			PostMatchTimer(IDI_CHECK_TABLE_START,10,(WPARAM)FreeTableArray[i]->pTableFrame);

  00346	6a 00		 push	 0
  00348	8b 45 c8	 mov	 eax, DWORD PTR _i$7[ebp]
  0034b	50		 push	 eax
  0034c	8d 4d dc	 lea	 ecx, DWORD PTR _FreeTableArray$[ebp]
  0034f	e8 00 00 00 00	 call	 ??A?$CWHArray@PAUtagTableFrameInfo@@ABQAU1@@@QAEAAPAUtagTableFrameInfo@@H@Z ; CWHArray<tagTableFrameInfo *,tagTableFrameInfo * const &>::operator[]
  00354	8b 08		 mov	 ecx, DWORD PTR [eax]
  00356	8b 11		 mov	 edx, DWORD PTR [ecx]
  00358	52		 push	 edx
  00359	6a 0a		 push	 10			; 0000000aH
  0035b	6a 03		 push	 3
  0035d	8b 4d f0	 mov	 ecx, DWORD PTR _this$[ebp]
  00360	e8 00 00 00 00	 call	 ?PostMatchTimer@CImmediateGroup@@IAEXKHIJ@Z ; CImmediateGroup::PostMatchTimer
$LN22@PerformDis:

; 696  : 		}
; 697  : 	}

  00365	e9 19 fe ff ff	 jmp	 $LN8@PerformDis
$LN9@PerformDis:

; 698  : 
; 699  : 	return;

  0036a	c7 45 fc ff ff
	ff ff		 mov	 DWORD PTR __$EHRec$[ebp+8], -1
  00371	8d 4d dc	 lea	 ecx, DWORD PTR _FreeTableArray$[ebp]
  00374	e8 00 00 00 00	 call	 ??1?$CWHArray@PAUtagTableFrameInfo@@ABQAU1@@@UAE@XZ ; CWHArray<tagTableFrameInfo *,tagTableFrameInfo * const &>::~CWHArray<tagTableFrameInfo *,tagTableFrameInfo * const &>
$LN1@PerformDis:

; 700  : }

  00379	8b 4d f4	 mov	 ecx, DWORD PTR __$EHRec$[ebp]
  0037c	64 89 0d 00 00
	00 00		 mov	 DWORD PTR fs:0, ecx
  00383	59		 pop	 ecx
  00384	5f		 pop	 edi
  00385	5e		 pop	 esi
  00386	5b		 pop	 ebx
  00387	8b e5		 mov	 esp, ebp
  00389	5d		 pop	 ebp
  0038a	c3		 ret	 0
_TEXT	ENDS
;	COMDAT text$x
text$x	SEGMENT
__unwindfunclet$?PerformDistributeTable@CImmediateGroup@@IAEXXZ$0:
  00000	8d 4d dc	 lea	 ecx, DWORD PTR _FreeTableArray$[ebp]
  00003	e9 00 00 00 00	 jmp	 ??1?$CWHArray@PAUtagTableFrameInfo@@ABQAU1@@@UAE@XZ ; CWHArray<tagTableFrameInfo *,tagTableFrameInfo * const &>::~CWHArray<tagTableFrameInfo *,tagTableFrameInfo * const &>
__ehhandler$?PerformDistributeTable@CImmediateGroup@@IAEXXZ:
  00008	8b 54 24 08	 mov	 edx, DWORD PTR [esp+8]
  0000c	8d 42 0c	 lea	 eax, DWORD PTR [edx+12]
  0000f	8b 8a 6c ff ff
	ff		 mov	 ecx, DWORD PTR [edx-148]
  00015	33 c8		 xor	 ecx, eax
  00017	e8 00 00 00 00	 call	 @__security_check_cookie@4
  0001c	b8 00 00 00 00	 mov	 eax, OFFSET __ehfuncinfo$?PerformDistributeTable@CImmediateGroup@@IAEXXZ
  00021	e9 00 00 00 00	 jmp	 ___CxxFrameHandler3
text$x	ENDS
?PerformDistributeTable@CImmediateGroup@@IAEXXZ ENDP	; CImmediateGroup::PerformDistributeTable
; Function compile flags: /Odtp /ZI
; File g:\网狐\happygamewh\服务端\系统模块\服务器组件\比赛服务\immediategroup.cpp
;	COMDAT ?SendWaitMessage@CImmediateGroup@@IAEXPAUITableFrame@@G@Z
_TEXT	SEGMENT
tv234 = -160						; size = 4
tv216 = -160						; size = 4
tv202 = -160						; size = 4
tv88 = -160						; size = 4
_pTableUserItem$1 = -92					; size = 4
_j$2 = -88						; size = 2
_i$3 = -84						; size = 2
_pTableUserItem$4 = -80					; size = 4
_i$5 = -76						; size = 2
_WaitTip$ = -72						; size = 52
_i$6 = -20						; size = 2
_wPlayingTable$ = -16					; size = 2
_pITableFameInfo$ = -12					; size = 4
_this$ = -8						; size = 4
__$ArrayPad$ = -4					; size = 4
_pTableFrame$ = 8					; size = 4
_wChairID$ = 12						; size = 2
?SendWaitMessage@CImmediateGroup@@IAEXPAUITableFrame@@G@Z PROC ; CImmediateGroup::SendWaitMessage, COMDAT
; _this$ = ecx

; 551  : {

  00000	55		 push	 ebp
  00001	8b ec		 mov	 ebp, esp
  00003	81 ec a0 00 00
	00		 sub	 esp, 160		; 000000a0H
  00009	a1 00 00 00 00	 mov	 eax, DWORD PTR ___security_cookie
  0000e	33 c5		 xor	 eax, ebp
  00010	89 45 fc	 mov	 DWORD PTR __$ArrayPad$[ebp], eax
  00013	53		 push	 ebx
  00014	56		 push	 esi
  00015	57		 push	 edi
  00016	89 4d f8	 mov	 DWORD PTR _this$[ebp], ecx

; 552  : 	//状态校验
; 553  : 	if (m_cbMatchStatus==MatchStatus_Null || m_cbMatchStatus==MatchStatus_Signup)

  00019	8b 45 f8	 mov	 eax, DWORD PTR _this$[ebp]
  0001c	0f b6 48 18	 movzx	 ecx, BYTE PTR [eax+24]
  00020	85 c9		 test	 ecx, ecx
  00022	74 0c		 je	 SHORT $LN15@SendWaitMe
  00024	8b 45 f8	 mov	 eax, DWORD PTR _this$[ebp]
  00027	0f b6 48 18	 movzx	 ecx, BYTE PTR [eax+24]
  0002b	83 f9 01	 cmp	 ecx, 1
  0002e	75 05		 jne	 SHORT $LN14@SendWaitMe
$LN15@SendWaitMe:

; 554  : 	{
; 555  : 		return;

  00030	e9 49 03 00 00	 jmp	 $LN1@SendWaitMe
$LN14@SendWaitMe:

; 556  : 	}
; 557  : 
; 558  : 	//获取信息
; 559  : 	tagTableFrameInfo * pITableFameInfo=GetTableInterface(pTableFrame);

  00035	8b 45 08	 mov	 eax, DWORD PTR _pTableFrame$[ebp]
  00038	50		 push	 eax
  00039	8b 4d f8	 mov	 ecx, DWORD PTR _this$[ebp]
  0003c	e8 00 00 00 00	 call	 ?GetTableInterface@CImmediateGroup@@IAEPAUtagTableFrameInfo@@PAUITableFrame@@@Z ; CImmediateGroup::GetTableInterface
  00041	89 45 f4	 mov	 DWORD PTR _pITableFameInfo$[ebp], eax

; 560  : 	if (pITableFameInfo==NULL) return;

  00044	83 7d f4 00	 cmp	 DWORD PTR _pITableFameInfo$[ebp], 0
  00048	75 05		 jne	 SHORT $LN16@SendWaitMe
  0004a	e9 2f 03 00 00	 jmp	 $LN1@SendWaitMe
$LN16@SendWaitMe:

; 561  : 
; 562  : 	//变量定义
; 563  : 	WORD wPlayingTable=0;

  0004f	33 c0		 xor	 eax, eax
  00051	66 89 45 f0	 mov	 WORD PTR _wPlayingTable$[ebp], ax

; 564  : 	for(WORD i=0;i<m_MatchTableArray.GetCount();i++)

  00055	33 c0		 xor	 eax, eax
  00057	66 89 45 ec	 mov	 WORD PTR _i$6[ebp], ax
  0005b	eb 0c		 jmp	 SHORT $LN4@SendWaitMe
$LN2@SendWaitMe:
  0005d	66 8b 45 ec	 mov	 ax, WORD PTR _i$6[ebp]
  00061	66 83 c0 01	 add	 ax, 1
  00065	66 89 45 ec	 mov	 WORD PTR _i$6[ebp], ax
$LN4@SendWaitMe:
  00069	0f b7 75 ec	 movzx	 esi, WORD PTR _i$6[ebp]
  0006d	8b 4d f8	 mov	 ecx, DWORD PTR _this$[ebp]
  00070	83 c1 68	 add	 ecx, 104		; 00000068H
  00073	e8 00 00 00 00	 call	 ?GetCount@?$CWHArray@PAUtagTableFrameInfo@@ABQAU1@@@QBEHXZ ; CWHArray<tagTableFrameInfo *,tagTableFrameInfo * const &>::GetCount
  00078	3b f0		 cmp	 esi, eax
  0007a	7d 43		 jge	 SHORT $LN3@SendWaitMe

; 565  : 	{
; 566  : 		if(m_MatchTableArray[i]->pTableFrame->GetGameStatus()>=GAME_STATUS_PLAY)

  0007c	0f b7 45 ec	 movzx	 eax, WORD PTR _i$6[ebp]
  00080	50		 push	 eax
  00081	8b 4d f8	 mov	 ecx, DWORD PTR _this$[ebp]
  00084	83 c1 68	 add	 ecx, 104		; 00000068H
  00087	e8 00 00 00 00	 call	 ??A?$CWHArray@PAUtagTableFrameInfo@@ABQAU1@@@QAEAAPAUtagTableFrameInfo@@H@Z ; CWHArray<tagTableFrameInfo *,tagTableFrameInfo * const &>::operator[]
  0008c	8b 08		 mov	 ecx, DWORD PTR [eax]
  0008e	8b 11		 mov	 edx, DWORD PTR [ecx]
  00090	89 95 60 ff ff
	ff		 mov	 DWORD PTR tv88[ebp], edx
  00096	8b 85 60 ff ff
	ff		 mov	 eax, DWORD PTR tv88[ebp]
  0009c	8b 10		 mov	 edx, DWORD PTR [eax]
  0009e	8b 8d 60 ff ff
	ff		 mov	 ecx, DWORD PTR tv88[ebp]
  000a4	8b 42 6c	 mov	 eax, DWORD PTR [edx+108]
  000a7	ff d0		 call	 eax
  000a9	0f b6 c8	 movzx	 ecx, al
  000ac	83 f9 64	 cmp	 ecx, 100		; 00000064H
  000af	7c 0c		 jl	 SHORT $LN17@SendWaitMe

; 567  : 		{
; 568  : 			wPlayingTable++;

  000b1	66 8b 45 f0	 mov	 ax, WORD PTR _wPlayingTable$[ebp]
  000b5	66 83 c0 01	 add	 ax, 1
  000b9	66 89 45 f0	 mov	 WORD PTR _wPlayingTable$[ebp], ax
$LN17@SendWaitMe:

; 569  : 		}
; 570  : 	}

  000bd	eb 9e		 jmp	 SHORT $LN2@SendWaitMe
$LN3@SendWaitMe:

; 571  : 
; 572  : 	//变量定义
; 573  : 	CMD_GR_Match_Wait_Tip WaitTip;
; 574  : 	ZeroMemory(&WaitTip,sizeof(WaitTip));

  000bf	6a 34		 push	 52			; 00000034H
  000c1	6a 00		 push	 0
  000c3	8d 45 b8	 lea	 eax, DWORD PTR _WaitTip$[ebp]
  000c6	50		 push	 eax
  000c7	e8 00 00 00 00	 call	 _memset
  000cc	83 c4 0c	 add	 esp, 12			; 0000000cH

; 575  : 	WaitTip.wPlayingTable=wPlayingTable;

  000cf	66 8b 45 f0	 mov	 ax, WORD PTR _wPlayingTable$[ebp]
  000d3	66 89 45 ca	 mov	 WORD PTR _WaitTip$[ebp+18], ax

; 576  : 	WaitTip.wUserCount=(WORD)m_OnMatchUserMap.GetCount();

  000d7	8b 4d f8	 mov	 ecx, DWORD PTR _this$[ebp]
  000da	83 c1 38	 add	 ecx, 56			; 00000038H
  000dd	e8 00 00 00 00	 call	 ?GetCount@?$CMap@KKPAUIServerUserItem@@PAU1@@@QBEHXZ ; CMap<unsigned long,unsigned long,IServerUserItem *,IServerUserItem *>::GetCount
  000e2	66 89 45 c4	 mov	 WORD PTR _WaitTip$[ebp+12], ax

; 577  : 	WaitTip.wCurGameCount=pITableFameInfo->wPlayCount;

  000e6	8b 45 f4	 mov	 eax, DWORD PTR _pITableFameInfo$[ebp]
  000e9	66 8b 48 10	 mov	 cx, WORD PTR [eax+16]
  000ed	66 89 4d c6	 mov	 WORD PTR _WaitTip$[ebp+14], cx

; 578  : 	WaitTip.wGameCount=m_pImmediateMatch->wPlayCount;

  000f1	8b 45 f8	 mov	 eax, DWORD PTR _this$[ebp]
  000f4	8b 48 34	 mov	 ecx, DWORD PTR [eax+52]
  000f7	66 8b 51 16	 mov	 dx, WORD PTR [ecx+22]
  000fb	66 89 55 c8	 mov	 WORD PTR _WaitTip$[ebp+16], dx

; 579  : 
; 580  : 	lstrcpyn(WaitTip.szMatchName, m_pMatchOption->szMatchName,LEN_SERVER);

  000ff	6a 20		 push	 32			; 00000020H
  00101	8b 45 f8	 mov	 eax, DWORD PTR _this$[ebp]
  00104	8b 48 30	 mov	 ecx, DWORD PTR [eax+48]
  00107	83 c1 12	 add	 ecx, 18			; 00000012H
  0010a	51		 push	 ecx
  0010b	8d 55 cc	 lea	 edx, DWORD PTR _WaitTip$[ebp+20]
  0010e	52		 push	 edx
  0010f	ff 15 00 00 00
	00		 call	 DWORD PTR __imp__lstrcpynA@12

; 581  : 
; 582  : 	//发送比赛信息给本桌的玩家
; 583  : 	for(WORD i=0;i<m_wChairCount;i++)

  00115	33 c0		 xor	 eax, eax
  00117	66 89 45 b4	 mov	 WORD PTR _i$5[ebp], ax
  0011b	eb 0c		 jmp	 SHORT $LN7@SendWaitMe
$LN5@SendWaitMe:
  0011d	66 8b 45 b4	 mov	 ax, WORD PTR _i$5[ebp]
  00121	66 83 c0 01	 add	 ax, 1
  00125	66 89 45 b4	 mov	 WORD PTR _i$5[ebp], ax
$LN7@SendWaitMe:
  00129	0f b7 45 b4	 movzx	 eax, WORD PTR _i$5[ebp]
  0012d	0f b7 0d 00 00
	00 00		 movzx	 ecx, WORD PTR ?m_wChairCount@CImmediateGroup@@1GA ; CImmediateGroup::m_wChairCount
  00134	3b c1		 cmp	 eax, ecx
  00136	0f 8d a8 00 00
	00		 jge	 $LN6@SendWaitMe

; 584  : 	{
; 585  : 		if(wChairID!=INVALID_CHAIR && wChairID!=i) continue;

  0013c	0f b7 45 0c	 movzx	 eax, WORD PTR _wChairID$[ebp]
  00140	3d ff ff 00 00	 cmp	 eax, 65535		; 0000ffffH
  00145	74 0e		 je	 SHORT $LN18@SendWaitMe
  00147	0f b7 45 0c	 movzx	 eax, WORD PTR _wChairID$[ebp]
  0014b	0f b7 4d b4	 movzx	 ecx, WORD PTR _i$5[ebp]
  0014f	3b c1		 cmp	 eax, ecx
  00151	74 02		 je	 SHORT $LN18@SendWaitMe
  00153	eb c8		 jmp	 SHORT $LN5@SendWaitMe
$LN18@SendWaitMe:

; 586  : 		IServerUserItem *pTableUserItem=pTableFrame->GetTableUserItem(i);

  00155	0f b7 45 b4	 movzx	 eax, WORD PTR _i$5[ebp]
  00159	50		 push	 eax
  0015a	8b 4d 08	 mov	 ecx, DWORD PTR _pTableFrame$[ebp]
  0015d	8b 11		 mov	 edx, DWORD PTR [ecx]
  0015f	8b 4d 08	 mov	 ecx, DWORD PTR _pTableFrame$[ebp]
  00162	8b 82 9c 00 00
	00		 mov	 eax, DWORD PTR [edx+156]
  00168	ff d0		 call	 eax
  0016a	89 45 b0	 mov	 DWORD PTR _pTableUserItem$4[ebp], eax

; 587  : 		if(pTableUserItem==NULL) continue;

  0016d	83 7d b0 00	 cmp	 DWORD PTR _pTableUserItem$4[ebp], 0
  00171	75 02		 jne	 SHORT $LN19@SendWaitMe
  00173	eb a8		 jmp	 SHORT $LN5@SendWaitMe
$LN19@SendWaitMe:

; 588  : 		WaitTip.wCurTableRank=GetUserRank(pTableUserItem,pTableFrame);

  00175	8b 45 08	 mov	 eax, DWORD PTR _pTableFrame$[ebp]
  00178	50		 push	 eax
  00179	8b 4d b0	 mov	 ecx, DWORD PTR _pTableUserItem$4[ebp]
  0017c	51		 push	 ecx
  0017d	8b 4d f8	 mov	 ecx, DWORD PTR _this$[ebp]
  00180	e8 00 00 00 00	 call	 ?GetUserRank@CImmediateGroup@@IAEGPAUIServerUserItem@@PAUITableFrame@@@Z ; CImmediateGroup::GetUserRank
  00185	66 89 45 c2	 mov	 WORD PTR _WaitTip$[ebp+10], ax

; 589  : 		if(WaitTip.wCurTableRank==INVALID_WORD) continue;

  00189	0f b7 45 c2	 movzx	 eax, WORD PTR _WaitTip$[ebp+10]
  0018d	3d ff ff 00 00	 cmp	 eax, 65535		; 0000ffffH
  00192	75 02		 jne	 SHORT $LN20@SendWaitMe
  00194	eb 87		 jmp	 SHORT $LN5@SendWaitMe
$LN20@SendWaitMe:

; 590  : 
; 591  : 
; 592  : 		WaitTip.wRank=GetUserRank(pTableUserItem);

  00196	6a 00		 push	 0
  00198	8b 45 b0	 mov	 eax, DWORD PTR _pTableUserItem$4[ebp]
  0019b	50		 push	 eax
  0019c	8b 4d f8	 mov	 ecx, DWORD PTR _this$[ebp]
  0019f	e8 00 00 00 00	 call	 ?GetUserRank@CImmediateGroup@@IAEGPAUIServerUserItem@@PAUITableFrame@@@Z ; CImmediateGroup::GetUserRank
  001a4	66 89 45 c0	 mov	 WORD PTR _WaitTip$[ebp+8], ax

; 593  : 		WaitTip.lScore=pTableUserItem->GetUserScore();

  001a8	8b 45 b0	 mov	 eax, DWORD PTR _pTableUserItem$4[ebp]
  001ab	8b 10		 mov	 edx, DWORD PTR [eax]
  001ad	8b 4d b0	 mov	 ecx, DWORD PTR _pTableUserItem$4[ebp]
  001b0	8b 82 88 00 00
	00		 mov	 eax, DWORD PTR [edx+136]
  001b6	ff d0		 call	 eax
  001b8	89 45 b8	 mov	 DWORD PTR _WaitTip$[ebp], eax
  001bb	89 55 bc	 mov	 DWORD PTR _WaitTip$[ebp+4], edx

; 594  : 
; 595  : 		m_pMatchSink->SendData(pTableUserItem,MDM_GF_FRAME,SUB_GR_MATCH_WAIT_TIP,&WaitTip,sizeof(WaitTip));

  001be	6a 34		 push	 52			; 00000034H
  001c0	8d 45 b8	 lea	 eax, DWORD PTR _WaitTip$[ebp]
  001c3	50		 push	 eax
  001c4	6a 08		 push	 8
  001c6	6a 64		 push	 100			; 00000064H
  001c8	8b 4d b0	 mov	 ecx, DWORD PTR _pTableUserItem$4[ebp]
  001cb	51		 push	 ecx
  001cc	8b 55 f8	 mov	 edx, DWORD PTR _this$[ebp]
  001cf	8b 42 2c	 mov	 eax, DWORD PTR [edx+44]
  001d2	8b 4d f8	 mov	 ecx, DWORD PTR _this$[ebp]
  001d5	8b 10		 mov	 edx, DWORD PTR [eax]
  001d7	8b 49 2c	 mov	 ecx, DWORD PTR [ecx+44]
  001da	8b 42 2c	 mov	 eax, DWORD PTR [edx+44]
  001dd	ff d0		 call	 eax

; 596  : 	}

  001df	e9 39 ff ff ff	 jmp	 $LN5@SendWaitMe
$LN6@SendWaitMe:

; 597  : 
; 598  : 	//发送比赛信息给其他桌的玩家
; 599  : 	for(WORD i=0;i<m_MatchTableArray.GetCount();i++)

  001e4	33 c0		 xor	 eax, eax
  001e6	66 89 45 ac	 mov	 WORD PTR _i$3[ebp], ax
  001ea	eb 0c		 jmp	 SHORT $LN10@SendWaitMe
$LN8@SendWaitMe:
  001ec	66 8b 45 ac	 mov	 ax, WORD PTR _i$3[ebp]
  001f0	66 83 c0 01	 add	 ax, 1
  001f4	66 89 45 ac	 mov	 WORD PTR _i$3[ebp], ax
$LN10@SendWaitMe:
  001f8	0f b7 75 ac	 movzx	 esi, WORD PTR _i$3[ebp]
  001fc	8b 4d f8	 mov	 ecx, DWORD PTR _this$[ebp]
  001ff	83 c1 68	 add	 ecx, 104		; 00000068H
  00202	e8 00 00 00 00	 call	 ?GetCount@?$CWHArray@PAUtagTableFrameInfo@@ABQAU1@@@QBEHXZ ; CWHArray<tagTableFrameInfo *,tagTableFrameInfo * const &>::GetCount
  00207	3b f0		 cmp	 esi, eax
  00209	0f 8d 6f 01 00
	00		 jge	 $LN1@SendWaitMe

; 600  : 	{
; 601  : 		if(pTableFrame->GetTableID()==m_MatchTableArray[i]->pTableFrame->GetTableID())continue;

  0020f	0f b7 45 ac	 movzx	 eax, WORD PTR _i$3[ebp]
  00213	50		 push	 eax
  00214	8b 4d f8	 mov	 ecx, DWORD PTR _this$[ebp]
  00217	83 c1 68	 add	 ecx, 104		; 00000068H
  0021a	e8 00 00 00 00	 call	 ??A?$CWHArray@PAUtagTableFrameInfo@@ABQAU1@@@QAEAAPAUtagTableFrameInfo@@H@Z ; CWHArray<tagTableFrameInfo *,tagTableFrameInfo * const &>::operator[]
  0021f	8b 08		 mov	 ecx, DWORD PTR [eax]
  00221	8b 11		 mov	 edx, DWORD PTR [ecx]
  00223	89 95 60 ff ff
	ff		 mov	 DWORD PTR tv202[ebp], edx
  00229	8b 85 60 ff ff
	ff		 mov	 eax, DWORD PTR tv202[ebp]
  0022f	8b 10		 mov	 edx, DWORD PTR [eax]
  00231	8b 8d 60 ff ff
	ff		 mov	 ecx, DWORD PTR tv202[ebp]
  00237	8b 42 08	 mov	 eax, DWORD PTR [edx+8]
  0023a	ff d0		 call	 eax
  0023c	0f b7 f0	 movzx	 esi, ax
  0023f	8b 4d 08	 mov	 ecx, DWORD PTR _pTableFrame$[ebp]
  00242	8b 11		 mov	 edx, DWORD PTR [ecx]
  00244	8b 4d 08	 mov	 ecx, DWORD PTR _pTableFrame$[ebp]
  00247	8b 42 08	 mov	 eax, DWORD PTR [edx+8]
  0024a	ff d0		 call	 eax
  0024c	0f b7 c8	 movzx	 ecx, ax
  0024f	3b ce		 cmp	 ecx, esi
  00251	75 02		 jne	 SHORT $LN21@SendWaitMe
  00253	eb 97		 jmp	 SHORT $LN8@SendWaitMe
$LN21@SendWaitMe:

; 602  : 		if(m_MatchTableArray[i]->pTableFrame->GetGameStatus()>=GAME_STATUS_PLAY) continue; 

  00255	0f b7 45 ac	 movzx	 eax, WORD PTR _i$3[ebp]
  00259	50		 push	 eax
  0025a	8b 4d f8	 mov	 ecx, DWORD PTR _this$[ebp]
  0025d	83 c1 68	 add	 ecx, 104		; 00000068H
  00260	e8 00 00 00 00	 call	 ??A?$CWHArray@PAUtagTableFrameInfo@@ABQAU1@@@QAEAAPAUtagTableFrameInfo@@H@Z ; CWHArray<tagTableFrameInfo *,tagTableFrameInfo * const &>::operator[]
  00265	8b 08		 mov	 ecx, DWORD PTR [eax]
  00267	8b 11		 mov	 edx, DWORD PTR [ecx]
  00269	89 95 60 ff ff
	ff		 mov	 DWORD PTR tv216[ebp], edx
  0026f	8b 85 60 ff ff
	ff		 mov	 eax, DWORD PTR tv216[ebp]
  00275	8b 10		 mov	 edx, DWORD PTR [eax]
  00277	8b 8d 60 ff ff
	ff		 mov	 ecx, DWORD PTR tv216[ebp]
  0027d	8b 42 6c	 mov	 eax, DWORD PTR [edx+108]
  00280	ff d0		 call	 eax
  00282	0f b6 c8	 movzx	 ecx, al
  00285	83 f9 64	 cmp	 ecx, 100		; 00000064H
  00288	7c 05		 jl	 SHORT $LN22@SendWaitMe
  0028a	e9 5d ff ff ff	 jmp	 $LN8@SendWaitMe
$LN22@SendWaitMe:

; 603  : 		for(WORD j=0;j<m_wChairCount;j++)

  0028f	33 c0		 xor	 eax, eax
  00291	66 89 45 a8	 mov	 WORD PTR _j$2[ebp], ax
  00295	eb 0c		 jmp	 SHORT $LN13@SendWaitMe
$LN11@SendWaitMe:
  00297	66 8b 45 a8	 mov	 ax, WORD PTR _j$2[ebp]
  0029b	66 83 c0 01	 add	 ax, 1
  0029f	66 89 45 a8	 mov	 WORD PTR _j$2[ebp], ax
$LN13@SendWaitMe:
  002a3	0f b7 45 a8	 movzx	 eax, WORD PTR _j$2[ebp]
  002a7	0f b7 0d 00 00
	00 00		 movzx	 ecx, WORD PTR ?m_wChairCount@CImmediateGroup@@1GA ; CImmediateGroup::m_wChairCount
  002ae	3b c1		 cmp	 eax, ecx
  002b0	0f 8d c3 00 00
	00		 jge	 $LN12@SendWaitMe

; 604  : 		{
; 605  : 			IServerUserItem *pTableUserItem=m_MatchTableArray[i]->pTableFrame->GetTableUserItem(j);

  002b6	0f b7 45 ac	 movzx	 eax, WORD PTR _i$3[ebp]
  002ba	50		 push	 eax
  002bb	8b 4d f8	 mov	 ecx, DWORD PTR _this$[ebp]
  002be	83 c1 68	 add	 ecx, 104		; 00000068H
  002c1	e8 00 00 00 00	 call	 ??A?$CWHArray@PAUtagTableFrameInfo@@ABQAU1@@@QAEAAPAUtagTableFrameInfo@@H@Z ; CWHArray<tagTableFrameInfo *,tagTableFrameInfo * const &>::operator[]
  002c6	8b 08		 mov	 ecx, DWORD PTR [eax]
  002c8	8b 11		 mov	 edx, DWORD PTR [ecx]
  002ca	89 95 60 ff ff
	ff		 mov	 DWORD PTR tv234[ebp], edx
  002d0	0f b7 45 a8	 movzx	 eax, WORD PTR _j$2[ebp]
  002d4	50		 push	 eax
  002d5	8b 8d 60 ff ff
	ff		 mov	 ecx, DWORD PTR tv234[ebp]
  002db	8b 11		 mov	 edx, DWORD PTR [ecx]
  002dd	8b 8d 60 ff ff
	ff		 mov	 ecx, DWORD PTR tv234[ebp]
  002e3	8b 82 9c 00 00
	00		 mov	 eax, DWORD PTR [edx+156]
  002e9	ff d0		 call	 eax
  002eb	89 45 a4	 mov	 DWORD PTR _pTableUserItem$1[ebp], eax

; 606  : 			if(pTableUserItem==NULL) continue;

  002ee	83 7d a4 00	 cmp	 DWORD PTR _pTableUserItem$1[ebp], 0
  002f2	75 02		 jne	 SHORT $LN23@SendWaitMe
  002f4	eb a1		 jmp	 SHORT $LN11@SendWaitMe
$LN23@SendWaitMe:

; 607  : 			WaitTip.wCurTableRank=GetUserRank(pTableUserItem,m_MatchTableArray[i]->pTableFrame);

  002f6	0f b7 45 ac	 movzx	 eax, WORD PTR _i$3[ebp]
  002fa	50		 push	 eax
  002fb	8b 4d f8	 mov	 ecx, DWORD PTR _this$[ebp]
  002fe	83 c1 68	 add	 ecx, 104		; 00000068H
  00301	e8 00 00 00 00	 call	 ??A?$CWHArray@PAUtagTableFrameInfo@@ABQAU1@@@QAEAAPAUtagTableFrameInfo@@H@Z ; CWHArray<tagTableFrameInfo *,tagTableFrameInfo * const &>::operator[]
  00306	8b 08		 mov	 ecx, DWORD PTR [eax]
  00308	8b 11		 mov	 edx, DWORD PTR [ecx]
  0030a	52		 push	 edx
  0030b	8b 45 a4	 mov	 eax, DWORD PTR _pTableUserItem$1[ebp]
  0030e	50		 push	 eax
  0030f	8b 4d f8	 mov	 ecx, DWORD PTR _this$[ebp]
  00312	e8 00 00 00 00	 call	 ?GetUserRank@CImmediateGroup@@IAEGPAUIServerUserItem@@PAUITableFrame@@@Z ; CImmediateGroup::GetUserRank
  00317	66 89 45 c2	 mov	 WORD PTR _WaitTip$[ebp+10], ax

; 608  : 			if(WaitTip.wCurTableRank==INVALID_WORD) continue;

  0031b	0f b7 45 c2	 movzx	 eax, WORD PTR _WaitTip$[ebp+10]
  0031f	3d ff ff 00 00	 cmp	 eax, 65535		; 0000ffffH
  00324	75 05		 jne	 SHORT $LN24@SendWaitMe
  00326	e9 6c ff ff ff	 jmp	 $LN11@SendWaitMe
$LN24@SendWaitMe:

; 609  : 
; 610  : 			WaitTip.wRank=GetUserRank(pTableUserItem);

  0032b	6a 00		 push	 0
  0032d	8b 45 a4	 mov	 eax, DWORD PTR _pTableUserItem$1[ebp]
  00330	50		 push	 eax
  00331	8b 4d f8	 mov	 ecx, DWORD PTR _this$[ebp]
  00334	e8 00 00 00 00	 call	 ?GetUserRank@CImmediateGroup@@IAEGPAUIServerUserItem@@PAUITableFrame@@@Z ; CImmediateGroup::GetUserRank
  00339	66 89 45 c0	 mov	 WORD PTR _WaitTip$[ebp+8], ax

; 611  : 			WaitTip.lScore=pTableUserItem->GetUserScore();

  0033d	8b 45 a4	 mov	 eax, DWORD PTR _pTableUserItem$1[ebp]
  00340	8b 10		 mov	 edx, DWORD PTR [eax]
  00342	8b 4d a4	 mov	 ecx, DWORD PTR _pTableUserItem$1[ebp]
  00345	8b 82 88 00 00
	00		 mov	 eax, DWORD PTR [edx+136]
  0034b	ff d0		 call	 eax
  0034d	89 45 b8	 mov	 DWORD PTR _WaitTip$[ebp], eax
  00350	89 55 bc	 mov	 DWORD PTR _WaitTip$[ebp+4], edx

; 612  : 
; 613  : 			m_pMatchSink->SendData(pTableUserItem,MDM_GF_FRAME,SUB_GR_MATCH_WAIT_TIP,&WaitTip,sizeof(WaitTip));

  00353	6a 34		 push	 52			; 00000034H
  00355	8d 45 b8	 lea	 eax, DWORD PTR _WaitTip$[ebp]
  00358	50		 push	 eax
  00359	6a 08		 push	 8
  0035b	6a 64		 push	 100			; 00000064H
  0035d	8b 4d a4	 mov	 ecx, DWORD PTR _pTableUserItem$1[ebp]
  00360	51		 push	 ecx
  00361	8b 55 f8	 mov	 edx, DWORD PTR _this$[ebp]
  00364	8b 42 2c	 mov	 eax, DWORD PTR [edx+44]
  00367	8b 4d f8	 mov	 ecx, DWORD PTR _this$[ebp]
  0036a	8b 10		 mov	 edx, DWORD PTR [eax]
  0036c	8b 49 2c	 mov	 ecx, DWORD PTR [ecx+44]
  0036f	8b 42 2c	 mov	 eax, DWORD PTR [edx+44]
  00372	ff d0		 call	 eax

; 614  : 		}

  00374	e9 1e ff ff ff	 jmp	 $LN11@SendWaitMe
$LN12@SendWaitMe:

; 615  : 	}

  00379	e9 6e fe ff ff	 jmp	 $LN8@SendWaitMe
$LN1@SendWaitMe:

; 616  : }

  0037e	5f		 pop	 edi
  0037f	5e		 pop	 esi
  00380	5b		 pop	 ebx
  00381	8b 4d fc	 mov	 ecx, DWORD PTR __$ArrayPad$[ebp]
  00384	33 cd		 xor	 ecx, ebp
  00386	e8 00 00 00 00	 call	 @__security_check_cookie@4
  0038b	8b e5		 mov	 esp, ebp
  0038d	5d		 pop	 ebp
  0038e	c2 08 00	 ret	 8
?SendWaitMessage@CImmediateGroup@@IAEXPAUITableFrame@@G@Z ENDP ; CImmediateGroup::SendWaitMessage
_TEXT	ENDS
; Function compile flags: /Odtp /ZI
; File g:\网狐\happygamewh\服务端\系统模块\服务器组件\比赛服务\immediategroup.cpp
;	COMDAT ?SendTableMatchInfo@CImmediateGroup@@IAEXPAUITableFrame@@G@Z
_TEXT	SEGMENT
_pIServerUserItem$1 = -540				; size = 4
_i$2 = -536						; size = 2
_MatchInfo$3 = -532					; size = 258
_szMsg$ = -272						; size = 256
_wChairCount$ = -16					; size = 2
_pTableFrameInfo$ = -12					; size = 4
_this$ = -8						; size = 4
__$ArrayPad$ = -4					; size = 4
_pITableFrame$ = 8					; size = 4
_wChairID$ = 12						; size = 2
?SendTableMatchInfo@CImmediateGroup@@IAEXPAUITableFrame@@G@Z PROC ; CImmediateGroup::SendTableMatchInfo, COMDAT
; _this$ = ecx

; 904  : {

  00000	55		 push	 ebp
  00001	8b ec		 mov	 ebp, esp
  00003	81 ec 9c 02 00
	00		 sub	 esp, 668		; 0000029cH
  00009	a1 00 00 00 00	 mov	 eax, DWORD PTR ___security_cookie
  0000e	33 c5		 xor	 eax, ebp
  00010	89 45 fc	 mov	 DWORD PTR __$ArrayPad$[ebp], eax
  00013	53		 push	 ebx
  00014	56		 push	 esi
  00015	57		 push	 edi
  00016	89 4d f8	 mov	 DWORD PTR _this$[ebp], ecx

; 905  : 	//验证参数
; 906  : 	ASSERT(pITableFrame!=NULL);

  00019	83 7d 08 00	 cmp	 DWORD PTR _pITableFrame$[ebp], 0
  0001d	75 18		 jne	 SHORT $LN12@SendTableM
  0001f	a1 00 00 00 00	 mov	 eax, DWORD PTR ?__LINE__Var@?0??SendTableMatchInfo@CImmediateGroup@@IAEXPAUITableFrame@@G@Z@4JA
  00024	83 c0 02	 add	 eax, 2
  00027	50		 push	 eax
  00028	68 00 00 00 00	 push	 OFFSET ??_C@_0EL@ONMMFGFJ@g?3?2?M?x?$LK?$PM?2happygamewh?2?$LH?$PO?N?q?$LG?K?2?O?$LF?M?$LD@
  0002d	e8 00 00 00 00	 call	 ?AfxAssertFailedLine@@YGHPBDH@Z ; AfxAssertFailedLine
  00032	85 c0		 test	 eax, eax
  00034	74 01		 je	 SHORT $LN12@SendTableM
  00036	cc		 int	 3
$LN12@SendTableM:

; 907  : 	if (pITableFrame==NULL) return;

  00037	83 7d 08 00	 cmp	 DWORD PTR _pITableFrame$[ebp], 0
  0003b	75 05		 jne	 SHORT $LN5@SendTableM
  0003d	e9 d7 01 00 00	 jmp	 $LN1@SendTableM
$LN5@SendTableM:

; 908  : 
; 909  : 	tagTableFrameInfo *pTableFrameInfo=GetTableInterface(pITableFrame);

  00042	8b 45 08	 mov	 eax, DWORD PTR _pITableFrame$[ebp]
  00045	50		 push	 eax
  00046	8b 4d f8	 mov	 ecx, DWORD PTR _this$[ebp]
  00049	e8 00 00 00 00	 call	 ?GetTableInterface@CImmediateGroup@@IAEPAUtagTableFrameInfo@@PAUITableFrame@@@Z ; CImmediateGroup::GetTableInterface
  0004e	89 45 f4	 mov	 DWORD PTR _pTableFrameInfo$[ebp], eax

; 910  : 	if (pTableFrameInfo==NULL) return;

  00051	83 7d f4 00	 cmp	 DWORD PTR _pTableFrameInfo$[ebp], 0
  00055	75 05		 jne	 SHORT $LN6@SendTableM
  00057	e9 bd 01 00 00	 jmp	 $LN1@SendTableM
$LN6@SendTableM:

; 911  : 
; 912  : 	//变量定义
; 913  : 	WORD wChairCount=pITableFrame->GetChairCount();

  0005c	8b 45 08	 mov	 eax, DWORD PTR _pITableFrame$[ebp]
  0005f	8b 10		 mov	 edx, DWORD PTR [eax]
  00061	8b 4d 08	 mov	 ecx, DWORD PTR _pITableFrame$[ebp]
  00064	8b 42 0c	 mov	 eax, DWORD PTR [edx+12]
  00067	ff d0		 call	 eax
  00069	66 89 45 f0	 mov	 WORD PTR _wChairCount$[ebp], ax

; 914  : 	TCHAR szMsg[256]=TEXT("");

  0006d	a0 00 00 00 00	 mov	 al, BYTE PTR ??_C@_00CNPNBAHC@@
  00072	88 85 f0 fe ff
	ff		 mov	 BYTE PTR _szMsg$[ebp], al
  00078	68 ff 00 00 00	 push	 255			; 000000ffH
  0007d	6a 00		 push	 0
  0007f	8d 85 f1 fe ff
	ff		 lea	 eax, DWORD PTR _szMsg$[ebp+1]
  00085	50		 push	 eax
  00086	e8 00 00 00 00	 call	 _memset
  0008b	83 c4 0c	 add	 esp, 12			; 0000000cH

; 915  : 
; 916  : 	if(m_cbMatchStatus==MatchStatus_Playing)

  0008e	8b 45 f8	 mov	 eax, DWORD PTR _this$[ebp]
  00091	0f b6 48 18	 movzx	 ecx, BYTE PTR [eax+24]
  00095	83 f9 03	 cmp	 ecx, 3
  00098	0f 85 7b 01 00
	00		 jne	 $LN1@SendTableM

; 917  : 	{
; 918  : 		//构造数据
; 919  : 		CMD_GR_Match_Info MatchInfo;
; 920  : 		ZeroMemory(&MatchInfo,sizeof(MatchInfo));

  0009e	68 02 01 00 00	 push	 258			; 00000102H
  000a3	6a 00		 push	 0
  000a5	8d 85 ec fd ff
	ff		 lea	 eax, DWORD PTR _MatchInfo$3[ebp]
  000ab	50		 push	 eax
  000ac	e8 00 00 00 00	 call	 _memset
  000b1	83 c4 0c	 add	 esp, 12			; 0000000cH

; 921  : 		_sntprintf_s(MatchInfo.szTitle[0], CountArray(MatchInfo.szTitle[0]),TEXT("积分方式：累计积分"));

  000b4	68 00 00 00 00	 push	 OFFSET ??_C@_0BD@KNNGNBNI@?$LL?$PN?$LH?V?$LH?$LN?J?$LN?$KD?$LK?$MA?$NL?$LM?F?$LL?$PN?$LH?V@
  000b9	6a 40		 push	 64			; 00000040H
  000bb	b8 40 00 00 00	 mov	 eax, 64			; 00000040H
  000c0	6b c8 00	 imul	 ecx, eax, 0
  000c3	8d 94 0d ec fd
	ff ff		 lea	 edx, DWORD PTR _MatchInfo$3[ebp+ecx]
  000ca	52		 push	 edx
  000cb	e8 00 00 00 00	 call	 ??$_snprintf_s@$0EA@@@YAHAAY0EA@DIPBDZZ ; _snprintf_s<64>
  000d0	83 c4 0c	 add	 esp, 12			; 0000000cH

; 922  : 		_sntprintf_s(MatchInfo.szTitle[1], CountArray(MatchInfo.szTitle[1]),TEXT("游戏基数：%d"), m_lCurBase);

  000d3	8b 45 f8	 mov	 eax, DWORD PTR _this$[ebp]
  000d6	8b 48 0c	 mov	 ecx, DWORD PTR [eax+12]
  000d9	51		 push	 ecx
  000da	8b 50 08	 mov	 edx, DWORD PTR [eax+8]
  000dd	52		 push	 edx
  000de	68 00 00 00 00	 push	 OFFSET ??_C@_0N@JCGEHOBO@?S?N?O?$LH?$LL?y?J?$PN?$KD?$LK?$CFd@
  000e3	6a 40		 push	 64			; 00000040H
  000e5	b8 40 00 00 00	 mov	 eax, 64			; 00000040H
  000ea	c1 e0 00	 shl	 eax, 0
  000ed	8d 8c 05 ec fd
	ff ff		 lea	 ecx, DWORD PTR _MatchInfo$3[ebp+eax]
  000f4	51		 push	 ecx
  000f5	e8 00 00 00 00	 call	 ??$_snprintf_s@$0EA@@@YAHAAY0EA@DIPBDZZ ; _snprintf_s<64>
  000fa	83 c4 14	 add	 esp, 20			; 00000014H

; 923  : 		_sntprintf_s(MatchInfo.szTitle[2], CountArray(MatchInfo.szTitle[2]),TEXT("局制名称：定局排名"));

  000fd	68 00 00 00 00	 push	 OFFSET ??_C@_0BD@EJMLEOOM@?$LO?V?V?F?C?$PL?$LD?F?$KD?$LK?$LG?$KI?$LO?V?E?E?C?$PL@
  00102	6a 40		 push	 64			; 00000040H
  00104	b8 40 00 00 00	 mov	 eax, 64			; 00000040H
  00109	d1 e0		 shl	 eax, 1
  0010b	8d 8c 05 ec fd
	ff ff		 lea	 ecx, DWORD PTR _MatchInfo$3[ebp+eax]
  00112	51		 push	 ecx
  00113	e8 00 00 00 00	 call	 ??$_snprintf_s@$0EA@@@YAHAAY0EA@DIPBDZZ ; _snprintf_s<64>
  00118	83 c4 0c	 add	 esp, 12			; 0000000cH

; 924  : 		_sntprintf_s(MatchInfo.szTitle[3], CountArray(MatchInfo.szTitle[3]),TEXT("需要完成：%d局比赛"), m_pImmediateMatch->wPlayCount);

  0011b	8b 45 f8	 mov	 eax, DWORD PTR _this$[ebp]
  0011e	8b 48 34	 mov	 ecx, DWORD PTR [eax+52]
  00121	0f b7 51 16	 movzx	 edx, WORD PTR [ecx+22]
  00125	52		 push	 edx
  00126	68 00 00 00 00	 push	 OFFSET ??_C@_0BD@DGPONMAO@?P?h?R?$KK?M?j?$LD?I?$KD?$LK?$CFd?$LO?V?$LB?H?H?$PM@
  0012b	6a 40		 push	 64			; 00000040H
  0012d	b8 40 00 00 00	 mov	 eax, 64			; 00000040H
  00132	6b c8 03	 imul	 ecx, eax, 3
  00135	8d 94 0d ec fd
	ff ff		 lea	 edx, DWORD PTR _MatchInfo$3[ebp+ecx]
  0013c	52		 push	 edx
  0013d	e8 00 00 00 00	 call	 ??$_snprintf_s@$0EA@@@YAHAAY0EA@DIPBDZZ ; _snprintf_s<64>
  00142	83 c4 10	 add	 esp, 16			; 00000010H

; 925  : 		MatchInfo.wGameCount=pTableFrameInfo->wPlayCount;

  00145	8b 45 f4	 mov	 eax, DWORD PTR _pTableFrameInfo$[ebp]
  00148	66 8b 48 10	 mov	 cx, WORD PTR [eax+16]
  0014c	66 89 8d ec fe
	ff ff		 mov	 WORD PTR _MatchInfo$3[ebp+256], cx

; 926  : 		
; 927  : 		//wChairID为INVALID_CHAIR发给本桌所有玩家，否则只发给指定玩家
; 928  : 		for(WORD i=0; i<wChairCount; i++)

  00153	33 c0		 xor	 eax, eax
  00155	66 89 85 e8 fd
	ff ff		 mov	 WORD PTR _i$2[ebp], ax
  0015c	eb 12		 jmp	 SHORT $LN4@SendTableM
$LN2@SendTableM:
  0015e	66 8b 85 e8 fd
	ff ff		 mov	 ax, WORD PTR _i$2[ebp]
  00165	66 83 c0 01	 add	 ax, 1
  00169	66 89 85 e8 fd
	ff ff		 mov	 WORD PTR _i$2[ebp], ax
$LN4@SendTableM:
  00170	0f b7 85 e8 fd
	ff ff		 movzx	 eax, WORD PTR _i$2[ebp]
  00177	0f b7 4d f0	 movzx	 ecx, WORD PTR _wChairCount$[ebp]
  0017b	3b c1		 cmp	 eax, ecx
  0017d	7d 72		 jge	 SHORT $LN3@SendTableM

; 929  : 		{
; 930  : 			//获取用户
; 931  : 			if(wChairID!=INVALID_CHAIR && wChairID!=i) continue;

  0017f	0f b7 45 0c	 movzx	 eax, WORD PTR _wChairID$[ebp]
  00183	3d ff ff 00 00	 cmp	 eax, 65535		; 0000ffffH
  00188	74 11		 je	 SHORT $LN8@SendTableM
  0018a	0f b7 45 0c	 movzx	 eax, WORD PTR _wChairID$[ebp]
  0018e	0f b7 8d e8 fd
	ff ff		 movzx	 ecx, WORD PTR _i$2[ebp]
  00195	3b c1		 cmp	 eax, ecx
  00197	74 02		 je	 SHORT $LN8@SendTableM
  00199	eb c3		 jmp	 SHORT $LN2@SendTableM
$LN8@SendTableM:

; 932  : 			IServerUserItem *pIServerUserItem=pITableFrame->GetTableUserItem(i);

  0019b	0f b7 85 e8 fd
	ff ff		 movzx	 eax, WORD PTR _i$2[ebp]
  001a2	50		 push	 eax
  001a3	8b 4d 08	 mov	 ecx, DWORD PTR _pITableFrame$[ebp]
  001a6	8b 11		 mov	 edx, DWORD PTR [ecx]
  001a8	8b 4d 08	 mov	 ecx, DWORD PTR _pITableFrame$[ebp]
  001ab	8b 82 9c 00 00
	00		 mov	 eax, DWORD PTR [edx+156]
  001b1	ff d0		 call	 eax
  001b3	89 85 e4 fd ff
	ff		 mov	 DWORD PTR _pIServerUserItem$1[ebp], eax

; 933  : 			if(pIServerUserItem==NULL) continue;

  001b9	83 bd e4 fd ff
	ff 00		 cmp	 DWORD PTR _pIServerUserItem$1[ebp], 0
  001c0	75 02		 jne	 SHORT $LN9@SendTableM
  001c2	eb 9a		 jmp	 SHORT $LN2@SendTableM
$LN9@SendTableM:

; 934  : 
; 935  : 			//发送数据
; 936  : 			pITableFrame->SendTableData(i, SUB_GR_MATCH_INFO, &MatchInfo, sizeof(MatchInfo), MDM_GF_FRAME);

  001c4	6a 64		 push	 100			; 00000064H
  001c6	68 02 01 00 00	 push	 258			; 00000102H
  001cb	8d 85 ec fd ff
	ff		 lea	 eax, DWORD PTR _MatchInfo$3[ebp]
  001d1	50		 push	 eax
  001d2	6a 01		 push	 1
  001d4	0f b7 8d e8 fd
	ff ff		 movzx	 ecx, WORD PTR _i$2[ebp]
  001db	51		 push	 ecx
  001dc	8b 55 08	 mov	 edx, DWORD PTR _pITableFrame$[ebp]
  001df	8b 02		 mov	 eax, DWORD PTR [edx]
  001e1	8b 4d 08	 mov	 ecx, DWORD PTR _pITableFrame$[ebp]
  001e4	8b 90 ac 00 00
	00		 mov	 edx, DWORD PTR [eax+172]
  001ea	ff d2		 call	 edx

; 937  : 		}

  001ec	e9 6d ff ff ff	 jmp	 $LN2@SendTableM
$LN3@SendTableM:

; 938  : 
; 939  : 		//发送提示
; 940  : 		if ((wChairID!=INVALID_CHAIR) && (pTableFrameInfo->bWaitForNextInnings==true))

  001f1	0f b7 45 0c	 movzx	 eax, WORD PTR _wChairID$[ebp]
  001f5	3d ff ff 00 00	 cmp	 eax, 65535		; 0000ffffH
  001fa	74 1d		 je	 SHORT $LN1@SendTableM
  001fc	8b 45 f4	 mov	 eax, DWORD PTR _pTableFrameInfo$[ebp]
  001ff	0f b6 48 14	 movzx	 ecx, BYTE PTR [eax+20]
  00203	83 f9 01	 cmp	 ecx, 1
  00206	75 11		 jne	 SHORT $LN1@SendTableM

; 941  : 		{
; 942  : 			SendWaitMessage(pITableFrame,wChairID);

  00208	0f b7 45 0c	 movzx	 eax, WORD PTR _wChairID$[ebp]
  0020c	50		 push	 eax
  0020d	8b 4d 08	 mov	 ecx, DWORD PTR _pITableFrame$[ebp]
  00210	51		 push	 ecx
  00211	8b 4d f8	 mov	 ecx, DWORD PTR _this$[ebp]
  00214	e8 00 00 00 00	 call	 ?SendWaitMessage@CImmediateGroup@@IAEXPAUITableFrame@@G@Z ; CImmediateGroup::SendWaitMessage
$LN1@SendTableM:

; 943  : 		}
; 944  : 	}
; 945  : 
; 946  : 	return;
; 947  : }

  00219	5f		 pop	 edi
  0021a	5e		 pop	 esi
  0021b	5b		 pop	 ebx
  0021c	8b 4d fc	 mov	 ecx, DWORD PTR __$ArrayPad$[ebp]
  0021f	33 cd		 xor	 ecx, ebp
  00221	e8 00 00 00 00	 call	 @__security_check_cookie@4
  00226	8b e5		 mov	 esp, ebp
  00228	5d		 pop	 ebp
  00229	c2 08 00	 ret	 8
?SendTableMatchInfo@CImmediateGroup@@IAEXPAUITableFrame@@G@Z ENDP ; CImmediateGroup::SendTableMatchInfo
_TEXT	ENDS
; Function compile flags: /Odtp /ZI
; File g:\网狐\happygamewh\服务端\系统模块\服务器组件\比赛服务\immediategroup.cpp
;	COMDAT ?SendGroupMessage@CImmediateGroup@@IAEXPBD@Z
_TEXT	SEGMENT
_wSendSize$ = -1040					; size = 2
_Message$ = -1036					; size = 1028
_this$ = -8						; size = 4
__$ArrayPad$ = -4					; size = 4
_pStrMessage$ = 8					; size = 4
?SendGroupMessage@CImmediateGroup@@IAEXPBD@Z PROC	; CImmediateGroup::SendGroupMessage, COMDAT
; _this$ = ecx

; 704  : {

  00000	55		 push	 ebp
  00001	8b ec		 mov	 ebp, esp
  00003	81 ec d0 04 00
	00		 sub	 esp, 1232		; 000004d0H
  00009	a1 00 00 00 00	 mov	 eax, DWORD PTR ___security_cookie
  0000e	33 c5		 xor	 eax, ebp
  00010	89 45 fc	 mov	 DWORD PTR __$ArrayPad$[ebp], eax
  00013	53		 push	 ebx
  00014	56		 push	 esi
  00015	57		 push	 edi
  00016	89 4d f8	 mov	 DWORD PTR _this$[ebp], ecx

; 705  : 	//构造数据包
; 706  : 	CMD_CM_SystemMessage Message;
; 707  : 	Message.wType=SMT_EJECT|SMT_CHAT;

  00019	b8 03 00 00 00	 mov	 eax, 3
  0001e	66 89 85 f4 fb
	ff ff		 mov	 WORD PTR _Message$[ebp], ax

; 708  : 	lstrcpyn(Message.szString,pStrMessage,CountArray(Message.szString));

  00025	68 00 04 00 00	 push	 1024			; 00000400H
  0002a	8b 45 08	 mov	 eax, DWORD PTR _pStrMessage$[ebp]
  0002d	50		 push	 eax
  0002e	8d 8d f8 fb ff
	ff		 lea	 ecx, DWORD PTR _Message$[ebp+4]
  00034	51		 push	 ecx
  00035	ff 15 00 00 00
	00		 call	 DWORD PTR __imp__lstrcpynA@12

; 709  : 	Message.wLength=CountStringBuffer(Message.szString);

  0003b	8d 85 f8 fb ff
	ff		 lea	 eax, DWORD PTR _Message$[ebp+4]
  00041	50		 push	 eax
  00042	ff 15 00 00 00
	00		 call	 DWORD PTR __imp__lstrlenA@4
  00048	83 c0 01	 add	 eax, 1
  0004b	66 89 85 f6 fb
	ff ff		 mov	 WORD PTR _Message$[ebp+2], ax

; 710  : 
; 711  :     //发送数据
; 712  : 	WORD wSendSize=sizeof(Message)-sizeof(Message.szString)+Message.wLength*sizeof(TCHAR);

  00052	0f b7 85 f6 fb
	ff ff		 movzx	 eax, WORD PTR _Message$[ebp+2]
  00059	83 c0 04	 add	 eax, 4
  0005c	66 89 85 f0 fb
	ff ff		 mov	 WORD PTR _wSendSize$[ebp], ax

; 713  : 	m_pMatchSink->SendGroupData(MDM_CM_SYSTEM,SUB_CM_SYSTEM_MESSAGE,&Message,wSendSize, this);

  00063	8b 45 f8	 mov	 eax, DWORD PTR _this$[ebp]
  00066	50		 push	 eax
  00067	0f b7 8d f0 fb
	ff ff		 movzx	 ecx, WORD PTR _wSendSize$[ebp]
  0006e	51		 push	 ecx
  0006f	8d 95 f4 fb ff
	ff		 lea	 edx, DWORD PTR _Message$[ebp]
  00075	52		 push	 edx
  00076	6a 01		 push	 1
  00078	68 e8 03 00 00	 push	 1000			; 000003e8H
  0007d	8b 45 f8	 mov	 eax, DWORD PTR _this$[ebp]
  00080	8b 48 2c	 mov	 ecx, DWORD PTR [eax+44]
  00083	8b 55 f8	 mov	 edx, DWORD PTR _this$[ebp]
  00086	8b 01		 mov	 eax, DWORD PTR [ecx]
  00088	8b 4a 2c	 mov	 ecx, DWORD PTR [edx+44]
  0008b	8b 50 28	 mov	 edx, DWORD PTR [eax+40]
  0008e	ff d2		 call	 edx

; 714  : }

  00090	5f		 pop	 edi
  00091	5e		 pop	 esi
  00092	5b		 pop	 ebx
  00093	8b 4d fc	 mov	 ecx, DWORD PTR __$ArrayPad$[ebp]
  00096	33 cd		 xor	 ecx, ebp
  00098	e8 00 00 00 00	 call	 @__security_check_cookie@4
  0009d	8b e5		 mov	 esp, ebp
  0009f	5d		 pop	 ebp
  000a0	c2 04 00	 ret	 4
?SendGroupMessage@CImmediateGroup@@IAEXPBD@Z ENDP	; CImmediateGroup::SendGroupMessage
_TEXT	ENDS
; Function compile flags: /Odtp /ZI
; File g:\网狐\happygamewh\服务端\系统模块\服务器组件\比赛服务\immediategroup.cpp
;	COMDAT ?GetUserRank@CImmediateGroup@@IAEGPAUIServerUserItem@@PAUITableFrame@@@Z
_TEXT	SEGMENT
tv249 = -104						; size = 8
tv207 = -104						; size = 8
_i$1 = -32						; size = 2
_pos$2 = -28						; size = 4
_pLoopUserItem$ = -24					; size = 4
_dwUserID$ = -20					; size = 4
_wRank$ = -16						; size = 2
_lUserScore$ = -12					; size = 8
_this$ = -4						; size = 4
_pUserServerItem$ = 8					; size = 4
_pITableFrame$ = 12					; size = 4
?GetUserRank@CImmediateGroup@@IAEGPAUIServerUserItem@@PAUITableFrame@@@Z PROC ; CImmediateGroup::GetUserRank, COMDAT
; _this$ = ecx

; 480  : {

  00000	55		 push	 ebp
  00001	8b ec		 mov	 ebp, esp
  00003	83 ec 68	 sub	 esp, 104		; 00000068H
  00006	53		 push	 ebx
  00007	56		 push	 esi
  00008	57		 push	 edi
  00009	89 4d fc	 mov	 DWORD PTR _this$[ebp], ecx

; 481  : 	//参数效验
; 482  : 	ASSERT(pUserServerItem!=NULL);

  0000c	83 7d 08 00	 cmp	 DWORD PTR _pUserServerItem$[ebp], 0
  00010	75 18		 jne	 SHORT $LN15@GetUserRan
  00012	a1 00 00 00 00	 mov	 eax, DWORD PTR ?__LINE__Var@?0??GetUserRank@CImmediateGroup@@IAEGPAUIServerUserItem@@PAUITableFrame@@@Z@4JA
  00017	83 c0 02	 add	 eax, 2
  0001a	50		 push	 eax
  0001b	68 00 00 00 00	 push	 OFFSET ??_C@_0EL@ONMMFGFJ@g?3?2?M?x?$LK?$PM?2happygamewh?2?$LH?$PO?N?q?$LG?K?2?O?$LF?M?$LD@
  00020	e8 00 00 00 00	 call	 ?AfxAssertFailedLine@@YGHPBDH@Z ; AfxAssertFailedLine
  00025	85 c0		 test	 eax, eax
  00027	74 01		 je	 SHORT $LN15@GetUserRan
  00029	cc		 int	 3
$LN15@GetUserRan:

; 483  : 	if(pUserServerItem==NULL) return INVALID_WORD;

  0002a	83 7d 08 00	 cmp	 DWORD PTR _pUserServerItem$[ebp], 0
  0002e	75 0a		 jne	 SHORT $LN7@GetUserRan
  00030	b8 ff ff 00 00	 mov	 eax, 65535		; 0000ffffH
  00035	e9 91 01 00 00	 jmp	 $LN1@GetUserRan
$LN7@GetUserRan:

; 484  : 
; 485  : 	//定义变量
; 486  : 	LONGLONG lUserScore=pUserServerItem->GetUserScore();

  0003a	8b 45 08	 mov	 eax, DWORD PTR _pUserServerItem$[ebp]
  0003d	8b 10		 mov	 edx, DWORD PTR [eax]
  0003f	8b 4d 08	 mov	 ecx, DWORD PTR _pUserServerItem$[ebp]
  00042	8b 82 88 00 00
	00		 mov	 eax, DWORD PTR [edx+136]
  00048	ff d0		 call	 eax
  0004a	89 45 f4	 mov	 DWORD PTR _lUserScore$[ebp], eax
  0004d	89 55 f8	 mov	 DWORD PTR _lUserScore$[ebp+4], edx

; 487  : 	WORD wRank=1;

  00050	b8 01 00 00 00	 mov	 eax, 1
  00055	66 89 45 f0	 mov	 WORD PTR _wRank$[ebp], ax

; 488  : 	DWORD dwUserID=0;

  00059	c7 45 ec 00 00
	00 00		 mov	 DWORD PTR _dwUserID$[ebp], 0

; 489  : 	IServerUserItem *pLoopUserItem=NULL;

  00060	c7 45 e8 00 00
	00 00		 mov	 DWORD PTR _pLoopUserItem$[ebp], 0

; 490  : 
; 491  : 	if(pITableFrame==NULL)

  00067	83 7d 0c 00	 cmp	 DWORD PTR _pITableFrame$[ebp], 0
  0006b	75 6e		 jne	 SHORT $LN8@GetUserRan

; 492  : 	{
; 493  : 		//遍历容器
; 494  : 		POSITION pos=m_OnMatchUserMap.GetStartPosition();

  0006d	8b 4d fc	 mov	 ecx, DWORD PTR _this$[ebp]
  00070	83 c1 38	 add	 ecx, 56			; 00000038H
  00073	e8 00 00 00 00	 call	 ?GetStartPosition@?$CMap@KKPAUIServerUserItem@@PAU1@@@QBEPAU__POSITION@@XZ ; CMap<unsigned long,unsigned long,IServerUserItem *,IServerUserItem *>::GetStartPosition
  00078	89 45 e4	 mov	 DWORD PTR _pos$2[ebp], eax
$LN2@GetUserRan:

; 495  : 		while(pos!=NULL)

  0007b	83 7d e4 00	 cmp	 DWORD PTR _pos$2[ebp], 0
  0007f	74 55		 je	 SHORT $LN3@GetUserRan

; 496  : 		{
; 497  : 			m_OnMatchUserMap.GetNextAssoc(pos,dwUserID, pLoopUserItem);

  00081	8d 45 e8	 lea	 eax, DWORD PTR _pLoopUserItem$[ebp]
  00084	50		 push	 eax
  00085	8d 4d ec	 lea	 ecx, DWORD PTR _dwUserID$[ebp]
  00088	51		 push	 ecx
  00089	8d 55 e4	 lea	 edx, DWORD PTR _pos$2[ebp]
  0008c	52		 push	 edx
  0008d	8b 4d fc	 mov	 ecx, DWORD PTR _this$[ebp]
  00090	83 c1 38	 add	 ecx, 56			; 00000038H
  00093	e8 00 00 00 00	 call	 ?GetNextAssoc@?$CMap@KKPAUIServerUserItem@@PAU1@@@QBEXAAPAU__POSITION@@AAKAAPAUIServerUserItem@@@Z ; CMap<unsigned long,unsigned long,IServerUserItem *,IServerUserItem *>::GetNextAssoc

; 498  : 			if(pLoopUserItem!=pUserServerItem && pLoopUserItem->GetUserScore()>lUserScore)

  00098	8b 45 e8	 mov	 eax, DWORD PTR _pLoopUserItem$[ebp]
  0009b	3b 45 08	 cmp	 eax, DWORD PTR _pUserServerItem$[ebp]
  0009e	74 34		 je	 SHORT $LN10@GetUserRan
  000a0	8b 45 e8	 mov	 eax, DWORD PTR _pLoopUserItem$[ebp]
  000a3	8b 10		 mov	 edx, DWORD PTR [eax]
  000a5	8b 4d e8	 mov	 ecx, DWORD PTR _pLoopUserItem$[ebp]
  000a8	8b 82 88 00 00
	00		 mov	 eax, DWORD PTR [edx+136]
  000ae	ff d0		 call	 eax
  000b0	89 45 98	 mov	 DWORD PTR tv207[ebp], eax
  000b3	89 55 9c	 mov	 DWORD PTR tv207[ebp+4], edx
  000b6	8b 4d 9c	 mov	 ecx, DWORD PTR tv207[ebp+4]
  000b9	3b 4d f8	 cmp	 ecx, DWORD PTR _lUserScore$[ebp+4]
  000bc	7c 16		 jl	 SHORT $LN10@GetUserRan
  000be	7f 08		 jg	 SHORT $LN17@GetUserRan
  000c0	8b 55 98	 mov	 edx, DWORD PTR tv207[ebp]
  000c3	3b 55 f4	 cmp	 edx, DWORD PTR _lUserScore$[ebp]
  000c6	76 0c		 jbe	 SHORT $LN10@GetUserRan
$LN17@GetUserRan:

; 499  : 				wRank++;

  000c8	66 8b 45 f0	 mov	 ax, WORD PTR _wRank$[ebp]
  000cc	66 83 c0 01	 add	 ax, 1
  000d0	66 89 45 f0	 mov	 WORD PTR _wRank$[ebp], ax
$LN10@GetUserRan:

; 500  : 		}

  000d4	eb a5		 jmp	 SHORT $LN2@GetUserRan
$LN3@GetUserRan:

; 501  : 	}
; 502  : 	else

  000d6	e9 ec 00 00 00	 jmp	 $LN9@GetUserRan
$LN8@GetUserRan:

; 503  : 	{
; 504  : 		ASSERT(pUserServerItem->GetTableID()==pITableFrame->GetTableID());

  000db	8b 45 08	 mov	 eax, DWORD PTR _pUserServerItem$[ebp]
  000de	8b 10		 mov	 edx, DWORD PTR [eax]
  000e0	8b 4d 08	 mov	 ecx, DWORD PTR _pUserServerItem$[ebp]
  000e3	8b 42 68	 mov	 eax, DWORD PTR [edx+104]
  000e6	ff d0		 call	 eax
  000e8	0f b7 f0	 movzx	 esi, ax
  000eb	8b 4d 0c	 mov	 ecx, DWORD PTR _pITableFrame$[ebp]
  000ee	8b 11		 mov	 edx, DWORD PTR [ecx]
  000f0	8b 4d 0c	 mov	 ecx, DWORD PTR _pITableFrame$[ebp]
  000f3	8b 42 08	 mov	 eax, DWORD PTR [edx+8]
  000f6	ff d0		 call	 eax
  000f8	0f b7 c8	 movzx	 ecx, ax
  000fb	3b f1		 cmp	 esi, ecx
  000fd	74 19		 je	 SHORT $LN16@GetUserRan
  000ff	8b 15 00 00 00
	00		 mov	 edx, DWORD PTR ?__LINE__Var@?0??GetUserRank@CImmediateGroup@@IAEGPAUIServerUserItem@@PAUITableFrame@@@Z@4JA
  00105	83 c2 18	 add	 edx, 24			; 00000018H
  00108	52		 push	 edx
  00109	68 00 00 00 00	 push	 OFFSET ??_C@_0EL@ONMMFGFJ@g?3?2?M?x?$LK?$PM?2happygamewh?2?$LH?$PO?N?q?$LG?K?2?O?$LF?M?$LD@
  0010e	e8 00 00 00 00	 call	 ?AfxAssertFailedLine@@YGHPBDH@Z ; AfxAssertFailedLine
  00113	85 c0		 test	 eax, eax
  00115	74 01		 je	 SHORT $LN16@GetUserRan
  00117	cc		 int	 3
$LN16@GetUserRan:

; 505  : 		if(pUserServerItem->GetTableID()!=pITableFrame->GetTableID()) return INVALID_WORD;

  00118	8b 45 08	 mov	 eax, DWORD PTR _pUserServerItem$[ebp]
  0011b	8b 10		 mov	 edx, DWORD PTR [eax]
  0011d	8b 4d 08	 mov	 ecx, DWORD PTR _pUserServerItem$[ebp]
  00120	8b 42 68	 mov	 eax, DWORD PTR [edx+104]
  00123	ff d0		 call	 eax
  00125	0f b7 f0	 movzx	 esi, ax
  00128	8b 4d 0c	 mov	 ecx, DWORD PTR _pITableFrame$[ebp]
  0012b	8b 11		 mov	 edx, DWORD PTR [ecx]
  0012d	8b 4d 0c	 mov	 ecx, DWORD PTR _pITableFrame$[ebp]
  00130	8b 42 08	 mov	 eax, DWORD PTR [edx+8]
  00133	ff d0		 call	 eax
  00135	0f b7 c8	 movzx	 ecx, ax
  00138	3b f1		 cmp	 esi, ecx
  0013a	74 0a		 je	 SHORT $LN11@GetUserRan
  0013c	b8 ff ff 00 00	 mov	 eax, 65535		; 0000ffffH
  00141	e9 85 00 00 00	 jmp	 $LN1@GetUserRan
$LN11@GetUserRan:

; 506  : 
; 507  : 		for(WORD i=0; i<m_wChairCount; i++)

  00146	33 c0		 xor	 eax, eax
  00148	66 89 45 e0	 mov	 WORD PTR _i$1[ebp], ax
  0014c	eb 0c		 jmp	 SHORT $LN6@GetUserRan
$LN4@GetUserRan:
  0014e	66 8b 45 e0	 mov	 ax, WORD PTR _i$1[ebp]
  00152	66 83 c0 01	 add	 ax, 1
  00156	66 89 45 e0	 mov	 WORD PTR _i$1[ebp], ax
$LN6@GetUserRan:
  0015a	0f b7 45 e0	 movzx	 eax, WORD PTR _i$1[ebp]
  0015e	0f b7 0d 00 00
	00 00		 movzx	 ecx, WORD PTR ?m_wChairCount@CImmediateGroup@@1GA ; CImmediateGroup::m_wChairCount
  00165	3b c1		 cmp	 eax, ecx
  00167	7d 5e		 jge	 SHORT $LN9@GetUserRan

; 508  : 		{
; 509  : 			pLoopUserItem=pITableFrame->GetTableUserItem(i);

  00169	0f b7 45 e0	 movzx	 eax, WORD PTR _i$1[ebp]
  0016d	50		 push	 eax
  0016e	8b 4d 0c	 mov	 ecx, DWORD PTR _pITableFrame$[ebp]
  00171	8b 11		 mov	 edx, DWORD PTR [ecx]
  00173	8b 4d 0c	 mov	 ecx, DWORD PTR _pITableFrame$[ebp]
  00176	8b 82 9c 00 00
	00		 mov	 eax, DWORD PTR [edx+156]
  0017c	ff d0		 call	 eax
  0017e	89 45 e8	 mov	 DWORD PTR _pLoopUserItem$[ebp], eax

; 510  : 			if(pLoopUserItem==NULL) continue;

  00181	83 7d e8 00	 cmp	 DWORD PTR _pLoopUserItem$[ebp], 0
  00185	75 02		 jne	 SHORT $LN12@GetUserRan
  00187	eb c5		 jmp	 SHORT $LN4@GetUserRan
$LN12@GetUserRan:

; 511  : 
; 512  : 			if(pLoopUserItem!=pUserServerItem && pLoopUserItem->GetUserScore()>lUserScore)

  00189	8b 45 e8	 mov	 eax, DWORD PTR _pLoopUserItem$[ebp]
  0018c	3b 45 08	 cmp	 eax, DWORD PTR _pUserServerItem$[ebp]
  0018f	74 34		 je	 SHORT $LN13@GetUserRan
  00191	8b 45 e8	 mov	 eax, DWORD PTR _pLoopUserItem$[ebp]
  00194	8b 10		 mov	 edx, DWORD PTR [eax]
  00196	8b 4d e8	 mov	 ecx, DWORD PTR _pLoopUserItem$[ebp]
  00199	8b 82 88 00 00
	00		 mov	 eax, DWORD PTR [edx+136]
  0019f	ff d0		 call	 eax
  001a1	89 45 98	 mov	 DWORD PTR tv249[ebp], eax
  001a4	89 55 9c	 mov	 DWORD PTR tv249[ebp+4], edx
  001a7	8b 4d 9c	 mov	 ecx, DWORD PTR tv249[ebp+4]
  001aa	3b 4d f8	 cmp	 ecx, DWORD PTR _lUserScore$[ebp+4]
  001ad	7c 16		 jl	 SHORT $LN13@GetUserRan
  001af	7f 08		 jg	 SHORT $LN18@GetUserRan
  001b1	8b 55 98	 mov	 edx, DWORD PTR tv249[ebp]
  001b4	3b 55 f4	 cmp	 edx, DWORD PTR _lUserScore$[ebp]
  001b7	76 0c		 jbe	 SHORT $LN13@GetUserRan
$LN18@GetUserRan:

; 513  : 				wRank++;

  001b9	66 8b 45 f0	 mov	 ax, WORD PTR _wRank$[ebp]
  001bd	66 83 c0 01	 add	 ax, 1
  001c1	66 89 45 f0	 mov	 WORD PTR _wRank$[ebp], ax
$LN13@GetUserRan:

; 514  : 		}

  001c5	eb 87		 jmp	 SHORT $LN4@GetUserRan
$LN9@GetUserRan:

; 515  : 	}
; 516  : 
; 517  : 	return wRank;

  001c7	66 8b 45 f0	 mov	 ax, WORD PTR _wRank$[ebp]
$LN1@GetUserRan:

; 518  : }

  001cb	5f		 pop	 edi
  001cc	5e		 pop	 esi
  001cd	5b		 pop	 ebx
  001ce	8b e5		 mov	 esp, ebp
  001d0	5d		 pop	 ebp
  001d1	c2 08 00	 ret	 8
?GetUserRank@CImmediateGroup@@IAEGPAUIServerUserItem@@PAUITableFrame@@@Z ENDP ; CImmediateGroup::GetUserRank
_TEXT	ENDS
; Function compile flags: /Odtp /ZI
; File g:\网狐\happygamewh\服务端\系统模块\服务器组件\比赛服务\immediategroup.cpp
;	COMDAT ?GetTableInterface@CImmediateGroup@@IAEPAUtagTableFrameInfo@@PAUITableFrame@@@Z
_TEXT	SEGMENT
_i$1 = -8						; size = 4
_this$ = -4						; size = 4
_pITableFrame$ = 8					; size = 4
?GetTableInterface@CImmediateGroup@@IAEPAUtagTableFrameInfo@@PAUITableFrame@@@Z PROC ; CImmediateGroup::GetTableInterface, COMDAT
; _this$ = ecx

; 522  : {

  00000	55		 push	 ebp
  00001	8b ec		 mov	 ebp, esp
  00003	83 ec 48	 sub	 esp, 72			; 00000048H
  00006	53		 push	 ebx
  00007	56		 push	 esi
  00008	57		 push	 edi
  00009	89 4d fc	 mov	 DWORD PTR _this$[ebp], ecx

; 523  : 	for (int i=0;i<m_MatchTableArray.GetCount();i++)

  0000c	c7 45 f8 00 00
	00 00		 mov	 DWORD PTR _i$1[ebp], 0
  00013	eb 09		 jmp	 SHORT $LN4@GetTableIn
$LN2@GetTableIn:
  00015	8b 45 f8	 mov	 eax, DWORD PTR _i$1[ebp]
  00018	83 c0 01	 add	 eax, 1
  0001b	89 45 f8	 mov	 DWORD PTR _i$1[ebp], eax
$LN4@GetTableIn:
  0001e	8b 4d fc	 mov	 ecx, DWORD PTR _this$[ebp]
  00021	83 c1 68	 add	 ecx, 104		; 00000068H
  00024	e8 00 00 00 00	 call	 ?GetCount@?$CWHArray@PAUtagTableFrameInfo@@ABQAU1@@@QBEHXZ ; CWHArray<tagTableFrameInfo *,tagTableFrameInfo * const &>::GetCount
  00029	39 45 f8	 cmp	 DWORD PTR _i$1[ebp], eax
  0002c	7d 2d		 jge	 SHORT $LN3@GetTableIn

; 524  : 	{
; 525  : 		if (m_MatchTableArray[i]->pTableFrame==pITableFrame) return m_MatchTableArray[i];

  0002e	8b 45 f8	 mov	 eax, DWORD PTR _i$1[ebp]
  00031	50		 push	 eax
  00032	8b 4d fc	 mov	 ecx, DWORD PTR _this$[ebp]
  00035	83 c1 68	 add	 ecx, 104		; 00000068H
  00038	e8 00 00 00 00	 call	 ??A?$CWHArray@PAUtagTableFrameInfo@@ABQAU1@@@QAEAAPAUtagTableFrameInfo@@H@Z ; CWHArray<tagTableFrameInfo *,tagTableFrameInfo * const &>::operator[]
  0003d	8b 08		 mov	 ecx, DWORD PTR [eax]
  0003f	8b 11		 mov	 edx, DWORD PTR [ecx]
  00041	3b 55 08	 cmp	 edx, DWORD PTR _pITableFrame$[ebp]
  00044	75 13		 jne	 SHORT $LN5@GetTableIn
  00046	8b 45 f8	 mov	 eax, DWORD PTR _i$1[ebp]
  00049	50		 push	 eax
  0004a	8b 4d fc	 mov	 ecx, DWORD PTR _this$[ebp]
  0004d	83 c1 68	 add	 ecx, 104		; 00000068H
  00050	e8 00 00 00 00	 call	 ??A?$CWHArray@PAUtagTableFrameInfo@@ABQAU1@@@QAEAAPAUtagTableFrameInfo@@H@Z ; CWHArray<tagTableFrameInfo *,tagTableFrameInfo * const &>::operator[]
  00055	8b 00		 mov	 eax, DWORD PTR [eax]
  00057	eb 04		 jmp	 SHORT $LN1@GetTableIn
$LN5@GetTableIn:

; 526  : 	}

  00059	eb ba		 jmp	 SHORT $LN2@GetTableIn
$LN3@GetTableIn:

; 527  : 
; 528  : 	return NULL;

  0005b	33 c0		 xor	 eax, eax
$LN1@GetTableIn:

; 529  : }

  0005d	5f		 pop	 edi
  0005e	5e		 pop	 esi
  0005f	5b		 pop	 ebx
  00060	8b e5		 mov	 esp, ebp
  00062	5d		 pop	 ebp
  00063	c2 04 00	 ret	 4
?GetTableInterface@CImmediateGroup@@IAEPAUtagTableFrameInfo@@PAUITableFrame@@@Z ENDP ; CImmediateGroup::GetTableInterface
_TEXT	ENDS
; Function compile flags: /Odtp /ZI
; File g:\网狐\happygamewh\服务端\系统模块\服务器组件\比赛服务\immediategroup.cpp
;	COMDAT ?SortMapUser@CImmediateGroup@@IAEGQAUtagMatchScore@@@Z
_TEXT	SEGMENT
tv229 = -136						; size = 4
tv228 = -132						; size = 4
tv227 = -128						; size = 4
tv226 = -124						; size = 4
_j$1 = -56						; size = 4
_mid$2 = -52						; size = 4
_Temp$3 = -48						; size = 24
_right$4 = -24						; size = 4
_left$5 = -20						; size = 4
_i$6 = -16						; size = 4
_pos$ = -12						; size = 4
_nCount$ = -8						; size = 4
_this$ = -4						; size = 4
_score$ = 8						; size = 4
?SortMapUser@CImmediateGroup@@IAEGQAUtagMatchScore@@@Z PROC ; CImmediateGroup::SortMapUser, COMDAT
; _this$ = ecx

; 292  : {

  00000	55		 push	 ebp
  00001	8b ec		 mov	 ebp, esp
  00003	81 ec 88 00 00
	00		 sub	 esp, 136		; 00000088H
  00009	53		 push	 ebx
  0000a	56		 push	 esi
  0000b	57		 push	 edi
  0000c	89 4d fc	 mov	 DWORD PTR _this$[ebp], ecx

; 293  : 	INT_PTR nCount=m_OnMatchUserMap.GetCount();

  0000f	8b 4d fc	 mov	 ecx, DWORD PTR _this$[ebp]
  00012	83 c1 38	 add	 ecx, 56			; 00000038H
  00015	e8 00 00 00 00	 call	 ?GetCount@?$CMap@KKPAUIServerUserItem@@PAU1@@@QBEHXZ ; CMap<unsigned long,unsigned long,IServerUserItem *,IServerUserItem *>::GetCount
  0001a	89 45 f8	 mov	 DWORD PTR _nCount$[ebp], eax

; 294  : 	POSITION pos=m_OnMatchUserMap.GetStartPosition();

  0001d	8b 4d fc	 mov	 ecx, DWORD PTR _this$[ebp]
  00020	83 c1 38	 add	 ecx, 56			; 00000038H
  00023	e8 00 00 00 00	 call	 ?GetStartPosition@?$CMap@KKPAUIServerUserItem@@PAU1@@@QBEPAU__POSITION@@XZ ; CMap<unsigned long,unsigned long,IServerUserItem *,IServerUserItem *>::GetStartPosition
  00028	89 45 f4	 mov	 DWORD PTR _pos$[ebp], eax

; 295  : 	nCount=0;

  0002b	c7 45 f8 00 00
	00 00		 mov	 DWORD PTR _nCount$[ebp], 0
$LN2@SortMapUse:

; 296  : 	while(pos!=NULL)

  00032	83 7d f4 00	 cmp	 DWORD PTR _pos$[ebp], 0
  00036	0f 84 87 00 00
	00		 je	 $LN3@SortMapUse

; 297  : 	{
; 298  : 		m_OnMatchUserMap.GetNextAssoc(pos,score[nCount].dwUserID, score[nCount].pUserItem);

  0003c	6b 45 f8 18	 imul	 eax, DWORD PTR _nCount$[ebp], 24
  00040	8b 4d 08	 mov	 ecx, DWORD PTR _score$[ebp]
  00043	8d 54 01 10	 lea	 edx, DWORD PTR [ecx+eax+16]
  00047	52		 push	 edx
  00048	6b 45 f8 18	 imul	 eax, DWORD PTR _nCount$[ebp], 24
  0004c	03 45 08	 add	 eax, DWORD PTR _score$[ebp]
  0004f	50		 push	 eax
  00050	8d 4d f4	 lea	 ecx, DWORD PTR _pos$[ebp]
  00053	51		 push	 ecx
  00054	8b 4d fc	 mov	 ecx, DWORD PTR _this$[ebp]
  00057	83 c1 38	 add	 ecx, 56			; 00000038H
  0005a	e8 00 00 00 00	 call	 ?GetNextAssoc@?$CMap@KKPAUIServerUserItem@@PAU1@@@QBEXAAPAU__POSITION@@AAKAAPAUIServerUserItem@@@Z ; CMap<unsigned long,unsigned long,IServerUserItem *,IServerUserItem *>::GetNextAssoc

; 299  : 		score[nCount].dwUserID=score[nCount].pUserItem->GetUserID();

  0005f	6b 45 f8 18	 imul	 eax, DWORD PTR _nCount$[ebp], 24
  00063	8b 4d 08	 mov	 ecx, DWORD PTR _score$[ebp]
  00066	8b 54 01 10	 mov	 edx, DWORD PTR [ecx+eax+16]
  0006a	6b 45 f8 18	 imul	 eax, DWORD PTR _nCount$[ebp], 24
  0006e	8b 4d 08	 mov	 ecx, DWORD PTR _score$[ebp]
  00071	8b 12		 mov	 edx, DWORD PTR [edx]
  00073	8b 4c 01 10	 mov	 ecx, DWORD PTR [ecx+eax+16]
  00077	8b 42 5c	 mov	 eax, DWORD PTR [edx+92]
  0007a	ff d0		 call	 eax
  0007c	6b 4d f8 18	 imul	 ecx, DWORD PTR _nCount$[ebp], 24
  00080	8b 55 08	 mov	 edx, DWORD PTR _score$[ebp]
  00083	89 04 0a	 mov	 DWORD PTR [edx+ecx], eax

; 300  : 		score[nCount].lScore=score[nCount].pUserItem->GetUserScore();

  00086	6b 45 f8 18	 imul	 eax, DWORD PTR _nCount$[ebp], 24
  0008a	8b 4d 08	 mov	 ecx, DWORD PTR _score$[ebp]
  0008d	8b 54 01 10	 mov	 edx, DWORD PTR [ecx+eax+16]
  00091	6b 45 f8 18	 imul	 eax, DWORD PTR _nCount$[ebp], 24
  00095	8b 4d 08	 mov	 ecx, DWORD PTR _score$[ebp]
  00098	8b 12		 mov	 edx, DWORD PTR [edx]
  0009a	8b 4c 01 10	 mov	 ecx, DWORD PTR [ecx+eax+16]
  0009e	8b 82 88 00 00
	00		 mov	 eax, DWORD PTR [edx+136]
  000a4	ff d0		 call	 eax
  000a6	6b 4d f8 18	 imul	 ecx, DWORD PTR _nCount$[ebp], 24
  000aa	8b 75 08	 mov	 esi, DWORD PTR _score$[ebp]
  000ad	89 44 0e 08	 mov	 DWORD PTR [esi+ecx+8], eax
  000b1	89 54 0e 0c	 mov	 DWORD PTR [esi+ecx+12], edx

; 301  : 		nCount++;

  000b5	8b 45 f8	 mov	 eax, DWORD PTR _nCount$[ebp]
  000b8	83 c0 01	 add	 eax, 1
  000bb	89 45 f8	 mov	 DWORD PTR _nCount$[ebp], eax

; 302  : 	}

  000be	e9 6f ff ff ff	 jmp	 $LN2@SortMapUse
$LN3@SortMapUse:

; 303  : 	for(INT_PTR i = 1;i < nCount;i++)

  000c3	c7 45 f0 01 00
	00 00		 mov	 DWORD PTR _i$6[ebp], 1
  000ca	eb 09		 jmp	 SHORT $LN6@SortMapUse
$LN4@SortMapUse:
  000cc	8b 45 f0	 mov	 eax, DWORD PTR _i$6[ebp]
  000cf	83 c0 01	 add	 eax, 1
  000d2	89 45 f0	 mov	 DWORD PTR _i$6[ebp], eax
$LN6@SortMapUse:
  000d5	8b 45 f0	 mov	 eax, DWORD PTR _i$6[ebp]
  000d8	3b 45 f8	 cmp	 eax, DWORD PTR _nCount$[ebp]
  000db	0f 8d 49 01 00
	00		 jge	 $LN5@SortMapUse

; 304  : 	{
; 305  : 		INT_PTR left = 0,right = i - 1;

  000e1	c7 45 ec 00 00
	00 00		 mov	 DWORD PTR _left$5[ebp], 0
  000e8	8b 45 f0	 mov	 eax, DWORD PTR _i$6[ebp]
  000eb	83 e8 01	 sub	 eax, 1
  000ee	89 45 e8	 mov	 DWORD PTR _right$4[ebp], eax

; 306  : 		tagMatchScore  Temp = score[i];

  000f1	6b 45 f0 18	 imul	 eax, DWORD PTR _i$6[ebp], 24
  000f5	03 45 08	 add	 eax, DWORD PTR _score$[ebp]
  000f8	8b 08		 mov	 ecx, DWORD PTR [eax]
  000fa	89 4d d0	 mov	 DWORD PTR _Temp$3[ebp], ecx
  000fd	8b 50 04	 mov	 edx, DWORD PTR [eax+4]
  00100	89 55 d4	 mov	 DWORD PTR _Temp$3[ebp+4], edx
  00103	8b 48 08	 mov	 ecx, DWORD PTR [eax+8]
  00106	89 4d d8	 mov	 DWORD PTR _Temp$3[ebp+8], ecx
  00109	8b 50 0c	 mov	 edx, DWORD PTR [eax+12]
  0010c	89 55 dc	 mov	 DWORD PTR _Temp$3[ebp+12], edx
  0010f	8b 48 10	 mov	 ecx, DWORD PTR [eax+16]
  00112	89 4d e0	 mov	 DWORD PTR _Temp$3[ebp+16], ecx
  00115	8b 50 14	 mov	 edx, DWORD PTR [eax+20]
  00118	89 55 e4	 mov	 DWORD PTR _Temp$3[ebp+20], edx
$LN7@SortMapUse:

; 307  : 		while(left <= right)

  0011b	8b 45 ec	 mov	 eax, DWORD PTR _left$5[ebp]
  0011e	3b 45 e8	 cmp	 eax, DWORD PTR _right$4[ebp]
  00121	0f 8f 81 00 00
	00		 jg	 $LN8@SortMapUse

; 308  : 		{
; 309  : 			INT_PTR mid = (left + right)/2;

  00127	8b 45 ec	 mov	 eax, DWORD PTR _left$5[ebp]
  0012a	03 45 e8	 add	 eax, DWORD PTR _right$4[ebp]
  0012d	99		 cdq
  0012e	2b c2		 sub	 eax, edx
  00130	d1 f8		 sar	 eax, 1
  00132	89 45 cc	 mov	 DWORD PTR _mid$2[ebp], eax

; 310  : 			if(score[i].lScore > score[mid].lScore) right = mid - 1;

  00135	6b 45 f0 18	 imul	 eax, DWORD PTR _i$6[ebp], 24
  00139	6b 4d cc 18	 imul	 ecx, DWORD PTR _mid$2[ebp], 24
  0013d	8b 55 08	 mov	 edx, DWORD PTR _score$[ebp]
  00140	8b 75 08	 mov	 esi, DWORD PTR _score$[ebp]
  00143	89 55 84	 mov	 DWORD PTR tv226[ebp], edx
  00146	89 45 80	 mov	 DWORD PTR tv227[ebp], eax
  00149	89 b5 7c ff ff
	ff		 mov	 DWORD PTR tv228[ebp], esi
  0014f	89 8d 78 ff ff
	ff		 mov	 DWORD PTR tv229[ebp], ecx
  00155	8b 45 80	 mov	 eax, DWORD PTR tv227[ebp]
  00158	8b 4d 84	 mov	 ecx, DWORD PTR tv226[ebp]
  0015b	8b 95 78 ff ff
	ff		 mov	 edx, DWORD PTR tv229[ebp]
  00161	8b b5 7c ff ff
	ff		 mov	 esi, DWORD PTR tv228[ebp]
  00167	8b 44 01 0c	 mov	 eax, DWORD PTR [ecx+eax+12]
  0016b	3b 44 16 0c	 cmp	 eax, DWORD PTR [esi+edx+12]
  0016f	7c 29		 jl	 SHORT $LN12@SortMapUse
  00171	7f 1c		 jg	 SHORT $LN15@SortMapUse
  00173	8b 4d 80	 mov	 ecx, DWORD PTR tv227[ebp]
  00176	8b 55 84	 mov	 edx, DWORD PTR tv226[ebp]
  00179	8b 85 78 ff ff
	ff		 mov	 eax, DWORD PTR tv229[ebp]
  0017f	8b b5 7c ff ff
	ff		 mov	 esi, DWORD PTR tv228[ebp]
  00185	8b 4c 0a 08	 mov	 ecx, DWORD PTR [edx+ecx+8]
  00189	3b 4c 06 08	 cmp	 ecx, DWORD PTR [esi+eax+8]
  0018d	76 0b		 jbe	 SHORT $LN12@SortMapUse
$LN15@SortMapUse:
  0018f	8b 45 cc	 mov	 eax, DWORD PTR _mid$2[ebp]
  00192	83 e8 01	 sub	 eax, 1
  00195	89 45 e8	 mov	 DWORD PTR _right$4[ebp], eax
  00198	eb 09		 jmp	 SHORT $LN13@SortMapUse
$LN12@SortMapUse:

; 311  : 			else left = mid + 1;

  0019a	8b 45 cc	 mov	 eax, DWORD PTR _mid$2[ebp]
  0019d	83 c0 01	 add	 eax, 1
  001a0	89 45 ec	 mov	 DWORD PTR _left$5[ebp], eax
$LN13@SortMapUse:

; 312  : 		}

  001a3	e9 73 ff ff ff	 jmp	 $LN7@SortMapUse
$LN8@SortMapUse:

; 313  : 		for(INT_PTR j = i - 1;j >= left;j--)

  001a8	8b 45 f0	 mov	 eax, DWORD PTR _i$6[ebp]
  001ab	83 e8 01	 sub	 eax, 1
  001ae	89 45 c8	 mov	 DWORD PTR _j$1[ebp], eax
  001b1	eb 09		 jmp	 SHORT $LN11@SortMapUse
$LN9@SortMapUse:
  001b3	8b 45 c8	 mov	 eax, DWORD PTR _j$1[ebp]
  001b6	83 e8 01	 sub	 eax, 1
  001b9	89 45 c8	 mov	 DWORD PTR _j$1[ebp], eax
$LN11@SortMapUse:
  001bc	8b 45 c8	 mov	 eax, DWORD PTR _j$1[ebp]
  001bf	3b 45 ec	 cmp	 eax, DWORD PTR _left$5[ebp]
  001c2	7c 37		 jl	 SHORT $LN10@SortMapUse

; 314  : 		{
; 315  : 			score[j+1] = score[j];

  001c4	6b 45 c8 18	 imul	 eax, DWORD PTR _j$1[ebp], 24
  001c8	03 45 08	 add	 eax, DWORD PTR _score$[ebp]
  001cb	8b 4d c8	 mov	 ecx, DWORD PTR _j$1[ebp]
  001ce	83 c1 01	 add	 ecx, 1
  001d1	6b d1 18	 imul	 edx, ecx, 24
  001d4	03 55 08	 add	 edx, DWORD PTR _score$[ebp]
  001d7	8b 08		 mov	 ecx, DWORD PTR [eax]
  001d9	89 0a		 mov	 DWORD PTR [edx], ecx
  001db	8b 48 04	 mov	 ecx, DWORD PTR [eax+4]
  001de	89 4a 04	 mov	 DWORD PTR [edx+4], ecx
  001e1	8b 48 08	 mov	 ecx, DWORD PTR [eax+8]
  001e4	89 4a 08	 mov	 DWORD PTR [edx+8], ecx
  001e7	8b 48 0c	 mov	 ecx, DWORD PTR [eax+12]
  001ea	89 4a 0c	 mov	 DWORD PTR [edx+12], ecx
  001ed	8b 48 10	 mov	 ecx, DWORD PTR [eax+16]
  001f0	89 4a 10	 mov	 DWORD PTR [edx+16], ecx
  001f3	8b 40 14	 mov	 eax, DWORD PTR [eax+20]
  001f6	89 42 14	 mov	 DWORD PTR [edx+20], eax

; 316  : 		}

  001f9	eb b8		 jmp	 SHORT $LN9@SortMapUse
$LN10@SortMapUse:

; 317  : 		score[left] = Temp;

  001fb	6b 45 ec 18	 imul	 eax, DWORD PTR _left$5[ebp], 24
  001ff	03 45 08	 add	 eax, DWORD PTR _score$[ebp]
  00202	8b 4d d0	 mov	 ecx, DWORD PTR _Temp$3[ebp]
  00205	89 08		 mov	 DWORD PTR [eax], ecx
  00207	8b 55 d4	 mov	 edx, DWORD PTR _Temp$3[ebp+4]
  0020a	89 50 04	 mov	 DWORD PTR [eax+4], edx
  0020d	8b 4d d8	 mov	 ecx, DWORD PTR _Temp$3[ebp+8]
  00210	89 48 08	 mov	 DWORD PTR [eax+8], ecx
  00213	8b 55 dc	 mov	 edx, DWORD PTR _Temp$3[ebp+12]
  00216	89 50 0c	 mov	 DWORD PTR [eax+12], edx
  00219	8b 4d e0	 mov	 ecx, DWORD PTR _Temp$3[ebp+16]
  0021c	89 48 10	 mov	 DWORD PTR [eax+16], ecx
  0021f	8b 55 e4	 mov	 edx, DWORD PTR _Temp$3[ebp+20]
  00222	89 50 14	 mov	 DWORD PTR [eax+20], edx

; 318  : 	}

  00225	e9 a2 fe ff ff	 jmp	 $LN4@SortMapUse
$LN5@SortMapUse:

; 319  : 
; 320  : 	return (WORD)nCount;

  0022a	66 8b 45 f8	 mov	 ax, WORD PTR _nCount$[ebp]

; 321  : }

  0022e	5f		 pop	 edi
  0022f	5e		 pop	 esi
  00230	5b		 pop	 ebx
  00231	8b e5		 mov	 esp, ebp
  00233	5d		 pop	 ebp
  00234	c2 04 00	 ret	 4
?SortMapUser@CImmediateGroup@@IAEGQAUtagMatchScore@@@Z ENDP ; CImmediateGroup::SortMapUser
_TEXT	ENDS
; Function compile flags: /Odtp /ZI
; File g:\网狐\happygamewh\服务端\系统模块\服务器组件\比赛服务\immediategroup.cpp
;	COMDAT ?ContinueGame@CImmediateGroup@@IAEXPAUITableFrame@@@Z
_TEXT	SEGMENT
_pIServerUserItem$1 = -16				; size = 4
_i$2 = -12						; size = 4
_pTableFrameInfo$ = -8					; size = 4
_this$ = -4						; size = 4
_pITableFrame$ = 8					; size = 4
?ContinueGame@CImmediateGroup@@IAEXPAUITableFrame@@@Z PROC ; CImmediateGroup::ContinueGame, COMDAT
; _this$ = ecx

; 785  : {

  00000	55		 push	 ebp
  00001	8b ec		 mov	 ebp, esp
  00003	83 ec 50	 sub	 esp, 80			; 00000050H
  00006	53		 push	 ebx
  00007	56		 push	 esi
  00008	57		 push	 edi
  00009	89 4d fc	 mov	 DWORD PTR _this$[ebp], ecx

; 786  : 	//参数校验
; 787  : 	ASSERT (pITableFrame!=NULL);

  0000c	83 7d 08 00	 cmp	 DWORD PTR _pITableFrame$[ebp], 0
  00010	75 18		 jne	 SHORT $LN11@ContinueGa
  00012	a1 00 00 00 00	 mov	 eax, DWORD PTR ?__LINE__Var@?0??ContinueGame@CImmediateGroup@@IAEXPAUITableFrame@@@Z@4JA
  00017	83 c0 02	 add	 eax, 2
  0001a	50		 push	 eax
  0001b	68 00 00 00 00	 push	 OFFSET ??_C@_0EL@ONMMFGFJ@g?3?2?M?x?$LK?$PM?2happygamewh?2?$LH?$PO?N?q?$LG?K?2?O?$LF?M?$LD@
  00020	e8 00 00 00 00	 call	 ?AfxAssertFailedLine@@YGHPBDH@Z ; AfxAssertFailedLine
  00025	85 c0		 test	 eax, eax
  00027	74 01		 je	 SHORT $LN11@ContinueGa
  00029	cc		 int	 3
$LN11@ContinueGa:

; 788  : 	if (pITableFrame==NULL) return;

  0002a	83 7d 08 00	 cmp	 DWORD PTR _pITableFrame$[ebp], 0
  0002e	75 05		 jne	 SHORT $LN5@ContinueGa
  00030	e9 18 01 00 00	 jmp	 $LN1@ContinueGa
$LN5@ContinueGa:

; 789  : 
; 790  : 	//获取接口
; 791  : 	tagTableFrameInfo * pTableFrameInfo=GetTableInterface(pITableFrame);

  00035	8b 45 08	 mov	 eax, DWORD PTR _pITableFrame$[ebp]
  00038	50		 push	 eax
  00039	8b 4d fc	 mov	 ecx, DWORD PTR _this$[ebp]
  0003c	e8 00 00 00 00	 call	 ?GetTableInterface@CImmediateGroup@@IAEPAUtagTableFrameInfo@@PAUITableFrame@@@Z ; CImmediateGroup::GetTableInterface
  00041	89 45 f8	 mov	 DWORD PTR _pTableFrameInfo$[ebp], eax

; 792  : 	if (pTableFrameInfo==NULL) return;

  00044	83 7d f8 00	 cmp	 DWORD PTR _pTableFrameInfo$[ebp], 0
  00048	75 05		 jne	 SHORT $LN6@ContinueGa
  0004a	e9 fe 00 00 00	 jmp	 $LN1@ContinueGa
$LN6@ContinueGa:

; 793  : 
; 794  : 	//查找用户
; 795  : 	for (int i=0;i<m_wChairCount;i++)

  0004f	c7 45 f4 00 00
	00 00		 mov	 DWORD PTR _i$2[ebp], 0
  00056	eb 09		 jmp	 SHORT $LN4@ContinueGa
$LN2@ContinueGa:
  00058	8b 45 f4	 mov	 eax, DWORD PTR _i$2[ebp]
  0005b	83 c0 01	 add	 eax, 1
  0005e	89 45 f4	 mov	 DWORD PTR _i$2[ebp], eax
$LN4@ContinueGa:
  00061	0f b7 05 00 00
	00 00		 movzx	 eax, WORD PTR ?m_wChairCount@CImmediateGroup@@1GA ; CImmediateGroup::m_wChairCount
  00068	39 45 f4	 cmp	 DWORD PTR _i$2[ebp], eax
  0006b	0f 8d ca 00 00
	00		 jge	 $LN3@ContinueGa

; 796  : 	{
; 797  : 		//查找用户
; 798  : 		IServerUserItem * pIServerUserItem=pITableFrame->GetTableUserItem(i);

  00071	0f b7 45 f4	 movzx	 eax, WORD PTR _i$2[ebp]
  00075	50		 push	 eax
  00076	8b 4d 08	 mov	 ecx, DWORD PTR _pITableFrame$[ebp]
  00079	8b 11		 mov	 edx, DWORD PTR [ecx]
  0007b	8b 4d 08	 mov	 ecx, DWORD PTR _pITableFrame$[ebp]
  0007e	8b 82 9c 00 00
	00		 mov	 eax, DWORD PTR [edx+156]
  00084	ff d0		 call	 eax
  00086	89 45 f0	 mov	 DWORD PTR _pIServerUserItem$1[ebp], eax

; 799  : 		if (pIServerUserItem==NULL) continue;

  00089	83 7d f0 00	 cmp	 DWORD PTR _pIServerUserItem$1[ebp], 0
  0008d	75 02		 jne	 SHORT $LN7@ContinueGa
  0008f	eb c7		 jmp	 SHORT $LN2@ContinueGa
$LN7@ContinueGa:

; 800  : 
; 801  : 		//处理起立
; 802  : 		if (pITableFrame->PerformStandUpAction(pIServerUserItem)==false)

  00091	6a 00		 push	 0
  00093	8b 45 f0	 mov	 eax, DWORD PTR _pIServerUserItem$1[ebp]
  00096	50		 push	 eax
  00097	8b 4d 08	 mov	 ecx, DWORD PTR _pITableFrame$[ebp]
  0009a	8b 11		 mov	 edx, DWORD PTR [ecx]
  0009c	8b 4d 08	 mov	 ecx, DWORD PTR _pITableFrame$[ebp]
  0009f	8b 82 d8 00 00
	00		 mov	 eax, DWORD PTR [edx+216]
  000a5	ff d0		 call	 eax
  000a7	0f b6 c8	 movzx	 ecx, al
  000aa	85 c9		 test	 ecx, ecx
  000ac	75 32		 jne	 SHORT $LN8@ContinueGa

; 803  : 		{
; 804  : 			ASSERT (FALSE);

  000ae	33 c0		 xor	 eax, eax
  000b0	75 19		 jne	 SHORT $LN12@ContinueGa
  000b2	8b 0d 00 00 00
	00		 mov	 ecx, DWORD PTR ?__LINE__Var@?0??ContinueGame@CImmediateGroup@@IAEXPAUITableFrame@@@Z@4JA
  000b8	83 c1 13	 add	 ecx, 19			; 00000013H
  000bb	51		 push	 ecx
  000bc	68 00 00 00 00	 push	 OFFSET ??_C@_0EL@ONMMFGFJ@g?3?2?M?x?$LK?$PM?2happygamewh?2?$LH?$PO?N?q?$LG?K?2?O?$LF?M?$LD@
  000c1	e8 00 00 00 00	 call	 ?AfxAssertFailedLine@@YGHPBDH@Z ; AfxAssertFailedLine
  000c6	85 c0		 test	 eax, eax
  000c8	74 01		 je	 SHORT $LN12@ContinueGa
  000ca	cc		 int	 3
$LN12@ContinueGa:

; 805  : 			CTraceService::TraceString(TEXT("继续游戏_起立失败"),TraceLevel_Exception);

  000cb	6a 03		 push	 3
  000cd	68 00 00 00 00	 push	 OFFSET ??_C@_0BC@IKPCOJMH@?$LM?L?P?x?S?N?O?$LH_?F?p?A?$KC?J?$KH?$LA?$NM@
  000d2	ff 15 00 00 00
	00		 call	 DWORD PTR __imp_?TraceString@CTraceService@@SA_NPBDW4enTraceLevel@@@Z
  000d8	83 c4 08	 add	 esp, 8

; 806  : 
; 807  : 			continue;

  000db	e9 78 ff ff ff	 jmp	 $LN2@ContinueGa
$LN8@ContinueGa:

; 808  : 		}
; 809  : 
; 810  : 		//处理坐下
; 811  : 		if (pITableFrame->PerformSitDownAction(i,pIServerUserItem)==false)

  000e0	6a 00		 push	 0
  000e2	6a 00		 push	 0
  000e4	8b 45 f0	 mov	 eax, DWORD PTR _pIServerUserItem$1[ebp]
  000e7	50		 push	 eax
  000e8	0f b7 4d f4	 movzx	 ecx, WORD PTR _i$2[ebp]
  000ec	51		 push	 ecx
  000ed	8b 55 08	 mov	 edx, DWORD PTR _pITableFrame$[ebp]
  000f0	8b 02		 mov	 eax, DWORD PTR [edx]
  000f2	8b 4d 08	 mov	 ecx, DWORD PTR _pITableFrame$[ebp]
  000f5	8b 90 e0 00 00
	00		 mov	 edx, DWORD PTR [eax+224]
  000fb	ff d2		 call	 edx
  000fd	0f b6 c0	 movzx	 eax, al
  00100	85 c0		 test	 eax, eax
  00102	75 32		 jne	 SHORT $LN9@ContinueGa

; 812  : 		{			
; 813  : 			ASSERT (FALSE);

  00104	33 c0		 xor	 eax, eax
  00106	75 19		 jne	 SHORT $LN13@ContinueGa
  00108	8b 0d 00 00 00
	00		 mov	 ecx, DWORD PTR ?__LINE__Var@?0??ContinueGame@CImmediateGroup@@IAEXPAUITableFrame@@@Z@4JA
  0010e	83 c1 1c	 add	 ecx, 28			; 0000001cH
  00111	51		 push	 ecx
  00112	68 00 00 00 00	 push	 OFFSET ??_C@_0EL@ONMMFGFJ@g?3?2?M?x?$LK?$PM?2happygamewh?2?$LH?$PO?N?q?$LG?K?2?O?$LF?M?$LD@
  00117	e8 00 00 00 00	 call	 ?AfxAssertFailedLine@@YGHPBDH@Z ; AfxAssertFailedLine
  0011c	85 c0		 test	 eax, eax
  0011e	74 01		 je	 SHORT $LN13@ContinueGa
  00120	cc		 int	 3
$LN13@ContinueGa:

; 814  : 			CTraceService::TraceString(TEXT("继续游戏_坐下失败"),TraceLevel_Exception);

  00121	6a 03		 push	 3
  00123	68 00 00 00 00	 push	 OFFSET ??_C@_0BC@LKGHNAEH@?$LM?L?P?x?S?N?O?$LH_?W?x?O?B?J?$KH?$LA?$NM@
  00128	ff 15 00 00 00
	00		 call	 DWORD PTR __imp_?TraceString@CTraceService@@SA_NPBDW4enTraceLevel@@@Z
  0012e	83 c4 08	 add	 esp, 8

; 815  : 
; 816  : 			continue;

  00131	e9 22 ff ff ff	 jmp	 $LN2@ContinueGa
$LN9@ContinueGa:

; 817  : 		}		
; 818  : 	}

  00136	e9 1d ff ff ff	 jmp	 $LN2@ContinueGa
$LN3@ContinueGa:

; 819  : 
; 820  : 	//设置定时器
; 821  : 	PostMatchTimer(IDI_CHECK_TABLE_START,30,(WPARAM)pITableFrame);

  0013b	6a 00		 push	 0
  0013d	8b 45 08	 mov	 eax, DWORD PTR _pITableFrame$[ebp]
  00140	50		 push	 eax
  00141	6a 1e		 push	 30			; 0000001eH
  00143	6a 03		 push	 3
  00145	8b 4d fc	 mov	 ecx, DWORD PTR _this$[ebp]
  00148	e8 00 00 00 00	 call	 ?PostMatchTimer@CImmediateGroup@@IAEXKHIJ@Z ; CImmediateGroup::PostMatchTimer
$LN1@ContinueGa:

; 822  : }

  0014d	5f		 pop	 edi
  0014e	5e		 pop	 esi
  0014f	5b		 pop	 ebx
  00150	8b e5		 mov	 esp, ebp
  00152	5d		 pop	 ebp
  00153	c2 04 00	 ret	 4
?ContinueGame@CImmediateGroup@@IAEXPAUITableFrame@@@Z ENDP ; CImmediateGroup::ContinueGame
_TEXT	ENDS
; Function compile flags: /Odtp /ZI
; File g:\网狐\happygamewh\服务端\系统模块\服务器组件\比赛服务\immediategroup.cpp
;	COMDAT ?EfficacyStartMatch@CImmediateGroup@@IAEXXZ
_TEXT	SEGMENT
$T1 = -2420						; size = 8
_cbUserMatchStatus$2 = -2089				; size = 1
_wChairID$ = -2088					; size = 2
_pos$ = -2084						; size = 4
_pIServerUserItem$ = -2080				; size = 4
_dwUserID$ = -2076					; size = 4
_wSendSize$3 = -2072					; size = 2
_Message$4 = -2068					; size = 1028
_wSendSize$5 = -1040					; size = 2
_Message$6 = -1036					; size = 1028
_this$ = -8						; size = 4
__$ArrayPad$ = -4					; size = 4
?EfficacyStartMatch@CImmediateGroup@@IAEXXZ PROC	; CImmediateGroup::EfficacyStartMatch, COMDAT
; _this$ = ecx

; 139  : {

  00000	55		 push	 ebp
  00001	8b ec		 mov	 ebp, esp
  00003	81 ec 74 09 00
	00		 sub	 esp, 2420		; 00000974H
  00009	a1 00 00 00 00	 mov	 eax, DWORD PTR ___security_cookie
  0000e	33 c5		 xor	 eax, ebp
  00010	89 45 fc	 mov	 DWORD PTR __$ArrayPad$[ebp], eax
  00013	53		 push	 ebx
  00014	56		 push	 esi
  00015	57		 push	 edi
  00016	89 4d f8	 mov	 DWORD PTR _this$[ebp], ecx

; 140  : 	//插入桌子
; 141  : 	m_pMatchSink->InsertNullTable();

  00019	8b 45 f8	 mov	 eax, DWORD PTR _this$[ebp]
  0001c	8b 48 2c	 mov	 ecx, DWORD PTR [eax+44]
  0001f	8b 55 f8	 mov	 edx, DWORD PTR _this$[ebp]
  00022	8b 01		 mov	 eax, DWORD PTR [ecx]
  00024	8b 4a 2c	 mov	 ecx, DWORD PTR [edx+44]
  00027	8b 50 30	 mov	 edx, DWORD PTR [eax+48]
  0002a	ff d2		 call	 edx

; 142  : 
; 143  : 	//没有桌子的情况
; 144  : 	if( m_MatchTableArray.GetCount()<m_pImmediateMatch->wStartUserCount/m_wChairCount )

  0002c	8b 4d f8	 mov	 ecx, DWORD PTR _this$[ebp]
  0002f	83 c1 68	 add	 ecx, 104		; 00000068H
  00032	e8 00 00 00 00	 call	 ?GetCount@?$CWHArray@PAUtagTableFrameInfo@@ABQAU1@@@QBEHXZ ; CWHArray<tagTableFrameInfo *,tagTableFrameInfo * const &>::GetCount
  00037	8b c8		 mov	 ecx, eax
  00039	8b 55 f8	 mov	 edx, DWORD PTR _this$[ebp]
  0003c	8b 42 34	 mov	 eax, DWORD PTR [edx+52]
  0003f	0f b7 00	 movzx	 eax, WORD PTR [eax]
  00042	0f b7 35 00 00
	00 00		 movzx	 esi, WORD PTR ?m_wChairCount@CImmediateGroup@@1GA ; CImmediateGroup::m_wChairCount
  00049	99		 cdq
  0004a	f7 fe		 idiv	 esi
  0004c	3b c8		 cmp	 ecx, eax
  0004e	0f 8d 5d 01 00
	00		 jge	 $LN4@EfficacySt

; 145  : 	{
; 146  : 		if(m_OnMatchUserMap.GetCount()<m_wChairCount)

  00054	8b 4d f8	 mov	 ecx, DWORD PTR _this$[ebp]
  00057	83 c1 38	 add	 ecx, 56			; 00000038H
  0005a	e8 00 00 00 00	 call	 ?GetCount@?$CMap@KKPAUIServerUserItem@@PAU1@@@QBEHXZ ; CMap<unsigned long,unsigned long,IServerUserItem *,IServerUserItem *>::GetCount
  0005f	0f b7 0d 00 00
	00 00		 movzx	 ecx, WORD PTR ?m_wChairCount@CImmediateGroup@@1GA ; CImmediateGroup::m_wChairCount
  00066	3b c1		 cmp	 eax, ecx
  00068	0f 8d 84 00 00
	00		 jge	 $LN5@EfficacySt

; 147  : 		{
; 148  : 			//构造数据包
; 149  : 			CMD_CM_SystemMessage Message;
; 150  : 			Message.wType=SMT_EJECT|SMT_CHAT|SMT_CLOSE_GAME;

  0006e	b8 03 02 00 00	 mov	 eax, 515		; 00000203H
  00073	66 89 85 f4 fb
	ff ff		 mov	 WORD PTR _Message$6[ebp], ax

; 151  : 			lstrcpyn(Message.szString,TEXT("抱歉，由于某用户强行退出比赛，该场比赛提前结束。你可以继续等待比赛！"),CountArray(Message.szString));

  0007a	68 00 04 00 00	 push	 1024			; 00000400H
  0007f	68 00 00 00 00	 push	 OFFSET ??_C@_0EF@OFDKLJHC@?$LB?$KH?G?$LI?$KD?$KM?S?I?S?Z?D?$LD?S?C?$LL?$KH?G?$LP?P?P?M?K?$LD?v?$LB?H?H?$PM?$KD?$KM?$LI@
  00084	8d 85 f8 fb ff
	ff		 lea	 eax, DWORD PTR _Message$6[ebp+4]
  0008a	50		 push	 eax
  0008b	ff 15 00 00 00
	00		 call	 DWORD PTR __imp__lstrcpynA@12

; 152  : 
; 153  : 			Message.wLength=CountStringBuffer(Message.szString);

  00091	8d 85 f8 fb ff
	ff		 lea	 eax, DWORD PTR _Message$6[ebp+4]
  00097	50		 push	 eax
  00098	ff 15 00 00 00
	00		 call	 DWORD PTR __imp__lstrlenA@4
  0009e	83 c0 01	 add	 eax, 1
  000a1	66 89 85 f6 fb
	ff ff		 mov	 WORD PTR _Message$6[ebp+2], ax

; 154  : 			//发送数据
; 155  : 			WORD wSendSize=sizeof(Message)-sizeof(Message.szString)+Message.wLength*sizeof(TCHAR);

  000a8	0f b7 85 f6 fb
	ff ff		 movzx	 eax, WORD PTR _Message$6[ebp+2]
  000af	83 c0 04	 add	 eax, 4
  000b2	66 89 85 f0 fb
	ff ff		 mov	 WORD PTR _wSendSize$5[ebp], ax

; 156  : 			m_pMatchSink->SendGroupData(MDM_CM_SYSTEM,SUB_CM_SYSTEM_MESSAGE,&Message,wSendSize, this);

  000b9	8b 45 f8	 mov	 eax, DWORD PTR _this$[ebp]
  000bc	50		 push	 eax
  000bd	0f b7 8d f0 fb
	ff ff		 movzx	 ecx, WORD PTR _wSendSize$5[ebp]
  000c4	51		 push	 ecx
  000c5	8d 95 f4 fb ff
	ff		 lea	 edx, DWORD PTR _Message$6[ebp]
  000cb	52		 push	 edx
  000cc	6a 01		 push	 1
  000ce	68 e8 03 00 00	 push	 1000			; 000003e8H
  000d3	8b 45 f8	 mov	 eax, DWORD PTR _this$[ebp]
  000d6	8b 48 2c	 mov	 ecx, DWORD PTR [eax+44]
  000d9	8b 55 f8	 mov	 edx, DWORD PTR _this$[ebp]
  000dc	8b 01		 mov	 eax, DWORD PTR [ecx]
  000de	8b 4a 2c	 mov	 ecx, DWORD PTR [edx+44]
  000e1	8b 50 28	 mov	 edx, DWORD PTR [eax+40]
  000e4	ff d2		 call	 edx

; 157  : 			m_cbMatchStatus=MatchStatus_Signup;

  000e6	8b 45 f8	 mov	 eax, DWORD PTR _this$[ebp]
  000e9	c6 40 18 01	 mov	 BYTE PTR [eax+24], 1

; 158  : 			return ;

  000ed	e9 22 02 00 00	 jmp	 $LN1@EfficacySt
$LN5@EfficacySt:

; 159  : 		}
; 160  : 
; 161  : 		m_cbMatchStatus=MatchStatus_Wait;

  000f2	8b 45 f8	 mov	 eax, DWORD PTR _this$[ebp]
  000f5	c6 40 18 02	 mov	 BYTE PTR [eax+24], 2

; 162  : 		//3秒后继续调用该函数直到有桌子
; 163  : 		SetMatchGameTimer(IDI_WAIT_TABLE,3000,1,NULL);

  000f9	6a 00		 push	 0
  000fb	6a 01		 push	 1
  000fd	68 b8 0b 00 00	 push	 3000			; 00000bb8H
  00102	68 d4 00 00 00	 push	 212			; 000000d4H
  00107	8b 4d f8	 mov	 ecx, DWORD PTR _this$[ebp]
  0010a	e8 00 00 00 00	 call	 ?SetMatchGameTimer@CImmediateGroup@@IAEXKKKI@Z ; CImmediateGroup::SetMatchGameTimer

; 164  : 
; 165  : 		//构造数据包
; 166  : 		CMD_CM_SystemMessage Message;
; 167  : 		Message.wType=SMT_CHAT;

  0010f	b8 01 00 00 00	 mov	 eax, 1
  00114	66 89 85 ec f7
	ff ff		 mov	 WORD PTR _Message$4[ebp], ax

; 168  : 		_sntprintf_s(Message.szString,CountArray(Message.szString),

  0011b	8b 45 f8	 mov	 eax, DWORD PTR _this$[ebp]
  0011e	8b 48 34	 mov	 ecx, DWORD PTR [eax+52]
  00121	0f b7 01	 movzx	 eax, WORD PTR [ecx]
  00124	0f b7 0d 00 00
	00 00		 movzx	 ecx, WORD PTR ?m_wChairCount@CImmediateGroup@@1GA ; CImmediateGroup::m_wChairCount
  0012b	99		 cdq
  0012c	f7 f9		 idiv	 ecx
  0012e	8b f0		 mov	 esi, eax
  00130	8b 4d f8	 mov	 ecx, DWORD PTR _this$[ebp]
  00133	83 c1 68	 add	 ecx, 104		; 00000068H
  00136	e8 00 00 00 00	 call	 ?GetCount@?$CWHArray@PAUtagTableFrameInfo@@ABQAU1@@@QBEHXZ ; CWHArray<tagTableFrameInfo *,tagTableFrameInfo * const &>::GetCount
  0013b	2b f0		 sub	 esi, eax
  0013d	56		 push	 esi
  0013e	68 00 00 00 00	 push	 OFFSET ??_C@_0EA@BEFMOLA@?$LB?$KH?G?$LI?$KD?$KM?S?I?S?Z?$LJ?$PN?$LG?$OA?S?C?$LL?$KH?W?$MA?W?S?J?$PN?A?$LP?$LC?$LL?$LJ?$LL?$KD@
  00143	68 00 04 00 00	 push	 1024			; 00000400H
  00148	8d 95 f0 f7 ff
	ff		 lea	 edx, DWORD PTR _Message$4[ebp+4]
  0014e	52		 push	 edx
  0014f	e8 00 00 00 00	 call	 ??$_snprintf_s@$0EAA@@@YAHAAY0EAA@DIPBDZZ ; _snprintf_s<1024>
  00154	83 c4 10	 add	 esp, 16			; 00000010H

; 169  : 			TEXT("抱歉，由于过多用户桌子数量不够！还差 %d 张桌子开赛,请等待。。。"),m_pImmediateMatch->wStartUserCount/m_wChairCount-m_MatchTableArray.GetCount());
; 170  : 		Message.wLength=CountStringBuffer(Message.szString);

  00157	8d 85 f0 f7 ff
	ff		 lea	 eax, DWORD PTR _Message$4[ebp+4]
  0015d	50		 push	 eax
  0015e	ff 15 00 00 00
	00		 call	 DWORD PTR __imp__lstrlenA@4
  00164	83 c0 01	 add	 eax, 1
  00167	66 89 85 ee f7
	ff ff		 mov	 WORD PTR _Message$4[ebp+2], ax

; 171  : 
; 172  : 		//发送数据
; 173  : 		WORD wSendSize=sizeof(Message)-sizeof(Message.szString)+Message.wLength*sizeof(TCHAR);

  0016e	0f b7 85 ee f7
	ff ff		 movzx	 eax, WORD PTR _Message$4[ebp+2]
  00175	83 c0 04	 add	 eax, 4
  00178	66 89 85 e8 f7
	ff ff		 mov	 WORD PTR _wSendSize$3[ebp], ax

; 174  : 		m_pMatchSink->SendGroupData(MDM_CM_SYSTEM,SUB_CM_SYSTEM_MESSAGE,&Message,wSendSize, this);

  0017f	8b 45 f8	 mov	 eax, DWORD PTR _this$[ebp]
  00182	50		 push	 eax
  00183	0f b7 8d e8 f7
	ff ff		 movzx	 ecx, WORD PTR _wSendSize$3[ebp]
  0018a	51		 push	 ecx
  0018b	8d 95 ec f7 ff
	ff		 lea	 edx, DWORD PTR _Message$4[ebp]
  00191	52		 push	 edx
  00192	6a 01		 push	 1
  00194	68 e8 03 00 00	 push	 1000			; 000003e8H
  00199	8b 45 f8	 mov	 eax, DWORD PTR _this$[ebp]
  0019c	8b 48 2c	 mov	 ecx, DWORD PTR [eax+44]
  0019f	8b 55 f8	 mov	 edx, DWORD PTR _this$[ebp]
  001a2	8b 01		 mov	 eax, DWORD PTR [ecx]
  001a4	8b 4a 2c	 mov	 ecx, DWORD PTR [edx+44]
  001a7	8b 50 28	 mov	 edx, DWORD PTR [eax+40]
  001aa	ff d2		 call	 edx

; 175  : 		return ;

  001ac	e9 63 01 00 00	 jmp	 $LN1@EfficacySt
$LN4@EfficacySt:

; 176  : 	}
; 177  : 
; 178  : 	//预赛安排座位
; 179  : 	DWORD dwUserID=0L;

  001b1	c7 85 e4 f7 ff
	ff 00 00 00 00	 mov	 DWORD PTR _dwUserID$[ebp], 0

; 180  : 	IServerUserItem *pIServerUserItem=NULL;

  001bb	c7 85 e0 f7 ff
	ff 00 00 00 00	 mov	 DWORD PTR _pIServerUserItem$[ebp], 0

; 181  : 	POSITION pos=m_OnMatchUserMap.GetStartPosition();

  001c5	8b 4d f8	 mov	 ecx, DWORD PTR _this$[ebp]
  001c8	83 c1 38	 add	 ecx, 56			; 00000038H
  001cb	e8 00 00 00 00	 call	 ?GetStartPosition@?$CMap@KKPAUIServerUserItem@@PAU1@@@QBEPAU__POSITION@@XZ ; CMap<unsigned long,unsigned long,IServerUserItem *,IServerUserItem *>::GetStartPosition
  001d0	89 85 dc f7 ff
	ff		 mov	 DWORD PTR _pos$[ebp], eax

; 182  : 
; 183  : 	WORD wChairID=0;

  001d6	33 c0		 xor	 eax, eax
  001d8	66 89 85 d8 f7
	ff ff		 mov	 WORD PTR _wChairID$[ebp], ax
$LN2@EfficacySt:

; 184  : 	while (pos!=NULL)

  001df	83 bd dc f7 ff
	ff 00		 cmp	 DWORD PTR _pos$[ebp], 0
  001e6	0f 84 ca 00 00
	00		 je	 $LN3@EfficacySt

; 185  : 	{
; 186  : 		//获取用户
; 187  : 		m_OnMatchUserMap.GetNextAssoc(pos,dwUserID,pIServerUserItem);

  001ec	8d 85 e0 f7 ff
	ff		 lea	 eax, DWORD PTR _pIServerUserItem$[ebp]
  001f2	50		 push	 eax
  001f3	8d 8d e4 f7 ff
	ff		 lea	 ecx, DWORD PTR _dwUserID$[ebp]
  001f9	51		 push	 ecx
  001fa	8d 95 dc f7 ff
	ff		 lea	 edx, DWORD PTR _pos$[ebp]
  00200	52		 push	 edx
  00201	8b 4d f8	 mov	 ecx, DWORD PTR _this$[ebp]
  00204	83 c1 38	 add	 ecx, 56			; 00000038H
  00207	e8 00 00 00 00	 call	 ?GetNextAssoc@?$CMap@KKPAUIServerUserItem@@PAU1@@@QBEXAAPAU__POSITION@@AAKAAPAUIServerUserItem@@@Z ; CMap<unsigned long,unsigned long,IServerUserItem *,IServerUserItem *>::GetNextAssoc

; 188  : 		ASSERT(pIServerUserItem!=NULL);

  0020c	83 bd e0 f7 ff
	ff 00		 cmp	 DWORD PTR _pIServerUserItem$[ebp], 0
  00213	75 18		 jne	 SHORT $LN8@EfficacySt
  00215	a1 00 00 00 00	 mov	 eax, DWORD PTR ?__LINE__Var@?0??EfficacyStartMatch@CImmediateGroup@@IAEXXZ@4JA
  0021a	83 c0 31	 add	 eax, 49			; 00000031H
  0021d	50		 push	 eax
  0021e	68 00 00 00 00	 push	 OFFSET ??_C@_0EL@ONMMFGFJ@g?3?2?M?x?$LK?$PM?2happygamewh?2?$LH?$PO?N?q?$LG?K?2?O?$LF?M?$LD@
  00223	e8 00 00 00 00	 call	 ?AfxAssertFailedLine@@YGHPBDH@Z ; AfxAssertFailedLine
  00228	85 c0		 test	 eax, eax
  0022a	74 01		 je	 SHORT $LN8@EfficacySt
  0022c	cc		 int	 3
$LN8@EfficacySt:

; 189  : 
; 190  : 		InsertFreeGroup(pIServerUserItem);

  0022d	8b 85 e0 f7 ff
	ff		 mov	 eax, DWORD PTR _pIServerUserItem$[ebp]
  00233	50		 push	 eax
  00234	8b 4d f8	 mov	 ecx, DWORD PTR _this$[ebp]
  00237	e8 00 00 00 00	 call	 ?InsertFreeGroup@CImmediateGroup@@IAEXPAUIServerUserItem@@@Z ; CImmediateGroup::InsertFreeGroup

; 191  : 
; 192  : 		//设置用户比赛中
; 193  : 		pIServerUserItem->SetUserMatchStatus(MUS_PLAYING);

  0023c	6a 04		 push	 4
  0023e	8b 85 e0 f7 ff
	ff		 mov	 eax, DWORD PTR _pIServerUserItem$[ebp]
  00244	8b 10		 mov	 edx, DWORD PTR [eax]
  00246	8b 8d e0 f7 ff
	ff		 mov	 ecx, DWORD PTR _pIServerUserItem$[ebp]
  0024c	8b 82 ec 00 00
	00		 mov	 eax, DWORD PTR [edx+236]
  00252	ff d0		 call	 eax

; 194  : 		pIServerUserItem->SetMatchData(this);

  00254	8b 45 f8	 mov	 eax, DWORD PTR _this$[ebp]
  00257	50		 push	 eax
  00258	8b 8d e0 f7 ff
	ff		 mov	 ecx, DWORD PTR _pIServerUserItem$[ebp]
  0025e	8b 11		 mov	 edx, DWORD PTR [ecx]
  00260	8b 8d e0 f7 ff
	ff		 mov	 ecx, DWORD PTR _pIServerUserItem$[ebp]
  00266	8b 82 dc 00 00
	00		 mov	 eax, DWORD PTR [edx+220]
  0026c	ff d0		 call	 eax

; 195  : 
; 196  : 		//发送状态
; 197  : 		BYTE cbUserMatchStatus=pIServerUserItem->GetUserMatchStatus();

  0026e	8b 85 e0 f7 ff
	ff		 mov	 eax, DWORD PTR _pIServerUserItem$[ebp]
  00274	8b 10		 mov	 edx, DWORD PTR [eax]
  00276	8b 8d e0 f7 ff
	ff		 mov	 ecx, DWORD PTR _pIServerUserItem$[ebp]
  0027c	8b 82 e8 00 00
	00		 mov	 eax, DWORD PTR [edx+232]
  00282	ff d0		 call	 eax
  00284	88 85 d7 f7 ff
	ff		 mov	 BYTE PTR _cbUserMatchStatus$2[ebp], al

; 198  : 		m_pMatchSink->SendData(pIServerUserItem,MDM_GR_MATCH,SUB_GR_MATCH_USTATUS,&cbUserMatchStatus,sizeof(cbUserMatchStatus));

  0028a	6a 01		 push	 1
  0028c	8d 85 d7 f7 ff
	ff		 lea	 eax, DWORD PTR _cbUserMatchStatus$2[ebp]
  00292	50		 push	 eax
  00293	6a 0b		 push	 11			; 0000000bH
  00295	6a 0a		 push	 10			; 0000000aH
  00297	8b 8d e0 f7 ff
	ff		 mov	 ecx, DWORD PTR _pIServerUserItem$[ebp]
  0029d	51		 push	 ecx
  0029e	8b 55 f8	 mov	 edx, DWORD PTR _this$[ebp]
  002a1	8b 42 2c	 mov	 eax, DWORD PTR [edx+44]
  002a4	8b 4d f8	 mov	 ecx, DWORD PTR _this$[ebp]
  002a7	8b 10		 mov	 edx, DWORD PTR [eax]
  002a9	8b 49 2c	 mov	 ecx, DWORD PTR [ecx+44]
  002ac	8b 42 2c	 mov	 eax, DWORD PTR [edx+44]
  002af	ff d0		 call	 eax

; 199  : 	}

  002b1	e9 29 ff ff ff	 jmp	 $LN2@EfficacySt
$LN3@EfficacySt:

; 200  : 
; 201  : 	//桌子自动拉人
; 202  : 	PerformDistributeTable();

  002b6	8b 4d f8	 mov	 ecx, DWORD PTR _this$[ebp]
  002b9	e8 00 00 00 00	 call	 ?PerformDistributeTable@CImmediateGroup@@IAEXXZ ; CImmediateGroup::PerformDistributeTable

; 203  : 
; 204  : 	//设置状态	
; 205  : 	m_cbMatchStatus=MatchStatus_Playing;

  002be	8b 45 f8	 mov	 eax, DWORD PTR _this$[ebp]
  002c1	c6 40 18 03	 mov	 BYTE PTR [eax+24], 3

; 206  : 
; 207  : 	//记录时间
; 208  : 	CTime::GetCurrentTime().GetAsSystemTime(m_MatchStartTime);

  002c5	8b 45 f8	 mov	 eax, DWORD PTR _this$[ebp]
