; Listing generated by Microsoft (R) Optimizing Compiler Version 19.16.27032.1 

	TITLE	G:\网狐\HappyGameWH\服务端\系统模块\服务器组件\比赛服务\ImmediateGroup.cpp
	.686P
	.XMM
	include listing.inc
	.model	flat

INCLUDELIB MSVCRTD
INCLUDELIB OLDNAMES

PUBLIC	?m_wChairCount@CImmediateGroup@@1GA		; CImmediateGroup::m_wChairCount
_BSS	SEGMENT
?m_wChairCount@CImmediateGroup@@1GA DW 01H DUP (?)	; CImmediateGroup::m_wChairCount
_BSS	ENDS
CONST	SEGMENT
?IID_IUnknownEx@@3U_GUID@@B DD 05feec21eH		; IID_IUnknownEx
	DW	0dbf3H
	DW	046f0H
	DB	09fH
	DB	057H
	DB	0d1H
	DB	0cdH
	DB	071H
	DB	01cH
	DB	046H
	DB	0deH
?IID_IMatchServiceManager@@3U_GUID@@B DD 07d381e8aH	; IID_IMatchServiceManager
	DW	08c10H
	DW	04443H
	DB	0b5H
	DB	0adH
	DB	075H
	DB	04bH
	DB	0e5H
	DB	050H
	DB	0c5H
	DB	053H
?IID_IMatchEventSink@@3U_GUID@@B DD 091cf29a0H		; IID_IMatchEventSink
	DW	04d3H
	DW	048daH
	DB	083H
	DB	036H
	DB	064H
	DB	0b2H
	DB	0daH
	DB	06aH
	DB	021H
	DB	0dbH
CONST	ENDS
PUBLIC	?__empty_global_delete@@YAXPAX@Z		; __empty_global_delete
PUBLIC	?__empty_global_delete@@YAXPAXI@Z		; __empty_global_delete
PUBLIC	??2@YAPAXIPAX@Z					; operator new
PUBLIC	_IsEqualGUID
PUBLIC	_==
PUBLIC	_HRESULT_FROM_WIN32
PUBLIC	___local_stdio_printf_options
PUBLIC	__vswprintf_s_l
PUBLIC	_swprintf_s
PUBLIC	__vsnprintf_s_l
PUBLIC	__vsnprintf_s
PUBLIC	__vscprintf_l
PUBLIC	__vscprintf
PUBLIC	?AfxAssertFailedLine@@YGHPBDH@Z			; AfxAssertFailedLine
PUBLIC	?AtlThrowImpl@ATL@@YGXJ@Z			; ATL::AtlThrowImpl
PUBLIC	??$AtlMultiply@I@ATL@@YAJPAIII@Z		; ATL::AtlMultiply<unsigned int>
PUBLIC	?Allocate@CCRTAllocator@ATL@@SAPAXI@Z		; ATL::CCRTAllocator::Allocate
PUBLIC	?Free@CCRTAllocator@ATL@@SAXPAX@Z		; ATL::CCRTAllocator::Free
PUBLIC	??0?$CTraceCategoryEx@$0CAAA@$0A@@ATL@@QAE@PBD@Z ; ATL::CTraceCategoryEx<8192,0>::CTraceCategoryEx<8192,0>
PUBLIC	??B?$CTraceCategoryEx@$0CAAA@$0A@@ATL@@QAEIXZ	; ATL::CTraceCategoryEx<8192,0>::operator unsigned int
PUBLIC	?GetCategoryName@CTrace@ATL@@CAPA_WI@Z		; ATL::CTrace::GetCategoryName
PUBLIC	?TraceV@CTrace@ATL@@CAXPBDHIIPB_W@Z		; ATL::CTrace::TraceV
PUBLIC	?TraceV@CTrace@ATL@@SAXPBDHII0PAD@Z		; ATL::CTrace::TraceV
PUBLIC	?RegisterCategory@CTrace@ATL@@SAXPBDI@Z		; ATL::CTrace::RegisterCategory
PUBLIC	??0?$CHeapPtrBase@_WVCCRTAllocator@ATL@@@ATL@@IAE@XZ ; ATL::CHeapPtrBase<wchar_t,ATL::CCRTAllocator>::CHeapPtrBase<wchar_t,ATL::CCRTAllocator>
PUBLIC	??1?$CHeapPtrBase@_WVCCRTAllocator@ATL@@@ATL@@QAE@XZ ; ATL::CHeapPtrBase<wchar_t,ATL::CCRTAllocator>::~CHeapPtrBase<wchar_t,ATL::CCRTAllocator>
PUBLIC	??B?$CHeapPtrBase@_WVCCRTAllocator@ATL@@@ATL@@QBEPA_WXZ ; ATL::CHeapPtrBase<wchar_t,ATL::CCRTAllocator>::operator wchar_t *
PUBLIC	?AllocateBytes@?$CHeapPtrBase@_WVCCRTAllocator@ATL@@@ATL@@QAE_NI@Z ; ATL::CHeapPtrBase<wchar_t,ATL::CCRTAllocator>::AllocateBytes
PUBLIC	?Free@?$CHeapPtrBase@_WVCCRTAllocator@ATL@@@ATL@@QAEXXZ ; ATL::CHeapPtrBase<wchar_t,ATL::CCRTAllocator>::Free
PUBLIC	??0?$CHeapPtr@_WVCCRTAllocator@ATL@@@ATL@@QAE@XZ ; ATL::CHeapPtr<wchar_t,ATL::CCRTAllocator>::CHeapPtr<wchar_t,ATL::CCRTAllocator>
PUBLIC	?Allocate@?$CHeapPtr@_WVCCRTAllocator@ATL@@@ATL@@QAE_NI@Z ; ATL::CHeapPtr<wchar_t,ATL::CCRTAllocator>::Allocate
PUBLIC	??1?$CHeapPtr@_WVCCRTAllocator@ATL@@@ATL@@QAE@XZ ; ATL::CHeapPtr<wchar_t,ATL::CCRTAllocator>::~CHeapPtr<wchar_t,ATL::CCRTAllocator>
PUBLIC	??0?$CHeapPtrBase@DVCCRTAllocator@ATL@@@ATL@@IAE@XZ ; ATL::CHeapPtrBase<char,ATL::CCRTAllocator>::CHeapPtrBase<char,ATL::CCRTAllocator>
PUBLIC	??1?$CHeapPtrBase@DVCCRTAllocator@ATL@@@ATL@@QAE@XZ ; ATL::CHeapPtrBase<char,ATL::CCRTAllocator>::~CHeapPtrBase<char,ATL::CCRTAllocator>
PUBLIC	??B?$CHeapPtrBase@DVCCRTAllocator@ATL@@@ATL@@QBEPADXZ ; ATL::CHeapPtrBase<char,ATL::CCRTAllocator>::operator char *
PUBLIC	?AllocateBytes@?$CHeapPtrBase@DVCCRTAllocator@ATL@@@ATL@@QAE_NI@Z ; ATL::CHeapPtrBase<char,ATL::CCRTAllocator>::AllocateBytes
PUBLIC	?Free@?$CHeapPtrBase@DVCCRTAllocator@ATL@@@ATL@@QAEXXZ ; ATL::CHeapPtrBase<char,ATL::CCRTAllocator>::Free
PUBLIC	??0?$CHeapPtr@DVCCRTAllocator@ATL@@@ATL@@QAE@XZ	; ATL::CHeapPtr<char,ATL::CCRTAllocator>::CHeapPtr<char,ATL::CCRTAllocator>
PUBLIC	?Allocate@?$CHeapPtr@DVCCRTAllocator@ATL@@@ATL@@QAE_NI@Z ; ATL::CHeapPtr<char,ATL::CCRTAllocator>::Allocate
PUBLIC	??1?$CHeapPtr@DVCCRTAllocator@ATL@@@ATL@@QAE@XZ	; ATL::CHeapPtr<char,ATL::CCRTAllocator>::~CHeapPtr<char,ATL::CCRTAllocator>
PUBLIC	??0CPreserveLastError@ATL@@QAE@XZ		; ATL::CPreserveLastError::CPreserveLastError
PUBLIC	??1CPreserveLastError@ATL@@QAE@XZ		; ATL::CPreserveLastError::~CPreserveLastError
PUBLIC	??0CTraceFileAndLineInfo@ATL@@QAE@PBDH@Z	; ATL::CTraceFileAndLineInfo::CTraceFileAndLineInfo
PUBLIC	??RCTraceFileAndLineInfo@ATL@@QBAXHIPBDZZ	; ATL::CTraceFileAndLineInfo::operator()
PUBLIC	?GetTickCount@CTime@ATL@@SG?AV12@XZ		; ATL::CTime::GetTickCount
PUBLIC	??0CTime@ATL@@QAE@_J@Z				; ATL::CTime::CTime
PUBLIC	?GetLocalTm@CTime@ATL@@QBEPAUtm@@PAU3@@Z	; ATL::CTime::GetLocalTm
PUBLIC	?GetAsSystemTime@CTime@ATL@@QBE_NAAU_SYSTEMTIME@@@Z ; ATL::CTime::GetAsSystemTime
PUBLIC	?data@CPlex@@QAEPAXXZ				; CPlex::data
PUBLIC	??$HashKey@K@@YGIK@Z				; HashKey<unsigned long>
PUBLIC	??0IUnknownEx@@QAE@XZ				; IUnknownEx::IUnknownEx
PUBLIC	?GetProductVer@@YAEK@Z				; GetProductVer
PUBLIC	?GetMainVer@@YAEK@Z				; GetMainVer
PUBLIC	?GetSubVer@@YAEK@Z				; GetSubVer
PUBLIC	?GetBuildVer@@YAEK@Z				; GetBuildVer
PUBLIC	?InterfaceVersionCompare@@YA_NKK@Z		; InterfaceVersionCompare
PUBLIC	??$SerializeElements@K@@YGXAAVCArchive@@PAKH@Z	; SerializeElements<unsigned long>
PUBLIC	??$DumpElements@K@@YGXAAVCDumpContext@@PBKH@Z	; DumpElements<unsigned long>
PUBLIC	??$CompareElements@KK@@YGHPBK0@Z		; CompareElements<unsigned long,unsigned long>
PUBLIC	??0IMatchEventSink@@QAE@XZ			; IMatchEventSink::IMatchEventSink
PUBLIC	??0?$CMap@KKPAUIServerUserItem@@PAU1@@@QAE@H@Z	; CMap<unsigned long,unsigned long,IServerUserItem *,IServerUserItem *>::CMap<unsigned long,unsigned long,IServerUserItem *,IServerUserItem *>
PUBLIC	?GetCount@?$CMap@KKPAUIServerUserItem@@PAU1@@@QBEHXZ ; CMap<unsigned long,unsigned long,IServerUserItem *,IServerUserItem *>::GetCount
PUBLIC	?Lookup@?$CMap@KKPAUIServerUserItem@@PAU1@@@QBEHKAAPAUIServerUserItem@@@Z ; CMap<unsigned long,unsigned long,IServerUserItem *,IServerUserItem *>::Lookup
PUBLIC	??A?$CMap@KKPAUIServerUserItem@@PAU1@@@QAEAAPAUIServerUserItem@@K@Z ; CMap<unsigned long,unsigned long,IServerUserItem *,IServerUserItem *>::operator[]
PUBLIC	?SetAt@?$CMap@KKPAUIServerUserItem@@PAU1@@@QAEXKPAUIServerUserItem@@@Z ; CMap<unsigned long,unsigned long,IServerUserItem *,IServerUserItem *>::SetAt
PUBLIC	?RemoveKey@?$CMap@KKPAUIServerUserItem@@PAU1@@@QAEHK@Z ; CMap<unsigned long,unsigned long,IServerUserItem *,IServerUserItem *>::RemoveKey
PUBLIC	?RemoveAll@?$CMap@KKPAUIServerUserItem@@PAU1@@@QAEXXZ ; CMap<unsigned long,unsigned long,IServerUserItem *,IServerUserItem *>::RemoveAll
PUBLIC	?GetStartPosition@?$CMap@KKPAUIServerUserItem@@PAU1@@@QBEPAU__POSITION@@XZ ; CMap<unsigned long,unsigned long,IServerUserItem *,IServerUserItem *>::GetStartPosition
PUBLIC	?GetNextAssoc@?$CMap@KKPAUIServerUserItem@@PAU1@@@QBEXAAPAU__POSITION@@AAKAAPAUIServerUserItem@@@Z ; CMap<unsigned long,unsigned long,IServerUserItem *,IServerUserItem *>::GetNextAssoc
PUBLIC	?InitHashTable@?$CMap@KKPAUIServerUserItem@@PAU1@@@QAEXIH@Z ; CMap<unsigned long,unsigned long,IServerUserItem *,IServerUserItem *>::InitHashTable
PUBLIC	?NewAssoc@?$CMap@KKPAUIServerUserItem@@PAU1@@@IAEPAVCAssoc@1@K@Z ; CMap<unsigned long,unsigned long,IServerUserItem *,IServerUserItem *>::NewAssoc
PUBLIC	?FreeAssoc@?$CMap@KKPAUIServerUserItem@@PAU1@@@IAEXPAVCAssoc@1@@Z ; CMap<unsigned long,unsigned long,IServerUserItem *,IServerUserItem *>::FreeAssoc
PUBLIC	?GetAssocAt@?$CMap@KKPAUIServerUserItem@@PAU1@@@IBEPAVCAssoc@1@KAAI0@Z ; CMap<unsigned long,unsigned long,IServerUserItem *,IServerUserItem *>::GetAssocAt
PUBLIC	??1?$CMap@KKPAUIServerUserItem@@PAU1@@@UAE@XZ	; CMap<unsigned long,unsigned long,IServerUserItem *,IServerUserItem *>::~CMap<unsigned long,unsigned long,IServerUserItem *,IServerUserItem *>
PUBLIC	?Serialize@?$CMap@KKPAUIServerUserItem@@PAU1@@@UAEXAAVCArchive@@@Z ; CMap<unsigned long,unsigned long,IServerUserItem *,IServerUserItem *>::Serialize
PUBLIC	?Dump@?$CMap@KKPAUIServerUserItem@@PAU1@@@UBEXAAVCDumpContext@@@Z ; CMap<unsigned long,unsigned long,IServerUserItem *,IServerUserItem *>::Dump
PUBLIC	?AssertValid@?$CMap@KKPAUIServerUserItem@@PAU1@@@UBEXXZ ; CMap<unsigned long,unsigned long,IServerUserItem *,IServerUserItem *>::AssertValid
PUBLIC	??_G?$CMap@KKPAUIServerUserItem@@PAU1@@@UAEPAXI@Z ; CMap<unsigned long,unsigned long,IServerUserItem *,IServerUserItem *>::`scalar deleting destructor'
PUBLIC	??0?$CWHArray@PAUIServerUserItem@@ABQAU1@@@QAE@XZ ; CWHArray<IServerUserItem *,IServerUserItem * const &>::CWHArray<IServerUserItem *,IServerUserItem * const &>
PUBLIC	??1?$CWHArray@PAUIServerUserItem@@ABQAU1@@@UAE@XZ ; CWHArray<IServerUserItem *,IServerUserItem * const &>::~CWHArray<IServerUserItem *,IServerUserItem * const &>
PUBLIC	?GetCount@?$CWHArray@PAUIServerUserItem@@ABQAU1@@@QBEHXZ ; CWHArray<IServerUserItem *,IServerUserItem * const &>::GetCount
PUBLIC	?Add@?$CWHArray@PAUIServerUserItem@@ABQAU1@@@QAEHABQAUIServerUserItem@@@Z ; CWHArray<IServerUserItem *,IServerUserItem * const &>::Add
PUBLIC	?ElementAt@?$CWHArray@PAUIServerUserItem@@ABQAU1@@@QAEAAPAUIServerUserItem@@H@Z ; CWHArray<IServerUserItem *,IServerUserItem * const &>::ElementAt
PUBLIC	?SetSize@?$CWHArray@PAUIServerUserItem@@ABQAU1@@@QAEXH@Z ; CWHArray<IServerUserItem *,IServerUserItem * const &>::SetSize
PUBLIC	?SetAtGrow@?$CWHArray@PAUIServerUserItem@@ABQAU1@@@QAEXHABQAUIServerUserItem@@@Z ; CWHArray<IServerUserItem *,IServerUserItem * const &>::SetAtGrow
PUBLIC	?RemoveAt@?$CWHArray@PAUIServerUserItem@@ABQAU1@@@QAEXHH@Z ; CWHArray<IServerUserItem *,IServerUserItem * const &>::RemoveAt
PUBLIC	?RemoveAll@?$CWHArray@PAUIServerUserItem@@ABQAU1@@@QAEXXZ ; CWHArray<IServerUserItem *,IServerUserItem * const &>::RemoveAll
PUBLIC	??A?$CWHArray@PAUIServerUserItem@@ABQAU1@@@QAEAAPAUIServerUserItem@@H@Z ; CWHArray<IServerUserItem *,IServerUserItem * const &>::operator[]
PUBLIC	?AllocMemory@?$CWHArray@PAUIServerUserItem@@ABQAU1@@@QAEXH@Z ; CWHArray<IServerUserItem *,IServerUserItem * const &>::AllocMemory
PUBLIC	??_G?$CWHArray@PAUIServerUserItem@@ABQAU1@@@UAEPAXI@Z ; CWHArray<IServerUserItem *,IServerUserItem * const &>::`scalar deleting destructor'
PUBLIC	??0?$CWHArray@PAUtagTableFrameInfo@@ABQAU1@@@QAE@XZ ; CWHArray<tagTableFrameInfo *,tagTableFrameInfo * const &>::CWHArray<tagTableFrameInfo *,tagTableFrameInfo * const &>
PUBLIC	??1?$CWHArray@PAUtagTableFrameInfo@@ABQAU1@@@UAE@XZ ; CWHArray<tagTableFrameInfo *,tagTableFrameInfo * const &>::~CWHArray<tagTableFrameInfo *,tagTableFrameInfo * const &>
PUBLIC	?GetCount@?$CWHArray@PAUtagTableFrameInfo@@ABQAU1@@@QBEHXZ ; CWHArray<tagTableFrameInfo *,tagTableFrameInfo * const &>::GetCount
PUBLIC	?Add@?$CWHArray@PAUtagTableFrameInfo@@ABQAU1@@@QAEHABQAUtagTableFrameInfo@@@Z ; CWHArray<tagTableFrameInfo *,tagTableFrameInfo * const &>::Add
PUBLIC	?ElementAt@?$CWHArray@PAUtagTableFrameInfo@@ABQAU1@@@QAEAAPAUtagTableFrameInfo@@H@Z ; CWHArray<tagTableFrameInfo *,tagTableFrameInfo * const &>::ElementAt
PUBLIC	?SetSize@?$CWHArray@PAUtagTableFrameInfo@@ABQAU1@@@QAEXH@Z ; CWHArray<tagTableFrameInfo *,tagTableFrameInfo * const &>::SetSize
PUBLIC	?SetAtGrow@?$CWHArray@PAUtagTableFrameInfo@@ABQAU1@@@QAEXHABQAUtagTableFrameInfo@@@Z ; CWHArray<tagTableFrameInfo *,tagTableFrameInfo * const &>::SetAtGrow
PUBLIC	?RemoveAll@?$CWHArray@PAUtagTableFrameInfo@@ABQAU1@@@QAEXXZ ; CWHArray<tagTableFrameInfo *,tagTableFrameInfo * const &>::RemoveAll
PUBLIC	??A?$CWHArray@PAUtagTableFrameInfo@@ABQAU1@@@QAEAAPAUtagTableFrameInfo@@H@Z ; CWHArray<tagTableFrameInfo *,tagTableFrameInfo * const &>::operator[]
PUBLIC	?AllocMemory@?$CWHArray@PAUtagTableFrameInfo@@ABQAU1@@@QAEXH@Z ; CWHArray<tagTableFrameInfo *,tagTableFrameInfo * const &>::AllocMemory
PUBLIC	??_G?$CWHArray@PAUtagTableFrameInfo@@ABQAU1@@@UAEPAXI@Z ; CWHArray<tagTableFrameInfo *,tagTableFrameInfo * const &>::`scalar deleting destructor'
PUBLIC	??0?$CWHArray@PAUtagMatchTimer@@ABQAU1@@@QAE@XZ	; CWHArray<tagMatchTimer *,tagMatchTimer * const &>::CWHArray<tagMatchTimer *,tagMatchTimer * const &>
PUBLIC	??1?$CWHArray@PAUtagMatchTimer@@ABQAU1@@@UAE@XZ	; CWHArray<tagMatchTimer *,tagMatchTimer * const &>::~CWHArray<tagMatchTimer *,tagMatchTimer * const &>
PUBLIC	?GetCount@?$CWHArray@PAUtagMatchTimer@@ABQAU1@@@QBEHXZ ; CWHArray<tagMatchTimer *,tagMatchTimer * const &>::GetCount
PUBLIC	?Add@?$CWHArray@PAUtagMatchTimer@@ABQAU1@@@QAEHABQAUtagMatchTimer@@@Z ; CWHArray<tagMatchTimer *,tagMatchTimer * const &>::Add
PUBLIC	?ElementAt@?$CWHArray@PAUtagMatchTimer@@ABQAU1@@@QAEAAPAUtagMatchTimer@@H@Z ; CWHArray<tagMatchTimer *,tagMatchTimer * const &>::ElementAt
PUBLIC	?SetSize@?$CWHArray@PAUtagMatchTimer@@ABQAU1@@@QAEXH@Z ; CWHArray<tagMatchTimer *,tagMatchTimer * const &>::SetSize
PUBLIC	?SetAtGrow@?$CWHArray@PAUtagMatchTimer@@ABQAU1@@@QAEXHABQAUtagMatchTimer@@@Z ; CWHArray<tagMatchTimer *,tagMatchTimer * const &>::SetAtGrow
PUBLIC	?RemoveAt@?$CWHArray@PAUtagMatchTimer@@ABQAU1@@@QAEXHH@Z ; CWHArray<tagMatchTimer *,tagMatchTimer * const &>::RemoveAt
PUBLIC	??A?$CWHArray@PAUtagMatchTimer@@ABQAU1@@@QAEAAPAUtagMatchTimer@@H@Z ; CWHArray<tagMatchTimer *,tagMatchTimer * const &>::operator[]
PUBLIC	?AllocMemory@?$CWHArray@PAUtagMatchTimer@@ABQAU1@@@QAEXH@Z ; CWHArray<tagMatchTimer *,tagMatchTimer * const &>::AllocMemory
PUBLIC	??_G?$CWHArray@PAUtagMatchTimer@@ABQAU1@@@UAEPAXI@Z ; CWHArray<tagMatchTimer *,tagMatchTimer * const &>::`scalar deleting destructor'
PUBLIC	??0CImmediateGroup@@QAE@_JPAUtagGameMatchOption@@PAUIImmediateGroupSink@@@Z ; CImmediateGroup::CImmediateGroup
PUBLIC	??1CImmediateGroup@@UAE@XZ			; CImmediateGroup::~CImmediateGroup
PUBLIC	?Release@CImmediateGroup@@UAEXXZ		; CImmediateGroup::Release
PUBLIC	?QueryInterface@CImmediateGroup@@UAEPAXABU_GUID@@K@Z ; CImmediateGroup::QueryInterface
PUBLIC	?OnEventGameStart@CImmediateGroup@@UAE_NPAUITableFrame@@G@Z ; CImmediateGroup::OnEventGameStart
PUBLIC	?OnEventGameEnd@CImmediateGroup@@UAE_NPAUITableFrame@@GPAUIServerUserItem@@E@Z ; CImmediateGroup::OnEventGameEnd
PUBLIC	?OnEventUserReturnMatch@CImmediateGroup@@UAE_NPAUITableFrame@@PAUIServerUserItem@@@Z ; CImmediateGroup::OnEventUserReturnMatch
PUBLIC	?OnActionUserSitDown@CImmediateGroup@@UAE_NGGPAUIServerUserItem@@_N@Z ; CImmediateGroup::OnActionUserSitDown
PUBLIC	?OnActionUserStandUp@CImmediateGroup@@UAE_NGGPAUIServerUserItem@@_N@Z ; CImmediateGroup::OnActionUserStandUp
PUBLIC	?OnActionUserOnReady@CImmediateGroup@@UAE_NGGPAUIServerUserItem@@PAXG@Z ; CImmediateGroup::OnActionUserOnReady
PUBLIC	?OnUserSignUpMatch@CImmediateGroup@@QAE_NPAUIServerUserItem@@@Z ; CImmediateGroup::OnUserSignUpMatch
PUBLIC	?OnUserQuitMatch@CImmediateGroup@@QAE_NPAUIServerUserItem@@@Z ; CImmediateGroup::OnUserQuitMatch
PUBLIC	?InsertFreeGroup@CImmediateGroup@@IAEXPAUIServerUserItem@@@Z ; CImmediateGroup::InsertFreeGroup
PUBLIC	?OnTimeMessage@CImmediateGroup@@IAE_NKI@Z	; CImmediateGroup::OnTimeMessage
PUBLIC	?MatchOver@CImmediateGroup@@IAEXXZ		; CImmediateGroup::MatchOver
PUBLIC	?EfficacyStartMatch@CImmediateGroup@@IAEXXZ	; CImmediateGroup::EfficacyStartMatch
PUBLIC	?ContinueGame@CImmediateGroup@@IAEXPAUITableFrame@@@Z ; CImmediateGroup::ContinueGame
PUBLIC	?SortMapUser@CImmediateGroup@@IAEGQAUtagMatchScore@@@Z ; CImmediateGroup::SortMapUser
PUBLIC	?GetTableInterface@CImmediateGroup@@IAEPAUtagTableFrameInfo@@PAUITableFrame@@@Z ; CImmediateGroup::GetTableInterface
PUBLIC	?GetUserRank@CImmediateGroup@@IAEGPAUIServerUserItem@@PAUITableFrame@@@Z ; CImmediateGroup::GetUserRank
PUBLIC	?SendGroupMessage@CImmediateGroup@@IAEXPBD@Z	; CImmediateGroup::SendGroupMessage
PUBLIC	?SendTableMatchInfo@CImmediateGroup@@IAEXPAUITableFrame@@G@Z ; CImmediateGroup::SendTableMatchInfo
PUBLIC	?SendWaitMessage@CImmediateGroup@@IAEXPAUITableFrame@@G@Z ; CImmediateGroup::SendWaitMessage
PUBLIC	?PerformDistributeTable@CImmediateGroup@@IAEXXZ	; CImmediateGroup::PerformDistributeTable
PUBLIC	?PerformAllUserStandUp@CImmediateGroup@@IAEXXZ	; CImmediateGroup::PerformAllUserStandUp
PUBLIC	?PerformAllUserStandUp@CImmediateGroup@@IAEXPAUITableFrame@@@Z ; CImmediateGroup::PerformAllUserStandUp
PUBLIC	?CheckMatchUser@CImmediateGroup@@IAE_NXZ	; CImmediateGroup::CheckMatchUser
PUBLIC	?CheckMatchTaskFinish@CImmediateGroup@@IAE_NXZ	; CImmediateGroup::CheckMatchTaskFinish
PUBLIC	?CheckSwitchTaskFinish@CImmediateGroup@@IAE_NXZ	; CImmediateGroup::CheckSwitchTaskFinish
PUBLIC	?CheckTableStart@CImmediateGroup@@IAEXPAUITableFrame@@@Z ; CImmediateGroup::CheckTableStart
PUBLIC	?CaptureMatchTimer@CImmediateGroup@@IAEXXZ	; CImmediateGroup::CaptureMatchTimer
PUBLIC	?AllKillMatchTimer@CImmediateGroup@@IAEXXZ	; CImmediateGroup::AllKillMatchTimer
PUBLIC	?KillMatchTimer@CImmediateGroup@@IAE_NH@Z	; CImmediateGroup::KillMatchTimer
PUBLIC	?KillMatchGameTimer@CImmediateGroup@@IAEXK@Z	; CImmediateGroup::KillMatchGameTimer
PUBLIC	?KillMatchTimer@CImmediateGroup@@IAE_NKI@Z	; CImmediateGroup::KillMatchTimer
PUBLIC	?PostMatchTimer@CImmediateGroup@@IAEXKHIJ@Z	; CImmediateGroup::PostMatchTimer
PUBLIC	?SetMatchGameTimer@CImmediateGroup@@IAEXKKKI@Z	; CImmediateGroup::SetMatchGameTimer
PUBLIC	??_GCImmediateGroup@@UAEPAXI@Z			; CImmediateGroup::`scalar deleting destructor'
PUBLIC	??$_snprintf_s@$0EAA@@@YAHAAY0EAA@DIPBDZZ	; _snprintf_s<1024>
PUBLIC	??$_snprintf_s@$0BAA@@@YAHAAY0BAA@DIPBDZZ	; _snprintf_s<256>
PUBLIC	??$_snprintf_s@$0IA@@@YAHAAY0IA@DIPBDZZ		; _snprintf_s<128>
PUBLIC	??$_snprintf_s@$0EA@@@YAHAAY0EA@DIPBDZZ		; _snprintf_s<64>
PUBLIC	??0CPair@?$CMap@KKPAUIServerUserItem@@PAU1@@@IAE@K@Z ; CMap<unsigned long,unsigned long,IServerUserItem *,IServerUserItem *>::CPair::CPair
PUBLIC	??0CAssoc@?$CMap@KKPAUIServerUserItem@@PAU1@@@QAE@K@Z ; CMap<unsigned long,unsigned long,IServerUserItem *,IServerUserItem *>::CAssoc::CAssoc
PUBLIC	??$SerializeElements@PAUIServerUserItem@@@@YGXAAVCArchive@@PAPAUIServerUserItem@@H@Z ; SerializeElements<IServerUserItem *>
PUBLIC	??$DumpElements@PAUIServerUserItem@@@@YGXAAVCDumpContext@@PBQAUIServerUserItem@@H@Z ; DumpElements<IServerUserItem *>
PUBLIC	?_OptionsStorage@?1??__local_stdio_printf_options@@9@4_KA ; `__local_stdio_printf_options'::`2'::_OptionsStorage
PUBLIC	??_C@_17CNPHIMPH@?$AA?$CF?$AAl?$AAs@		; `string'
PUBLIC	??_C@_1OE@IAPLKPHI@?$AAc?$AA?3?$AA?2?$AAp?$AAr?$AAo?$AAg?$AAr?$AAa?$AAm?$AA?5?$AAf?$AAi?$AAl?$AAe@ ; `string'
PUBLIC	?atlTraceException@ATL@@3V?$CTraceCategoryEx@$0CAAA@$0A@@1@A ; ATL::atlTraceException
PUBLIC	??_C@_0BC@PGMFNIFA@atlTraceException@		; `string'
PUBLIC	?m_nLevel@CTrace@ATL@@1IA			; ATL::CTrace::m_nLevel
PUBLIC	?m_nCategory@CTrace@ATL@@1IA			; ATL::CTrace::m_nCategory
PUBLIC	?m_nLastCategory@CTrace@ATL@@1IA		; ATL::CTrace::m_nLastCategory
PUBLIC	?m_nMap@CTrace@ATL@@1PAUCategoryMap@12@A	; ATL::CTrace::m_nMap
PUBLIC	??_C@_1O@LFNDFEBP@?$AA?$CF?$AAl?$AAs?$AA?5?$AA?9?$AA?5@ ; `string'
PUBLIC	??_C@_1M@PGKOAACE@?$AA?$CF?$AAu?$AA?5?$AA?9?$AA?5@ ; `string'
PUBLIC	??_C@_1O@OAIPCDPO@?$AA?$CF?$AAl?$AAs?$AA?$CF?$AAl?$AAs@ ; `string'
PUBLIC	??_C@_17LGGGMOOB@?$AA?$CF?$AAh?$AAs@		; `string'
PUBLIC	??_C@_1EO@EBPPKGOM@?$AAf?$AAa?$AAl?$AAs?$AAe?$AA?5?$AA?$CG?$AA?$CG?$AA?5?$AA?$CC?$AAT?$AAo?$AAo?$AA?5?$AAm@ ; `string'
PUBLIC	??_C@_1OE@PDFAMNPL@?$AAc?$AA?3?$AA?2?$AAp?$AAr?$AAo?$AAg?$AAr?$AAa?$AAm?$AA?5?$AAf?$AAi?$AAl?$AAe@ ; `string'
PUBLIC	?__LINE__Var@?0??AtlThrowImpl@ATL@@YGXJ@Z@4JA	; `ATL::AtlThrowImpl'::`1'::__LINE__Var
PUBLIC	??_C@_0HD@OEBHCJKM@c?3?2program?5files?5?$CIx86?$CJ?2microsof@ ; `string'
PUBLIC	??_C@_0BF@IAAKIJDJ@AtlThrow?3?5hr?5?$DN?50x?$CFx?6@ ; `string'
PUBLIC	??_C@_1BM@GBBOFEAE@?$AA_?$AA_?$AAa?$AAt?$AAl?$AA_?$AAc?$AAo?$AAn?$AAd?$AAV?$AAa?$AAl@ ; `string'
PUBLIC	??_C@_1OC@IALJLBM@?$AAc?$AA?3?$AA?2?$AAp?$AAr?$AAo?$AAg?$AAr?$AAa?$AAm?$AA?5?$AAf?$AAi?$AAl?$AAe@ ; `string'
PUBLIC	?__LINE__Var@?0??GetLocalTm@CTime@ATL@@QBEPAUtm@@PAU4@@Z@4JA ; `ATL::CTime::GetLocalTm'::`1'::__LINE__Var
PUBLIC	??_C@_00CNPNBAHC@@				; `string'
PUBLIC	??_7IUnknownEx@@6B@				; IUnknownEx::`vftable'
PUBLIC	??_C@_1BK@NHECDDNK@?$AAm?$AA_?$AAp?$AAD?$AAa?$AAt?$AAa?$AA?5?$AA?$DN?$AA?$DN?$AA?5?$AA0@ ; `string'
PUBLIC	??_C@_0HC@HBCNBCLF@c?3?2program?5files?5?$CIx86?$CJ?2microsof@ ; `string'
PUBLIC	??_C@_05PLCFPPOI@with?5@			; `string'
PUBLIC	??_C@_09HCLNAIDE@?5elements@			; `string'
PUBLIC	??_C@_01EEMJAFIK@?6@				; `string'
PUBLIC	??_C@_03OHJIHPJH@?6?7?$FL@			; `string'
PUBLIC	??_C@_04OAFLPOMH@?$FN?5?$DN?5@			; `string'
PUBLIC	??_R1A@?0A@EA@CObject@@8			; CObject::`RTTI Base Class Descriptor at (0,-1,0,64)'
PUBLIC	??_R0?AVCObject@@@8				; CObject `RTTI Type Descriptor'
PUBLIC	??_R3CObject@@8					; CObject::`RTTI Class Hierarchy Descriptor'
PUBLIC	??_R2CObject@@8					; CObject::`RTTI Base Class Array'
PUBLIC	??_7IMatchEventSink@@6B@			; IMatchEventSink::`vftable'
PUBLIC	??_7?$CMap@KKPAUIServerUserItem@@PAU1@@@6B@	; CMap<unsigned long,unsigned long,IServerUserItem *,IServerUserItem *>::`vftable'
PUBLIC	??_7?$CWHArray@PAUIServerUserItem@@ABQAU1@@@6B@	; CWHArray<IServerUserItem *,IServerUserItem * const &>::`vftable'
PUBLIC	??_7?$CWHArray@PAUtagTableFrameInfo@@ABQAU1@@@6B@ ; CWHArray<tagTableFrameInfo *,tagTableFrameInfo * const &>::`vftable'
PUBLIC	??_7?$CWHArray@PAUtagMatchTimer@@ABQAU1@@@6B@	; CWHArray<tagMatchTimer *,tagMatchTimer * const &>::`vftable'
PUBLIC	??_7CImmediateGroup@@6B@			; CImmediateGroup::`vftable'
PUBLIC	?__LINE__Var@?0???1CImmediateGroup@@UAE@XZ@4JA	; `CImmediateGroup::~CImmediateGroup'::`1'::__LINE__Var
PUBLIC	??_C@_0EL@ONMMFGFJ@g?3?2?M?x?$LK?$PM?2happygamewh?2?$LH?$PO?N?q?$LG?K?2?O?$LF?M?$LD@ ; `string'
PUBLIC	?__LINE__Var@?0??OnUserSignUpMatch@CImmediateGroup@@QAE_NPAUIServerUserItem@@@Z@4JA ; `CImmediateGroup::OnUserSignUpMatch'::`1'::__LINE__Var
PUBLIC	?__LINE__Var@?0??EfficacyStartMatch@CImmediateGroup@@IAEXXZ@4JA ; `CImmediateGroup::EfficacyStartMatch'::`1'::__LINE__Var
PUBLIC	??_C@_0EF@OFDKLJHC@?$LB?$KH?G?$LI?$KD?$KM?S?I?S?Z?D?$LD?S?C?$LL?$KH?G?$LP?P?P?M?K?$LD?v?$LB?H?H?$PM?$KD?$KM?$LI@ ; `string'
PUBLIC	??_C@_0EA@BEFMOLA@?$LB?$KH?G?$LI?$KD?$KM?S?I?S?Z?$LJ?$PN?$LG?$OA?S?C?$LL?$KH?W?$MA?W?S?J?$PN?A?$LP?$LC?$LL?$LJ?$LL?$KD@ ; `string'
PUBLIC	?__LINE__Var@?0??OnUserQuitMatch@CImmediateGroup@@QAE_NPAUIServerUserItem@@@Z@4JA ; `CImmediateGroup::OnUserQuitMatch'::`1'::__LINE__Var
PUBLIC	??_C@_0CB@BLALCHJO@?$LG?$KI?$LO?V?E?E?C?$PL?H?$PM?$LF?Z?$CFd?$LO?V?$LP?$KK?J?$LM?$KD?$KI?$LJ?$LC?$CFd?$LO?V?$KD?$KJ?$KB@ ; `string'
PUBLIC	?__LINE__Var@?0??OnEventGameEnd@CImmediateGroup@@UAE_NPAUITableFrame@@GPAUIServerUserItem@@E@Z@4JA ; `CImmediateGroup::OnEventGameEnd'::`1'::__LINE__Var
PUBLIC	??_C@_0EE@LPJNIANI@?$LJ?$KH?O?$LC?D?z?0?D?z?R?Q?M?f?B?z?$CFd?$LO?V?S?N?O?$LH?0?$LF?H?F?d?K?$PL?W@ ; `string'
PUBLIC	??_C@_0DC@OCDKCEOG@?$LB?$LO?$LO?V?R?Q?$LN?a?J?x?$KD?$KM?G?k?D?M?P?D?$LF?H?$LE?$PN?F?d?K?$PL?W?$MA?M?j?$LD@ ; `string'
PUBLIC	??_C@_0CC@GOIHMJKJ@?$LB?$LO?$LO?V?R?Q?$LN?a?J?x?$KD?$KM?G?k?I?T?$LK?r?$KD?$KM?O?$LF?M?$LD?E?d?W?$MA?V?P?4@ ; `string'
PUBLIC	?__LINE__Var@?0??GetUserRank@CImmediateGroup@@IAEGPAUIServerUserItem@@PAUITableFrame@@@Z@4JA ; `CImmediateGroup::GetUserRank'::`1'::__LINE__Var
PUBLIC	??_C@_0L@EGCIENHN@?W?x?O?B?J?$KH?$LA?$NM?$KD?$LP@ ; `string'
PUBLIC	?__LINE__Var@?0??PerformAllUserStandUp@CImmediateGroup@@IAEXPAUITableFrame@@@Z@4JA ; `CImmediateGroup::PerformAllUserStandUp'::`1'::__LINE__Var
PUBLIC	?__LINE__Var@?0??ContinueGame@CImmediateGroup@@IAEXPAUITableFrame@@@Z@4JA ; `CImmediateGroup::ContinueGame'::`1'::__LINE__Var
PUBLIC	??_C@_0BC@IKPCOJMH@?$LM?L?P?x?S?N?O?$LH_?F?p?A?$KC?J?$KH?$LA?$NM@ ; `string'
PUBLIC	??_C@_0BC@LKGHNAEH@?$LM?L?P?x?S?N?O?$LH_?W?x?O?B?J?$KH?$LA?$NM@ ; `string'
PUBLIC	?__LINE__Var@?0??CheckMatchUser@CImmediateGroup@@IAE_NXZ@4JA ; `CImmediateGroup::CheckMatchUser'::`1'::__LINE__Var
PUBLIC	??_C@_0M@NKMAPECH@?$LM?l?$LC?i?H?K?J?$PN?4?4?4@	; `string'
PUBLIC	??_C@_0FD@PIICFLBL@?$LB?$KH?G?$LI?$KD?$KM?S?I?S?Z?$LB?H?H?$PM?S?C?$LL?$KH?G?$LP?P?P?M?K?$LD?v?$LB?H?H?$PM?$KD@ ; `string'
PUBLIC	?__LINE__Var@?0??CheckTableStart@CImmediateGroup@@IAEXPAUITableFrame@@@Z@4JA ; `CImmediateGroup::CheckTableStart'::`1'::__LINE__Var
PUBLIC	?__LINE__Var@?0??InsertFreeGroup@CImmediateGroup@@IAEXPAUIServerUserItem@@@Z@4JA ; `CImmediateGroup::InsertFreeGroup'::`1'::__LINE__Var
PUBLIC	?__LINE__Var@?0??SendTableMatchInfo@CImmediateGroup@@IAEXPAUITableFrame@@G@Z@4JA ; `CImmediateGroup::SendTableMatchInfo'::`1'::__LINE__Var
PUBLIC	??_C@_0BD@KNNGNBNI@?$LL?$PN?$LH?V?$LH?$LN?J?$LN?$KD?$LK?$MA?$NL?$LM?F?$LL?$PN?$LH?V@ ; `string'
PUBLIC	??_C@_0N@JCGEHOBO@?S?N?O?$LH?$LL?y?J?$PN?$KD?$LK?$CFd@ ; `string'
PUBLIC	??_C@_0BD@EJMLEOOM@?$LO?V?V?F?C?$PL?$LD?F?$KD?$LK?$LG?$KI?$LO?V?E?E?C?$PL@ ; `string'
PUBLIC	??_C@_0BD@DGPONMAO@?P?h?R?$KK?M?j?$LD?I?$KD?$LK?$CFd?$LO?V?$LB?H?H?$PM@ ; `string'
PUBLIC	?__LINE__Var@?0??CaptureMatchTimer@CImmediateGroup@@IAEXXZ@4JA ; `CImmediateGroup::CaptureMatchTimer'::`1'::__LINE__Var
PUBLIC	?__LINE__Var@?0??KillMatchTimer@CImmediateGroup@@IAE_NKI@Z@4JA ; `CImmediateGroup::KillMatchTimer'::`1'::__LINE__Var
PUBLIC	?__LINE__Var@?0??KillMatchTimer@CImmediateGroup@@IAE_NH@Z@4JA ; `CImmediateGroup::KillMatchTimer'::`1'::__LINE__Var
PUBLIC	?__LINE__Var@?0??AllKillMatchTimer@CImmediateGroup@@IAEXXZ@4JA ; `CImmediateGroup::AllKillMatchTimer'::`1'::__LINE__Var
PUBLIC	??_C@_0DF@LDFGAABH@g?3?2?M?x?$LK?$PM?2happygamewh?2?$LH?$PO?N?q?$LG?K?2?O?$LF?M?$LD@ ; `string'
PUBLIC	??_R4IUnknownEx@@6B@				; IUnknownEx::`RTTI Complete Object Locator'
PUBLIC	??_R0?AUIUnknownEx@@@8				; IUnknownEx `RTTI Type Descriptor'
PUBLIC	??_R3IUnknownEx@@8				; IUnknownEx::`RTTI Class Hierarchy Descriptor'
PUBLIC	??_R2IUnknownEx@@8				; IUnknownEx::`RTTI Base Class Array'
PUBLIC	??_R1A@?0A@EA@IUnknownEx@@8			; IUnknownEx::`RTTI Base Class Descriptor at (0,-1,0,64)'
PUBLIC	??_R4IMatchEventSink@@6B@			; IMatchEventSink::`RTTI Complete Object Locator'
PUBLIC	??_R0?AUIMatchEventSink@@@8			; IMatchEventSink `RTTI Type Descriptor'
PUBLIC	??_R3IMatchEventSink@@8				; IMatchEventSink::`RTTI Class Hierarchy Descriptor'
PUBLIC	??_R2IMatchEventSink@@8				; IMatchEventSink::`RTTI Base Class Array'
PUBLIC	??_R1A@?0A@EA@IMatchEventSink@@8		; IMatchEventSink::`RTTI Base Class Descriptor at (0,-1,0,64)'
PUBLIC	??_R4?$CWHArray@PAUtagMatchTimer@@ABQAU1@@@6B@	; CWHArray<tagMatchTimer *,tagMatchTimer * const &>::`RTTI Complete Object Locator'
PUBLIC	??_R0?AV?$CWHArray@PAUtagMatchTimer@@ABQAU1@@@@8 ; CWHArray<tagMatchTimer *,tagMatchTimer * const &> `RTTI Type Descriptor'
PUBLIC	??_R3?$CWHArray@PAUtagMatchTimer@@ABQAU1@@@8	; CWHArray<tagMatchTimer *,tagMatchTimer * const &>::`RTTI Class Hierarchy Descriptor'
PUBLIC	??_R2?$CWHArray@PAUtagMatchTimer@@ABQAU1@@@8	; CWHArray<tagMatchTimer *,tagMatchTimer * const &>::`RTTI Base Class Array'
PUBLIC	??_R1A@?0A@EA@?$CWHArray@PAUtagMatchTimer@@ABQAU1@@@8 ; CWHArray<tagMatchTimer *,tagMatchTimer * const &>::`RTTI Base Class Descriptor at (0,-1,0,64)'
PUBLIC	??_R4?$CWHArray@PAUIServerUserItem@@ABQAU1@@@6B@ ; CWHArray<IServerUserItem *,IServerUserItem * const &>::`RTTI Complete Object Locator'
PUBLIC	??_R0?AV?$CWHArray@PAUIServerUserItem@@ABQAU1@@@@8 ; CWHArray<IServerUserItem *,IServerUserItem * const &> `RTTI Type Descriptor'
PUBLIC	??_R3?$CWHArray@PAUIServerUserItem@@ABQAU1@@@8	; CWHArray<IServerUserItem *,IServerUserItem * const &>::`RTTI Class Hierarchy Descriptor'
PUBLIC	??_R2?$CWHArray@PAUIServerUserItem@@ABQAU1@@@8	; CWHArray<IServerUserItem *,IServerUserItem * const &>::`RTTI Base Class Array'
PUBLIC	??_R1A@?0A@EA@?$CWHArray@PAUIServerUserItem@@ABQAU1@@@8 ; CWHArray<IServerUserItem *,IServerUserItem * const &>::`RTTI Base Class Descriptor at (0,-1,0,64)'
PUBLIC	??_R4?$CWHArray@PAUtagTableFrameInfo@@ABQAU1@@@6B@ ; CWHArray<tagTableFrameInfo *,tagTableFrameInfo * const &>::`RTTI Complete Object Locator'
PUBLIC	??_R0?AV?$CWHArray@PAUtagTableFrameInfo@@ABQAU1@@@@8 ; CWHArray<tagTableFrameInfo *,tagTableFrameInfo * const &> `RTTI Type Descriptor'
PUBLIC	??_R3?$CWHArray@PAUtagTableFrameInfo@@ABQAU1@@@8 ; CWHArray<tagTableFrameInfo *,tagTableFrameInfo * const &>::`RTTI Class Hierarchy Descriptor'
PUBLIC	??_R2?$CWHArray@PAUtagTableFrameInfo@@ABQAU1@@@8 ; CWHArray<tagTableFrameInfo *,tagTableFrameInfo * const &>::`RTTI Base Class Array'
PUBLIC	??_R1A@?0A@EA@?$CWHArray@PAUtagTableFrameInfo@@ABQAU1@@@8 ; CWHArray<tagTableFrameInfo *,tagTableFrameInfo * const &>::`RTTI Base Class Descriptor at (0,-1,0,64)'
PUBLIC	??_R4?$CMap@KKPAUIServerUserItem@@PAU1@@@6B@	; CMap<unsigned long,unsigned long,IServerUserItem *,IServerUserItem *>::`RTTI Complete Object Locator'
PUBLIC	??_R0?AV?$CMap@KKPAUIServerUserItem@@PAU1@@@@8	; CMap<unsigned long,unsigned long,IServerUserItem *,IServerUserItem *> `RTTI Type Descriptor'
PUBLIC	??_R3?$CMap@KKPAUIServerUserItem@@PAU1@@@8	; CMap<unsigned long,unsigned long,IServerUserItem *,IServerUserItem *>::`RTTI Class Hierarchy Descriptor'
PUBLIC	??_R2?$CMap@KKPAUIServerUserItem@@PAU1@@@8	; CMap<unsigned long,unsigned long,IServerUserItem *,IServerUserItem *>::`RTTI Base Class Array'
PUBLIC	??_R1A@?0A@EA@?$CMap@KKPAUIServerUserItem@@PAU1@@@8 ; CMap<unsigned long,unsigned long,IServerUserItem *,IServerUserItem *>::`RTTI Base Class Descriptor at (0,-1,0,64)'
PUBLIC	??_R4CImmediateGroup@@6B@			; CImmediateGroup::`RTTI Complete Object Locator'
PUBLIC	??_R0?AVCImmediateGroup@@@8			; CImmediateGroup `RTTI Type Descriptor'
PUBLIC	??_R3CImmediateGroup@@8				; CImmediateGroup::`RTTI Class Hierarchy Descriptor'
PUBLIC	??_R2CImmediateGroup@@8				; CImmediateGroup::`RTTI Base Class Array'
PUBLIC	??_R1A@?0A@EA@CImmediateGroup@@8		; CImmediateGroup::`RTTI Base Class Descriptor at (0,-1,0,64)'
EXTRN	__purecall:PROC
EXTRN	??2@YAPAXI@Z:PROC				; operator new
EXTRN	??3@YAXPAXI@Z:PROC				; operator delete
EXTRN	?__global_delete@@YAXPAXI@Z:PROC		; __global_delete
EXTRN	??_U@YAPAXI@Z:PROC				; operator new[]
EXTRN	??_V@YAXPAX@Z:PROC				; operator delete[]
EXTRN	_memcmp:PROC
EXTRN	_memcpy:PROC
EXTRN	_memmove:PROC
EXTRN	_memset:PROC
EXTRN	__imp__wcscpy_s:PROC
EXTRN	__imp__wcslen:PROC
EXTRN	__imp__GetLastError@0:PROC
EXTRN	__imp__SetLastError@4:PROC
EXTRN	__imp__lstrcpynA@12:PROC
EXTRN	__imp__lstrlenA@4:PROC
EXTRN	__imp__PeekMessageA@20:PROC
EXTRN	__imp__PostQuitMessage@4:PROC
EXTRN	__imp__MultiByteToWideChar@24:PROC
EXTRN	__imp____stdio_common_vswprintf_s:PROC
EXTRN	__imp____stdio_common_vsprintf:PROC
EXTRN	__imp____stdio_common_vsnprintf_s:PROC
EXTRN	__imp__free:PROC
EXTRN	__imp__malloc:PROC
EXTRN	__imp__ldiv:PROC
EXTRN	__imp__rand:PROC
EXTRN	__imp___localtime64_s:PROC
EXTRN	__imp___time64:PROC
EXTRN	__imp___CrtDbgReport:PROC
EXTRN	__imp___CrtDbgReportW:PROC
EXTRN	?AfxAssertValidObject@@YGXPBVCObject@@PBDH@Z:PROC ; AfxAssertValidObject
EXTRN	?AfxThrowMemoryException@@YGXXZ:PROC		; AfxThrowMemoryException
EXTRN	?AfxThrowInvalidArgException@@YGXXZ:PROC	; AfxThrowInvalidArgException
EXTRN	?AfxThrowOleException@@YGXJ@Z:PROC		; AfxThrowOleException
EXTRN	?GetRuntimeClass@CObject@@UBEPAUCRuntimeClass@@XZ:PROC ; CObject::GetRuntimeClass
EXTRN	??1CObject@@UAE@XZ:PROC				; CObject::~CObject
EXTRN	??3CObject@@SGXPAX@Z:PROC			; CObject::operator delete
EXTRN	??0CObject@@IAE@XZ:PROC				; CObject::CObject
EXTRN	?Serialize@CObject@@UAEXAAVCArchive@@@Z:PROC	; CObject::Serialize
EXTRN	?AssertValid@CObject@@UBEXXZ:PROC		; CObject::AssertValid
EXTRN	?Dump@CObject@@UBEXAAVCDumpContext@@@Z:PROC	; CObject::Dump
EXTRN	__imp_??B?$CSimpleStringT@D$00@ATL@@QBEPBDXZ:PROC
EXTRN	__imp_??0?$CStringT@DV?$StrTraitMFC_DLL@DV?$ChTraitsCRT@D@ATL@@@@@ATL@@QAE@XZ:PROC
EXTRN	__imp_??1?$CStringT@DV?$StrTraitMFC_DLL@DV?$ChTraitsCRT@D@ATL@@@@@ATL@@QAE@XZ:PROC
EXTRN	__imp_?Format@?$CStringT@DV?$StrTraitMFC_DLL@DV?$ChTraitsCRT@D@ATL@@@@@ATL@@QAAXPBDZZ:PROC
EXTRN	?AfxIsValidAddress@@YGHPBXIH@Z:PROC		; AfxIsValidAddress
EXTRN	??_U@YAPAXIPBDH@Z:PROC				; operator new[]
EXTRN	?IsStoring@CArchive@@QBEHXZ:PROC		; CArchive::IsStoring
EXTRN	?EnsureRead@CArchive@@QAEXPAXI@Z:PROC		; CArchive::EnsureRead
EXTRN	?Write@CArchive@@QAEXPBXI@Z:PROC		; CArchive::Write
EXTRN	?ReadCount@CArchive@@QAEKXZ:PROC		; CArchive::ReadCount
EXTRN	?WriteCount@CArchive@@QAEXK@Z:PROC		; CArchive::WriteCount
EXTRN	?GetDepth@CDumpContext@@QBEHXZ:PROC		; CDumpContext::GetDepth
EXTRN	??6CDumpContext@@QAEAAV0@PBD@Z:PROC		; CDumpContext::operator<<
EXTRN	??6CDumpContext@@QAEAAV0@H@Z:PROC		; CDumpContext::operator<<
EXTRN	?Create@CPlex@@SGPAU1@AAPAU1@II@Z:PROC		; CPlex::Create
EXTRN	?FreeDataChain@CPlex@@QAEXXZ:PROC		; CPlex::FreeDataChain
EXTRN	__imp_?TraceString@CTraceService@@SA_NPBDW4enTraceLevel@@@Z:PROC
EXTRN	??_E?$CMap@KKPAUIServerUserItem@@PAU1@@@UAEPAXI@Z:PROC ; CMap<unsigned long,unsigned long,IServerUserItem *,IServerUserItem *>::`vector deleting destructor'
EXTRN	??_E?$CWHArray@PAUIServerUserItem@@ABQAU1@@@UAEPAXI@Z:PROC ; CWHArray<IServerUserItem *,IServerUserItem * const &>::`vector deleting destructor'
EXTRN	??_E?$CWHArray@PAUtagTableFrameInfo@@ABQAU1@@@UAEPAXI@Z:PROC ; CWHArray<tagTableFrameInfo *,tagTableFrameInfo * const &>::`vector deleting destructor'
EXTRN	??_E?$CWHArray@PAUtagMatchTimer@@ABQAU1@@@UAEPAXI@Z:PROC ; CWHArray<tagMatchTimer *,tagMatchTimer * const &>::`vector deleting destructor'
EXTRN	??_ECImmediateGroup@@UAEPAXI@Z:PROC		; CImmediateGroup::`vector deleting destructor'
EXTRN	@__security_check_cookie@4:PROC
EXTRN	___CxxFrameHandler3:PROC
EXTRN	_memset:PROC
EXTRN	??_7type_info@@6B@:QWORD			; type_info::`vftable'
EXTRN	___security_cookie:DWORD
;	COMDAT ?_OptionsStorage@?1??__local_stdio_printf_options@@9@4_KA
_BSS	SEGMENT
?_OptionsStorage@?1??__local_stdio_printf_options@@9@4_KA DQ 01H DUP (?) ; `__local_stdio_printf_options'::`2'::_OptionsStorage
_BSS	ENDS
;	COMDAT ?atlTraceException@ATL@@3V?$CTraceCategoryEx@$0CAAA@$0A@@1@A
_BSS	SEGMENT
?atlTraceException@ATL@@3V?$CTraceCategoryEx@$0CAAA@$0A@@1@A DD 01H DUP (?) ; ATL::atlTraceException
_BSS	ENDS
;	COMDAT ?m_nLevel@CTrace@ATL@@1IA
_BSS	SEGMENT
?m_nLevel@CTrace@ATL@@1IA DD 01H DUP (?)		; ATL::CTrace::m_nLevel
_BSS	ENDS
;	COMDAT ?m_nLastCategory@CTrace@ATL@@1IA
_BSS	SEGMENT
?m_nLastCategory@CTrace@ATL@@1IA DD 01H DUP (?)		; ATL::CTrace::m_nLastCategory
_BSS	ENDS
;	COMDAT ?m_nMap@CTrace@ATL@@1PAUCategoryMap@12@A
_BSS	SEGMENT
?m_nMap@CTrace@ATL@@1PAUCategoryMap@12@A DB 02080H DUP (?) ; ATL::CTrace::m_nMap
_BSS	ENDS
;	COMDAT CRT$XCU
CRT$XCU	SEGMENT
?atlTraceException$initializer$@ATL@@3P6AXXZA DD FLAT:??__EatlTraceException@ATL@@YAXXZ ; ATL::atlTraceException$initializer$
CRT$XCU	ENDS
;	COMDAT ??_R1A@?0A@EA@CImmediateGroup@@8
rdata$r	SEGMENT
??_R1A@?0A@EA@CImmediateGroup@@8 DD FLAT:??_R0?AVCImmediateGroup@@@8 ; CImmediateGroup::`RTTI Base Class Descriptor at (0,-1,0,64)'
	DD	02H
	DD	00H
	DD	0ffffffffH
	DD	00H
	DD	040H
	DD	FLAT:??_R3CImmediateGroup@@8
rdata$r	ENDS
;	COMDAT ??_R2CImmediateGroup@@8
rdata$r	SEGMENT
??_R2CImmediateGroup@@8 DD FLAT:??_R1A@?0A@EA@CImmediateGroup@@8 ; CImmediateGroup::`RTTI Base Class Array'
	DD	FLAT:??_R1A@?0A@EA@IMatchEventSink@@8
	DD	FLAT:??_R1A@?0A@EA@IUnknownEx@@8
rdata$r	ENDS
;	COMDAT ??_R3CImmediateGroup@@8
rdata$r	SEGMENT
??_R3CImmediateGroup@@8 DD 00H				; CImmediateGroup::`RTTI Class Hierarchy Descriptor'
	DD	00H
	DD	03H
	DD	FLAT:??_R2CImmediateGroup@@8
rdata$r	ENDS
;	COMDAT ??_R0?AVCImmediateGroup@@@8
data$r	SEGMENT
??_R0?AVCImmediateGroup@@@8 DD FLAT:??_7type_info@@6B@	; CImmediateGroup `RTTI Type Descriptor'
	DD	00H
	DB	'.?AVCImmediateGroup@@', 00H
data$r	ENDS
;	COMDAT ??_R4CImmediateGroup@@6B@
rdata$r	SEGMENT
??_R4CImmediateGroup@@6B@ DD 00H			; CImmediateGroup::`RTTI Complete Object Locator'
	DD	00H
	DD	00H
	DD	FLAT:??_R0?AVCImmediateGroup@@@8
	DD	FLAT:??_R3CImmediateGroup@@8
rdata$r	ENDS
;	COMDAT ??_R1A@?0A@EA@?$CMap@KKPAUIServerUserItem@@PAU1@@@8
rdata$r	SEGMENT
??_R1A@?0A@EA@?$CMap@KKPAUIServerUserItem@@PAU1@@@8 DD FLAT:??_R0?AV?$CMap@KKPAUIServerUserItem@@PAU1@@@@8 ; CMap<unsigned long,unsigned long,IServerUserItem *,IServerUserItem *>::`RTTI Base Class Descriptor at (0,-1,0,64)'
	DD	01H
	DD	00H
	DD	0ffffffffH
	DD	00H
	DD	040H
	DD	FLAT:??_R3?$CMap@KKPAUIServerUserItem@@PAU1@@@8
rdata$r	ENDS
;	COMDAT ??_R2?$CMap@KKPAUIServerUserItem@@PAU1@@@8
rdata$r	SEGMENT
??_R2?$CMap@KKPAUIServerUserItem@@PAU1@@@8 DD FLAT:??_R1A@?0A@EA@?$CMap@KKPAUIServerUserItem@@PAU1@@@8 ; CMap<unsigned long,unsigned long,IServerUserItem *,IServerUserItem *>::`RTTI Base Class Array'
	DD	FLAT:??_R1A@?0A@EA@CObject@@8
rdata$r	ENDS
;	COMDAT ??_R3?$CMap@KKPAUIServerUserItem@@PAU1@@@8
rdata$r	SEGMENT
??_R3?$CMap@KKPAUIServerUserItem@@PAU1@@@8 DD 00H	; CMap<unsigned long,unsigned long,IServerUserItem *,IServerUserItem *>::`RTTI Class Hierarchy Descriptor'
	DD	00H
	DD	02H
	DD	FLAT:??_R2?$CMap@KKPAUIServerUserItem@@PAU1@@@8
rdata$r	ENDS
;	COMDAT ??_R0?AV?$CMap@KKPAUIServerUserItem@@PAU1@@@@8
data$r	SEGMENT
??_R0?AV?$CMap@KKPAUIServerUserItem@@PAU1@@@@8 DD FLAT:??_7type_info@@6B@ ; CMap<unsigned long,unsigned long,IServerUserItem *,IServerUserItem *> `RTTI Type Descriptor'
	DD	00H
	DB	'.?AV?$CMap@KKPAUIServerUserItem@@PAU1@@@', 00H
data$r	ENDS
;	COMDAT ??_R4?$CMap@KKPAUIServerUserItem@@PAU1@@@6B@
rdata$r	SEGMENT
??_R4?$CMap@KKPAUIServerUserItem@@PAU1@@@6B@ DD 00H	; CMap<unsigned long,unsigned long,IServerUserItem *,IServerUserItem *>::`RTTI Complete Object Locator'
	DD	00H
	DD	00H
	DD	FLAT:??_R0?AV?$CMap@KKPAUIServerUserItem@@PAU1@@@@8
	DD	FLAT:??_R3?$CMap@KKPAUIServerUserItem@@PAU1@@@8
rdata$r	ENDS
;	COMDAT ??_R1A@?0A@EA@?$CWHArray@PAUtagTableFrameInfo@@ABQAU1@@@8
rdata$r	SEGMENT
??_R1A@?0A@EA@?$CWHArray@PAUtagTableFrameInfo@@ABQAU1@@@8 DD FLAT:??_R0?AV?$CWHArray@PAUtagTableFrameInfo@@ABQAU1@@@@8 ; CWHArray<tagTableFrameInfo *,tagTableFrameInfo * const &>::`RTTI Base Class Descriptor at (0,-1,0,64)'
	DD	00H
	DD	00H
	DD	0ffffffffH
	DD	00H
	DD	040H
	DD	FLAT:??_R3?$CWHArray@PAUtagTableFrameInfo@@ABQAU1@@@8
rdata$r	ENDS
;	COMDAT ??_R2?$CWHArray@PAUtagTableFrameInfo@@ABQAU1@@@8
rdata$r	SEGMENT
??_R2?$CWHArray@PAUtagTableFrameInfo@@ABQAU1@@@8 DD FLAT:??_R1A@?0A@EA@?$CWHArray@PAUtagTableFrameInfo@@ABQAU1@@@8 ; CWHArray<tagTableFrameInfo *,tagTableFrameInfo * const &>::`RTTI Base Class Array'
rdata$r	ENDS
;	COMDAT ??_R3?$CWHArray@PAUtagTableFrameInfo@@ABQAU1@@@8
rdata$r	SEGMENT
??_R3?$CWHArray@PAUtagTableFrameInfo@@ABQAU1@@@8 DD 00H	; CWHArray<tagTableFrameInfo *,tagTableFrameInfo * const &>::`RTTI Class Hierarchy Descriptor'
	DD	00H
	DD	01H
	DD	FLAT:??_R2?$CWHArray@PAUtagTableFrameInfo@@ABQAU1@@@8
rdata$r	ENDS
;	COMDAT ??_R0?AV?$CWHArray@PAUtagTableFrameInfo@@ABQAU1@@@@8
data$r	SEGMENT
??_R0?AV?$CWHArray@PAUtagTableFrameInfo@@ABQAU1@@@@8 DD FLAT:??_7type_info@@6B@ ; CWHArray<tagTableFrameInfo *,tagTableFrameInfo * const &> `RTTI Type Descriptor'
	DD	00H
	DB	'.?AV?$CWHArray@PAUtagTableFrameInfo@@ABQAU1@@@', 00H
data$r	ENDS
;	COMDAT ??_R4?$CWHArray@PAUtagTableFrameInfo@@ABQAU1@@@6B@
rdata$r	SEGMENT
??_R4?$CWHArray@PAUtagTableFrameInfo@@ABQAU1@@@6B@ DD 00H ; CWHArray<tagTableFrameInfo *,tagTableFrameInfo * const &>::`RTTI Complete Object Locator'
	DD	00H
	DD	00H
	DD	FLAT:??_R0?AV?$CWHArray@PAUtagTableFrameInfo@@ABQAU1@@@@8
	DD	FLAT:??_R3?$CWHArray@PAUtagTableFrameInfo@@ABQAU1@@@8
rdata$r	ENDS
;	COMDAT ??_R1A@?0A@EA@?$CWHArray@PAUIServerUserItem@@ABQAU1@@@8
rdata$r	SEGMENT
??_R1A@?0A@EA@?$CWHArray@PAUIServerUserItem@@ABQAU1@@@8 DD FLAT:??_R0?AV?$CWHArray@PAUIServerUserItem@@ABQAU1@@@@8 ; CWHArray<IServerUserItem *,IServerUserItem * const &>::`RTTI Base Class Descriptor at (0,-1,0,64)'
	DD	00H
	DD	00H
	DD	0ffffffffH
	DD	00H
	DD	040H
	DD	FLAT:??_R3?$CWHArray@PAUIServerUserItem@@ABQAU1@@@8
rdata$r	ENDS
;	COMDAT ??_R2?$CWHArray@PAUIServerUserItem@@ABQAU1@@@8
rdata$r	SEGMENT
??_R2?$CWHArray@PAUIServerUserItem@@ABQAU1@@@8 DD FLAT:??_R1A@?0A@EA@?$CWHArray@PAUIServerUserItem@@ABQAU1@@@8 ; CWHArray<IServerUserItem *,IServerUserItem * const &>::`RTTI Base Class Array'
rdata$r	ENDS
;	COMDAT ??_R3?$CWHArray@PAUIServerUserItem@@ABQAU1@@@8
rdata$r	SEGMENT
??_R3?$CWHArray@PAUIServerUserItem@@ABQAU1@@@8 DD 00H	; CWHArray<IServerUserItem *,IServerUserItem * const &>::`RTTI Class Hierarchy Descriptor'
	DD	00H
	DD	01H
	DD	FLAT:??_R2?$CWHArray@PAUIServerUserItem@@ABQAU1@@@8
rdata$r	ENDS
;	COMDAT ??_R0?AV?$CWHArray@PAUIServerUserItem@@ABQAU1@@@@8
data$r	SEGMENT
??_R0?AV?$CWHArray@PAUIServerUserItem@@ABQAU1@@@@8 DD FLAT:??_7type_info@@6B@ ; CWHArray<IServerUserItem *,IServerUserItem * const &> `RTTI Type Descriptor'
	DD	00H
	DB	'.?AV?$CWHArray@PAUIServerUserItem@@ABQAU1@@@', 00H
data$r	ENDS
;	COMDAT ??_R4?$CWHArray@PAUIServerUserItem@@ABQAU1@@@6B@
rdata$r	SEGMENT
??_R4?$CWHArray@PAUIServerUserItem@@ABQAU1@@@6B@ DD 00H	; CWHArray<IServerUserItem *,IServerUserItem * const &>::`RTTI Complete Object Locator'
	DD	00H
	DD	00H
	DD	FLAT:??_R0?AV?$CWHArray@PAUIServerUserItem@@ABQAU1@@@@8
	DD	FLAT:??_R3?$CWHArray@PAUIServerUserItem@@ABQAU1@@@8
rdata$r	ENDS
;	COMDAT ??_R1A@?0A@EA@?$CWHArray@PAUtagMatchTimer@@ABQAU1@@@8
rdata$r	SEGMENT
??_R1A@?0A@EA@?$CWHArray@PAUtagMatchTimer@@ABQAU1@@@8 DD FLAT:??_R0?AV?$CWHArray@PAUtagMatchTimer@@ABQAU1@@@@8 ; CWHArray<tagMatchTimer *,tagMatchTimer * const &>::`RTTI Base Class Descriptor at (0,-1,0,64)'
	DD	00H
	DD	00H
	DD	0ffffffffH
	DD	00H
	DD	040H
	DD	FLAT:??_R3?$CWHArray@PAUtagMatchTimer@@ABQAU1@@@8
rdata$r	ENDS
;	COMDAT ??_R2?$CWHArray@PAUtagMatchTimer@@ABQAU1@@@8
rdata$r	SEGMENT
??_R2?$CWHArray@PAUtagMatchTimer@@ABQAU1@@@8 DD FLAT:??_R1A@?0A@EA@?$CWHArray@PAUtagMatchTimer@@ABQAU1@@@8 ; CWHArray<tagMatchTimer *,tagMatchTimer * const &>::`RTTI Base Class Array'
rdata$r	ENDS
;	COMDAT ??_R3?$CWHArray@PAUtagMatchTimer@@ABQAU1@@@8
rdata$r	SEGMENT
??_R3?$CWHArray@PAUtagMatchTimer@@ABQAU1@@@8 DD 00H	; CWHArray<tagMatchTimer *,tagMatchTimer * const &>::`RTTI Class Hierarchy Descriptor'
	DD	00H
	DD	01H
	DD	FLAT:??_R2?$CWHArray@PAUtagMatchTimer@@ABQAU1@@@8
rdata$r	ENDS
;	COMDAT ??_R0?AV?$CWHArray@PAUtagMatchTimer@@ABQAU1@@@@8
data$r	SEGMENT
??_R0?AV?$CWHArray@PAUtagMatchTimer@@ABQAU1@@@@8 DD FLAT:??_7type_info@@6B@ ; CWHArray<tagMatchTimer *,tagMatchTimer * const &> `RTTI Type Descriptor'
	DD	00H
	DB	'.?AV?$CWHArray@PAUtagMatchTimer@@ABQAU1@@@', 00H
data$r	ENDS
;	COMDAT ??_R4?$CWHArray@PAUtagMatchTimer@@ABQAU1@@@6B@
rdata$r	SEGMENT
??_R4?$CWHArray@PAUtagMatchTimer@@ABQAU1@@@6B@ DD 00H	; CWHArray<tagMatchTimer *,tagMatchTimer * const &>::`RTTI Complete Object Locator'
	DD	00H
	DD	00H
	DD	FLAT:??_R0?AV?$CWHArray@PAUtagMatchTimer@@ABQAU1@@@@8
	DD	FLAT:??_R3?$CWHArray@PAUtagMatchTimer@@ABQAU1@@@8
rdata$r	ENDS
;	COMDAT ??_R1A@?0A@EA@IMatchEventSink@@8
rdata$r	SEGMENT
??_R1A@?0A@EA@IMatchEventSink@@8 DD FLAT:??_R0?AUIMatchEventSink@@@8 ; IMatchEventSink::`RTTI Base Class Descriptor at (0,-1,0,64)'
	DD	01H
	DD	00H
	DD	0ffffffffH
	DD	00H
	DD	040H
	DD	FLAT:??_R3IMatchEventSink@@8
rdata$r	ENDS
;	COMDAT ??_R2IMatchEventSink@@8
rdata$r	SEGMENT
??_R2IMatchEventSink@@8 DD FLAT:??_R1A@?0A@EA@IMatchEventSink@@8 ; IMatchEventSink::`RTTI Base Class Array'
	DD	FLAT:??_R1A@?0A@EA@IUnknownEx@@8
rdata$r	ENDS
;	COMDAT ??_R3IMatchEventSink@@8
rdata$r	SEGMENT
??_R3IMatchEventSink@@8 DD 00H				; IMatchEventSink::`RTTI Class Hierarchy Descriptor'
	DD	00H
	DD	02H
	DD	FLAT:??_R2IMatchEventSink@@8
rdata$r	ENDS
;	COMDAT ??_R0?AUIMatchEventSink@@@8
data$r	SEGMENT
??_R0?AUIMatchEventSink@@@8 DD FLAT:??_7type_info@@6B@	; IMatchEventSink `RTTI Type Descriptor'
	DD	00H
	DB	'.?AUIMatchEventSink@@', 00H
data$r	ENDS
;	COMDAT ??_R4IMatchEventSink@@6B@
rdata$r	SEGMENT
??_R4IMatchEventSink@@6B@ DD 00H			; IMatchEventSink::`RTTI Complete Object Locator'
	DD	00H
	DD	00H
	DD	FLAT:??_R0?AUIMatchEventSink@@@8
	DD	FLAT:??_R3IMatchEventSink@@8
rdata$r	ENDS
;	COMDAT ??_R1A@?0A@EA@IUnknownEx@@8
rdata$r	SEGMENT
??_R1A@?0A@EA@IUnknownEx@@8 DD FLAT:??_R0?AUIUnknownEx@@@8 ; IUnknownEx::`RTTI Base Class Descriptor at (0,-1,0,64)'
	DD	00H
	DD	00H
	DD	0ffffffffH
	DD	00H
	DD	040H
	DD	FLAT:??_R3IUnknownEx@@8
rdata$r	ENDS
;	COMDAT ??_R2IUnknownEx@@8
rdata$r	SEGMENT
??_R2IUnknownEx@@8 DD FLAT:??_R1A@?0A@EA@IUnknownEx@@8	; IUnknownEx::`RTTI Base Class Array'
rdata$r	ENDS
;	COMDAT ??_R3IUnknownEx@@8
rdata$r	SEGMENT
??_R3IUnknownEx@@8 DD 00H				; IUnknownEx::`RTTI Class Hierarchy Descriptor'
	DD	00H
	DD	01H
	DD	FLAT:??_R2IUnknownEx@@8
rdata$r	ENDS
;	COMDAT ??_R0?AUIUnknownEx@@@8
data$r	SEGMENT
??_R0?AUIUnknownEx@@@8 DD FLAT:??_7type_info@@6B@	; IUnknownEx `RTTI Type Descriptor'
	DD	00H
	DB	'.?AUIUnknownEx@@', 00H
data$r	ENDS
;	COMDAT ??_R4IUnknownEx@@6B@
rdata$r	SEGMENT
??_R4IUnknownEx@@6B@ DD 00H				; IUnknownEx::`RTTI Complete Object Locator'
	DD	00H
	DD	00H
	DD	FLAT:??_R0?AUIUnknownEx@@@8
	DD	FLAT:??_R3IUnknownEx@@8
rdata$r	ENDS
;	COMDAT ??_C@_0DF@LDFGAABH@g?3?2?M?x?$LK?$PM?2happygamewh?2?$LH?$PO?N?q?$LG?K?2?O?$LF?M?$LD@
CONST	SEGMENT
??_C@_0DF@LDFGAABH@g?3?2?M?x?$LK?$PM?2happygamewh?2?$LH?$PO?N?q?$LG?K?2?O?$LF?M?$LD@ DB 'g'
	DB	':\', 0cdH, 0f8H, 0baH, 0fcH, '\happygamewh\', 0b7H, 0feH, 0ceH
	DB	0f1H, 0b6H, 0cbH, '\', 0cfH, 0b5H, 0cdH, 0b3H, 0c4H, 0a3H, 0bfH
	DB	0e9H, '\', 0c8H, 0abH, 0beH, 0d6H, 0b6H, 0a8H, 0d2H, 0e5H, '\a'
	DB	'rray.h', 00H				; `string'
CONST	ENDS
;	COMDAT ?__LINE__Var@?0??AllKillMatchTimer@CImmediateGroup@@IAEXXZ@4JA
_DATA	SEGMENT
?__LINE__Var@?0??AllKillMatchTimer@CImmediateGroup@@IAEXXZ@4JA DD 03fbH ; `CImmediateGroup::AllKillMatchTimer'::`1'::__LINE__Var
_DATA	ENDS
;	COMDAT ?__LINE__Var@?0??KillMatchTimer@CImmediateGroup@@IAE_NH@Z@4JA
_DATA	SEGMENT
?__LINE__Var@?0??KillMatchTimer@CImmediateGroup@@IAE_NH@Z@4JA DD 03eeH ; `CImmediateGroup::KillMatchTimer'::`1'::__LINE__Var
_DATA	ENDS
;	COMDAT ?__LINE__Var@?0??KillMatchTimer@CImmediateGroup@@IAE_NKI@Z@4JA
_DATA	SEGMENT
?__LINE__Var@?0??KillMatchTimer@CImmediateGroup@@IAE_NKI@Z@4JA DD 03dfH ; `CImmediateGroup::KillMatchTimer'::`1'::__LINE__Var
_DATA	ENDS
;	COMDAT ?__LINE__Var@?0??CaptureMatchTimer@CImmediateGroup@@IAEXXZ@4JA
_DATA	SEGMENT
?__LINE__Var@?0??CaptureMatchTimer@CImmediateGroup@@IAEXXZ@4JA DD 03b7H ; `CImmediateGroup::CaptureMatchTimer'::`1'::__LINE__Var
_DATA	ENDS
;	COMDAT ??_C@_0BD@DGPONMAO@?P?h?R?$KK?M?j?$LD?I?$KD?$LK?$CFd?$LO?V?$LB?H?H?$PM@
CONST	SEGMENT
??_C@_0BD@DGPONMAO@?P?h?R?$KK?M?j?$LD?I?$KD?$LK?$CFd?$LO?V?$LB?H?H?$PM@ DB 0d0H
	DB	0e8H, 0d2H, 0aaH, 0cdH, 0eaH, 0b3H, 0c9H, 0a3H, 0baH, '%d', 0beH
	DB	0d6H, 0b1H, 0c8H, 0c8H, 0fcH, 00H		; `string'
CONST	ENDS
;	COMDAT ??_C@_0BD@EJMLEOOM@?$LO?V?V?F?C?$PL?$LD?F?$KD?$LK?$LG?$KI?$LO?V?E?E?C?$PL@
CONST	SEGMENT
??_C@_0BD@EJMLEOOM@?$LO?V?V?F?C?$PL?$LD?F?$KD?$LK?$LG?$KI?$LO?V?E?E?C?$PL@ DB 0beH
	DB	0d6H, 0d6H, 0c6H, 0c3H, 0fbH, 0b3H, 0c6H, 0a3H, 0baH, 0b6H, 0a8H
	DB	0beH, 0d6H, 0c5H, 0c5H, 0c3H, 0fbH, 00H	; `string'
CONST	ENDS
;	COMDAT ??_C@_0N@JCGEHOBO@?S?N?O?$LH?$LL?y?J?$PN?$KD?$LK?$CFd@
CONST	SEGMENT
??_C@_0N@JCGEHOBO@?S?N?O?$LH?$LL?y?J?$PN?$KD?$LK?$CFd@ DB 0d3H, 0ceH, 0cfH
	DB	0b7H, 0bbH, 0f9H, 0caH, 0fdH, 0a3H, 0baH, '%d', 00H ; `string'
CONST	ENDS
;	COMDAT ??_C@_0BD@KNNGNBNI@?$LL?$PN?$LH?V?$LH?$LN?J?$LN?$KD?$LK?$MA?$NL?$LM?F?$LL?$PN?$LH?V@
CONST	SEGMENT
??_C@_0BD@KNNGNBNI@?$LL?$PN?$LH?V?$LH?$LN?J?$LN?$KD?$LK?$MA?$NL?$LM?F?$LL?$PN?$LH?V@ DB 0bbH
	DB	0fdH, 0b7H, 0d6H, 0b7H, 0bdH, 0caH, 0bdH, 0a3H, 0baH, 0c0H, 0dbH
	DB	0bcH, 0c6H, 0bbH, 0fdH, 0b7H, 0d6H, 00H	; `string'
CONST	ENDS
;	COMDAT ?__LINE__Var@?0??SendTableMatchInfo@CImmediateGroup@@IAEXPAUITableFrame@@G@Z@4JA
_DATA	SEGMENT
?__LINE__Var@?0??SendTableMatchInfo@CImmediateGroup@@IAEXPAUITableFrame@@G@Z@4JA DD 0388H ; `CImmediateGroup::SendTableMatchInfo'::`1'::__LINE__Var
_DATA	ENDS
;	COMDAT ?__LINE__Var@?0??InsertFreeGroup@CImmediateGroup@@IAEXPAUIServerUserItem@@@Z@4JA
_DATA	SEGMENT
?__LINE__Var@?0??InsertFreeGroup@CImmediateGroup@@IAEXPAUIServerUserItem@@@Z@4JA DD 0379H ; `CImmediateGroup::InsertFreeGroup'::`1'::__LINE__Var
_DATA	ENDS
;	COMDAT ?__LINE__Var@?0??CheckTableStart@CImmediateGroup@@IAEXPAUITableFrame@@@Z@4JA
_DATA	SEGMENT
?__LINE__Var@?0??CheckTableStart@CImmediateGroup@@IAEXPAUITableFrame@@@Z@4JA DD 0362H ; `CImmediateGroup::CheckTableStart'::`1'::__LINE__Var
_DATA	ENDS
;	COMDAT ??_C@_0FD@PIICFLBL@?$LB?$KH?G?$LI?$KD?$KM?S?I?S?Z?$LB?H?H?$PM?S?C?$LL?$KH?G?$LP?P?P?M?K?$LD?v?$LB?H?H?$PM?$KD@
CONST	SEGMENT
??_C@_0FD@PIICFLBL@?$LB?$KH?G?$LI?$KD?$KM?S?I?S?Z?$LB?H?H?$PM?S?C?$LL?$KH?G?$LP?P?P?M?K?$LD?v?$LB?H?H?$PM?$KD@ DB 0b1H
	DB	0a7H, 0c7H, 0b8H, 0a3H, 0acH, 0d3H, 0c9H, 0d3H, 0daH, 0b1H, 0c8H
	DB	0c8H, 0fcH, 0d3H, 0c3H, 0bbH, 0a7H, 0c7H, 0bfH, 0d0H, 0d0H, 0cdH
	DB	0cbH, 0b3H, 0f6H, 0b1H, 0c8H, 0c8H, 0fcH, 0a3H, 0acH, 0c8H, 0cbH
	DB	0caH, 0fdH, 0b2H, 0bbH, 0d7H, 0e3H, ' %d ', 0c8H, 0cbH, 0a3H, 0acH
	DB	0ccH, 0e1H, 0c7H, 0b0H, 0bdH, 0e1H, 0cbH, 0e3H, 0a1H, 0a3H, 0bbH
	DB	0b6H, 0d3H, 0adH, 0c4H, 0faH, 0bcH, 0ccH, 0d0H, 0f8H, 0b1H, 0a8H
	DB	0c3H, 0fbH, 0b2H, 0ceH, 0bcH, 0d3H, 0b1H, 0c8H, 0c8H, 0fcH, 0a3H
	DB	0a1H, 00H					; `string'
CONST	ENDS
;	COMDAT ??_C@_0M@NKMAPECH@?$LM?l?$LC?i?H?K?J?$PN?4?4?4@
CONST	SEGMENT
??_C@_0M@NKMAPECH@?$LM?l?$LC?i?H?K?J?$PN?4?4?4@ DB 0bcH, 0ecH, 0b2H, 0e9H
	DB	0c8H, 0cbH, 0caH, 0fdH, '...', 00H		; `string'
CONST	ENDS
;	COMDAT ?__LINE__Var@?0??CheckMatchUser@CImmediateGroup@@IAE_NXZ@4JA
_DATA	SEGMENT
?__LINE__Var@?0??CheckMatchUser@CImmediateGroup@@IAE_NXZ@4JA DD 034bH ; `CImmediateGroup::CheckMatchUser'::`1'::__LINE__Var
_DATA	ENDS
;	COMDAT ??_C@_0BC@LKGHNAEH@?$LM?L?P?x?S?N?O?$LH_?W?x?O?B?J?$KH?$LA?$NM@
CONST	SEGMENT
??_C@_0BC@LKGHNAEH@?$LM?L?P?x?S?N?O?$LH_?W?x?O?B?J?$KH?$LA?$NM@ DB 0bcH, 0ccH
	DB	0d0H, 0f8H, 0d3H, 0ceH, 0cfH, 0b7H, '_', 0d7H, 0f8H, 0cfH, 0c2H
	DB	0caH, 0a7H, 0b0H, 0dcH, 00H			; `string'
CONST	ENDS
;	COMDAT ??_C@_0BC@IKPCOJMH@?$LM?L?P?x?S?N?O?$LH_?F?p?A?$KC?J?$KH?$LA?$NM@
CONST	SEGMENT
??_C@_0BC@IKPCOJMH@?$LM?L?P?x?S?N?O?$LH_?F?p?A?$KC?J?$KH?$LA?$NM@ DB 0bcH
	DB	0ccH, 0d0H, 0f8H, 0d3H, 0ceH, 0cfH, 0b7H, '_', 0c6H, 0f0H, 0c1H
	DB	0a2H, 0caH, 0a7H, 0b0H, 0dcH, 00H		; `string'
CONST	ENDS
;	COMDAT ?__LINE__Var@?0??ContinueGame@CImmediateGroup@@IAEXPAUITableFrame@@@Z@4JA
_DATA	SEGMENT
?__LINE__Var@?0??ContinueGame@CImmediateGroup@@IAEXPAUITableFrame@@@Z@4JA DD 0311H ; `CImmediateGroup::ContinueGame'::`1'::__LINE__Var
_DATA	ENDS
;	COMDAT ?__LINE__Var@?0??PerformAllUserStandUp@CImmediateGroup@@IAEXPAUITableFrame@@@Z@4JA
_DATA	SEGMENT
?__LINE__Var@?0??PerformAllUserStandUp@CImmediateGroup@@IAEXPAUITableFrame@@@Z@4JA DD 02ffH ; `CImmediateGroup::PerformAllUserStandUp'::`1'::__LINE__Var
_DATA	ENDS
;	COMDAT ??_C@_0L@EGCIENHN@?W?x?O?B?J?$KH?$LA?$NM?$KD?$LP@
CONST	SEGMENT
??_C@_0L@EGCIENHN@?W?x?O?B?J?$KH?$LA?$NM?$KD?$LP@ DB 0d7H, 0f8H, 0cfH, 0c2H
	DB	0caH, 0a7H, 0b0H, 0dcH, 0a3H, 0bfH, 00H	; `string'
CONST	ENDS
;	COMDAT ?__LINE__Var@?0??GetUserRank@CImmediateGroup@@IAEGPAUIServerUserItem@@PAUITableFrame@@@Z@4JA
_DATA	SEGMENT
?__LINE__Var@?0??GetUserRank@CImmediateGroup@@IAEGPAUIServerUserItem@@PAUITableFrame@@@Z@4JA DD 01e0H ; `CImmediateGroup::GetUserRank'::`1'::__LINE__Var
_DATA	ENDS
;	COMDAT ??_C@_0CC@GOIHMJKJ@?$LB?$LO?$LO?V?R?Q?$LN?a?J?x?$KD?$KM?G?k?I?T?$LK?r?$KD?$KM?O?$LF?M?$LD?E?d?W?$MA?V?P?4@
CONST	SEGMENT
??_C@_0CC@GOIHMJKJ@?$LB?$LO?$LO?V?R?Q?$LN?a?J?x?$KD?$KM?G?k?I?T?$LK?r?$KD?$KM?O?$LF?M?$LD?E?d?W?$MA?V?P?4@ DB 0b1H
	DB	0beH, 0beH, 0d6H, 0d2H, 0d1H, 0bdH, 0e1H, 0caH, 0f8H, 0a3H, 0acH
	DB	0c7H, 0ebH, 0c9H, 0d4H, 0baH, 0f2H, 0a3H, 0acH, 0cfH, 0b5H, 0cdH
	DB	0b3H, 0c5H, 0e4H, 0d7H, 0c0H, 0d6H, 0d0H, '...', 00H ; `string'
CONST	ENDS
;	COMDAT ??_C@_0DC@OCDKCEOG@?$LB?$LO?$LO?V?R?Q?$LN?a?J?x?$KD?$KM?G?k?D?M?P?D?$LF?H?$LE?$PN?F?d?K?$PL?W?$MA?M?j?$LD@
CONST	SEGMENT
??_C@_0DC@OCDKCEOG@?$LB?$LO?$LO?V?R?Q?$LN?a?J?x?$KD?$KM?G?k?D?M?P?D?$LF?H?$LE?$PN?F?d?K?$PL?W?$MA?M?j?$LD@ DB 0b1H
	DB	0beH, 0beH, 0d6H, 0d2H, 0d1H, 0bdH, 0e1H, 0caH, 0f8H, 0a3H, 0acH
	DB	0c7H, 0ebH, 0c4H, 0cdH, 0d0H, 0c4H, 0b5H, 0c8H, 0b4H, 0fdH, 0c6H
	DB	0e4H, 0cbH, 0fbH, 0d7H, 0c0H, 0cdH, 0eaH, 0b3H, 0c9H, 0a3H, 0acH
	DB	0c9H, 0d4H, 0baH, 0f3H, 0ceH, 0aaH, 0c4H, 0faH, 0c5H, 0e4H, 0d7H
	DB	0c0H, '...', 00H				; `string'
CONST	ENDS
;	COMDAT ??_C@_0EE@LPJNIANI@?$LJ?$KH?O?$LC?D?z?0?D?z?R?Q?M?f?B?z?$CFd?$LO?V?S?N?O?$LH?0?$LF?H?F?d?K?$PL?W@
CONST	SEGMENT
??_C@_0EE@LPJNIANI@?$LJ?$KH?O?$LC?D?z?0?D?z?R?Q?M?f?B?z?$CFd?$LO?V?S?N?O?$LH?0?$LF?H?F?d?K?$PL?W@ DB 0b9H
	DB	0a7H, 0cfH, 0b2H, 0c4H, 0faH, ',', 0c4H, 0faH, 0d2H, 0d1H, 0cdH
	DB	0e6H, 0c2H, 0faH, '%d', 0beH, 0d6H, 0d3H, 0ceH, 0cfH, 0b7H, ','
	DB	0b5H, 0c8H, 0c6H, 0e4H, 0cbH, 0fbH, 0d7H, 0c0H, 0cdH, 0eaH, 0b3H
	DB	0c9H, 0baH, 0f3H, 0cfH, 0b5H, 0cdH, 0b3H, 0bdH, 0abH, 0bdH, 0f8H
	DB	0d0H, 0d0H, 0c5H, 0c5H, 0c3H, 0fbH, ',', 0c7H, 0ebH, 0c4H, 0faH
	DB	0c4H, 0cdH, 0d0H, 0c4H, 0b5H, 0c8H, 0b4H, 0fdH, 0a3H, 0a1H, 00H ; `string'
CONST	ENDS
;	COMDAT ?__LINE__Var@?0??OnEventGameEnd@CImmediateGroup@@UAE_NPAUITableFrame@@GPAUIServerUserItem@@E@Z@4JA
_DATA	SEGMENT
?__LINE__Var@?0??OnEventGameEnd@CImmediateGroup@@UAE_NPAUITableFrame@@GPAUIServerUserItem@@E@Z@4JA DD 016bH ; `CImmediateGroup::OnEventGameEnd'::`1'::__LINE__Var
_DATA	ENDS
;	COMDAT ??_C@_0CB@BLALCHJO@?$LG?$KI?$LO?V?E?E?C?$PL?H?$PM?$LF?Z?$CFd?$LO?V?$LP?$KK?J?$LM?$KD?$KI?$LJ?$LC?$CFd?$LO?V?$KD?$KJ?$KB@
CONST	SEGMENT
??_C@_0CB@BLALCHJO@?$LG?$KI?$LO?V?E?E?C?$PL?H?$PM?$LF?Z?$CFd?$LO?V?$LP?$KK?J?$LM?$KD?$KI?$LJ?$LC?$CFd?$LO?V?$KD?$KJ?$KB@ DB 0b6H
	DB	0a8H, 0beH, 0d6H, 0c5H, 0c5H, 0c3H, 0fbH, 0c8H, 0fcH, 0b5H, 0daH
	DB	'%d', 0beH, 0d6H, 0bfH, 0aaH, 0caH, 0bcH, 0a3H, 0a8H, 0b9H, 0b2H
	DB	'%d', 0beH, 0d6H, 0a3H, 0a9H, 0a1H, 0a3H, 00H ; `string'
CONST	ENDS
;	COMDAT ?__LINE__Var@?0??OnUserQuitMatch@CImmediateGroup@@QAE_NPAUIServerUserItem@@@Z@4JA
_DATA	SEGMENT
?__LINE__Var@?0??OnUserQuitMatch@CImmediateGroup@@QAE_NPAUIServerUserItem@@@Z@4JA DD 0dbH ; `CImmediateGroup::OnUserQuitMatch'::`1'::__LINE__Var
_DATA	ENDS
;	COMDAT ??_C@_0EA@BEFMOLA@?$LB?$KH?G?$LI?$KD?$KM?S?I?S?Z?$LJ?$PN?$LG?$OA?S?C?$LL?$KH?W?$MA?W?S?J?$PN?A?$LP?$LC?$LL?$LJ?$LL?$KD@
CONST	SEGMENT
??_C@_0EA@BEFMOLA@?$LB?$KH?G?$LI?$KD?$KM?S?I?S?Z?$LJ?$PN?$LG?$OA?S?C?$LL?$KH?W?$MA?W?S?J?$PN?A?$LP?$LC?$LL?$LJ?$LL?$KD@ DB 0b1H
	DB	0a7H, 0c7H, 0b8H, 0a3H, 0acH, 0d3H, 0c9H, 0d3H, 0daH, 0b9H, 0fdH
	DB	0b6H, 0e0H, 0d3H, 0c3H, 0bbH, 0a7H, 0d7H, 0c0H, 0d7H, 0d3H, 0caH
	DB	0fdH, 0c1H, 0bfH, 0b2H, 0bbH, 0b9H, 0bbH, 0a3H, 0a1H, 0bbH, 0b9H
	DB	0b2H, 0eeH, ' %d ', 0d5H, 0c5H, 0d7H, 0c0H, 0d7H, 0d3H, 0bfH, 0aaH
	DB	0c8H, 0fcH, ',', 0c7H, 0ebH, 0b5H, 0c8H, 0b4H, 0fdH, 0a1H, 0a3H
	DB	0a1H, 0a3H, 0a1H, 0a3H, 00H			; `string'
CONST	ENDS
;	COMDAT ??_C@_0EF@OFDKLJHC@?$LB?$KH?G?$LI?$KD?$KM?S?I?S?Z?D?$LD?S?C?$LL?$KH?G?$LP?P?P?M?K?$LD?v?$LB?H?H?$PM?$KD?$KM?$LI@
CONST	SEGMENT
??_C@_0EF@OFDKLJHC@?$LB?$KH?G?$LI?$KD?$KM?S?I?S?Z?D?$LD?S?C?$LL?$KH?G?$LP?P?P?M?K?$LD?v?$LB?H?H?$PM?$KD?$KM?$LI@ DB 0b1H
	DB	0a7H, 0c7H, 0b8H, 0a3H, 0acH, 0d3H, 0c9H, 0d3H, 0daH, 0c4H, 0b3H
	DB	0d3H, 0c3H, 0bbH, 0a7H, 0c7H, 0bfH, 0d0H, 0d0H, 0cdH, 0cbH, 0b3H
	DB	0f6H, 0b1H, 0c8H, 0c8H, 0fcH, 0a3H, 0acH, 0b8H, 0c3H, 0b3H, 0a1H
	DB	0b1H, 0c8H, 0c8H, 0fcH, 0ccH, 0e1H, 0c7H, 0b0H, 0bdH, 0e1H, 0caH
	DB	0f8H, 0a1H, 0a3H, 0c4H, 0e3H, 0bfH, 0c9H, 0d2H, 0d4H, 0bcH, 0ccH
	DB	0d0H, 0f8H, 0b5H, 0c8H, 0b4H, 0fdH, 0b1H, 0c8H, 0c8H, 0fcH, 0a3H
	DB	0a1H, 00H					; `string'
CONST	ENDS
;	COMDAT ?__LINE__Var@?0??EfficacyStartMatch@CImmediateGroup@@IAEXXZ@4JA
_DATA	SEGMENT
?__LINE__Var@?0??EfficacyStartMatch@CImmediateGroup@@IAEXXZ@4JA DD 08bH ; `CImmediateGroup::EfficacyStartMatch'::`1'::__LINE__Var
_DATA	ENDS
;	COMDAT ?__LINE__Var@?0??OnUserSignUpMatch@CImmediateGroup@@QAE_NPAUIServerUserItem@@@Z@4JA
_DATA	SEGMENT
?__LINE__Var@?0??OnUserSignUpMatch@CImmediateGroup@@QAE_NPAUIServerUserItem@@@Z@4JA DD 04aH ; `CImmediateGroup::OnUserSignUpMatch'::`1'::__LINE__Var
_DATA	ENDS
;	COMDAT ??_C@_0EL@ONMMFGFJ@g?3?2?M?x?$LK?$PM?2happygamewh?2?$LH?$PO?N?q?$LG?K?2?O?$LF?M?$LD@
CONST	SEGMENT
??_C@_0EL@ONMMFGFJ@g?3?2?M?x?$LK?$PM?2happygamewh?2?$LH?$PO?N?q?$LG?K?2?O?$LF?M?$LD@ DB 'g'
	DB	':\', 0cdH, 0f8H, 0baH, 0fcH, '\happygamewh\', 0b7H, 0feH, 0ceH
	DB	0f1H, 0b6H, 0cbH, '\', 0cfH, 0b5H, 0cdH, 0b3H, 0c4H, 0a3H, 0bfH
	DB	0e9H, '\', 0b7H, 0feH, 0ceH, 0f1H, 0c6H, 0f7H, 0d7H, 0e9H, 0bcH
	DB	0feH, '\', 0b1H, 0c8H, 0c8H, 0fcH, 0b7H, 0feH, 0ceH, 0f1H, '\i'
	DB	'mmediategroup.cpp', 00H			; `string'
CONST	ENDS
;	COMDAT ?__LINE__Var@?0???1CImmediateGroup@@UAE@XZ@4JA
_DATA	SEGMENT
?__LINE__Var@?0???1CImmediateGroup@@UAE@XZ@4JA DD 02cH	; `CImmediateGroup::~CImmediateGroup'::`1'::__LINE__Var
_DATA	ENDS
;	COMDAT ??_7CImmediateGroup@@6B@
CONST	SEGMENT
??_7CImmediateGroup@@6B@ DD FLAT:??_R4CImmediateGroup@@6B@ ; CImmediateGroup::`vftable'
	DD	FLAT:?Release@CImmediateGroup@@UAEXXZ
	DD	FLAT:?QueryInterface@CImmediateGroup@@UAEPAXABU_GUID@@K@Z
	DD	FLAT:?OnEventGameStart@CImmediateGroup@@UAE_NPAUITableFrame@@G@Z
	DD	FLAT:?OnEventGameEnd@CImmediateGroup@@UAE_NPAUITableFrame@@GPAUIServerUserItem@@E@Z
	DD	FLAT:?OnEventUserReturnMatch@CImmediateGroup@@UAE_NPAUITableFrame@@PAUIServerUserItem@@@Z
	DD	FLAT:?OnActionUserSitDown@CImmediateGroup@@UAE_NGGPAUIServerUserItem@@_N@Z
	DD	FLAT:?OnActionUserStandUp@CImmediateGroup@@UAE_NGGPAUIServerUserItem@@_N@Z
	DD	FLAT:?OnActionUserOnReady@CImmediateGroup@@UAE_NGGPAUIServerUserItem@@PAXG@Z
	DD	FLAT:??_ECImmediateGroup@@UAEPAXI@Z
CONST	ENDS
;	COMDAT ??_7?$CWHArray@PAUtagMatchTimer@@ABQAU1@@@6B@
CONST	SEGMENT
??_7?$CWHArray@PAUtagMatchTimer@@ABQAU1@@@6B@ DD FLAT:??_R4?$CWHArray@PAUtagMatchTimer@@ABQAU1@@@6B@ ; CWHArray<tagMatchTimer *,tagMatchTimer * const &>::`vftable'
	DD	FLAT:??_E?$CWHArray@PAUtagMatchTimer@@ABQAU1@@@UAEPAXI@Z
CONST	ENDS
;	COMDAT ??_7?$CWHArray@PAUtagTableFrameInfo@@ABQAU1@@@6B@
CONST	SEGMENT
??_7?$CWHArray@PAUtagTableFrameInfo@@ABQAU1@@@6B@ DD FLAT:??_R4?$CWHArray@PAUtagTableFrameInfo@@ABQAU1@@@6B@ ; CWHArray<tagTableFrameInfo *,tagTableFrameInfo * const &>::`vftable'
	DD	FLAT:??_E?$CWHArray@PAUtagTableFrameInfo@@ABQAU1@@@UAEPAXI@Z
CONST	ENDS
;	COMDAT ??_7?$CWHArray@PAUIServerUserItem@@ABQAU1@@@6B@
CONST	SEGMENT
??_7?$CWHArray@PAUIServerUserItem@@ABQAU1@@@6B@ DD FLAT:??_R4?$CWHArray@PAUIServerUserItem@@ABQAU1@@@6B@ ; CWHArray<IServerUserItem *,IServerUserItem * const &>::`vftable'
	DD	FLAT:??_E?$CWHArray@PAUIServerUserItem@@ABQAU1@@@UAEPAXI@Z
CONST	ENDS
;	COMDAT ??_7?$CMap@KKPAUIServerUserItem@@PAU1@@@6B@
CONST	SEGMENT
??_7?$CMap@KKPAUIServerUserItem@@PAU1@@@6B@ DD FLAT:??_R4?$CMap@KKPAUIServerUserItem@@PAU1@@@6B@ ; CMap<unsigned long,unsigned long,IServerUserItem *,IServerUserItem *>::`vftable'
	DD	FLAT:?GetRuntimeClass@CObject@@UBEPAUCRuntimeClass@@XZ
	DD	FLAT:??_E?$CMap@KKPAUIServerUserItem@@PAU1@@@UAEPAXI@Z
	DD	FLAT:?Serialize@?$CMap@KKPAUIServerUserItem@@PAU1@@@UAEXAAVCArchive@@@Z
	DD	FLAT:?AssertValid@?$CMap@KKPAUIServerUserItem@@PAU1@@@UBEXXZ
	DD	FLAT:?Dump@?$CMap@KKPAUIServerUserItem@@PAU1@@@UBEXAAVCDumpContext@@@Z
CONST	ENDS
;	COMDAT ??_7IMatchEventSink@@6B@
CONST	SEGMENT
??_7IMatchEventSink@@6B@ DD FLAT:??_R4IMatchEventSink@@6B@ ; IMatchEventSink::`vftable'
	DD	FLAT:__purecall
	DD	FLAT:__purecall
	DD	FLAT:__purecall
	DD	FLAT:__purecall
	DD	FLAT:__purecall
	DD	FLAT:__purecall
	DD	FLAT:__purecall
	DD	FLAT:__purecall
CONST	ENDS
;	COMDAT ??_R2CObject@@8
rdata$r	SEGMENT
??_R2CObject@@8 DD FLAT:??_R1A@?0A@EA@CObject@@8	; CObject::`RTTI Base Class Array'
rdata$r	ENDS
;	COMDAT ??_R3CObject@@8
rdata$r	SEGMENT
??_R3CObject@@8 DD 00H					; CObject::`RTTI Class Hierarchy Descriptor'
	DD	00H
	DD	01H
	DD	FLAT:??_R2CObject@@8
rdata$r	ENDS
;	COMDAT ??_R0?AVCObject@@@8
data$r	SEGMENT
??_R0?AVCObject@@@8 DD FLAT:??_7type_info@@6B@		; CObject `RTTI Type Descriptor'
	DD	00H
	DB	'.?AVCObject@@', 00H
data$r	ENDS
;	COMDAT ??_R1A@?0A@EA@CObject@@8
rdata$r	SEGMENT
??_R1A@?0A@EA@CObject@@8 DD FLAT:??_R0?AVCObject@@@8	; CObject::`RTTI Base Class Descriptor at (0,-1,0,64)'
	DD	00H
	DD	00H
	DD	0ffffffffH
	DD	00H
	DD	040H
	DD	FLAT:??_R3CObject@@8
rdata$r	ENDS
;	COMDAT ??_C@_04OAFLPOMH@?$FN?5?$DN?5@
CONST	SEGMENT
??_C@_04OAFLPOMH@?$FN?5?$DN?5@ DB '] = ', 00H		; `string'
CONST	ENDS
;	COMDAT ??_C@_03OHJIHPJH@?6?7?$FL@
CONST	SEGMENT
??_C@_03OHJIHPJH@?6?7?$FL@ DB 0aH, 09H, '[', 00H	; `string'
CONST	ENDS
;	COMDAT ??_C@_01EEMJAFIK@?6@
CONST	SEGMENT
??_C@_01EEMJAFIK@?6@ DB 0aH, 00H			; `string'
CONST	ENDS
;	COMDAT ??_C@_09HCLNAIDE@?5elements@
CONST	SEGMENT
??_C@_09HCLNAIDE@?5elements@ DB ' elements', 00H	; `string'
CONST	ENDS
;	COMDAT ??_C@_05PLCFPPOI@with?5@
CONST	SEGMENT
??_C@_05PLCFPPOI@with?5@ DB 'with ', 00H		; `string'
CONST	ENDS
;	COMDAT ??_C@_0HC@HBCNBCLF@c?3?2program?5files?5?$CIx86?$CJ?2microsof@
CONST	SEGMENT
??_C@_0HC@HBCNBCLF@c?3?2program?5files?5?$CIx86?$CJ?2microsof@ DB 'c:\pro'
	DB	'gram files (x86)\microsoft visual studio\2017\community\vc\to'
	DB	'ols\msvc\14.16.27023\atlmfc\include\afxtempl.h', 00H ; `string'
CONST	ENDS
;	COMDAT ??_C@_1BK@NHECDDNK@?$AAm?$AA_?$AAp?$AAD?$AAa?$AAt?$AAa?$AA?5?$AA?$DN?$AA?$DN?$AA?5?$AA0@
CONST	SEGMENT
??_C@_1BK@NHECDDNK@?$AAm?$AA_?$AAp?$AAD?$AAa?$AAt?$AAa?$AA?5?$AA?$DN?$AA?$DN?$AA?5?$AA0@ DB 'm'
	DB	00H, '_', 00H, 'p', 00H, 'D', 00H, 'a', 00H, 't', 00H, 'a', 00H
	DB	' ', 00H, '=', 00H, '=', 00H, ' ', 00H, '0', 00H, 00H, 00H ; `string'
CONST	ENDS
;	COMDAT ??_7IUnknownEx@@6B@
CONST	SEGMENT
??_7IUnknownEx@@6B@ DD FLAT:??_R4IUnknownEx@@6B@	; IUnknownEx::`vftable'
	DD	FLAT:__purecall
	DD	FLAT:__purecall
CONST	ENDS
;	COMDAT ??_C@_00CNPNBAHC@@
CONST	SEGMENT
??_C@_00CNPNBAHC@@ DB 00H				; `string'
CONST	ENDS
;	COMDAT ?__LINE__Var@?0??GetLocalTm@CTime@ATL@@QBEPAUtm@@PAU4@@Z@4JA
_DATA	SEGMENT
?__LINE__Var@?0??GetLocalTm@CTime@ATL@@QBEPAUtm@@PAU4@@Z@4JA DD 025fH ; `ATL::CTime::GetLocalTm'::`1'::__LINE__Var
_DATA	ENDS
;	COMDAT ??_C@_1OC@IALJLBM@?$AAc?$AA?3?$AA?2?$AAp?$AAr?$AAo?$AAg?$AAr?$AAa?$AAm?$AA?5?$AAf?$AAi?$AAl?$AAe@
CONST	SEGMENT
??_C@_1OC@IALJLBM@?$AAc?$AA?3?$AA?2?$AAp?$AAr?$AAo?$AAg?$AAr?$AAa?$AAm?$AA?5?$AAf?$AAi?$AAl?$AAe@ DB 'c'
	DB	00H, ':', 00H, '\', 00H, 'p', 00H, 'r', 00H, 'o', 00H, 'g', 00H
	DB	'r', 00H, 'a', 00H, 'm', 00H, ' ', 00H, 'f', 00H, 'i', 00H, 'l'
	DB	00H, 'e', 00H, 's', 00H, ' ', 00H, '(', 00H, 'x', 00H, '8', 00H
	DB	'6', 00H, ')', 00H, '\', 00H, 'm', 00H, 'i', 00H, 'c', 00H, 'r'
	DB	00H, 'o', 00H, 's', 00H, 'o', 00H, 'f', 00H, 't', 00H, ' ', 00H
	DB	'v', 00H, 'i', 00H, 's', 00H, 'u', 00H, 'a', 00H, 'l', 00H, ' '
	DB	00H, 's', 00H, 't', 00H, 'u', 00H, 'd', 00H, 'i', 00H, 'o', 00H
	DB	'\', 00H, '2', 00H, '0', 00H, '1', 00H, '7', 00H, '\', 00H, 'c'
	DB	00H, 'o', 00H, 'm', 00H, 'm', 00H, 'u', 00H, 'n', 00H, 'i', 00H
	DB	't', 00H, 'y', 00H, '\', 00H, 'v', 00H, 'c', 00H, '\', 00H, 't'
	DB	00H, 'o', 00H, 'o', 00H, 'l', 00H, 's', 00H, '\', 00H, 'm', 00H
	DB	's', 00H, 'v', 00H, 'c', 00H, '\', 00H, '1', 00H, '4', 00H, '.'
	DB	00H, '1', 00H, '6', 00H, '.', 00H, '2', 00H, '7', 00H, '0', 00H
	DB	'2', 00H, '3', 00H, '\', 00H, 'a', 00H, 't', 00H, 'l', 00H, 'm'
	DB	00H, 'f', 00H, 'c', 00H, '\', 00H, 'i', 00H, 'n', 00H, 'c', 00H
	DB	'l', 00H, 'u', 00H, 'd', 00H, 'e', 00H, '\', 00H, 'a', 00H, 't'
	DB	00H, 'l', 00H, 't', 00H, 'i', 00H, 'm', 00H, 'e', 00H, '.', 00H
	DB	'h', 00H, 00H, 00H				; `string'
CONST	ENDS
;	COMDAT ??_C@_1BM@GBBOFEAE@?$AA_?$AA_?$AAa?$AAt?$AAl?$AA_?$AAc?$AAo?$AAn?$AAd?$AAV?$AAa?$AAl@
CONST	SEGMENT
??_C@_1BM@GBBOFEAE@?$AA_?$AA_?$AAa?$AAt?$AAl?$AA_?$AAc?$AAo?$AAn?$AAd?$AAV?$AAa?$AAl@ DB '_'
	DB	00H, '_', 00H, 'a', 00H, 't', 00H, 'l', 00H, '_', 00H, 'c', 00H
	DB	'o', 00H, 'n', 00H, 'd', 00H, 'V', 00H, 'a', 00H, 'l', 00H, 00H
	DB	00H						; `string'
CONST	ENDS
;	COMDAT ??_C@_0BF@IAAKIJDJ@AtlThrow?3?5hr?5?$DN?50x?$CFx?6@
CONST	SEGMENT
??_C@_0BF@IAAKIJDJ@AtlThrow?3?5hr?5?$DN?50x?$CFx?6@ DB 'AtlThrow: hr = 0x'
	DB	'%x', 0aH, 00H				; `string'
CONST	ENDS
;	COMDAT ??_C@_0HD@OEBHCJKM@c?3?2program?5files?5?$CIx86?$CJ?2microsof@
CONST	SEGMENT
??_C@_0HD@OEBHCJKM@c?3?2program?5files?5?$CIx86?$CJ?2microsof@ DB 'c:\pro'
	DB	'gram files (x86)\microsoft visual studio\2017\community\vc\to'
	DB	'ols\msvc\14.16.27023\atlmfc\include\atlexcept.h', 00H ; `string'
CONST	ENDS
;	COMDAT ?__LINE__Var@?0??AtlThrowImpl@ATL@@YGXJ@Z@4JA
_DATA	SEGMENT
?__LINE__Var@?0??AtlThrowImpl@ATL@@YGXJ@Z@4JA DD 041H	; `ATL::AtlThrowImpl'::`1'::__LINE__Var
_DATA	ENDS
;	COMDAT ??_C@_1OE@PDFAMNPL@?$AAc?$AA?3?$AA?2?$AAp?$AAr?$AAo?$AAg?$AAr?$AAa?$AAm?$AA?5?$AAf?$AAi?$AAl?$AAe@
CONST	SEGMENT
??_C@_1OE@PDFAMNPL@?$AAc?$AA?3?$AA?2?$AAp?$AAr?$AAo?$AAg?$AAr?$AAa?$AAm?$AA?5?$AAf?$AAi?$AAl?$AAe@ DB 'c'
	DB	00H, ':', 00H, '\', 00H, 'p', 00H, 'r', 00H, 'o', 00H, 'g', 00H
	DB	'r', 00H, 'a', 00H, 'm', 00H, ' ', 00H, 'f', 00H, 'i', 00H, 'l'
	DB	00H, 'e', 00H, 's', 00H, ' ', 00H, '(', 00H, 'x', 00H, '8', 00H
	DB	'6', 00H, ')', 00H, '\', 00H, 'm', 00H, 'i', 00H, 'c', 00H, 'r'
	DB	00H, 'o', 00H, 's', 00H, 'o', 00H, 'f', 00H, 't', 00H, ' ', 00H
	DB	'v', 00H, 'i', 00H, 's', 00H, 'u', 00H, 'a', 00H, 'l', 00H, ' '
	DB	00H, 's', 00H, 't', 00H, 'u', 00H, 'd', 00H, 'i', 00H, 'o', 00H
	DB	'\', 00H, '2', 00H, '0', 00H, '1', 00H, '7', 00H, '\', 00H, 'c'
	DB	00H, 'o', 00H, 'm', 00H, 'm', 00H, 'u', 00H, 'n', 00H, 'i', 00H
	DB	't', 00H, 'y', 00H, '\', 00H, 'v', 00H, 'c', 00H, '\', 00H, 't'
	DB	00H, 'o', 00H, 'o', 00H, 'l', 00H, 's', 00H, '\', 00H, 'm', 00H
	DB	's', 00H, 'v', 00H, 'c', 00H, '\', 00H, '1', 00H, '4', 00H, '.'
	DB	00H, '1', 00H, '6', 00H, '.', 00H, '2', 00H, '7', 00H, '0', 00H
	DB	'2', 00H, '3', 00H, '\', 00H, 'a', 00H, 't', 00H, 'l', 00H, 'm'
	DB	00H, 'f', 00H, 'c', 00H, '\', 00H, 'i', 00H, 'n', 00H, 'c', 00H
	DB	'l', 00H, 'u', 00H, 'd', 00H, 'e', 00H, '\', 00H, 'a', 00H, 't'
	DB	00H, 'l', 00H, 't', 00H, 'r', 00H, 'a', 00H, 'c', 00H, 'e', 00H
	DB	'.', 00H, 'h', 00H, 00H, 00H			; `string'
CONST	ENDS
;	COMDAT ??_C@_1EO@EBPPKGOM@?$AAf?$AAa?$AAl?$AAs?$AAe?$AA?5?$AA?$CG?$AA?$CG?$AA?5?$AA?$CC?$AAT?$AAo?$AAo?$AA?5?$AAm@
CONST	SEGMENT
??_C@_1EO@EBPPKGOM@?$AAf?$AAa?$AAl?$AAs?$AAe?$AA?5?$AA?$CG?$AA?$CG?$AA?5?$AA?$CC?$AAT?$AAo?$AAo?$AA?5?$AAm@ DB 'f'
	DB	00H, 'a', 00H, 'l', 00H, 's', 00H, 'e', 00H, ' ', 00H, '&', 00H
	DB	'&', 00H, ' ', 00H, '"', 00H, 'T', 00H, 'o', 00H, 'o', 00H, ' '
	DB	00H, 'm', 00H, 'a', 00H, 'n', 00H, 'y', 00H, ' ', 00H, 'c', 00H
	DB	'a', 00H, 't', 00H, 'e', 00H, 'g', 00H, 'o', 00H, 'r', 00H, 'i'
	DB	00H, 'e', 00H, 's', 00H, ' ', 00H, 'd', 00H, 'e', 00H, 'f', 00H
	DB	'i', 00H, 'n', 00H, 'e', 00H, 'd', 00H, '"', 00H, 00H, 00H ; `string'
CONST	ENDS
;	COMDAT ??_C@_17LGGGMOOB@?$AA?$CF?$AAh?$AAs@
CONST	SEGMENT
??_C@_17LGGGMOOB@?$AA?$CF?$AAh?$AAs@ DB '%', 00H, 'h', 00H, 's', 00H, 00H
	DB	00H						; `string'
CONST	ENDS
;	COMDAT ??_C@_1O@OAIPCDPO@?$AA?$CF?$AAl?$AAs?$AA?$CF?$AAl?$AAs@
CONST	SEGMENT
??_C@_1O@OAIPCDPO@?$AA?$CF?$AAl?$AAs?$AA?$CF?$AAl?$AAs@ DB '%', 00H, 'l', 00H
	DB	's', 00H, '%', 00H, 'l', 00H, 's', 00H, 00H, 00H ; `string'
CONST	ENDS
;	COMDAT ??_C@_1M@PGKOAACE@?$AA?$CF?$AAu?$AA?5?$AA?9?$AA?5@
CONST	SEGMENT
??_C@_1M@PGKOAACE@?$AA?$CF?$AAu?$AA?5?$AA?9?$AA?5@ DB '%', 00H, 'u', 00H, ' '
	DB	00H, '-', 00H, ' ', 00H, 00H, 00H		; `string'
CONST	ENDS
;	COMDAT ??_C@_1O@LFNDFEBP@?$AA?$CF?$AAl?$AAs?$AA?5?$AA?9?$AA?5@
CONST	SEGMENT
??_C@_1O@LFNDFEBP@?$AA?$CF?$AAl?$AAs?$AA?5?$AA?9?$AA?5@ DB '%', 00H, 'l', 00H
	DB	's', 00H, ' ', 00H, '-', 00H, ' ', 00H, 00H, 00H ; `string'
CONST	ENDS
;	COMDAT ?m_nCategory@CTrace@ATL@@1IA
_DATA	SEGMENT
?m_nCategory@CTrace@ATL@@1IA DD 0ffffffffH		; ATL::CTrace::m_nCategory
_DATA	ENDS
;	COMDAT ??_C@_0BC@PGMFNIFA@atlTraceException@
CONST	SEGMENT
??_C@_0BC@PGMFNIFA@atlTraceException@ DB 'atlTraceException', 00H ; `string'
CONST	ENDS
;	COMDAT ??_C@_1OE@IAPLKPHI@?$AAc?$AA?3?$AA?2?$AAp?$AAr?$AAo?$AAg?$AAr?$AAa?$AAm?$AA?5?$AAf?$AAi?$AAl?$AAe@
CONST	SEGMENT
??_C@_1OE@IAPLKPHI@?$AAc?$AA?3?$AA?2?$AAp?$AAr?$AAo?$AAg?$AAr?$AAa?$AAm?$AA?5?$AAf?$AAi?$AAl?$AAe@ DB 'c'
	DB	00H, ':', 00H, '\', 00H, 'p', 00H, 'r', 00H, 'o', 00H, 'g', 00H
	DB	'r', 00H, 'a', 00H, 'm', 00H, ' ', 00H, 'f', 00H, 'i', 00H, 'l'
	DB	00H, 'e', 00H, 's', 00H, ' ', 00H, '(', 00H, 'x', 00H, '8', 00H
	DB	'6', 00H, ')', 00H, '\', 00H, 'm', 00H, 'i', 00H, 'c', 00H, 'r'
	DB	00H, 'o', 00H, 's', 00H, 'o', 00H, 'f', 00H, 't', 00H, ' ', 00H
	DB	'v', 00H, 'i', 00H, 's', 00H, 'u', 00H, 'a', 00H, 'l', 00H, ' '
	DB	00H, 's', 00H, 't', 00H, 'u', 00H, 'd', 00H, 'i', 00H, 'o', 00H
	DB	'\', 00H, '2', 00H, '0', 00H, '1', 00H, '7', 00H, '\', 00H, 'c'
	DB	00H, 'o', 00H, 'm', 00H, 'm', 00H, 'u', 00H, 'n', 00H, 'i', 00H
	DB	't', 00H, 'y', 00H, '\', 00H, 'v', 00H, 'c', 00H, '\', 00H, 't'
	DB	00H, 'o', 00H, 'o', 00H, 'l', 00H, 's', 00H, '\', 00H, 'm', 00H
	DB	's', 00H, 'v', 00H, 'c', 00H, '\', 00H, '1', 00H, '4', 00H, '.'
	DB	00H, '1', 00H, '6', 00H, '.', 00H, '2', 00H, '7', 00H, '0', 00H
	DB	'2', 00H, '3', 00H, '\', 00H, 'a', 00H, 't', 00H, 'l', 00H, 'm'
	DB	00H, 'f', 00H, 'c', 00H, '\', 00H, 'i', 00H, 'n', 00H, 'c', 00H
	DB	'l', 00H, 'u', 00H, 'd', 00H, 'e', 00H, '\', 00H, 'a', 00H, 't'
	DB	00H, 'l', 00H, 'a', 00H, 'l', 00H, 'l', 00H, 'o', 00H, 'c', 00H
	DB	'.', 00H, 'h', 00H, 00H, 00H			; `string'
CONST	ENDS
;	COMDAT ??_C@_17CNPHIMPH@?$AA?$CF?$AAl?$AAs@
CONST	SEGMENT
??_C@_17CNPHIMPH@?$AA?$CF?$AAl?$AAs@ DB '%', 00H, 'l', 00H, 's', 00H, 00H
	DB	00H						; `string'
CONST	ENDS
;	COMDAT xdata$x
xdata$x	SEGMENT
__catchsym$?KillMatchTimer@CImmediateGroup@@IAE_NKI@Z$2 DD 040H
	DD	00H
	DD	00H
	DD	FLAT:__catch$?KillMatchTimer@CImmediateGroup@@IAE_NKI@Z$0
__unwindtable$?KillMatchTimer@CImmediateGroup@@IAE_NKI@Z DD 0ffffffffH
	DD	00H
	DD	0ffffffffH
	DD	00H
__tryblocktable$?KillMatchTimer@CImmediateGroup@@IAE_NKI@Z DD 00H
	DD	00H
	DD	01H
	DD	01H
	DD	FLAT:__catchsym$?KillMatchTimer@CImmediateGroup@@IAE_NKI@Z$2
__ehfuncinfo$?KillMatchTimer@CImmediateGroup@@IAE_NKI@Z DD 019930522H
	DD	02H
	DD	FLAT:__unwindtable$?KillMatchTimer@CImmediateGroup@@IAE_NKI@Z
	DD	01H
	DD	FLAT:__tryblocktable$?KillMatchTimer@CImmediateGroup@@IAE_NKI@Z
	DD	2 DUP(00H)
	DD	00H
	DD	01H
xdata$x	ENDS
;	COMDAT xdata$x
xdata$x	SEGMENT
__catchsym$?KillMatchTimer@CImmediateGroup@@IAE_NH@Z$2 DD 040H
	DD	00H
	DD	00H
	DD	FLAT:__catch$?KillMatchTimer@CImmediateGroup@@IAE_NH@Z$0
__unwindtable$?KillMatchTimer@CImmediateGroup@@IAE_NH@Z DD 0ffffffffH
	DD	00H
	DD	0ffffffffH
	DD	00H
__tryblocktable$?KillMatchTimer@CImmediateGroup@@IAE_NH@Z DD 00H
	DD	00H
	DD	01H
	DD	01H
	DD	FLAT:__catchsym$?KillMatchTimer@CImmediateGroup@@IAE_NH@Z$2
__ehfuncinfo$?KillMatchTimer@CImmediateGroup@@IAE_NH@Z DD 019930522H
	DD	02H
	DD	FLAT:__unwindtable$?KillMatchTimer@CImmediateGroup@@IAE_NH@Z
	DD	01H
	DD	FLAT:__tryblocktable$?KillMatchTimer@CImmediateGroup@@IAE_NH@Z
	DD	2 DUP(00H)
	DD	00H
	DD	01H
xdata$x	ENDS
;	COMDAT xdata$x
xdata$x	SEGMENT
__catchsym$?AllKillMatchTimer@CImmediateGroup@@IAEXXZ$2 DD 040H
	DD	00H
	DD	00H
	DD	FLAT:__catch$?AllKillMatchTimer@CImmediateGroup@@IAEXXZ$0
__unwindtable$?AllKillMatchTimer@CImmediateGroup@@IAEXXZ DD 0ffffffffH
	DD	00H
	DD	0ffffffffH
	DD	00H
__tryblocktable$?AllKillMatchTimer@CImmediateGroup@@IAEXXZ DD 00H
	DD	00H
	DD	01H
	DD	01H
	DD	FLAT:__catchsym$?AllKillMatchTimer@CImmediateGroup@@IAEXXZ$2
__ehfuncinfo$?AllKillMatchTimer@CImmediateGroup@@IAEXXZ DD 019930522H
	DD	02H
	DD	FLAT:__unwindtable$?AllKillMatchTimer@CImmediateGroup@@IAEXXZ
	DD	01H
	DD	FLAT:__tryblocktable$?AllKillMatchTimer@CImmediateGroup@@IAEXXZ
	DD	2 DUP(00H)
	DD	00H
	DD	01H
xdata$x	ENDS
;	COMDAT xdata$x
xdata$x	SEGMENT
__unwindtable$?CheckMatchUser@CImmediateGroup@@IAE_NXZ DD 0ffffffffH
	DD	FLAT:__unwindfunclet$?CheckMatchUser@CImmediateGroup@@IAE_NXZ$0
__ehfuncinfo$?CheckMatchUser@CImmediateGroup@@IAE_NXZ DD 019930522H
	DD	01H
	DD	FLAT:__unwindtable$?CheckMatchUser@CImmediateGroup@@IAE_NXZ
	DD	2 DUP(00H)
	DD	2 DUP(00H)
	DD	00H
	DD	01H
xdata$x	ENDS
;	COMDAT xdata$x
xdata$x	SEGMENT
__unwindtable$?PerformDistributeTable@CImmediateGroup@@IAEXXZ DD 0ffffffffH
	DD	FLAT:__unwindfunclet$?PerformDistributeTable@CImmediateGroup@@IAEXXZ$0
__ehfuncinfo$?PerformDistributeTable@CImmediateGroup@@IAEXXZ DD 019930522H
	DD	01H
	DD	FLAT:__unwindtable$?PerformDistributeTable@CImmediateGroup@@IAEXXZ
	DD	2 DUP(00H)
	DD	2 DUP(00H)
	DD	00H
	DD	01H
xdata$x	ENDS
;	COMDAT xdata$x
xdata$x	SEGMENT
__catchsym$?OnEventGameEnd@CImmediateGroup@@UAE_NPAUITableFrame@@GPAUIServerUserItem@@E@Z$2 DD 040H
	DD	00H
	DD	00H
	DD	FLAT:__catch$?OnEventGameEnd@CImmediateGroup@@UAE_NPAUITableFrame@@GPAUIServerUserItem@@E@Z$0
__unwindtable$?OnEventGameEnd@CImmediateGroup@@UAE_NPAUITableFrame@@GPAUIServerUserItem@@E@Z DD 0ffffffffH
	DD	00H
	DD	0ffffffffH
	DD	00H
__tryblocktable$?OnEventGameEnd@CImmediateGroup@@UAE_NPAUITableFrame@@GPAUIServerUserItem@@E@Z DD 00H
	DD	00H
	DD	01H
	DD	01H
	DD	FLAT:__catchsym$?OnEventGameEnd@CImmediateGroup@@UAE_NPAUITableFrame@@GPAUIServerUserItem@@E@Z$2
__ehfuncinfo$?OnEventGameEnd@CImmediateGroup@@UAE_NPAUITableFrame@@GPAUIServerUserItem@@E@Z DD 019930522H
	DD	02H
	DD	FLAT:__unwindtable$?OnEventGameEnd@CImmediateGroup@@UAE_NPAUITableFrame@@GPAUIServerUserItem@@E@Z
	DD	01H
	DD	FLAT:__tryblocktable$?OnEventGameEnd@CImmediateGroup@@UAE_NPAUITableFrame@@GPAUIServerUserItem@@E@Z
	DD	2 DUP(00H)
	DD	00H
	DD	01H
xdata$x	ENDS
;	COMDAT xdata$x
xdata$x	SEGMENT
__catchsym$??1CImmediateGroup@@UAE@XZ$6 DD 040H
	DD	00H
	DD	00H
	DD	FLAT:__catch$??1CImmediateGroup@@UAE@XZ$0
__tryblocktable$??1CImmediateGroup@@UAE@XZ DD 04H
	DD	04H
	DD	05H
	DD	01H
	DD	FLAT:__catchsym$??1CImmediateGroup@@UAE@XZ$6
__ehfuncinfo$??1CImmediateGroup@@UAE@XZ DD 019930522H
	DD	06H
	DD	FLAT:__unwindtable$??1CImmediateGroup@@UAE@XZ
	DD	01H
	DD	FLAT:__tryblocktable$??1CImmediateGroup@@UAE@XZ
	DD	2 DUP(00H)
	DD	00H
	DD	05H
__unwindtable$??1CImmediateGroup@@UAE@XZ DD 0ffffffffH
	DD	FLAT:__unwindfunclet$??1CImmediateGroup@@UAE@XZ$2
	DD	00H
	DD	FLAT:__unwindfunclet$??1CImmediateGroup@@UAE@XZ$3
	DD	01H
	DD	FLAT:__unwindfunclet$??1CImmediateGroup@@UAE@XZ$4
	DD	02H
	DD	FLAT:__unwindfunclet$??1CImmediateGroup@@UAE@XZ$5
	DD	03H
	DD	00H
	DD	03H
	DD	00H
xdata$x	ENDS
;	COMDAT xdata$x
xdata$x	SEGMENT
__unwindtable$??0CImmediateGroup@@QAE@_JPAUtagGameMatchOption@@PAUIImmediateGroupSink@@@Z DD 0ffffffffH
	DD	FLAT:__unwindfunclet$??0CImmediateGroup@@QAE@_JPAUtagGameMatchOption@@PAUIImmediateGroupSink@@@Z$0
	DD	00H
	DD	FLAT:__unwindfunclet$??0CImmediateGroup@@QAE@_JPAUtagGameMatchOption@@PAUIImmediateGroupSink@@@Z$1
	DD	01H
	DD	FLAT:__unwindfunclet$??0CImmediateGroup@@QAE@_JPAUtagGameMatchOption@@PAUIImmediateGroupSink@@@Z$2
	DD	02H
	DD	FLAT:__unwindfunclet$??0CImmediateGroup@@QAE@_JPAUtagGameMatchOption@@PAUIImmediateGroupSink@@@Z$3
__ehfuncinfo$??0CImmediateGroup@@QAE@_JPAUtagGameMatchOption@@PAUIImmediateGroupSink@@@Z DD 019930522H
	DD	04H
	DD	FLAT:__unwindtable$??0CImmediateGroup@@QAE@_JPAUtagGameMatchOption@@PAUIImmediateGroupSink@@@Z
	DD	2 DUP(00H)
	DD	2 DUP(00H)
	DD	00H
	DD	01H
xdata$x	ENDS
;	COMDAT xdata$x
xdata$x	SEGMENT
__ehfuncinfo$??1?$CMap@KKPAUIServerUserItem@@PAU1@@@UAE@XZ DD 019930522H
	DD	00H
	DD	00H
	DD	2 DUP(00H)
	DD	2 DUP(00H)
	DD	00H
	DD	05H
xdata$x	ENDS
;	COMDAT xdata$x
xdata$x	SEGMENT
__unwindtable$??0?$CMap@KKPAUIServerUserItem@@PAU1@@@QAE@H@Z DD 0ffffffffH
	DD	FLAT:__unwindfunclet$??0?$CMap@KKPAUIServerUserItem@@PAU1@@@QAE@H@Z$0
__ehfuncinfo$??0?$CMap@KKPAUIServerUserItem@@PAU1@@@QAE@H@Z DD 019930522H
	DD	01H
	DD	FLAT:__unwindtable$??0?$CMap@KKPAUIServerUserItem@@PAU1@@@QAE@H@Z
	DD	2 DUP(00H)
	DD	2 DUP(00H)
	DD	00H
	DD	01H
xdata$x	ENDS
;	COMDAT xdata$x
xdata$x	SEGMENT
__unwindtable$??RCTraceFileAndLineInfo@ATL@@QBAXHIPBDZZ DD 0ffffffffH
	DD	FLAT:__unwindfunclet$??RCTraceFileAndLineInfo@ATL@@QBAXHIPBDZZ$0
__ehfuncinfo$??RCTraceFileAndLineInfo@ATL@@QBAXHIPBDZZ DD 019930522H
	DD	01H
	DD	FLAT:__unwindtable$??RCTraceFileAndLineInfo@ATL@@QBAXHIPBDZZ
	DD	2 DUP(00H)
	DD	2 DUP(00H)
	DD	00H
	DD	01H
xdata$x	ENDS
;	COMDAT xdata$x
xdata$x	SEGMENT
__unwindtable$?TraceV@CTrace@ATL@@SAXPBDHII0PAD@Z DD 0ffffffffH
	DD	FLAT:__unwindfunclet$?TraceV@CTrace@ATL@@SAXPBDHII0PAD@Z$0
	DD	00H
	DD	FLAT:__unwindfunclet$?TraceV@CTrace@ATL@@SAXPBDHII0PAD@Z$1
__ehfuncinfo$?TraceV@CTrace@ATL@@SAXPBDHII0PAD@Z DD 019930522H
	DD	02H
	DD	FLAT:__unwindtable$?TraceV@CTrace@ATL@@SAXPBDHII0PAD@Z
	DD	2 DUP(00H)
	DD	2 DUP(00H)
	DD	00H
	DD	01H
xdata$x	ENDS
; Function compile flags: /Odtp /ZI
; File c:\program files (x86)\microsoft visual studio\2017\community\vc\tools\msvc\14.16.27023\atlmfc\include\afxtempl.h
;	COMDAT ??$DumpElements@PAUIServerUserItem@@@@YGXAAVCDumpContext@@PBQAUIServerUserItem@@H@Z
_TEXT	SEGMENT
tv66 = -72						; size = 4
___afx_condVal$1 = -4					; size = 4
_dc$ = 8						; size = 4
_pElements$ = 12					; size = 4
_nCount$ = 16						; size = 4
??$DumpElements@PAUIServerUserItem@@@@YGXAAVCDumpContext@@PBQAUIServerUserItem@@H@Z PROC ; DumpElements<IServerUserItem *>, COMDAT

; 137  : {

  00000	55		 push	 ebp
  00001	8b ec		 mov	 ebp, esp
  00003	83 ec 48	 sub	 esp, 72			; 00000048H
  00006	53		 push	 ebx
  00007	56		 push	 esi
  00008	57		 push	 edi
$LN4@DumpElemen:

; 138  : 	ENSURE(nCount == 0 || pElements != NULL);

  00009	83 7d 10 00	 cmp	 DWORD PTR _nCount$[ebp], 0
  0000d	74 0f		 je	 SHORT $LN7@DumpElemen
  0000f	83 7d 0c 00	 cmp	 DWORD PTR _pElements$[ebp], 0
  00013	75 09		 jne	 SHORT $LN7@DumpElemen
  00015	c7 45 b8 00 00
	00 00		 mov	 DWORD PTR tv66[ebp], 0
  0001c	eb 07		 jmp	 SHORT $LN8@DumpElemen
$LN7@DumpElemen:
  0001e	c7 45 b8 01 00
	00 00		 mov	 DWORD PTR tv66[ebp], 1
$LN8@DumpElemen:
  00025	8b 45 b8	 mov	 eax, DWORD PTR tv66[ebp]
  00028	89 45 fc	 mov	 DWORD PTR ___afx_condVal$1[ebp], eax
  0002b	83 7d fc 00	 cmp	 DWORD PTR ___afx_condVal$1[ebp], 0
  0002f	75 14		 jne	 SHORT $LN9@DumpElemen
  00031	68 8a 00 00 00	 push	 138			; 0000008aH
  00036	68 00 00 00 00	 push	 OFFSET ??_C@_0HC@HBCNBCLF@c?3?2program?5files?5?$CIx86?$CJ?2microsof@
  0003b	e8 00 00 00 00	 call	 ?AfxAssertFailedLine@@YGHPBDH@Z ; AfxAssertFailedLine
  00040	85 c0		 test	 eax, eax
  00042	74 01		 je	 SHORT $LN9@DumpElemen
  00044	cc		 int	 3
$LN9@DumpElemen:
  00045	83 7d fc 00	 cmp	 DWORD PTR ___afx_condVal$1[ebp], 0
  00049	75 05		 jne	 SHORT $LN2@DumpElemen
  0004b	e8 00 00 00 00	 call	 ?AfxThrowInvalidArgException@@YGXXZ ; AfxThrowInvalidArgException
$LN2@DumpElemen:
  00050	33 c0		 xor	 eax, eax
  00052	75 b5		 jne	 SHORT $LN4@DumpElemen

; 139  : 	ASSERT(nCount == 0 ||

  00054	83 7d 10 00	 cmp	 DWORD PTR _nCount$[ebp], 0
  00058	74 2a		 je	 SHORT $LN6@DumpElemen
  0005a	6a 00		 push	 0
  0005c	8b 45 10	 mov	 eax, DWORD PTR _nCount$[ebp]
  0005f	c1 e0 02	 shl	 eax, 2
  00062	50		 push	 eax
  00063	8b 4d 0c	 mov	 ecx, DWORD PTR _pElements$[ebp]
  00066	51		 push	 ecx
  00067	e8 00 00 00 00	 call	 ?AfxIsValidAddress@@YGHPBXIH@Z ; AfxIsValidAddress
  0006c	85 c0		 test	 eax, eax
  0006e	75 14		 jne	 SHORT $LN6@DumpElemen
  00070	68 8c 00 00 00	 push	 140			; 0000008cH
  00075	68 00 00 00 00	 push	 OFFSET ??_C@_0HC@HBCNBCLF@c?3?2program?5files?5?$CIx86?$CJ?2microsof@
  0007a	e8 00 00 00 00	 call	 ?AfxAssertFailedLine@@YGHPBDH@Z ; AfxAssertFailedLine
  0007f	85 c0		 test	 eax, eax
  00081	74 01		 je	 SHORT $LN6@DumpElemen
  00083	cc		 int	 3
$LN6@DumpElemen:

; 140  : 		AfxIsValidAddress(pElements, (size_t)nCount * sizeof(TYPE), FALSE));
; 141  : 	(dc); // not used
; 142  : 	(pElements);  // not used
; 143  : 	(nCount); // not used
; 144  : 
; 145  : 	// default does nothing
; 146  : }

  00084	5f		 pop	 edi
  00085	5e		 pop	 esi
  00086	5b		 pop	 ebx
  00087	8b e5		 mov	 esp, ebp
  00089	5d		 pop	 ebp
  0008a	c2 0c 00	 ret	 12			; 0000000cH
??$DumpElements@PAUIServerUserItem@@@@YGXAAVCDumpContext@@PBQAUIServerUserItem@@H@Z ENDP ; DumpElements<IServerUserItem *>
_TEXT	ENDS
; Function compile flags: /Odtp /ZI
; File c:\program files (x86)\microsoft visual studio\2017\community\vc\tools\msvc\14.16.27023\atlmfc\include\afxtempl.h
;	COMDAT ??$SerializeElements@PAUIServerUserItem@@@@YGXAAVCArchive@@PAPAUIServerUserItem@@H@Z
_TEXT	SEGMENT
tv134 = -96						; size = 4
tv92 = -96						; size = 4
tv66 = -96						; size = 4
_nElementsToRead$1 = -28				; size = 4
_nElementsLeft$2 = -24					; size = 4
_pData$3 = -20						; size = 4
_nElementsToWrite$4 = -16				; size = 4
_nElementsLeft$5 = -12					; size = 4
_pData$6 = -8						; size = 4
___afx_condVal$7 = -4					; size = 4
_ar$ = 8						; size = 4
_pElements$ = 12					; size = 4
_nCount$ = 16						; size = 4
??$SerializeElements@PAUIServerUserItem@@@@YGXAAVCArchive@@PAPAUIServerUserItem@@H@Z PROC ; SerializeElements<IServerUserItem *>, COMDAT

; 67   : {

  00000	55		 push	 ebp
  00001	8b ec		 mov	 ebp, esp
  00003	83 ec 60	 sub	 esp, 96			; 00000060H
  00006	53		 push	 ebx
  00007	56		 push	 esi
  00008	57		 push	 edi
$LN4@SerializeE:

; 68   : 	ENSURE(nCount == 0 || pElements != NULL);

  00009	83 7d 10 00	 cmp	 DWORD PTR _nCount$[ebp], 0
  0000d	74 0f		 je	 SHORT $LN13@SerializeE
  0000f	83 7d 0c 00	 cmp	 DWORD PTR _pElements$[ebp], 0
  00013	75 09		 jne	 SHORT $LN13@SerializeE
  00015	c7 45 a0 00 00
	00 00		 mov	 DWORD PTR tv66[ebp], 0
  0001c	eb 07		 jmp	 SHORT $LN14@SerializeE
$LN13@SerializeE:
  0001e	c7 45 a0 01 00
	00 00		 mov	 DWORD PTR tv66[ebp], 1
$LN14@SerializeE:
  00025	8b 45 a0	 mov	 eax, DWORD PTR tv66[ebp]
  00028	89 45 fc	 mov	 DWORD PTR ___afx_condVal$7[ebp], eax
  0002b	83 7d fc 00	 cmp	 DWORD PTR ___afx_condVal$7[ebp], 0
  0002f	75 11		 jne	 SHORT $LN15@SerializeE
  00031	6a 44		 push	 68			; 00000044H
  00033	68 00 00 00 00	 push	 OFFSET ??_C@_0HC@HBCNBCLF@c?3?2program?5files?5?$CIx86?$CJ?2microsof@
  00038	e8 00 00 00 00	 call	 ?AfxAssertFailedLine@@YGHPBDH@Z ; AfxAssertFailedLine
  0003d	85 c0		 test	 eax, eax
  0003f	74 01		 je	 SHORT $LN15@SerializeE
  00041	cc		 int	 3
$LN15@SerializeE:
  00042	83 7d fc 00	 cmp	 DWORD PTR ___afx_condVal$7[ebp], 0
  00046	75 05		 jne	 SHORT $LN2@SerializeE
  00048	e8 00 00 00 00	 call	 ?AfxThrowInvalidArgException@@YGXXZ ; AfxThrowInvalidArgException
$LN2@SerializeE:
  0004d	33 c0		 xor	 eax, eax
  0004f	75 b8		 jne	 SHORT $LN4@SerializeE

; 69   : 	ASSERT(nCount == 0 ||

  00051	83 7d 10 00	 cmp	 DWORD PTR _nCount$[ebp], 0
  00055	74 27		 je	 SHORT $LN16@SerializeE
  00057	6a 01		 push	 1
  00059	8b 45 10	 mov	 eax, DWORD PTR _nCount$[ebp]
  0005c	c1 e0 02	 shl	 eax, 2
  0005f	50		 push	 eax
  00060	8b 4d 0c	 mov	 ecx, DWORD PTR _pElements$[ebp]
  00063	51		 push	 ecx
  00064	e8 00 00 00 00	 call	 ?AfxIsValidAddress@@YGHPBXIH@Z ; AfxIsValidAddress
  00069	85 c0		 test	 eax, eax
  0006b	75 11		 jne	 SHORT $LN16@SerializeE
  0006d	6a 46		 push	 70			; 00000046H
  0006f	68 00 00 00 00	 push	 OFFSET ??_C@_0HC@HBCNBCLF@c?3?2program?5files?5?$CIx86?$CJ?2microsof@
  00074	e8 00 00 00 00	 call	 ?AfxAssertFailedLine@@YGHPBDH@Z ; AfxAssertFailedLine
  00079	85 c0		 test	 eax, eax
  0007b	74 01		 je	 SHORT $LN16@SerializeE
  0007d	cc		 int	 3
$LN16@SerializeE:

; 70   : 		AfxIsValidAddress(pElements, (size_t)nCount * sizeof(TYPE)));
; 71   : 
; 72   : 	// default is bit-wise read/write
; 73   : 	if (ar.IsStoring())

  0007e	8b 4d 08	 mov	 ecx, DWORD PTR _ar$[ebp]
  00081	e8 00 00 00 00	 call	 ?IsStoring@CArchive@@QBEHXZ ; CArchive::IsStoring
  00086	85 c0		 test	 eax, eax
  00088	74 5c		 je	 SHORT $LN10@SerializeE

; 74   : 	{
; 75   : 		TYPE* pData;
; 76   : 		UINT_PTR nElementsLeft;
; 77   : 
; 78   : 		nElementsLeft = nCount;

  0008a	8b 45 10	 mov	 eax, DWORD PTR _nCount$[ebp]
  0008d	89 45 f4	 mov	 DWORD PTR _nElementsLeft$5[ebp], eax

; 79   : 		pData = pElements;

  00090	8b 45 0c	 mov	 eax, DWORD PTR _pElements$[ebp]
  00093	89 45 f8	 mov	 DWORD PTR _pData$6[ebp], eax
$LN5@SerializeE:

; 80   : 		while( nElementsLeft > 0 )

  00096	83 7d f4 00	 cmp	 DWORD PTR _nElementsLeft$5[ebp], 0
  0009a	76 48		 jbe	 SHORT $LN6@SerializeE

; 81   : 		{
; 82   : 			UINT nElementsToWrite;
; 83   : 
; 84   : 			nElementsToWrite = UINT(__min(nElementsLeft, INT_MAX/sizeof(TYPE)));

  0009c	81 7d f4 ff ff
	ff 1f		 cmp	 DWORD PTR _nElementsLeft$5[ebp], 536870911 ; 1fffffffH
  000a3	73 08		 jae	 SHORT $LN17@SerializeE
  000a5	8b 45 f4	 mov	 eax, DWORD PTR _nElementsLeft$5[ebp]
  000a8	89 45 a0	 mov	 DWORD PTR tv92[ebp], eax
  000ab	eb 07		 jmp	 SHORT $LN18@SerializeE
$LN17@SerializeE:
  000ad	c7 45 a0 ff ff
	ff 1f		 mov	 DWORD PTR tv92[ebp], 536870911 ; 1fffffffH
$LN18@SerializeE:
  000b4	8b 4d a0	 mov	 ecx, DWORD PTR tv92[ebp]
  000b7	89 4d f0	 mov	 DWORD PTR _nElementsToWrite$4[ebp], ecx

; 85   : 			ar.Write(pData, nElementsToWrite*sizeof(TYPE));

  000ba	8b 45 f0	 mov	 eax, DWORD PTR _nElementsToWrite$4[ebp]
  000bd	c1 e0 02	 shl	 eax, 2
  000c0	50		 push	 eax
  000c1	8b 4d f8	 mov	 ecx, DWORD PTR _pData$6[ebp]
  000c4	51		 push	 ecx
  000c5	8b 4d 08	 mov	 ecx, DWORD PTR _ar$[ebp]
  000c8	e8 00 00 00 00	 call	 ?Write@CArchive@@QAEXPBXI@Z ; CArchive::Write

; 86   : 			nElementsLeft -= nElementsToWrite;

  000cd	8b 45 f4	 mov	 eax, DWORD PTR _nElementsLeft$5[ebp]
  000d0	2b 45 f0	 sub	 eax, DWORD PTR _nElementsToWrite$4[ebp]
  000d3	89 45 f4	 mov	 DWORD PTR _nElementsLeft$5[ebp], eax

; 87   : 			pData += nElementsToWrite;

  000d6	8b 45 f0	 mov	 eax, DWORD PTR _nElementsToWrite$4[ebp]
  000d9	8b 4d f8	 mov	 ecx, DWORD PTR _pData$6[ebp]
  000dc	8d 14 81	 lea	 edx, DWORD PTR [ecx+eax*4]
  000df	89 55 f8	 mov	 DWORD PTR _pData$6[ebp], edx

; 88   : 		}

  000e2	eb b2		 jmp	 SHORT $LN5@SerializeE
$LN6@SerializeE:

; 89   : 	}
; 90   : 	else

  000e4	eb 5a		 jmp	 SHORT $LN12@SerializeE
$LN10@SerializeE:

; 91   : 	{
; 92   : 		TYPE* pData;
; 93   : 		UINT_PTR nElementsLeft;
; 94   : 
; 95   : 		nElementsLeft = nCount;

  000e6	8b 45 10	 mov	 eax, DWORD PTR _nCount$[ebp]
  000e9	89 45 e8	 mov	 DWORD PTR _nElementsLeft$2[ebp], eax

; 96   : 		pData = pElements;

  000ec	8b 45 0c	 mov	 eax, DWORD PTR _pElements$[ebp]
  000ef	89 45 ec	 mov	 DWORD PTR _pData$3[ebp], eax
$LN7@SerializeE:

; 97   : 		while( nElementsLeft > 0 )

  000f2	83 7d e8 00	 cmp	 DWORD PTR _nElementsLeft$2[ebp], 0
  000f6	76 48		 jbe	 SHORT $LN12@SerializeE

; 98   : 		{
; 99   : 			UINT nElementsToRead;
; 100  : 
; 101  : 			nElementsToRead = UINT(__min(nElementsLeft, INT_MAX/sizeof(TYPE)));

  000f8	81 7d e8 ff ff
	ff 1f		 cmp	 DWORD PTR _nElementsLeft$2[ebp], 536870911 ; 1fffffffH
  000ff	73 08		 jae	 SHORT $LN19@SerializeE
  00101	8b 45 e8	 mov	 eax, DWORD PTR _nElementsLeft$2[ebp]
  00104	89 45 a0	 mov	 DWORD PTR tv134[ebp], eax
  00107	eb 07		 jmp	 SHORT $LN20@SerializeE
$LN19@SerializeE:
  00109	c7 45 a0 ff ff
	ff 1f		 mov	 DWORD PTR tv134[ebp], 536870911 ; 1fffffffH
$LN20@SerializeE:
  00110	8b 4d a0	 mov	 ecx, DWORD PTR tv134[ebp]
  00113	89 4d e4	 mov	 DWORD PTR _nElementsToRead$1[ebp], ecx

; 102  : 			ar.EnsureRead(pData, nElementsToRead*sizeof(TYPE));

  00116	8b 45 e4	 mov	 eax, DWORD PTR _nElementsToRead$1[ebp]
  00119	c1 e0 02	 shl	 eax, 2
  0011c	50		 push	 eax
  0011d	8b 4d ec	 mov	 ecx, DWORD PTR _pData$3[ebp]
  00120	51		 push	 ecx
  00121	8b 4d 08	 mov	 ecx, DWORD PTR _ar$[ebp]
  00124	e8 00 00 00 00	 call	 ?EnsureRead@CArchive@@QAEXPAXI@Z ; CArchive::EnsureRead

; 103  : 			nElementsLeft -= nElementsToRead;

  00129	8b 45 e8	 mov	 eax, DWORD PTR _nElementsLeft$2[ebp]
  0012c	2b 45 e4	 sub	 eax, DWORD PTR _nElementsToRead$1[ebp]
  0012f	89 45 e8	 mov	 DWORD PTR _nElementsLeft$2[ebp], eax

; 104  : 			pData += nElementsToRead;

  00132	8b 45 e4	 mov	 eax, DWORD PTR _nElementsToRead$1[ebp]
  00135	8b 4d ec	 mov	 ecx, DWORD PTR _pData$3[ebp]
  00138	8d 14 81	 lea	 edx, DWORD PTR [ecx+eax*4]
  0013b	89 55 ec	 mov	 DWORD PTR _pData$3[ebp], edx

; 105  : 		}

  0013e	eb b2		 jmp	 SHORT $LN7@SerializeE
$LN12@SerializeE:

; 106  : 	}
; 107  : }

  00140	5f		 pop	 edi
  00141	5e		 pop	 esi
  00142	5b		 pop	 ebx
  00143	8b e5		 mov	 esp, ebp
  00145	5d		 pop	 ebp
  00146	c2 0c 00	 ret	 12			; 0000000cH
??$SerializeElements@PAUIServerUserItem@@@@YGXAAVCArchive@@PAPAUIServerUserItem@@H@Z ENDP ; SerializeElements<IServerUserItem *>
_TEXT	ENDS
; Function compile flags: /Odtp /ZI
; File c:\program files (x86)\microsoft visual studio\2017\community\vc\tools\msvc\14.16.27023\atlmfc\include\afxtempl.h
;	COMDAT ??0CAssoc@?$CMap@KKPAUIServerUserItem@@PAU1@@@QAE@K@Z
_TEXT	SEGMENT
_this$ = -4						; size = 4
_key$ = 8						; size = 4
??0CAssoc@?$CMap@KKPAUIServerUserItem@@PAU1@@@QAE@K@Z PROC ; CMap<unsigned long,unsigned long,IServerUserItem *,IServerUserItem *>::CAssoc::CAssoc, COMDAT
; _this$ = ecx

; 1267 : 		CAssoc( ARG_KEY key ) : CPair( key ) {}

  00000	55		 push	 ebp
  00001	8b ec		 mov	 ebp, esp
  00003	83 ec 44	 sub	 esp, 68			; 00000044H
  00006	53		 push	 ebx
  00007	56		 push	 esi
  00008	57		 push	 edi
  00009	89 4d fc	 mov	 DWORD PTR _this$[ebp], ecx
  0000c	8b 45 08	 mov	 eax, DWORD PTR _key$[ebp]
  0000f	50		 push	 eax
  00010	8b 4d fc	 mov	 ecx, DWORD PTR _this$[ebp]
  00013	e8 00 00 00 00	 call	 ??0CPair@?$CMap@KKPAUIServerUserItem@@PAU1@@@IAE@K@Z ; CMap<unsigned long,unsigned long,IServerUserItem *,IServerUserItem *>::CPair::CPair
  00018	8b 45 fc	 mov	 eax, DWORD PTR _this$[ebp]
  0001b	5f		 pop	 edi
  0001c	5e		 pop	 esi
  0001d	5b		 pop	 ebx
  0001e	8b e5		 mov	 esp, ebp
  00020	5d		 pop	 ebp
  00021	c2 04 00	 ret	 4
??0CAssoc@?$CMap@KKPAUIServerUserItem@@PAU1@@@QAE@K@Z ENDP ; CMap<unsigned long,unsigned long,IServerUserItem *,IServerUserItem *>::CAssoc::CAssoc
_TEXT	ENDS
; Function compile flags: /Odtp /ZI
; File c:\program files (x86)\microsoft visual studio\2017\community\vc\tools\msvc\14.16.27023\atlmfc\include\afxtempl.h
;	COMDAT ??0CPair@?$CMap@KKPAUIServerUserItem@@PAU1@@@IAE@K@Z
_TEXT	SEGMENT
_this$ = -4						; size = 4
_keyval$ = 8						; size = 4
??0CPair@?$CMap@KKPAUIServerUserItem@@PAU1@@@IAE@K@Z PROC ; CMap<unsigned long,unsigned long,IServerUserItem *,IServerUserItem *>::CPair::CPair, COMDAT
; _this$ = ecx

; 1256 : 		CPair( ARG_KEY keyval ) : key( keyval )	{}

  00000	55		 push	 ebp
  00001	8b ec		 mov	 ebp, esp
  00003	83 ec 44	 sub	 esp, 68			; 00000044H
  00006	53		 push	 ebx
  00007	56		 push	 esi
  00008	57		 push	 edi
  00009	89 4d fc	 mov	 DWORD PTR _this$[ebp], ecx
  0000c	8b 45 fc	 mov	 eax, DWORD PTR _this$[ebp]
  0000f	8b 4d 08	 mov	 ecx, DWORD PTR _keyval$[ebp]
  00012	89 08		 mov	 DWORD PTR [eax], ecx
  00014	8b 45 fc	 mov	 eax, DWORD PTR _this$[ebp]
  00017	5f		 pop	 edi
  00018	5e		 pop	 esi
  00019	5b		 pop	 ebx
  0001a	8b e5		 mov	 esp, ebp
  0001c	5d		 pop	 ebp
  0001d	c2 04 00	 ret	 4
??0CPair@?$CMap@KKPAUIServerUserItem@@PAU1@@@IAE@K@Z ENDP ; CMap<unsigned long,unsigned long,IServerUserItem *,IServerUserItem *>::CPair::CPair
_TEXT	ENDS
; Function compile flags: /Odtp /ZI
; File c:\program files (x86)\windows kits\10\include\10.0.17763.0\ucrt\stdio.h
;	COMDAT ??$_snprintf_s@$0EA@@@YAHAAY0EA@DIPBDZZ
_TEXT	SEGMENT
__ArgList$ = -4						; size = 4
__Buffer$ = 8						; size = 4
__BufferCount$ = 12					; size = 4
__Format$ = 16						; size = 4
??$_snprintf_s@$0EA@@@YAHAAY0EA@DIPBDZZ PROC		; _snprintf_s<64>, COMDAT

; 2079 :         )

  00000	55		 push	 ebp
  00001	8b ec		 mov	 ebp, esp
  00003	83 ec 48	 sub	 esp, 72			; 00000048H
  00006	53		 push	 ebx
  00007	56		 push	 esi
  00008	57		 push	 edi

; 2073 :     __DEFINE_CPP_OVERLOAD_SECURE_FUNC_0_2_ARGLIST(

  00009	8d 45 14	 lea	 eax, DWORD PTR __Format$[ebp+4]
  0000c	89 45 fc	 mov	 DWORD PTR __ArgList$[ebp], eax
  0000f	8b 45 fc	 mov	 eax, DWORD PTR __ArgList$[ebp]
  00012	50		 push	 eax
  00013	8b 4d 10	 mov	 ecx, DWORD PTR __Format$[ebp]
  00016	51		 push	 ecx
  00017	8b 55 0c	 mov	 edx, DWORD PTR __BufferCount$[ebp]
  0001a	52		 push	 edx
  0001b	6a 40		 push	 64			; 00000040H
  0001d	8b 45 08	 mov	 eax, DWORD PTR __Buffer$[ebp]
  00020	50		 push	 eax
  00021	e8 00 00 00 00	 call	 __vsnprintf_s
  00026	83 c4 14	 add	 esp, 20			; 00000014H
  00029	5f		 pop	 edi
  0002a	5e		 pop	 esi
  0002b	5b		 pop	 ebx
  0002c	8b e5		 mov	 esp, ebp
  0002e	5d		 pop	 ebp
  0002f	c3		 ret	 0
??$_snprintf_s@$0EA@@@YAHAAY0EA@DIPBDZZ ENDP		; _snprintf_s<64>
_TEXT	ENDS
; Function compile flags: /Odtp /ZI
; File c:\program files (x86)\windows kits\10\include\10.0.17763.0\ucrt\stdio.h
;	COMDAT ??$_snprintf_s@$0IA@@@YAHAAY0IA@DIPBDZZ
_TEXT	SEGMENT
__ArgList$ = -4						; size = 4
__Buffer$ = 8						; size = 4
__BufferCount$ = 12					; size = 4
__Format$ = 16						; size = 4
??$_snprintf_s@$0IA@@@YAHAAY0IA@DIPBDZZ PROC		; _snprintf_s<128>, COMDAT

; 2079 :         )

  00000	55		 push	 ebp
  00001	8b ec		 mov	 ebp, esp
  00003	83 ec 48	 sub	 esp, 72			; 00000048H
  00006	53		 push	 ebx
  00007	56		 push	 esi
  00008	57		 push	 edi

; 2073 :     __DEFINE_CPP_OVERLOAD_SECURE_FUNC_0_2_ARGLIST(

  00009	8d 45 14	 lea	 eax, DWORD PTR __Format$[ebp+4]
  0000c	89 45 fc	 mov	 DWORD PTR __ArgList$[ebp], eax
  0000f	8b 45 fc	 mov	 eax, DWORD PTR __ArgList$[ebp]
  00012	50		 push	 eax
  00013	8b 4d 10	 mov	 ecx, DWORD PTR __Format$[ebp]
  00016	51		 push	 ecx
  00017	8b 55 0c	 mov	 edx, DWORD PTR __BufferCount$[ebp]
  0001a	52		 push	 edx
  0001b	68 80 00 00 00	 push	 128			; 00000080H
  00020	8b 45 08	 mov	 eax, DWORD PTR __Buffer$[ebp]
  00023	50		 push	 eax
  00024	e8 00 00 00 00	 call	 __vsnprintf_s
  00029	83 c4 14	 add	 esp, 20			; 00000014H
  0002c	5f		 pop	 edi
  0002d	5e		 pop	 esi
  0002e	5b		 pop	 ebx
  0002f	8b e5		 mov	 esp, ebp
  00031	5d		 pop	 ebp
  00032	c3		 ret	 0
??$_snprintf_s@$0IA@@@YAHAAY0IA@DIPBDZZ ENDP		; _snprintf_s<128>
_TEXT	ENDS
; Function compile flags: /Odtp /ZI
; File c:\program files (x86)\windows kits\10\include\10.0.17763.0\ucrt\stdio.h
;	COMDAT ??$_snprintf_s@$0BAA@@@YAHAAY0BAA@DIPBDZZ
_TEXT	SEGMENT
__ArgList$ = -4						; size = 4
__Buffer$ = 8						; size = 4
__BufferCount$ = 12					; size = 4
__Format$ = 16						; size = 4
??$_snprintf_s@$0BAA@@@YAHAAY0BAA@DIPBDZZ PROC		; _snprintf_s<256>, COMDAT

; 2079 :         )

  00000	55		 push	 ebp
  00001	8b ec		 mov	 ebp, esp
  00003	83 ec 48	 sub	 esp, 72			; 00000048H
  00006	53		 push	 ebx
  00007	56		 push	 esi
  00008	57		 push	 edi

; 2073 :     __DEFINE_CPP_OVERLOAD_SECURE_FUNC_0_2_ARGLIST(

  00009	8d 45 14	 lea	 eax, DWORD PTR __Format$[ebp+4]
  0000c	89 45 fc	 mov	 DWORD PTR __ArgList$[ebp], eax
  0000f	8b 45 fc	 mov	 eax, DWORD PTR __ArgList$[ebp]
  00012	50		 push	 eax
  00013	8b 4d 10	 mov	 ecx, DWORD PTR __Format$[ebp]
  00016	51		 push	 ecx
  00017	8b 55 0c	 mov	 edx, DWORD PTR __BufferCount$[ebp]
  0001a	52		 push	 edx
  0001b	68 00 01 00 00	 push	 256			; 00000100H
  00020	8b 45 08	 mov	 eax, DWORD PTR __Buffer$[ebp]
  00023	50		 push	 eax
  00024	e8 00 00 00 00	 call	 __vsnprintf_s
  00029	83 c4 14	 add	 esp, 20			; 00000014H
  0002c	5f		 pop	 edi
  0002d	5e		 pop	 esi
  0002e	5b		 pop	 ebx
  0002f	8b e5		 mov	 esp, ebp
  00031	5d		 pop	 ebp
  00032	c3		 ret	 0
??$_snprintf_s@$0BAA@@@YAHAAY0BAA@DIPBDZZ ENDP		; _snprintf_s<256>
_TEXT	ENDS
; Function compile flags: /Odtp /ZI
; File c:\program files (x86)\windows kits\10\include\10.0.17763.0\ucrt\stdio.h
;	COMDAT ??$_snprintf_s@$0EAA@@@YAHAAY0EAA@DIPBDZZ
_TEXT	SEGMENT
__ArgList$ = -4						; size = 4
__Buffer$ = 8						; size = 4
__BufferCount$ = 12					; size = 4
__Format$ = 16						; size = 4
??$_snprintf_s@$0EAA@@@YAHAAY0EAA@DIPBDZZ PROC		; _snprintf_s<1024>, COMDAT

; 2079 :         )

  00000	55		 push	 ebp
  00001	8b ec		 mov	 ebp, esp
  00003	83 ec 48	 sub	 esp, 72			; 00000048H
  00006	53		 push	 ebx
  00007	56		 push	 esi
  00008	57		 push	 edi

; 2073 :     __DEFINE_CPP_OVERLOAD_SECURE_FUNC_0_2_ARGLIST(

  00009	8d 45 14	 lea	 eax, DWORD PTR __Format$[ebp+4]
  0000c	89 45 fc	 mov	 DWORD PTR __ArgList$[ebp], eax
  0000f	8b 45 fc	 mov	 eax, DWORD PTR __ArgList$[ebp]
  00012	50		 push	 eax
  00013	8b 4d 10	 mov	 ecx, DWORD PTR __Format$[ebp]
  00016	51		 push	 ecx
  00017	8b 55 0c	 mov	 edx, DWORD PTR __BufferCount$[ebp]
  0001a	52		 push	 edx
  0001b	68 00 04 00 00	 push	 1024			; 00000400H
  00020	8b 45 08	 mov	 eax, DWORD PTR __Buffer$[ebp]
  00023	50		 push	 eax
  00024	e8 00 00 00 00	 call	 __vsnprintf_s
  00029	83 c4 14	 add	 esp, 20			; 00000014H
  0002c	5f		 pop	 edi
  0002d	5e		 pop	 esi
  0002e	5b		 pop	 ebx
  0002f	8b e5		 mov	 esp, ebp
  00031	5d		 pop	 ebp
  00032	c3		 ret	 0
??$_snprintf_s@$0EAA@@@YAHAAY0EAA@DIPBDZZ ENDP		; _snprintf_s<1024>
_TEXT	ENDS
; Function compile flags: /Odtp /ZI
;	COMDAT ??_GCImmediateGroup@@UAEPAXI@Z
_TEXT	SEGMENT
_this$ = -4						; size = 4
___flags$ = 8						; size = 4
??_GCImmediateGroup@@UAEPAXI@Z PROC			; CImmediateGroup::`scalar deleting destructor', COMDAT
; _this$ = ecx
  00000	55		 push	 ebp
  00001	8b ec		 mov	 ebp, esp
  00003	83 ec 44	 sub	 esp, 68			; 00000044H
  00006	53		 push	 ebx
  00007	56		 push	 esi
  00008	57		 push	 edi
  00009	89 4d fc	 mov	 DWORD PTR _this$[ebp], ecx
  0000c	8b 4d fc	 mov	 ecx, DWORD PTR _this$[ebp]
  0000f	e8 00 00 00 00	 call	 ??1CImmediateGroup@@UAE@XZ ; CImmediateGroup::~CImmediateGroup
  00014	8b 45 08	 mov	 eax, DWORD PTR ___flags$[ebp]
  00017	83 e0 01	 and	 eax, 1
  0001a	74 11		 je	 SHORT $LN2@scalar
  0001c	68 90 00 00 00	 push	 144			; 00000090H
  00021	8b 45 fc	 mov	 eax, DWORD PTR _this$[ebp]
  00024	50		 push	 eax
  00025	e8 00 00 00 00	 call	 ??3@YAXPAXI@Z		; operator delete
  0002a	83 c4 08	 add	 esp, 8
$LN2@scalar:
  0002d	8b 45 fc	 mov	 eax, DWORD PTR _this$[ebp]
  00030	5f		 pop	 edi
  00031	5e		 pop	 esi
  00032	5b		 pop	 ebx
  00033	8b e5		 mov	 esp, ebp
  00035	5d		 pop	 ebp
  00036	c2 04 00	 ret	 4
??_GCImmediateGroup@@UAEPAXI@Z ENDP			; CImmediateGroup::`scalar deleting destructor'
_TEXT	ENDS
; Function compile flags: /Odtp /ZI
; File g:\网狐\happygamewh\服务端\系统模块\服务器组件\比赛服务\immediategroup.cpp
;	COMDAT ?SetMatchGameTimer@CImmediateGroup@@IAEXKKKI@Z
_TEXT	SEGMENT
_this$ = -4						; size = 4
_dwTimerID$ = 8						; size = 4
_dwElapse$ = 12						; size = 4
_dwRepeat$ = 16						; size = 4
_dwBindParameter$ = 20					; size = 4
?SetMatchGameTimer@CImmediateGroup@@IAEXKKKI@Z PROC	; CImmediateGroup::SetMatchGameTimer, COMDAT
; _this$ = ecx

; 825  : {

  00000	55		 push	 ebp
  00001	8b ec		 mov	 ebp, esp
  00003	83 ec 44	 sub	 esp, 68			; 00000044H
  00006	53		 push	 ebx
  00007	56		 push	 esi
  00008	57		 push	 edi
  00009	89 4d fc	 mov	 DWORD PTR _this$[ebp], ecx

; 826  : 	if (m_pMatchSink!=NULL)

  0000c	8b 45 fc	 mov	 eax, DWORD PTR _this$[ebp]
  0000f	83 78 2c 00	 cmp	 DWORD PTR [eax+44], 0
  00013	74 31		 je	 SHORT $LN1@SetMatchGa

; 827  : 	{
; 828  : 		m_pMatchSink->SetGameTimer(dwTimerID+10*m_LoopTimer,dwElapse,dwRepeat,dwBindParameter,this);

  00015	8b 45 fc	 mov	 eax, DWORD PTR _this$[ebp]
  00018	50		 push	 eax
  00019	8b 4d 14	 mov	 ecx, DWORD PTR _dwBindParameter$[ebp]
  0001c	51		 push	 ecx
  0001d	8b 55 10	 mov	 edx, DWORD PTR _dwRepeat$[ebp]
  00020	52		 push	 edx
  00021	8b 45 0c	 mov	 eax, DWORD PTR _dwElapse$[ebp]
  00024	50		 push	 eax
  00025	8b 4d fc	 mov	 ecx, DWORD PTR _this$[ebp]
  00028	0f b6 51 19	 movzx	 edx, BYTE PTR [ecx+25]
  0002c	6b c2 0a	 imul	 eax, edx, 10
  0002f	03 45 08	 add	 eax, DWORD PTR _dwTimerID$[ebp]
  00032	50		 push	 eax
  00033	8b 4d fc	 mov	 ecx, DWORD PTR _this$[ebp]
  00036	8b 51 2c	 mov	 edx, DWORD PTR [ecx+44]
  00039	8b 45 fc	 mov	 eax, DWORD PTR _this$[ebp]
  0003c	8b 12		 mov	 edx, DWORD PTR [edx]
  0003e	8b 48 2c	 mov	 ecx, DWORD PTR [eax+44]
  00041	8b 42 0c	 mov	 eax, DWORD PTR [edx+12]
  00044	ff d0		 call	 eax
$LN1@SetMatchGa:

; 829  : 	}
; 830  : }

  00046	5f		 pop	 edi
  00047	5e		 pop	 esi
  00048	5b		 pop	 ebx
  00049	8b e5		 mov	 esp, ebp
  0004b	5d		 pop	 ebp
  0004c	c2 10 00	 ret	 16			; 00000010H
?SetMatchGameTimer@CImmediateGroup@@IAEXKKKI@Z ENDP	; CImmediateGroup::SetMatchGameTimer
_TEXT	ENDS
; Function compile flags: /Odtp /ZI
; File g:\网狐\happygamewh\服务端\系统模块\服务器组件\比赛服务\immediategroup.cpp
;	COMDAT ?PostMatchTimer@CImmediateGroup@@IAEXKHIJ@Z
_TEXT	SEGMENT
$T1 = -76						; size = 4
_pMatchTimer$ = -8					; size = 4
_this$ = -4						; size = 4
_dwTimerID$ = 8						; size = 4
_iElapse$ = 12						; size = 4
_wParam$ = 16						; size = 4
_lParam$ = 20						; size = 4
?PostMatchTimer@CImmediateGroup@@IAEXKHIJ@Z PROC	; CImmediateGroup::PostMatchTimer, COMDAT
; _this$ = ecx

; 979  : {

  00000	55		 push	 ebp
  00001	8b ec		 mov	 ebp, esp
  00003	83 ec 4c	 sub	 esp, 76			; 0000004cH
  00006	53		 push	 ebx
  00007	56		 push	 esi
  00008	57		 push	 edi
  00009	89 4d fc	 mov	 DWORD PTR _this$[ebp], ecx

; 980  : 	tagMatchTimer* pMatchTimer=new tagMatchTimer;

  0000c	6a 10		 push	 16			; 00000010H
  0000e	e8 00 00 00 00	 call	 ??2@YAPAXI@Z		; operator new
  00013	83 c4 04	 add	 esp, 4
  00016	89 45 b4	 mov	 DWORD PTR $T1[ebp], eax
  00019	8b 45 b4	 mov	 eax, DWORD PTR $T1[ebp]
  0001c	89 45 f8	 mov	 DWORD PTR _pMatchTimer$[ebp], eax

; 981  : 	pMatchTimer->dwTimerID=dwTimerID;

  0001f	8b 45 f8	 mov	 eax, DWORD PTR _pMatchTimer$[ebp]
  00022	8b 4d 08	 mov	 ecx, DWORD PTR _dwTimerID$[ebp]
  00025	89 08		 mov	 DWORD PTR [eax], ecx

; 982  : 	pMatchTimer->iElapse=iElapse;

  00027	8b 45 f8	 mov	 eax, DWORD PTR _pMatchTimer$[ebp]
  0002a	8b 4d 0c	 mov	 ecx, DWORD PTR _iElapse$[ebp]
  0002d	89 48 04	 mov	 DWORD PTR [eax+4], ecx

; 983  : 	//pMatchTimer->dwRepeat=dwRepeat;
; 984  : 	pMatchTimer->wParam=wParam;

  00030	8b 45 f8	 mov	 eax, DWORD PTR _pMatchTimer$[ebp]
  00033	8b 4d 10	 mov	 ecx, DWORD PTR _wParam$[ebp]
  00036	89 48 08	 mov	 DWORD PTR [eax+8], ecx

; 985  : 	pMatchTimer->lParam=lParam;

  00039	8b 45 f8	 mov	 eax, DWORD PTR _pMatchTimer$[ebp]
  0003c	8b 4d 14	 mov	 ecx, DWORD PTR _lParam$[ebp]
  0003f	89 48 0c	 mov	 DWORD PTR [eax+12], ecx

; 986  : 	m_MatchTimerArray.Add(pMatchTimer);

  00042	8d 45 f8	 lea	 eax, DWORD PTR _pMatchTimer$[ebp]
  00045	50		 push	 eax
  00046	8b 4d fc	 mov	 ecx, DWORD PTR _this$[ebp]
  00049	83 c1 7c	 add	 ecx, 124		; 0000007cH
  0004c	e8 00 00 00 00	 call	 ?Add@?$CWHArray@PAUtagMatchTimer@@ABQAU1@@@QAEHABQAUtagMatchTimer@@@Z ; CWHArray<tagMatchTimer *,tagMatchTimer * const &>::Add

; 987  : }

  00051	5f		 pop	 edi
  00052	5e		 pop	 esi
  00053	5b		 pop	 ebx
  00054	8b e5		 mov	 esp, ebp
  00056	5d		 pop	 ebp
  00057	c2 10 00	 ret	 16			; 00000010H
?PostMatchTimer@CImmediateGroup@@IAEXKHIJ@Z ENDP	; CImmediateGroup::PostMatchTimer
_TEXT	ENDS
; Function compile flags: /Odtp /ZI
; File g:\网狐\happygamewh\服务端\系统模块\服务器组件\比赛服务\immediategroup.cpp
;	COMDAT ?KillMatchTimer@CImmediateGroup@@IAE_NKI@Z
_TEXT	SEGMENT
$T2 = -96						; size = 4
_pMatchTimer$3 = -28					; size = 4
_i$4 = -24						; size = 4
_this$ = -20						; size = 4
__$EHRec$ = -16						; size = 16
_dwTimerID$ = 8						; size = 4
_wParam$ = 12						; size = 4
?KillMatchTimer@CImmediateGroup@@IAE_NKI@Z PROC		; CImmediateGroup::KillMatchTimer, COMDAT
; _this$ = ecx

; 991  : {

  00000	55		 push	 ebp
  00001	8b ec		 mov	 ebp, esp
  00003	6a ff		 push	 -1
  00005	68 00 00 00 00	 push	 __ehhandler$?KillMatchTimer@CImmediateGroup@@IAE_NKI@Z
  0000a	64 a1 00 00 00
	00		 mov	 eax, DWORD PTR fs:0
  00010	50		 push	 eax
  00011	51		 push	 ecx
  00012	83 ec 50	 sub	 esp, 80			; 00000050H
  00015	53		 push	 ebx
  00016	56		 push	 esi
  00017	57		 push	 edi
  00018	a1 00 00 00 00	 mov	 eax, DWORD PTR ___security_cookie
  0001d	33 c5		 xor	 eax, ebp
  0001f	50		 push	 eax
  00020	8d 45 f4	 lea	 eax, DWORD PTR __$EHRec$[ebp+4]
  00023	64 a3 00 00 00
	00		 mov	 DWORD PTR fs:0, eax
  00029	89 65 f0	 mov	 DWORD PTR __$EHRec$[ebp], esp
  0002c	89 4d ec	 mov	 DWORD PTR _this$[ebp], ecx

; 992  : 	for(int i=0;i<m_MatchTimerArray.GetCount();i++)

  0002f	c7 45 e8 00 00
	00 00		 mov	 DWORD PTR _i$4[ebp], 0
  00036	eb 09		 jmp	 SHORT $LN4@KillMatchT
$LN2@KillMatchT:
  00038	8b 45 e8	 mov	 eax, DWORD PTR _i$4[ebp]
  0003b	83 c0 01	 add	 eax, 1
  0003e	89 45 e8	 mov	 DWORD PTR _i$4[ebp], eax
$LN4@KillMatchT:
  00041	8b 4d ec	 mov	 ecx, DWORD PTR _this$[ebp]
  00044	83 c1 7c	 add	 ecx, 124		; 0000007cH
  00047	e8 00 00 00 00	 call	 ?GetCount@?$CWHArray@PAUtagMatchTimer@@ABQAU1@@@QBEHXZ ; CWHArray<tagMatchTimer *,tagMatchTimer * const &>::GetCount
  0004c	39 45 e8	 cmp	 DWORD PTR _i$4[ebp], eax
  0004f	0f 8d be 00 00
	00		 jge	 $LN3@KillMatchT

; 993  : 	{
; 994  : 		if(m_MatchTimerArray[i]->dwTimerID==dwTimerID&&m_MatchTimerArray[i]->wParam==wParam)

  00055	8b 45 e8	 mov	 eax, DWORD PTR _i$4[ebp]
  00058	50		 push	 eax
  00059	8b 4d ec	 mov	 ecx, DWORD PTR _this$[ebp]
  0005c	83 c1 7c	 add	 ecx, 124		; 0000007cH
  0005f	e8 00 00 00 00	 call	 ??A?$CWHArray@PAUtagMatchTimer@@ABQAU1@@@QAEAAPAUtagMatchTimer@@H@Z ; CWHArray<tagMatchTimer *,tagMatchTimer * const &>::operator[]
  00064	8b 08		 mov	 ecx, DWORD PTR [eax]
  00066	8b 11		 mov	 edx, DWORD PTR [ecx]
  00068	3b 55 08	 cmp	 edx, DWORD PTR _dwTimerID$[ebp]
  0006b	0f 85 9d 00 00
	00		 jne	 $LN5@KillMatchT
  00071	8b 45 e8	 mov	 eax, DWORD PTR _i$4[ebp]
  00074	50		 push	 eax
  00075	8b 4d ec	 mov	 ecx, DWORD PTR _this$[ebp]
  00078	83 c1 7c	 add	 ecx, 124		; 0000007cH
  0007b	e8 00 00 00 00	 call	 ??A?$CWHArray@PAUtagMatchTimer@@ABQAU1@@@QAEAAPAUtagMatchTimer@@H@Z ; CWHArray<tagMatchTimer *,tagMatchTimer * const &>::operator[]
  00080	8b 08		 mov	 ecx, DWORD PTR [eax]
  00082	8b 51 08	 mov	 edx, DWORD PTR [ecx+8]
  00085	3b 55 0c	 cmp	 edx, DWORD PTR _wParam$[ebp]
  00088	0f 85 80 00 00
	00		 jne	 $LN5@KillMatchT

; 995  : 		{
; 996  : 			tagMatchTimer* pMatchTimer=m_MatchTimerArray[i];

  0008e	8b 45 e8	 mov	 eax, DWORD PTR _i$4[ebp]
  00091	50		 push	 eax
  00092	8b 4d ec	 mov	 ecx, DWORD PTR _this$[ebp]
  00095	83 c1 7c	 add	 ecx, 124		; 0000007cH
  00098	e8 00 00 00 00	 call	 ??A?$CWHArray@PAUtagMatchTimer@@ABQAU1@@@QAEAAPAUtagMatchTimer@@H@Z ; CWHArray<tagMatchTimer *,tagMatchTimer * const &>::operator[]
  0009d	8b 08		 mov	 ecx, DWORD PTR [eax]
  0009f	89 4d e4	 mov	 DWORD PTR _pMatchTimer$3[ebp], ecx

; 997  : 			m_MatchTimerArray.RemoveAt(i);

  000a2	6a 01		 push	 1
  000a4	8b 45 e8	 mov	 eax, DWORD PTR _i$4[ebp]
  000a7	50		 push	 eax
  000a8	8b 4d ec	 mov	 ecx, DWORD PTR _this$[ebp]
  000ab	83 c1 7c	 add	 ecx, 124		; 0000007cH
  000ae	e8 00 00 00 00	 call	 ?RemoveAt@?$CWHArray@PAUtagMatchTimer@@ABQAU1@@@QAEXHH@Z ; CWHArray<tagMatchTimer *,tagMatchTimer * const &>::RemoveAt

; 998  : 			SafeDelete(pMatchTimer);

  000b3	c7 45 fc 00 00
	00 00		 mov	 DWORD PTR __$EHRec$[ebp+12], 0
  000ba	8b 45 e4	 mov	 eax, DWORD PTR _pMatchTimer$3[ebp]
  000bd	89 45 a0	 mov	 DWORD PTR $T2[ebp], eax
  000c0	6a 10		 push	 16			; 00000010H
  000c2	8b 4d a0	 mov	 ecx, DWORD PTR $T2[ebp]
  000c5	51		 push	 ecx
  000c6	e8 00 00 00 00	 call	 ??3@YAXPAXI@Z		; operator delete
  000cb	83 c4 08	 add	 esp, 8
  000ce	eb 23		 jmp	 SHORT $LN9@KillMatchT
__catch$?KillMatchTimer@CImmediateGroup@@IAE_NKI@Z$0:
  000d0	33 c0		 xor	 eax, eax
  000d2	75 19		 jne	 SHORT $LN8@KillMatchT
  000d4	8b 0d 00 00 00
	00		 mov	 ecx, DWORD PTR ?__LINE__Var@?0??KillMatchTimer@CImmediateGroup@@IAE_NKI@Z@4JA
  000da	83 c1 07	 add	 ecx, 7
  000dd	51		 push	 ecx
  000de	68 00 00 00 00	 push	 OFFSET ??_C@_0EL@ONMMFGFJ@g?3?2?M?x?$LK?$PM?2happygamewh?2?$LH?$PO?N?q?$LG?K?2?O?$LF?M?$LD@
  000e3	e8 00 00 00 00	 call	 ?AfxAssertFailedLine@@YGHPBDH@Z ; AfxAssertFailedLine
  000e8	85 c0		 test	 eax, eax
  000ea	74 01		 je	 SHORT $LN8@KillMatchT
  000ec	cc		 int	 3
$LN8@KillMatchT:
  000ed	b8 00 00 00 00	 mov	 eax, $LN12@KillMatchT
  000f2	c3		 ret	 0
$LN9@KillMatchT:
  000f3	c7 45 fc ff ff
	ff ff		 mov	 DWORD PTR __$EHRec$[ebp+12], -1
  000fa	eb 07		 jmp	 SHORT __tryend$?KillMatchTimer@CImmediateGroup@@IAE_NKI@Z$1
$LN12@KillMatchT:
  000fc	c7 45 fc ff ff
	ff ff		 mov	 DWORD PTR __$EHRec$[ebp+12], -1
__tryend$?KillMatchTimer@CImmediateGroup@@IAE_NKI@Z$1:
  00103	c7 45 e4 00 00
	00 00		 mov	 DWORD PTR _pMatchTimer$3[ebp], 0

; 999  : 			return true;

  0010a	b0 01		 mov	 al, 1
  0010c	eb 07		 jmp	 SHORT $LN1@KillMatchT
$LN5@KillMatchT:

; 1000 : 		}
; 1001 : 	}

  0010e	e9 25 ff ff ff	 jmp	 $LN2@KillMatchT
$LN3@KillMatchT:

; 1002 : 	return false;

  00113	32 c0		 xor	 al, al
$LN1@KillMatchT:

; 1003 : }

  00115	8b 4d f4	 mov	 ecx, DWORD PTR __$EHRec$[ebp+4]
  00118	64 89 0d 00 00
	00 00		 mov	 DWORD PTR fs:0, ecx
  0011f	59		 pop	 ecx
  00120	5f		 pop	 edi
  00121	5e		 pop	 esi
  00122	5b		 pop	 ebx
  00123	8b e5		 mov	 esp, ebp
  00125	5d		 pop	 ebp
  00126	c2 08 00	 ret	 8
_TEXT	ENDS
;	COMDAT text$x
text$x	SEGMENT
__ehhandler$?KillMatchTimer@CImmediateGroup@@IAE_NKI@Z:
  00000	8b 54 24 08	 mov	 edx, DWORD PTR [esp+8]
  00004	8d 42 0c	 lea	 eax, DWORD PTR [edx+12]
  00007	8b 4a 9c	 mov	 ecx, DWORD PTR [edx-100]
  0000a	33 c8		 xor	 ecx, eax
  0000c	e8 00 00 00 00	 call	 @__security_check_cookie@4
  00011	b8 00 00 00 00	 mov	 eax, OFFSET __ehfuncinfo$?KillMatchTimer@CImmediateGroup@@IAE_NKI@Z
  00016	e9 00 00 00 00	 jmp	 ___CxxFrameHandler3
text$x	ENDS
?KillMatchTimer@CImmediateGroup@@IAE_NKI@Z ENDP		; CImmediateGroup::KillMatchTimer
; Function compile flags: /Odtp /ZI
; File g:\网狐\happygamewh\服务端\系统模块\服务器组件\比赛服务\immediategroup.cpp
;	COMDAT ?KillMatchGameTimer@CImmediateGroup@@IAEXK@Z
_TEXT	SEGMENT
_this$ = -4						; size = 4
_dwTimerID$ = 8						; size = 4
?KillMatchGameTimer@CImmediateGroup@@IAEXK@Z PROC	; CImmediateGroup::KillMatchGameTimer, COMDAT
; _this$ = ecx

; 834  : {

  00000	55		 push	 ebp
  00001	8b ec		 mov	 ebp, esp
  00003	83 ec 44	 sub	 esp, 68			; 00000044H
  00006	53		 push	 ebx
  00007	56		 push	 esi
  00008	57		 push	 edi
  00009	89 4d fc	 mov	 DWORD PTR _this$[ebp], ecx

; 835  : 	if (m_pMatchSink!=NULL)

  0000c	8b 45 fc	 mov	 eax, DWORD PTR _this$[ebp]
  0000f	83 78 2c 00	 cmp	 DWORD PTR [eax+44], 0
  00013	74 25		 je	 SHORT $LN1@KillMatchG

; 836  : 	{
; 837  : 		m_pMatchSink->KillGameTimer(dwTimerID+10*m_LoopTimer,this);

  00015	8b 45 fc	 mov	 eax, DWORD PTR _this$[ebp]
  00018	50		 push	 eax
  00019	8b 4d fc	 mov	 ecx, DWORD PTR _this$[ebp]
  0001c	0f b6 51 19	 movzx	 edx, BYTE PTR [ecx+25]
  00020	6b c2 0a	 imul	 eax, edx, 10
  00023	03 45 08	 add	 eax, DWORD PTR _dwTimerID$[ebp]
  00026	50		 push	 eax
  00027	8b 4d fc	 mov	 ecx, DWORD PTR _this$[ebp]
  0002a	8b 51 2c	 mov	 edx, DWORD PTR [ecx+44]
  0002d	8b 45 fc	 mov	 eax, DWORD PTR _this$[ebp]
  00030	8b 12		 mov	 edx, DWORD PTR [edx]
  00032	8b 48 2c	 mov	 ecx, DWORD PTR [eax+44]
  00035	8b 42 08	 mov	 eax, DWORD PTR [edx+8]
  00038	ff d0		 call	 eax
$LN1@KillMatchG:

; 838  : 	}
; 839  : }

  0003a	5f		 pop	 edi
  0003b	5e		 pop	 esi
  0003c	5b		 pop	 ebx
  0003d	8b e5		 mov	 esp, ebp
  0003f	5d		 pop	 ebp
  00040	c2 04 00	 ret	 4
?KillMatchGameTimer@CImmediateGroup@@IAEXK@Z ENDP	; CImmediateGroup::KillMatchGameTimer
_TEXT	ENDS
; Function compile flags: /Odtp /ZI
; File g:\网狐\happygamewh\服务端\系统模块\服务器组件\比赛服务\immediategroup.cpp
;	COMDAT ?KillMatchTimer@CImmediateGroup@@IAE_NH@Z
_TEXT	SEGMENT
$T2 = -92						; size = 4
_pMatchTimer$3 = -24					; size = 4
_this$ = -20						; size = 4
__$EHRec$ = -16						; size = 16
_dwIndexID$ = 8						; size = 4
?KillMatchTimer@CImmediateGroup@@IAE_NH@Z PROC		; CImmediateGroup::KillMatchTimer, COMDAT
; _this$ = ecx

; 1006 : {

  00000	55		 push	 ebp
  00001	8b ec		 mov	 ebp, esp
  00003	6a ff		 push	 -1
  00005	68 00 00 00 00	 push	 __ehhandler$?KillMatchTimer@CImmediateGroup@@IAE_NH@Z
  0000a	64 a1 00 00 00
	00		 mov	 eax, DWORD PTR fs:0
  00010	50		 push	 eax
  00011	51		 push	 ecx
  00012	83 ec 4c	 sub	 esp, 76			; 0000004cH
  00015	53		 push	 ebx
  00016	56		 push	 esi
  00017	57		 push	 edi
  00018	a1 00 00 00 00	 mov	 eax, DWORD PTR ___security_cookie
  0001d	33 c5		 xor	 eax, ebp
  0001f	50		 push	 eax
  00020	8d 45 f4	 lea	 eax, DWORD PTR __$EHRec$[ebp+4]
  00023	64 a3 00 00 00
	00		 mov	 DWORD PTR fs:0, eax
  00029	89 65 f0	 mov	 DWORD PTR __$EHRec$[ebp], esp
  0002c	89 4d ec	 mov	 DWORD PTR _this$[ebp], ecx

; 1007 : 	ASSERT(dwIndexID >= 0 && dwIndexID < m_MatchTimerArray.GetCount());

  0002f	83 7d 08 00	 cmp	 DWORD PTR _dwIndexID$[ebp], 0
  00033	7c 10		 jl	 SHORT $LN5@KillMatchT
  00035	8b 4d ec	 mov	 ecx, DWORD PTR _this$[ebp]
  00038	83 c1 7c	 add	 ecx, 124		; 0000007cH
  0003b	e8 00 00 00 00	 call	 ?GetCount@?$CWHArray@PAUtagMatchTimer@@ABQAU1@@@QBEHXZ ; CWHArray<tagMatchTimer *,tagMatchTimer * const &>::GetCount
  00040	39 45 08	 cmp	 DWORD PTR _dwIndexID$[ebp], eax
  00043	7c 18		 jl	 SHORT $LN6@KillMatchT
$LN5@KillMatchT:
  00045	a1 00 00 00 00	 mov	 eax, DWORD PTR ?__LINE__Var@?0??KillMatchTimer@CImmediateGroup@@IAE_NH@Z@4JA
  0004a	83 c0 01	 add	 eax, 1
  0004d	50		 push	 eax
  0004e	68 00 00 00 00	 push	 OFFSET ??_C@_0EL@ONMMFGFJ@g?3?2?M?x?$LK?$PM?2happygamewh?2?$LH?$PO?N?q?$LG?K?2?O?$LF?M?$LD@
  00053	e8 00 00 00 00	 call	 ?AfxAssertFailedLine@@YGHPBDH@Z ; AfxAssertFailedLine
  00058	85 c0		 test	 eax, eax
  0005a	74 01		 je	 SHORT $LN6@KillMatchT
  0005c	cc		 int	 3
$LN6@KillMatchT:

; 1008 : 	if( dwIndexID >= 0 && dwIndexID < m_MatchTimerArray.GetCount() )

  0005d	83 7d 08 00	 cmp	 DWORD PTR _dwIndexID$[ebp], 0
  00061	0f 8c 94 00 00
	00		 jl	 $LN2@KillMatchT
  00067	8b 4d ec	 mov	 ecx, DWORD PTR _this$[ebp]
  0006a	83 c1 7c	 add	 ecx, 124		; 0000007cH
  0006d	e8 00 00 00 00	 call	 ?GetCount@?$CWHArray@PAUtagMatchTimer@@ABQAU1@@@QBEHXZ ; CWHArray<tagMatchTimer *,tagMatchTimer * const &>::GetCount
  00072	39 45 08	 cmp	 DWORD PTR _dwIndexID$[ebp], eax
  00075	0f 8d 80 00 00
	00		 jge	 $LN2@KillMatchT

; 1009 : 	{
; 1010 : 		tagMatchTimer* pMatchTimer=m_MatchTimerArray[dwIndexID];

  0007b	8b 45 08	 mov	 eax, DWORD PTR _dwIndexID$[ebp]
  0007e	50		 push	 eax
  0007f	8b 4d ec	 mov	 ecx, DWORD PTR _this$[ebp]
  00082	83 c1 7c	 add	 ecx, 124		; 0000007cH
  00085	e8 00 00 00 00	 call	 ??A?$CWHArray@PAUtagMatchTimer@@ABQAU1@@@QAEAAPAUtagMatchTimer@@H@Z ; CWHArray<tagMatchTimer *,tagMatchTimer * const &>::operator[]
  0008a	8b 08		 mov	 ecx, DWORD PTR [eax]
  0008c	89 4d e8	 mov	 DWORD PTR _pMatchTimer$3[ebp], ecx

; 1011 : 		m_MatchTimerArray.RemoveAt(dwIndexID);

  0008f	6a 01		 push	 1
  00091	8b 45 08	 mov	 eax, DWORD PTR _dwIndexID$[ebp]
  00094	50		 push	 eax
  00095	8b 4d ec	 mov	 ecx, DWORD PTR _this$[ebp]
  00098	83 c1 7c	 add	 ecx, 124		; 0000007cH
  0009b	e8 00 00 00 00	 call	 ?RemoveAt@?$CWHArray@PAUtagMatchTimer@@ABQAU1@@@QAEXHH@Z ; CWHArray<tagMatchTimer *,tagMatchTimer * const &>::RemoveAt

; 1012 : 		SafeDelete(pMatchTimer);

  000a0	c7 45 fc 00 00
	00 00		 mov	 DWORD PTR __$EHRec$[ebp+12], 0
  000a7	8b 45 e8	 mov	 eax, DWORD PTR _pMatchTimer$3[ebp]
  000aa	89 45 a4	 mov	 DWORD PTR $T2[ebp], eax
  000ad	6a 10		 push	 16			; 00000010H
  000af	8b 4d a4	 mov	 ecx, DWORD PTR $T2[ebp]
  000b2	51		 push	 ecx
  000b3	e8 00 00 00 00	 call	 ??3@YAXPAXI@Z		; operator delete
  000b8	83 c4 08	 add	 esp, 8
  000bb	eb 23		 jmp	 SHORT $LN8@KillMatchT
__catch$?KillMatchTimer@CImmediateGroup@@IAE_NH@Z$0:
  000bd	33 c0		 xor	 eax, eax
  000bf	75 19		 jne	 SHORT $LN7@KillMatchT
  000c1	8b 0d 00 00 00
	00		 mov	 ecx, DWORD PTR ?__LINE__Var@?0??KillMatchTimer@CImmediateGroup@@IAE_NH@Z@4JA
  000c7	83 c1 06	 add	 ecx, 6
  000ca	51		 push	 ecx
  000cb	68 00 00 00 00	 push	 OFFSET ??_C@_0EL@ONMMFGFJ@g?3?2?M?x?$LK?$PM?2happygamewh?2?$LH?$PO?N?q?$LG?K?2?O?$LF?M?$LD@
  000d0	e8 00 00 00 00	 call	 ?AfxAssertFailedLine@@YGHPBDH@Z ; AfxAssertFailedLine
  000d5	85 c0		 test	 eax, eax
  000d7	74 01		 je	 SHORT $LN7@KillMatchT
  000d9	cc		 int	 3
$LN7@KillMatchT:
  000da	b8 00 00 00 00	 mov	 eax, $LN11@KillMatchT
  000df	c3		 ret	 0
$LN8@KillMatchT:
  000e0	c7 45 fc ff ff
	ff ff		 mov	 DWORD PTR __$EHRec$[ebp+12], -1
  000e7	eb 07		 jmp	 SHORT __tryend$?KillMatchTimer@CImmediateGroup@@IAE_NH@Z$1
$LN11@KillMatchT:
  000e9	c7 45 fc ff ff
	ff ff		 mov	 DWORD PTR __$EHRec$[ebp+12], -1
__tryend$?KillMatchTimer@CImmediateGroup@@IAE_NH@Z$1:
  000f0	c7 45 e8 00 00
	00 00		 mov	 DWORD PTR _pMatchTimer$3[ebp], 0

; 1013 : 		return true;

  000f7	b0 01		 mov	 al, 1
  000f9	eb 02		 jmp	 SHORT $LN1@KillMatchT
$LN2@KillMatchT:

; 1014 : 	}
; 1015 : 	return false;

  000fb	32 c0		 xor	 al, al
$LN1@KillMatchT:

; 1016 : }

  000fd	8b 4d f4	 mov	 ecx, DWORD PTR __$EHRec$[ebp+4]
  00100	64 89 0d 00 00
	00 00		 mov	 DWORD PTR fs:0, ecx
  00107	59		 pop	 ecx
  00108	5f		 pop	 edi
  00109	5e		 pop	 esi
  0010a	5b		 pop	 ebx
  0010b	8b e5		 mov	 esp, ebp
  0010d	5d		 pop	 ebp
  0010e	c2 04 00	 ret	 4
_TEXT	ENDS
;	COMDAT text$x
text$x	SEGMENT
__ehhandler$?KillMatchTimer@CImmediateGroup@@IAE_NH@Z:
  00000	8b 54 24 08	 mov	 edx, DWORD PTR [esp+8]
  00004	8d 42 0c	 lea	 eax, DWORD PTR [edx+12]
  00007	8b 4a a0	 mov	 ecx, DWORD PTR [edx-96]
  0000a	33 c8		 xor	 ecx, eax
  0000c	e8 00 00 00 00	 call	 @__security_check_cookie@4
  00011	b8 00 00 00 00	 mov	 eax, OFFSET __ehfuncinfo$?KillMatchTimer@CImmediateGroup@@IAE_NH@Z
  00016	e9 00 00 00 00	 jmp	 ___CxxFrameHandler3
text$x	ENDS
?KillMatchTimer@CImmediateGroup@@IAE_NH@Z ENDP		; CImmediateGroup::KillMatchTimer
; Function compile flags: /Odtp /ZI
; File g:\网狐\happygamewh\服务端\系统模块\服务器组件\比赛服务\immediategroup.cpp
;	COMDAT ?AllKillMatchTimer@CImmediateGroup@@IAEXXZ
_TEXT	SEGMENT
$T2 = -96						; size = 4
_pMatchTimer$3 = -28					; size = 4
_i$4 = -24						; size = 4
_this$ = -20						; size = 4
__$EHRec$ = -16						; size = 16
?AllKillMatchTimer@CImmediateGroup@@IAEXXZ PROC		; CImmediateGroup::AllKillMatchTimer, COMDAT
; _this$ = ecx

; 1019 : {

  00000	55		 push	 ebp
  00001	8b ec		 mov	 ebp, esp
  00003	6a ff		 push	 -1
  00005	68 00 00 00 00	 push	 __ehhandler$?AllKillMatchTimer@CImmediateGroup@@IAEXXZ
  0000a	64 a1 00 00 00
	00		 mov	 eax, DWORD PTR fs:0
  00010	50		 push	 eax
  00011	51		 push	 ecx
  00012	83 ec 50	 sub	 esp, 80			; 00000050H
  00015	53		 push	 ebx
  00016	56		 push	 esi
  00017	57		 push	 edi
  00018	a1 00 00 00 00	 mov	 eax, DWORD PTR ___security_cookie
  0001d	33 c5		 xor	 eax, ebp
  0001f	50		 push	 eax
  00020	8d 45 f4	 lea	 eax, DWORD PTR __$EHRec$[ebp+4]
  00023	64 a3 00 00 00
	00		 mov	 DWORD PTR fs:0, eax
  00029	89 65 f0	 mov	 DWORD PTR __$EHRec$[ebp], esp
  0002c	89 4d ec	 mov	 DWORD PTR _this$[ebp], ecx

; 1020 : 	for(int i=0;i<m_MatchTimerArray.GetCount();/*i++*/)

  0002f	c7 45 e8 00 00
	00 00		 mov	 DWORD PTR _i$4[ebp], 0
$LN4@AllKillMat:
  00036	8b 4d ec	 mov	 ecx, DWORD PTR _this$[ebp]
  00039	83 c1 7c	 add	 ecx, 124		; 0000007cH
  0003c	e8 00 00 00 00	 call	 ?GetCount@?$CWHArray@PAUtagMatchTimer@@ABQAU1@@@QBEHXZ ; CWHArray<tagMatchTimer *,tagMatchTimer * const &>::GetCount
  00041	39 45 e8	 cmp	 DWORD PTR _i$4[ebp], eax
  00044	0f 8d 81 00 00
	00		 jge	 $LN1@AllKillMat

; 1021 : 	{
; 1022 : 		tagMatchTimer* pMatchTimer=m_MatchTimerArray[i];

  0004a	8b 45 e8	 mov	 eax, DWORD PTR _i$4[ebp]
  0004d	50		 push	 eax
  0004e	8b 4d ec	 mov	 ecx, DWORD PTR _this$[ebp]
  00051	83 c1 7c	 add	 ecx, 124		; 0000007cH
  00054	e8 00 00 00 00	 call	 ??A?$CWHArray@PAUtagMatchTimer@@ABQAU1@@@QAEAAPAUtagMatchTimer@@H@Z ; CWHArray<tagMatchTimer *,tagMatchTimer * const &>::operator[]
  00059	8b 08		 mov	 ecx, DWORD PTR [eax]
  0005b	89 4d e4	 mov	 DWORD PTR _pMatchTimer$3[ebp], ecx

; 1023 : 		m_MatchTimerArray.RemoveAt(i);

  0005e	6a 01		 push	 1
  00060	8b 45 e8	 mov	 eax, DWORD PTR _i$4[ebp]
  00063	50		 push	 eax
  00064	8b 4d ec	 mov	 ecx, DWORD PTR _this$[ebp]
  00067	83 c1 7c	 add	 ecx, 124		; 0000007cH
  0006a	e8 00 00 00 00	 call	 ?RemoveAt@?$CWHArray@PAUtagMatchTimer@@ABQAU1@@@QAEXHH@Z ; CWHArray<tagMatchTimer *,tagMatchTimer * const &>::RemoveAt

; 1024 : 		SafeDelete(pMatchTimer);

  0006f	c7 45 fc 00 00
	00 00		 mov	 DWORD PTR __$EHRec$[ebp+12], 0
  00076	8b 45 e4	 mov	 eax, DWORD PTR _pMatchTimer$3[ebp]
  00079	89 45 a0	 mov	 DWORD PTR $T2[ebp], eax
  0007c	6a 10		 push	 16			; 00000010H
  0007e	8b 4d a0	 mov	 ecx, DWORD PTR $T2[ebp]
  00081	51		 push	 ecx
  00082	e8 00 00 00 00	 call	 ??3@YAXPAXI@Z		; operator delete
  00087	83 c4 08	 add	 esp, 8
  0008a	eb 23		 jmp	 SHORT $LN8@AllKillMat
__catch$?AllKillMatchTimer@CImmediateGroup@@IAEXXZ$0:
  0008c	33 c0		 xor	 eax, eax
  0008e	75 19		 jne	 SHORT $LN7@AllKillMat
  00090	8b 0d 00 00 00
	00		 mov	 ecx, DWORD PTR ?__LINE__Var@?0??AllKillMatchTimer@CImmediateGroup@@IAEXXZ@4JA
  00096	83 c1 05	 add	 ecx, 5
  00099	51		 push	 ecx
  0009a	68 00 00 00 00	 push	 OFFSET ??_C@_0EL@ONMMFGFJ@g?3?2?M?x?$LK?$PM?2happygamewh?2?$LH?$PO?N?q?$LG?K?2?O?$LF?M?$LD@
  0009f	e8 00 00 00 00	 call	 ?AfxAssertFailedLine@@YGHPBDH@Z ; AfxAssertFailedLine
  000a4	85 c0		 test	 eax, eax
  000a6	74 01		 je	 SHORT $LN7@AllKillMat
  000a8	cc		 int	 3
$LN7@AllKillMat:
  000a9	b8 00 00 00 00	 mov	 eax, $LN11@AllKillMat
  000ae	c3		 ret	 0
$LN8@AllKillMat:
  000af	c7 45 fc ff ff
	ff ff		 mov	 DWORD PTR __$EHRec$[ebp+12], -1
  000b6	eb 07		 jmp	 SHORT __tryend$?AllKillMatchTimer@CImmediateGroup@@IAEXXZ$1
$LN11@AllKillMat:
  000b8	c7 45 fc ff ff
	ff ff		 mov	 DWORD PTR __$EHRec$[ebp+12], -1
__tryend$?AllKillMatchTimer@CImmediateGroup@@IAEXXZ$1:
  000bf	c7 45 e4 00 00
	00 00		 mov	 DWORD PTR _pMatchTimer$3[ebp], 0

; 1025 : 	}

  000c6	e9 6b ff ff ff	 jmp	 $LN4@AllKillMat
$LN1@AllKillMat:

; 1026 : }

  000cb	8b 4d f4	 mov	 ecx, DWORD PTR __$EHRec$[ebp+4]
  000ce	64 89 0d 00 00
	00 00		 mov	 DWORD PTR fs:0, ecx
  000d5	59		 pop	 ecx
  000d6	5f		 pop	 edi
  000d7	5e		 pop	 esi
  000d8	5b		 pop	 ebx
  000d9	8b e5		 mov	 esp, ebp
  000db	5d		 pop	 ebp
  000dc	c3		 ret	 0
_TEXT	ENDS
;	COMDAT text$x
text$x	SEGMENT
__ehhandler$?AllKillMatchTimer@CImmediateGroup@@IAEXXZ:
  00000	8b 54 24 08	 mov	 edx, DWORD PTR [esp+8]
  00004	8d 42 0c	 lea	 eax, DWORD PTR [edx+12]
  00007	8b 4a 9c	 mov	 ecx, DWORD PTR [edx-100]
  0000a	33 c8		 xor	 ecx, eax
  0000c	e8 00 00 00 00	 call	 @__security_check_cookie@4
  00011	b8 00 00 00 00	 mov	 eax, OFFSET __ehfuncinfo$?AllKillMatchTimer@CImmediateGroup@@IAEXXZ
  00016	e9 00 00 00 00	 jmp	 ___CxxFrameHandler3
text$x	ENDS
?AllKillMatchTimer@CImmediateGroup@@IAEXXZ ENDP		; CImmediateGroup::AllKillMatchTimer
; Function compile flags: /Odtp /ZI
; File g:\网狐\happygamewh\服务端\系统模块\服务器组件\比赛服务\immediategroup.cpp
;	COMDAT ?CaptureMatchTimer@CImmediateGroup@@IAEXXZ
_TEXT	SEGMENT
tv74 = -76						; size = 4
_i$1 = -8						; size = 4
_this$ = -4						; size = 4
?CaptureMatchTimer@CImmediateGroup@@IAEXXZ PROC		; CImmediateGroup::CaptureMatchTimer, COMDAT
; _this$ = ecx

; 951  : {

  00000	55		 push	 ebp
  00001	8b ec		 mov	 ebp, esp
  00003	83 ec 4c	 sub	 esp, 76			; 0000004cH
  00006	53		 push	 ebx
  00007	56		 push	 esi
  00008	57		 push	 edi
  00009	89 4d fc	 mov	 DWORD PTR _this$[ebp], ecx

; 952  : 	for(int i=0;i<m_MatchTimerArray.GetCount();i++)

  0000c	c7 45 f8 00 00
	00 00		 mov	 DWORD PTR _i$1[ebp], 0
  00013	eb 09		 jmp	 SHORT $LN4@CaptureMat
$LN2@CaptureMat:
  00015	8b 45 f8	 mov	 eax, DWORD PTR _i$1[ebp]
  00018	83 c0 01	 add	 eax, 1
  0001b	89 45 f8	 mov	 DWORD PTR _i$1[ebp], eax
$LN4@CaptureMat:
  0001e	8b 4d fc	 mov	 ecx, DWORD PTR _this$[ebp]
  00021	83 c1 7c	 add	 ecx, 124		; 0000007cH
  00024	e8 00 00 00 00	 call	 ?GetCount@?$CWHArray@PAUtagMatchTimer@@ABQAU1@@@QBEHXZ ; CWHArray<tagMatchTimer *,tagMatchTimer * const &>::GetCount
  00029	39 45 f8	 cmp	 DWORD PTR _i$1[ebp], eax
  0002c	0f 8d 0d 01 00
	00		 jge	 $LN1@CaptureMat

; 953  : 	{
; 954  : 		if(--m_MatchTimerArray[i]->iElapse<=0)

  00032	8b 45 f8	 mov	 eax, DWORD PTR _i$1[ebp]
  00035	50		 push	 eax
  00036	8b 4d fc	 mov	 ecx, DWORD PTR _this$[ebp]
  00039	83 c1 7c	 add	 ecx, 124		; 0000007cH
  0003c	e8 00 00 00 00	 call	 ??A?$CWHArray@PAUtagMatchTimer@@ABQAU1@@@QAEAAPAUtagMatchTimer@@H@Z ; CWHArray<tagMatchTimer *,tagMatchTimer * const &>::operator[]
  00041	8b 08		 mov	 ecx, DWORD PTR [eax]
  00043	83 c1 04	 add	 ecx, 4
  00046	89 4d b4	 mov	 DWORD PTR tv74[ebp], ecx
  00049	8b 55 b4	 mov	 edx, DWORD PTR tv74[ebp]
  0004c	8b 02		 mov	 eax, DWORD PTR [edx]
  0004e	83 e8 01	 sub	 eax, 1
  00051	8b 4d b4	 mov	 ecx, DWORD PTR tv74[ebp]
  00054	89 01		 mov	 DWORD PTR [ecx], eax
  00056	8b 55 b4	 mov	 edx, DWORD PTR tv74[ebp]
  00059	83 3a 00	 cmp	 DWORD PTR [edx], 0
  0005c	0f 8f d8 00 00
	00		 jg	 $LN5@CaptureMat

; 955  : 		{
; 956  : 			if (m_MatchTimerArray[i]->dwTimerID==IDI_CONTINUE_GAME)

  00062	8b 45 f8	 mov	 eax, DWORD PTR _i$1[ebp]
  00065	50		 push	 eax
  00066	8b 4d fc	 mov	 ecx, DWORD PTR _this$[ebp]
  00069	83 c1 7c	 add	 ecx, 124		; 0000007cH
  0006c	e8 00 00 00 00	 call	 ??A?$CWHArray@PAUtagMatchTimer@@ABQAU1@@@QAEAAPAUtagMatchTimer@@H@Z ; CWHArray<tagMatchTimer *,tagMatchTimer * const &>::operator[]
  00071	8b 08		 mov	 ecx, DWORD PTR [eax]
  00073	83 39 01	 cmp	 DWORD PTR [ecx], 1
  00076	75 1f		 jne	 SHORT $LN6@CaptureMat

; 957  : 			{
; 958  : 				//继续游戏
; 959  : 				ContinueGame((ITableFrame*)m_MatchTimerArray[i]->wParam);

  00078	8b 45 f8	 mov	 eax, DWORD PTR _i$1[ebp]
  0007b	50		 push	 eax
  0007c	8b 4d fc	 mov	 ecx, DWORD PTR _this$[ebp]
  0007f	83 c1 7c	 add	 ecx, 124		; 0000007cH
  00082	e8 00 00 00 00	 call	 ??A?$CWHArray@PAUtagMatchTimer@@ABQAU1@@@QAEAAPAUtagMatchTimer@@H@Z ; CWHArray<tagMatchTimer *,tagMatchTimer * const &>::operator[]
  00087	8b 08		 mov	 ecx, DWORD PTR [eax]
  00089	8b 51 08	 mov	 edx, DWORD PTR [ecx+8]
  0008c	52		 push	 edx
  0008d	8b 4d fc	 mov	 ecx, DWORD PTR _this$[ebp]
  00090	e8 00 00 00 00	 call	 ?ContinueGame@CImmediateGroup@@IAEXPAUITableFrame@@@Z ; CImmediateGroup::ContinueGame
  00095	eb 68		 jmp	 SHORT $LN7@CaptureMat
$LN6@CaptureMat:

; 960  : 			}
; 961  : 			else if(m_MatchTimerArray[i]->dwTimerID==IDI_LEAVE_TABLE)

  00097	8b 45 f8	 mov	 eax, DWORD PTR _i$1[ebp]
  0009a	50		 push	 eax
  0009b	8b 4d fc	 mov	 ecx, DWORD PTR _this$[ebp]
  0009e	83 c1 7c	 add	 ecx, 124		; 0000007cH
  000a1	e8 00 00 00 00	 call	 ??A?$CWHArray@PAUtagMatchTimer@@ABQAU1@@@QAEAAPAUtagMatchTimer@@H@Z ; CWHArray<tagMatchTimer *,tagMatchTimer * const &>::operator[]
  000a6	8b 08		 mov	 ecx, DWORD PTR [eax]
  000a8	83 39 02	 cmp	 DWORD PTR [ecx], 2
  000ab	75 1f		 jne	 SHORT $LN8@CaptureMat

; 962  : 			{
; 963  : 				//离开本桌
; 964  : 				PerformAllUserStandUp((ITableFrame*)m_MatchTimerArray[i]->wParam);

  000ad	8b 45 f8	 mov	 eax, DWORD PTR _i$1[ebp]
  000b0	50		 push	 eax
  000b1	8b 4d fc	 mov	 ecx, DWORD PTR _this$[ebp]
  000b4	83 c1 7c	 add	 ecx, 124		; 0000007cH
  000b7	e8 00 00 00 00	 call	 ??A?$CWHArray@PAUtagMatchTimer@@ABQAU1@@@QAEAAPAUtagMatchTimer@@H@Z ; CWHArray<tagMatchTimer *,tagMatchTimer * const &>::operator[]
  000bc	8b 08		 mov	 ecx, DWORD PTR [eax]
  000be	8b 51 08	 mov	 edx, DWORD PTR [ecx+8]
  000c1	52		 push	 edx
  000c2	8b 4d fc	 mov	 ecx, DWORD PTR _this$[ebp]
  000c5	e8 00 00 00 00	 call	 ?PerformAllUserStandUp@CImmediateGroup@@IAEXPAUITableFrame@@@Z ; CImmediateGroup::PerformAllUserStandUp
  000ca	eb 33		 jmp	 SHORT $LN7@CaptureMat
$LN8@CaptureMat:

; 965  : 
; 966  : 			}else if(m_MatchTimerArray[i]->dwTimerID==IDI_CHECK_TABLE_START)

  000cc	8b 45 f8	 mov	 eax, DWORD PTR _i$1[ebp]
  000cf	50		 push	 eax
  000d0	8b 4d fc	 mov	 ecx, DWORD PTR _this$[ebp]
  000d3	83 c1 7c	 add	 ecx, 124		; 0000007cH
  000d6	e8 00 00 00 00	 call	 ??A?$CWHArray@PAUtagMatchTimer@@ABQAU1@@@QAEAAPAUtagMatchTimer@@H@Z ; CWHArray<tagMatchTimer *,tagMatchTimer * const &>::operator[]
  000db	8b 08		 mov	 ecx, DWORD PTR [eax]
  000dd	83 39 03	 cmp	 DWORD PTR [ecx], 3
  000e0	75 1d		 jne	 SHORT $LN7@CaptureMat

; 967  : 			{
; 968  : 				//检查桌子
; 969  : 				CheckTableStart((ITableFrame*)m_MatchTimerArray[i]->wParam);

  000e2	8b 45 f8	 mov	 eax, DWORD PTR _i$1[ebp]
  000e5	50		 push	 eax
  000e6	8b 4d fc	 mov	 ecx, DWORD PTR _this$[ebp]
  000e9	83 c1 7c	 add	 ecx, 124		; 0000007cH
  000ec	e8 00 00 00 00	 call	 ??A?$CWHArray@PAUtagMatchTimer@@ABQAU1@@@QAEAAPAUtagMatchTimer@@H@Z ; CWHArray<tagMatchTimer *,tagMatchTimer * const &>::operator[]
  000f1	8b 08		 mov	 ecx, DWORD PTR [eax]
  000f3	8b 51 08	 mov	 edx, DWORD PTR [ecx+8]
  000f6	52		 push	 edx
  000f7	8b 4d fc	 mov	 ecx, DWORD PTR _this$[ebp]
  000fa	e8 00 00 00 00	 call	 ?CheckTableStart@CImmediateGroup@@IAEXPAUITableFrame@@@Z ; CImmediateGroup::CheckTableStart
$LN7@CaptureMat:

; 970  : 			}
; 971  : 			//删除定时器
; 972  : 			if (KillMatchTimer(i)) i--;

  000ff	8b 45 f8	 mov	 eax, DWORD PTR _i$1[ebp]
  00102	50		 push	 eax
  00103	8b 4d fc	 mov	 ecx, DWORD PTR _this$[ebp]
  00106	e8 00 00 00 00	 call	 ?KillMatchTimer@CImmediateGroup@@IAE_NH@Z ; CImmediateGroup::KillMatchTimer
  0010b	0f b6 c8	 movzx	 ecx, al
  0010e	85 c9		 test	 ecx, ecx
  00110	74 0b		 je	 SHORT $LN11@CaptureMat
  00112	8b 45 f8	 mov	 eax, DWORD PTR _i$1[ebp]
  00115	83 e8 01	 sub	 eax, 1
  00118	89 45 f8	 mov	 DWORD PTR _i$1[ebp], eax
  0011b	eb 1d		 jmp	 SHORT $LN5@CaptureMat
$LN11@CaptureMat:

; 973  : 			else ASSERT(false);

  0011d	33 c0		 xor	 eax, eax
  0011f	75 19		 jne	 SHORT $LN5@CaptureMat
  00121	8b 0d 00 00 00
	00		 mov	 ecx, DWORD PTR ?__LINE__Var@?0??CaptureMatchTimer@CImmediateGroup@@IAEXXZ@4JA
  00127	83 c1 16	 add	 ecx, 22			; 00000016H
  0012a	51		 push	 ecx
  0012b	68 00 00 00 00	 push	 OFFSET ??_C@_0EL@ONMMFGFJ@g?3?2?M?x?$LK?$PM?2happygamewh?2?$LH?$PO?N?q?$LG?K?2?O?$LF?M?$LD@
  00130	e8 00 00 00 00	 call	 ?AfxAssertFailedLine@@YGHPBDH@Z ; AfxAssertFailedLine
  00135	85 c0		 test	 eax, eax
  00137	74 01		 je	 SHORT $LN5@CaptureMat
  00139	cc		 int	 3
$LN5@CaptureMat:

; 974  : 		}
; 975  : 	}

  0013a	e9 d6 fe ff ff	 jmp	 $LN2@CaptureMat
$LN1@CaptureMat:

; 976  : }

  0013f	5f		 pop	 edi
  00140	5e		 pop	 esi
  00141	5b		 pop	 ebx
  00142	8b e5		 mov	 esp, ebp
  00144	5d		 pop	 ebp
  00145	c3		 ret	 0
?CaptureMatchTimer@CImmediateGroup@@IAEXXZ ENDP		; CImmediateGroup::CaptureMatchTimer
_TEXT	ENDS
; Function compile flags: /Odtp /ZI
; File g:\网狐\happygamewh\服务端\系统模块\服务器组件\比赛服务\immediategroup.cpp
;	COMDAT ?CheckTableStart@CImmediateGroup@@IAEXPAUITableFrame@@@Z
_TEXT	SEGMENT
_pIServerUserItem$1 = -12				; size = 4
_i$2 = -8						; size = 4
_this$ = -4						; size = 4
_pITableFrame$ = 8					; size = 4
?CheckTableStart@CImmediateGroup@@IAEXPAUITableFrame@@@Z PROC ; CImmediateGroup::CheckTableStart, COMDAT
; _this$ = ecx

; 866  : {

  00000	55		 push	 ebp
  00001	8b ec		 mov	 ebp, esp
  00003	83 ec 4c	 sub	 esp, 76			; 0000004cH
  00006	53		 push	 ebx
  00007	56		 push	 esi
  00008	57		 push	 edi
  00009	89 4d fc	 mov	 DWORD PTR _this$[ebp], ecx

; 867  : 	//校验参数
; 868  : 	ASSERT(pITableFrame!=NULL);

  0000c	83 7d 08 00	 cmp	 DWORD PTR _pITableFrame$[ebp], 0
  00010	75 18		 jne	 SHORT $LN11@CheckTable
  00012	a1 00 00 00 00	 mov	 eax, DWORD PTR ?__LINE__Var@?0??CheckTableStart@CImmediateGroup@@IAEXPAUITableFrame@@@Z@4JA
  00017	83 c0 02	 add	 eax, 2
  0001a	50		 push	 eax
  0001b	68 00 00 00 00	 push	 OFFSET ??_C@_0EL@ONMMFGFJ@g?3?2?M?x?$LK?$PM?2happygamewh?2?$LH?$PO?N?q?$LG?K?2?O?$LF?M?$LD@
  00020	e8 00 00 00 00	 call	 ?AfxAssertFailedLine@@YGHPBDH@Z ; AfxAssertFailedLine
  00025	85 c0		 test	 eax, eax
  00027	74 01		 je	 SHORT $LN11@CheckTable
  00029	cc		 int	 3
$LN11@CheckTable:

; 869  : 	if (pITableFrame==NULL) return;

  0002a	83 7d 08 00	 cmp	 DWORD PTR _pITableFrame$[ebp], 0
  0002e	75 05		 jne	 SHORT $LN5@CheckTable
  00030	e9 be 00 00 00	 jmp	 $LN1@CheckTable
$LN5@CheckTable:

; 870  : 
; 871  : 	if(pITableFrame&&pITableFrame->IsGameStarted()==false)

  00035	83 7d 08 00	 cmp	 DWORD PTR _pITableFrame$[ebp], 0
  00039	0f 84 b4 00 00
	00		 je	 $LN1@CheckTable
  0003f	8b 45 08	 mov	 eax, DWORD PTR _pITableFrame$[ebp]
  00042	8b 10		 mov	 edx, DWORD PTR [eax]
  00044	8b 4d 08	 mov	 ecx, DWORD PTR _pITableFrame$[ebp]
  00047	8b 42 3c	 mov	 eax, DWORD PTR [edx+60]
  0004a	ff d0		 call	 eax
  0004c	0f b6 c8	 movzx	 ecx, al
  0004f	85 c9		 test	 ecx, ecx
  00051	0f 85 9c 00 00
	00		 jne	 $LN1@CheckTable

; 872  : 	{
; 873  : 		for (int i=0;i<m_wChairCount;i++)

  00057	c7 45 f8 00 00
	00 00		 mov	 DWORD PTR _i$2[ebp], 0
  0005e	eb 09		 jmp	 SHORT $LN4@CheckTable
$LN2@CheckTable:
  00060	8b 45 f8	 mov	 eax, DWORD PTR _i$2[ebp]
  00063	83 c0 01	 add	 eax, 1
  00066	89 45 f8	 mov	 DWORD PTR _i$2[ebp], eax
$LN4@CheckTable:
  00069	0f b7 05 00 00
	00 00		 movzx	 eax, WORD PTR ?m_wChairCount@CImmediateGroup@@1GA ; CImmediateGroup::m_wChairCount
  00070	39 45 f8	 cmp	 DWORD PTR _i$2[ebp], eax
  00073	7d 7e		 jge	 SHORT $LN1@CheckTable

; 874  : 		{
; 875  : 			IServerUserItem * pIServerUserItem=pITableFrame->GetTableUserItem(i);

  00075	0f b7 45 f8	 movzx	 eax, WORD PTR _i$2[ebp]
  00079	50		 push	 eax
  0007a	8b 4d 08	 mov	 ecx, DWORD PTR _pITableFrame$[ebp]
  0007d	8b 11		 mov	 edx, DWORD PTR [ecx]
  0007f	8b 4d 08	 mov	 ecx, DWORD PTR _pITableFrame$[ebp]
  00082	8b 82 9c 00 00
	00		 mov	 eax, DWORD PTR [edx+156]
  00088	ff d0		 call	 eax
  0008a	89 45 f4	 mov	 DWORD PTR _pIServerUserItem$1[ebp], eax

; 876  : 			if (pIServerUserItem && pIServerUserItem->GetTableID()!=INVALID_TABLE)

  0008d	83 7d f4 00	 cmp	 DWORD PTR _pIServerUserItem$1[ebp], 0
  00091	74 5b		 je	 SHORT $LN7@CheckTable
  00093	8b 45 f4	 mov	 eax, DWORD PTR _pIServerUserItem$1[ebp]
  00096	8b 10		 mov	 edx, DWORD PTR [eax]
  00098	8b 4d f4	 mov	 ecx, DWORD PTR _pIServerUserItem$1[ebp]
  0009b	8b 42 68	 mov	 eax, DWORD PTR [edx+104]
  0009e	ff d0		 call	 eax
  000a0	0f b7 c8	 movzx	 ecx, ax
  000a3	81 f9 ff ff 00
	00		 cmp	 ecx, 65535		; 0000ffffH
  000a9	74 43		 je	 SHORT $LN7@CheckTable

; 877  : 			{
; 878  : 				if (pIServerUserItem->IsClientReady()==false || pIServerUserItem->IsTrusteeUser()==true)

  000ab	8b 45 f4	 mov	 eax, DWORD PTR _pIServerUserItem$1[ebp]
  000ae	8b 10		 mov	 edx, DWORD PTR [eax]
  000b0	8b 4d f4	 mov	 ecx, DWORD PTR _pIServerUserItem$1[ebp]
  000b3	8b 82 c0 00 00
	00		 mov	 eax, DWORD PTR [edx+192]
  000b9	ff d0		 call	 eax
  000bb	0f b6 c8	 movzx	 ecx, al
  000be	85 c9		 test	 ecx, ecx
  000c0	74 18		 je	 SHORT $LN9@CheckTable
  000c2	8b 45 f4	 mov	 eax, DWORD PTR _pIServerUserItem$1[ebp]
  000c5	8b 10		 mov	 edx, DWORD PTR [eax]
  000c7	8b 4d f4	 mov	 ecx, DWORD PTR _pIServerUserItem$1[ebp]
  000ca	8b 82 b8 00 00
	00		 mov	 eax, DWORD PTR [edx+184]
  000d0	ff d0		 call	 eax
  000d2	0f b6 c8	 movzx	 ecx, al
  000d5	83 f9 01	 cmp	 ecx, 1
  000d8	75 14		 jne	 SHORT $LN7@CheckTable
$LN9@CheckTable:

; 879  : 				{
; 880  : 					pITableFrame->ImitateGameOption(pIServerUserItem);

  000da	8b 45 f4	 mov	 eax, DWORD PTR _pIServerUserItem$1[ebp]
  000dd	50		 push	 eax
  000de	8b 4d 08	 mov	 ecx, DWORD PTR _pITableFrame$[ebp]
  000e1	8b 11		 mov	 edx, DWORD PTR [ecx]
  000e3	8b 4d 08	 mov	 ecx, DWORD PTR _pITableFrame$[ebp]
  000e6	8b 82 f0 00 00
	00		 mov	 eax, DWORD PTR [edx+240]
  000ec	ff d0		 call	 eax
$LN7@CheckTable:

; 881  : 				}
; 882  : 			}
; 883  : 		}

  000ee	e9 6d ff ff ff	 jmp	 $LN2@CheckTable
$LN1@CheckTable:

; 884  : 	}
; 885  : }

  000f3	5f		 pop	 edi
  000f4	5e		 pop	 esi
  000f5	5b		 pop	 ebx
  000f6	8b e5		 mov	 esp, ebp
  000f8	5d		 pop	 ebp
  000f9	c2 04 00	 ret	 4
?CheckTableStart@CImmediateGroup@@IAEXPAUITableFrame@@@Z ENDP ; CImmediateGroup::CheckTableStart
_TEXT	ENDS
; Function compile flags: /Odtp /ZI
; File g:\网狐\happygamewh\服务端\系统模块\服务器组件\比赛服务\immediategroup.cpp
;	COMDAT ?CheckSwitchTaskFinish@CImmediateGroup@@IAE_NXZ
_TEXT	SEGMENT
_i$1 = -8						; size = 4
_this$ = -4						; size = 4
?CheckSwitchTaskFinish@CImmediateGroup@@IAE_NXZ PROC	; CImmediateGroup::CheckSwitchTaskFinish, COMDAT
; _this$ = ecx

; 729  : {

  00000	55		 push	 ebp
  00001	8b ec		 mov	 ebp, esp
  00003	83 ec 48	 sub	 esp, 72			; 00000048H
  00006	53		 push	 ebx
  00007	56		 push	 esi
  00008	57		 push	 edi
  00009	89 4d fc	 mov	 DWORD PTR _this$[ebp], ecx

; 730  : 	for (int i=0;i<m_MatchTableArray.GetCount();i++)

  0000c	c7 45 f8 00 00
	00 00		 mov	 DWORD PTR _i$1[ebp], 0
  00013	eb 09		 jmp	 SHORT $LN4@CheckSwitc
$LN2@CheckSwitc:
  00015	8b 45 f8	 mov	 eax, DWORD PTR _i$1[ebp]
  00018	83 c0 01	 add	 eax, 1
  0001b	89 45 f8	 mov	 DWORD PTR _i$1[ebp], eax
$LN4@CheckSwitc:
  0001e	8b 4d fc	 mov	 ecx, DWORD PTR _this$[ebp]
  00021	83 c1 68	 add	 ecx, 104		; 00000068H
  00024	e8 00 00 00 00	 call	 ?GetCount@?$CWHArray@PAUtagTableFrameInfo@@ABQAU1@@@QBEHXZ ; CWHArray<tagTableFrameInfo *,tagTableFrameInfo * const &>::GetCount
  00029	39 45 f8	 cmp	 DWORD PTR _i$1[ebp], eax
  0002c	7d 1f		 jge	 SHORT $LN3@CheckSwitc

; 731  : 	{
; 732  : 		if(m_MatchTableArray[i]->bSwtichTaskFinish==false) return false;

  0002e	8b 45 f8	 mov	 eax, DWORD PTR _i$1[ebp]
  00031	50		 push	 eax
  00032	8b 4d fc	 mov	 ecx, DWORD PTR _this$[ebp]
  00035	83 c1 68	 add	 ecx, 104		; 00000068H
  00038	e8 00 00 00 00	 call	 ??A?$CWHArray@PAUtagTableFrameInfo@@ABQAU1@@@QAEAAPAUtagTableFrameInfo@@H@Z ; CWHArray<tagTableFrameInfo *,tagTableFrameInfo * const &>::operator[]
  0003d	8b 08		 mov	 ecx, DWORD PTR [eax]
  0003f	0f b6 51 13	 movzx	 edx, BYTE PTR [ecx+19]
  00043	85 d2		 test	 edx, edx
  00045	75 04		 jne	 SHORT $LN5@CheckSwitc
  00047	32 c0		 xor	 al, al
  00049	eb 04		 jmp	 SHORT $LN1@CheckSwitc
$LN5@CheckSwitc:

; 733  : 	}

  0004b	eb c8		 jmp	 SHORT $LN2@CheckSwitc
$LN3@CheckSwitc:

; 734  : 
; 735  : 	return true;

  0004d	b0 01		 mov	 al, 1
$LN1@CheckSwitc:

; 736  : }

  0004f	5f		 pop	 edi
  00050	5e		 pop	 esi
  00051	5b		 pop	 ebx
  00052	8b e5		 mov	 esp, ebp
  00054	5d		 pop	 ebp
  00055	c3		 ret	 0
?CheckSwitchTaskFinish@CImmediateGroup@@IAE_NXZ ENDP	; CImmediateGroup::CheckSwitchTaskFinish
_TEXT	ENDS
; Function compile flags: /Odtp /ZI
; File g:\网狐\happygamewh\服务端\系统模块\服务器组件\比赛服务\immediategroup.cpp
;	COMDAT ?CheckMatchTaskFinish@CImmediateGroup@@IAE_NXZ
_TEXT	SEGMENT
_i$1 = -8						; size = 4
_this$ = -4						; size = 4
?CheckMatchTaskFinish@CImmediateGroup@@IAE_NXZ PROC	; CImmediateGroup::CheckMatchTaskFinish, COMDAT
; _this$ = ecx

; 718  : {

  00000	55		 push	 ebp
  00001	8b ec		 mov	 ebp, esp
  00003	83 ec 48	 sub	 esp, 72			; 00000048H
  00006	53		 push	 ebx
  00007	56		 push	 esi
  00008	57		 push	 edi
  00009	89 4d fc	 mov	 DWORD PTR _this$[ebp], ecx

; 719  : 	for (int i=0;i<m_MatchTableArray.GetCount();i++)

  0000c	c7 45 f8 00 00
	00 00		 mov	 DWORD PTR _i$1[ebp], 0
  00013	eb 09		 jmp	 SHORT $LN4@CheckMatch
$LN2@CheckMatch:
  00015	8b 45 f8	 mov	 eax, DWORD PTR _i$1[ebp]
  00018	83 c0 01	 add	 eax, 1
  0001b	89 45 f8	 mov	 DWORD PTR _i$1[ebp], eax
$LN4@CheckMatch:
  0001e	8b 4d fc	 mov	 ecx, DWORD PTR _this$[ebp]
  00021	83 c1 68	 add	 ecx, 104		; 00000068H
  00024	e8 00 00 00 00	 call	 ?GetCount@?$CWHArray@PAUtagTableFrameInfo@@ABQAU1@@@QBEHXZ ; CWHArray<tagTableFrameInfo *,tagTableFrameInfo * const &>::GetCount
  00029	39 45 f8	 cmp	 DWORD PTR _i$1[ebp], eax
  0002c	7d 1f		 jge	 SHORT $LN3@CheckMatch

; 720  : 	{
; 721  : 		if (m_MatchTableArray[i]->bMatchTaskFinish==false) return false;

  0002e	8b 45 f8	 mov	 eax, DWORD PTR _i$1[ebp]
  00031	50		 push	 eax
  00032	8b 4d fc	 mov	 ecx, DWORD PTR _this$[ebp]
  00035	83 c1 68	 add	 ecx, 104		; 00000068H
  00038	e8 00 00 00 00	 call	 ??A?$CWHArray@PAUtagTableFrameInfo@@ABQAU1@@@QAEAAPAUtagTableFrameInfo@@H@Z ; CWHArray<tagTableFrameInfo *,tagTableFrameInfo * const &>::operator[]
  0003d	8b 08		 mov	 ecx, DWORD PTR [eax]
  0003f	0f b6 51 12	 movzx	 edx, BYTE PTR [ecx+18]
  00043	85 d2		 test	 edx, edx
  00045	75 04		 jne	 SHORT $LN5@CheckMatch
  00047	32 c0		 xor	 al, al
  00049	eb 04		 jmp	 SHORT $LN1@CheckMatch
$LN5@CheckMatch:

; 722  : 	}

  0004b	eb c8		 jmp	 SHORT $LN2@CheckMatch
$LN3@CheckMatch:

; 723  : 
; 724  : 	return true;

  0004d	b0 01		 mov	 al, 1
$LN1@CheckMatch:

; 725  : }

  0004f	5f		 pop	 edi
  00050	5e		 pop	 esi
  00051	5b		 pop	 ebx
  00052	8b e5		 mov	 esp, ebp
  00054	5d		 pop	 ebp
  00055	c3		 ret	 0
?CheckMatchTaskFinish@CImmediateGroup@@IAE_NXZ ENDP	; CImmediateGroup::CheckMatchTaskFinish
_TEXT	ENDS
; Function compile flags: /Odtp /ZI
; File g:\网狐\happygamewh\服务端\系统模块\服务器组件\比赛服务\immediategroup.cpp
;	COMDAT ?CheckMatchUser@CImmediateGroup@@IAE_NXZ
_TEXT	SEGMENT
$T2 = -89						; size = 1
_szString$3 = -24					; size = 4
_nCurUserCount$ = -20					; size = 4
_this$ = -16						; size = 4
__$EHRec$ = -12						; size = 12
?CheckMatchUser@CImmediateGroup@@IAE_NXZ PROC		; CImmediateGroup::CheckMatchUser, COMDAT
; _this$ = ecx

; 843  : {

  00000	55		 push	 ebp
  00001	8b ec		 mov	 ebp, esp
  00003	6a ff		 push	 -1
  00005	68 00 00 00 00	 push	 __ehhandler$?CheckMatchUser@CImmediateGroup@@IAE_NXZ
  0000a	64 a1 00 00 00
	00		 mov	 eax, DWORD PTR fs:0
  00010	50		 push	 eax
  00011	83 ec 50	 sub	 esp, 80			; 00000050H
  00014	53		 push	 ebx
  00015	56		 push	 esi
  00016	57		 push	 edi
  00017	a1 00 00 00 00	 mov	 eax, DWORD PTR ___security_cookie
  0001c	33 c5		 xor	 eax, ebp
  0001e	50		 push	 eax
  0001f	8d 45 f4	 lea	 eax, DWORD PTR __$EHRec$[ebp]
  00022	64 a3 00 00 00
	00		 mov	 DWORD PTR fs:0, eax
  00028	89 4d f0	 mov	 DWORD PTR _this$[ebp], ecx

; 844  : 	//参赛用户不够 椅子数量就要终止比赛
; 845  : 	DWORD nCurUserCount=(DWORD)m_OnMatchUserMap.GetCount();

  0002b	8b 4d f0	 mov	 ecx, DWORD PTR _this$[ebp]
  0002e	83 c1 38	 add	 ecx, 56			; 00000038H
  00031	e8 00 00 00 00	 call	 ?GetCount@?$CMap@KKPAUIServerUserItem@@PAU1@@@QBEHXZ ; CMap<unsigned long,unsigned long,IServerUserItem *,IServerUserItem *>::GetCount
  00036	89 45 ec	 mov	 DWORD PTR _nCurUserCount$[ebp], eax

; 846  : 	if (nCurUserCount<m_wChairCount)

  00039	0f b7 05 00 00
	00 00		 movzx	 eax, WORD PTR ?m_wChairCount@CImmediateGroup@@1GA ; CImmediateGroup::m_wChairCount
  00040	39 45 ec	 cmp	 DWORD PTR _nCurUserCount$[ebp], eax
  00043	0f 83 8e 00 00
	00		 jae	 $LN2@CheckMatch

; 847  : 	{
; 848  : 		ASSERT(FALSE);

  00049	33 c0		 xor	 eax, eax
  0004b	75 19		 jne	 SHORT $LN4@CheckMatch
  0004d	8b 0d 00 00 00
	00		 mov	 ecx, DWORD PTR ?__LINE__Var@?0??CheckMatchUser@CImmediateGroup@@IAE_NXZ@4JA
  00053	83 c1 05	 add	 ecx, 5
  00056	51		 push	 ecx
  00057	68 00 00 00 00	 push	 OFFSET ??_C@_0EL@ONMMFGFJ@g?3?2?M?x?$LK?$PM?2happygamewh?2?$LH?$PO?N?q?$LG?K?2?O?$LF?M?$LD@
  0005c	e8 00 00 00 00	 call	 ?AfxAssertFailedLine@@YGHPBDH@Z ; AfxAssertFailedLine
  00061	85 c0		 test	 eax, eax
  00063	74 01		 je	 SHORT $LN4@CheckMatch
  00065	cc		 int	 3
$LN4@CheckMatch:

; 849  : 		CTraceService::TraceString(TEXT("检查人数..."),TraceLevel_Exception);

  00066	6a 03		 push	 3
  00068	68 00 00 00 00	 push	 OFFSET ??_C@_0M@NKMAPECH@?$LM?l?$LC?i?H?K?J?$PN?4?4?4@
  0006d	ff 15 00 00 00
	00		 call	 DWORD PTR __imp_?TraceString@CTraceService@@SA_NPBDW4enTraceLevel@@@Z
  00073	83 c4 08	 add	 esp, 8

; 850  : 		return false;

  00076	32 c0		 xor	 al, al
  00078	eb 5f		 jmp	 SHORT $LN1@CheckMatch

; 851  : 
; 852  : 		//构造数据包
; 853  : 		CString szString;

  0007a	8d 4d e8	 lea	 ecx, DWORD PTR _szString$3[ebp]
  0007d	ff 15 00 00 00
	00		 call	 DWORD PTR __imp_??0?$CStringT@DV?$StrTraitMFC_DLL@DV?$ChTraitsCRT@D@ATL@@@@@ATL@@QAE@XZ
  00083	c7 45 fc 00 00
	00 00		 mov	 DWORD PTR __$EHRec$[ebp+8], 0

; 854  : 		szString.Format(TEXT("抱歉，由于比赛用户强行退出比赛，人数不足 %d 人，提前结算。欢迎您继续报名参加比赛！"),m_wChairCount);

  0008a	0f b7 05 00 00
	00 00		 movzx	 eax, WORD PTR ?m_wChairCount@CImmediateGroup@@1GA ; CImmediateGroup::m_wChairCount
  00091	50		 push	 eax
  00092	68 00 00 00 00	 push	 OFFSET ??_C@_0FD@PIICFLBL@?$LB?$KH?G?$LI?$KD?$KM?S?I?S?Z?$LB?H?H?$PM?S?C?$LL?$KH?G?$LP?P?P?M?K?$LD?v?$LB?H?H?$PM?$KD@
  00097	8d 4d e8	 lea	 ecx, DWORD PTR _szString$3[ebp]
  0009a	51		 push	 ecx
  0009b	ff 15 00 00 00
	00		 call	 DWORD PTR __imp_?Format@?$CStringT@DV?$StrTraitMFC_DLL@DV?$ChTraitsCRT@D@ATL@@@@@ATL@@QAAXPBDZZ
  000a1	83 c4 0c	 add	 esp, 12			; 0000000cH

; 855  : 		SendGroupMessage(szString);

  000a4	8d 4d e8	 lea	 ecx, DWORD PTR _szString$3[ebp]
  000a7	ff 15 00 00 00
	00		 call	 DWORD PTR __imp_??B?$CSimpleStringT@D$00@ATL@@QBEPBDXZ
  000ad	50		 push	 eax
  000ae	8b 4d f0	 mov	 ecx, DWORD PTR _this$[ebp]
  000b1	e8 00 00 00 00	 call	 ?SendGroupMessage@CImmediateGroup@@IAEXPBD@Z ; CImmediateGroup::SendGroupMessage

; 856  : 
; 857  : 		MatchOver();

  000b6	8b 4d f0	 mov	 ecx, DWORD PTR _this$[ebp]
  000b9	e8 00 00 00 00	 call	 ?MatchOver@CImmediateGroup@@IAEXXZ ; CImmediateGroup::MatchOver

; 858  : 
; 859  : 		return true;

  000be	c6 45 a7 01	 mov	 BYTE PTR $T2[ebp], 1
  000c2	c7 45 fc ff ff
	ff ff		 mov	 DWORD PTR __$EHRec$[ebp+8], -1
  000c9	8d 4d e8	 lea	 ecx, DWORD PTR _szString$3[ebp]
  000cc	ff 15 00 00 00
	00		 call	 DWORD PTR __imp_??1?$CStringT@DV?$StrTraitMFC_DLL@DV?$ChTraitsCRT@D@ATL@@@@@ATL@@QAE@XZ
  000d2	8a 45 a7	 mov	 al, BYTE PTR $T2[ebp]
  000d5	eb 02		 jmp	 SHORT $LN1@CheckMatch
$LN2@CheckMatch:

; 860  : 	}
; 861  : 	return false;

  000d7	32 c0		 xor	 al, al
$LN1@CheckMatch:

; 862  : }

  000d9	8b 4d f4	 mov	 ecx, DWORD PTR __$EHRec$[ebp]
  000dc	64 89 0d 00 00
	00 00		 mov	 DWORD PTR fs:0, ecx
  000e3	59		 pop	 ecx
  000e4	5f		 pop	 edi
  000e5	5e		 pop	 esi
  000e6	5b		 pop	 ebx
  000e7	8b e5		 mov	 esp, ebp
  000e9	5d		 pop	 ebp
  000ea	c3		 ret	 0
_TEXT	ENDS
;	COMDAT text$x
text$x	SEGMENT
__unwindfunclet$?CheckMatchUser@CImmediateGroup@@IAE_NXZ$0:
  00000	8d 4d e8	 lea	 ecx, DWORD PTR _szString$3[ebp]
  00003	ff 25 00 00 00
	00		 jmp	 DWORD PTR __imp_??1?$CStringT@DV?$StrTraitMFC_DLL@DV?$ChTraitsCRT@D@ATL@@@@@ATL@@QAE@XZ
__ehhandler$?CheckMatchUser@CImmediateGroup@@IAE_NXZ:
  00009	8b 54 24 08	 mov	 edx, DWORD PTR [esp+8]
  0000d	8d 42 0c	 lea	 eax, DWORD PTR [edx+12]
  00010	8b 4a a0	 mov	 ecx, DWORD PTR [edx-96]
  00013	33 c8		 xor	 ecx, eax
  00015	e8 00 00 00 00	 call	 @__security_check_cookie@4
  0001a	b8 00 00 00 00	 mov	 eax, OFFSET __ehfuncinfo$?CheckMatchUser@CImmediateGroup@@IAE_NXZ
  0001f	e9 00 00 00 00	 jmp	 ___CxxFrameHandler3
text$x	ENDS
?CheckMatchUser@CImmediateGroup@@IAE_NXZ ENDP		; CImmediateGroup::CheckMatchUser
; Function compile flags: /Odtp /ZI
; File g:\网狐\happygamewh\服务端\系统模块\服务器组件\比赛服务\immediategroup.cpp
;	COMDAT ?PerformAllUserStandUp@CImmediateGroup@@IAEXPAUITableFrame@@@Z
_TEXT	SEGMENT
_pUserServerItem$1 = -12				; size = 4
_i$2 = -8						; size = 4
_this$ = -4						; size = 4
_pITableFrame$ = 8					; size = 4
?PerformAllUserStandUp@CImmediateGroup@@IAEXPAUITableFrame@@@Z PROC ; CImmediateGroup::PerformAllUserStandUp, COMDAT
; _this$ = ecx

; 767  : {

  00000	55		 push	 ebp
  00001	8b ec		 mov	 ebp, esp
  00003	83 ec 4c	 sub	 esp, 76			; 0000004cH
  00006	53		 push	 ebx
  00007	56		 push	 esi
  00008	57		 push	 edi
  00009	89 4d fc	 mov	 DWORD PTR _this$[ebp], ecx

; 768  : 	//参数校验
; 769  : 	ASSERT(pITableFrame!=NULL);

  0000c	83 7d 08 00	 cmp	 DWORD PTR _pITableFrame$[ebp], 0
  00010	75 18		 jne	 SHORT $LN8@PerformAll
  00012	a1 00 00 00 00	 mov	 eax, DWORD PTR ?__LINE__Var@?0??PerformAllUserStandUp@CImmediateGroup@@IAEXPAUITableFrame@@@Z@4JA
  00017	83 c0 02	 add	 eax, 2
  0001a	50		 push	 eax
  0001b	68 00 00 00 00	 push	 OFFSET ??_C@_0EL@ONMMFGFJ@g?3?2?M?x?$LK?$PM?2happygamewh?2?$LH?$PO?N?q?$LG?K?2?O?$LF?M?$LD@
  00020	e8 00 00 00 00	 call	 ?AfxAssertFailedLine@@YGHPBDH@Z ; AfxAssertFailedLine
  00025	85 c0		 test	 eax, eax
  00027	74 01		 je	 SHORT $LN8@PerformAll
  00029	cc		 int	 3
$LN8@PerformAll:

; 770  : 	if (pITableFrame==NULL) return;

  0002a	83 7d 08 00	 cmp	 DWORD PTR _pITableFrame$[ebp], 0
  0002e	75 02		 jne	 SHORT $LN5@PerformAll
  00030	eb 6c		 jmp	 SHORT $LN1@PerformAll
$LN5@PerformAll:

; 771  : 
; 772  : 	//处理起立
; 773  : 	for (int i=0;i<m_wChairCount;i++)

  00032	c7 45 f8 00 00
	00 00		 mov	 DWORD PTR _i$2[ebp], 0
  00039	eb 09		 jmp	 SHORT $LN4@PerformAll
$LN2@PerformAll:
  0003b	8b 45 f8	 mov	 eax, DWORD PTR _i$2[ebp]
  0003e	83 c0 01	 add	 eax, 1
  00041	89 45 f8	 mov	 DWORD PTR _i$2[ebp], eax
$LN4@PerformAll:
  00044	0f b7 05 00 00
	00 00		 movzx	 eax, WORD PTR ?m_wChairCount@CImmediateGroup@@1GA ; CImmediateGroup::m_wChairCount
  0004b	39 45 f8	 cmp	 DWORD PTR _i$2[ebp], eax
  0004e	7d 4e		 jge	 SHORT $LN1@PerformAll

; 774  : 	{
; 775  : 		//获取用户
; 776  : 		IServerUserItem * pUserServerItem=pITableFrame->GetTableUserItem(i);

  00050	0f b7 45 f8	 movzx	 eax, WORD PTR _i$2[ebp]
  00054	50		 push	 eax
  00055	8b 4d 08	 mov	 ecx, DWORD PTR _pITableFrame$[ebp]
  00058	8b 11		 mov	 edx, DWORD PTR [ecx]
  0005a	8b 4d 08	 mov	 ecx, DWORD PTR _pITableFrame$[ebp]
  0005d	8b 82 9c 00 00
	00		 mov	 eax, DWORD PTR [edx+156]
  00063	ff d0		 call	 eax
  00065	89 45 f4	 mov	 DWORD PTR _pUserServerItem$1[ebp], eax

; 777  : 		if(pUserServerItem&&pUserServerItem->GetTableID()!=INVALID_TABLE)

  00068	83 7d f4 00	 cmp	 DWORD PTR _pUserServerItem$1[ebp], 0
  0006c	74 2e		 je	 SHORT $LN6@PerformAll
  0006e	8b 45 f4	 mov	 eax, DWORD PTR _pUserServerItem$1[ebp]
  00071	8b 10		 mov	 edx, DWORD PTR [eax]
  00073	8b 4d f4	 mov	 ecx, DWORD PTR _pUserServerItem$1[ebp]
  00076	8b 42 68	 mov	 eax, DWORD PTR [edx+104]
  00079	ff d0		 call	 eax
  0007b	0f b7 c8	 movzx	 ecx, ax
  0007e	81 f9 ff ff 00
	00		 cmp	 ecx, 65535		; 0000ffffH
  00084	74 16		 je	 SHORT $LN6@PerformAll

; 778  : 		{
; 779  : 			pITableFrame->PerformStandUpAction(pUserServerItem);

  00086	6a 00		 push	 0
  00088	8b 45 f4	 mov	 eax, DWORD PTR _pUserServerItem$1[ebp]
  0008b	50		 push	 eax
  0008c	8b 4d 08	 mov	 ecx, DWORD PTR _pITableFrame$[ebp]
  0008f	8b 11		 mov	 edx, DWORD PTR [ecx]
  00091	8b 4d 08	 mov	 ecx, DWORD PTR _pITableFrame$[ebp]
  00094	8b 82 d8 00 00
	00		 mov	 eax, DWORD PTR [edx+216]
  0009a	ff d0		 call	 eax
$LN6@PerformAll:

; 780  : 		}
; 781  : 	}	

  0009c	eb 9d		 jmp	 SHORT $LN2@PerformAll
$LN1@PerformAll:

; 782  : }

  0009e	5f		 pop	 edi
  0009f	5e		 pop	 esi
  000a0	5b		 pop	 ebx
  000a1	8b e5		 mov	 esp, ebp
  000a3	5d		 pop	 ebp
  000a4	c2 04 00	 ret	 4
?PerformAllUserStandUp@CImmediateGroup@@IAEXPAUITableFrame@@@Z ENDP ; CImmediateGroup::PerformAllUserStandUp
_TEXT	ENDS
; Function compile flags: /Odtp /ZI
; File g:\网狐\happygamewh\服务端\系统模块\服务器组件\比赛服务\immediategroup.cpp
;	COMDAT ?PerformAllUserStandUp@CImmediateGroup@@IAEXXZ
_TEXT	SEGMENT
_pTableFrame$1 = -16					; size = 4
_pTableFrameInfo$2 = -12				; size = 4
_i$3 = -8						; size = 2
_this$ = -4						; size = 4
?PerformAllUserStandUp@CImmediateGroup@@IAEXXZ PROC	; CImmediateGroup::PerformAllUserStandUp, COMDAT
; _this$ = ecx

; 741  : {	

  00000	55		 push	 ebp
  00001	8b ec		 mov	 ebp, esp
  00003	83 ec 50	 sub	 esp, 80			; 00000050H
  00006	53		 push	 ebx
  00007	56		 push	 esi
  00008	57		 push	 edi
  00009	89 4d fc	 mov	 DWORD PTR _this$[ebp], ecx

; 742  : 	//遍历桌子
; 743  : 	for (WORD i=0; i<m_MatchTableArray.GetCount();i++)

  0000c	33 c0		 xor	 eax, eax
  0000e	66 89 45 f8	 mov	 WORD PTR _i$3[ebp], ax
  00012	eb 0c		 jmp	 SHORT $LN4@PerformAll
$LN2@PerformAll:
  00014	66 8b 45 f8	 mov	 ax, WORD PTR _i$3[ebp]
  00018	66 83 c0 01	 add	 ax, 1
  0001c	66 89 45 f8	 mov	 WORD PTR _i$3[ebp], ax
$LN4@PerformAll:
  00020	0f b7 75 f8	 movzx	 esi, WORD PTR _i$3[ebp]
  00024	8b 4d fc	 mov	 ecx, DWORD PTR _this$[ebp]
  00027	83 c1 68	 add	 ecx, 104		; 00000068H
  0002a	e8 00 00 00 00	 call	 ?GetCount@?$CWHArray@PAUtagTableFrameInfo@@ABQAU1@@@QBEHXZ ; CWHArray<tagTableFrameInfo *,tagTableFrameInfo * const &>::GetCount
  0002f	3b f0		 cmp	 esi, eax
  00031	7d 5d		 jge	 SHORT $LN1@PerformAll

; 744  : 	{
; 745  : 		//桌子信息
; 746  : 		tagTableFrameInfo * pTableFrameInfo=m_MatchTableArray[i];

  00033	0f b7 45 f8	 movzx	 eax, WORD PTR _i$3[ebp]
  00037	50		 push	 eax
  00038	8b 4d fc	 mov	 ecx, DWORD PTR _this$[ebp]
  0003b	83 c1 68	 add	 ecx, 104		; 00000068H
  0003e	e8 00 00 00 00	 call	 ??A?$CWHArray@PAUtagTableFrameInfo@@ABQAU1@@@QAEAAPAUtagTableFrameInfo@@H@Z ; CWHArray<tagTableFrameInfo *,tagTableFrameInfo * const &>::operator[]
  00043	8b 08		 mov	 ecx, DWORD PTR [eax]
  00045	89 4d f4	 mov	 DWORD PTR _pTableFrameInfo$2[ebp], ecx

; 747  : 		if (pTableFrameInfo==NULL) continue;

  00048	83 7d f4 00	 cmp	 DWORD PTR _pTableFrameInfo$2[ebp], 0
  0004c	75 02		 jne	 SHORT $LN5@PerformAll
  0004e	eb c4		 jmp	 SHORT $LN2@PerformAll
$LN5@PerformAll:

; 748  : 
; 749  : 		//桌子指针
; 750  : 		ITableFrame* pTableFrame=pTableFrameInfo->pTableFrame;		

  00050	8b 45 f4	 mov	 eax, DWORD PTR _pTableFrameInfo$2[ebp]
  00053	8b 08		 mov	 ecx, DWORD PTR [eax]
  00055	89 4d f0	 mov	 DWORD PTR _pTableFrame$1[ebp], ecx

; 751  : 		if (pTableFrame==NULL) continue;

  00058	83 7d f0 00	 cmp	 DWORD PTR _pTableFrame$1[ebp], 0
  0005c	75 02		 jne	 SHORT $LN6@PerformAll
  0005e	eb b4		 jmp	 SHORT $LN2@PerformAll
$LN6@PerformAll:

; 752  : 
; 753  : 		//强制解散游戏
; 754  : 		if (pTableFrame->IsGameStarted()==true)

  00060	8b 45 f0	 mov	 eax, DWORD PTR _pTableFrame$1[ebp]
  00063	8b 10		 mov	 edx, DWORD PTR [eax]
  00065	8b 4d f0	 mov	 ecx, DWORD PTR _pTableFrame$1[ebp]
  00068	8b 42 3c	 mov	 eax, DWORD PTR [edx+60]
  0006b	ff d0		 call	 eax
  0006d	0f b6 c8	 movzx	 ecx, al
  00070	83 f9 01	 cmp	 ecx, 1
  00073	75 0d		 jne	 SHORT $LN7@PerformAll

; 755  : 		{
; 756  : 			pTableFrame->DismissGame();			

  00075	8b 45 f0	 mov	 eax, DWORD PTR _pTableFrame$1[ebp]
  00078	8b 10		 mov	 edx, DWORD PTR [eax]
  0007a	8b 4d f0	 mov	 ecx, DWORD PTR _pTableFrame$1[ebp]
  0007d	8b 42 78	 mov	 eax, DWORD PTR [edx+120]
  00080	ff d0		 call	 eax
$LN7@PerformAll:

; 757  : 		}
; 758  : 
; 759  : 		//绦衅鹆
; 760  : 		PerformAllUserStandUp(pTableFrame);

  00082	8b 45 f0	 mov	 eax, DWORD PTR _pTableFrame$1[ebp]
  00085	50		 push	 eax
  00086	8b 4d fc	 mov	 ecx, DWORD PTR _this$[ebp]
  00089	e8 00 00 00 00	 call	 ?PerformAllUserStandUp@CImmediateGroup@@IAEXPAUITableFrame@@@Z ; CImmediateGroup::PerformAllUserStandUp

; 761  : 	}

  0008e	eb 84		 jmp	 SHORT $LN2@PerformAll
$LN1@PerformAll:

; 762  : 	return;
; 763  : }

  00090	5f		 pop	 edi
  00091	5e		 pop	 esi
  00092	5b		 pop	 ebx
  00093	8b e5		 mov	 esp, ebp
  00095	5d		 pop	 ebp
  00096	c3		 ret	 0
?PerformAllUserStandUp@CImmediateGroup@@IAEXXZ ENDP	; CImmediateGroup::PerformAllUserStandUp
_TEXT	ENDS
; Function compile flags: /Odtp /ZI
; File g:\网狐\happygamewh\服务端\系统模块\服务器组件\比赛服务\immediategroup.cpp
;	COMDAT ?PerformDistributeTable@CImmediateGroup@@IAEXXZ
_TEXT	SEGMENT
tv239 = -144						; size = 4
tv228 = -144						; size = 4
tv83 = -144						; size = 4
_m$2 = -76						; size = 4
_pIServerUserItem$3 = -72				; size = 4
_wRandID$4 = -68					; size = 2
_wChairID$5 = -64					; size = 2
_nCurUserCount$6 = -60					; size = 4
_i$7 = -56						; size = 4
_j$8 = -52						; size = 4
_cbIsInsert$9 = -45					; size = 1
_cbTimer$10 = -44					; size = 4
_i$11 = -40						; size = 4
_FreeTableArray$ = -36					; size = 20
_this$ = -16						; size = 4
__$EHRec$ = -12						; size = 12
?PerformDistributeTable@CImmediateGroup@@IAEXXZ PROC	; CImmediateGroup::PerformDistributeTable, COMDAT
; _this$ = ecx

; 620  : {

  00000	55		 push	 ebp
  00001	8b ec		 mov	 ebp, esp
  00003	6a ff		 push	 -1
  00005	68 00 00 00 00	 push	 __ehhandler$?PerformDistributeTable@CImmediateGroup@@IAEXXZ
  0000a	64 a1 00 00 00
	00		 mov	 eax, DWORD PTR fs:0
  00010	50		 push	 eax
  00011	81 ec 84 00 00
	00		 sub	 esp, 132		; 00000084H
  00017	53		 push	 ebx
  00018	56		 push	 esi
  00019	57		 push	 edi
  0001a	a1 00 00 00 00	 mov	 eax, DWORD PTR ___security_cookie
  0001f	33 c5		 xor	 eax, ebp
  00021	50		 push	 eax
  00022	8d 45 f4	 lea	 eax, DWORD PTR __$EHRec$[ebp]
  00025	64 a3 00 00 00
	00		 mov	 DWORD PTR fs:0, eax
  0002b	89 4d f0	 mov	 DWORD PTR _this$[ebp], ecx

; 621  : 	//检查人数
; 622  : 	if (CheckMatchUser()) return;

  0002e	8b 4d f0	 mov	 ecx, DWORD PTR _this$[ebp]
  00031	e8 00 00 00 00	 call	 ?CheckMatchUser@CImmediateGroup@@IAE_NXZ ; CImmediateGroup::CheckMatchUser
  00036	0f b6 c0	 movzx	 eax, al
  00039	85 c0		 test	 eax, eax
  0003b	74 05		 je	 SHORT $LN17@PerformDis
  0003d	e9 37 03 00 00	 jmp	 $LN1@PerformDis
$LN17@PerformDis:

; 623  : 
; 624  : 	//变量定义
; 625  : 	CTableFrameMananerArray	FreeTableArray;	

  00042	8d 4d dc	 lea	 ecx, DWORD PTR _FreeTableArray$[ebp]
  00045	e8 00 00 00 00	 call	 ??0?$CWHArray@PAUtagTableFrameInfo@@ABQAU1@@@QAE@XZ ; CWHArray<tagTableFrameInfo *,tagTableFrameInfo * const &>::CWHArray<tagTableFrameInfo *,tagTableFrameInfo * const &>
  0004a	c7 45 fc 00 00
	00 00		 mov	 DWORD PTR __$EHRec$[ebp+8], 0

; 626  : 
; 627  : 	//获取空桌
; 628  : 	for (INT_PTR i=0;i<m_MatchTableArray.GetCount();i++)

  00051	c7 45 d8 00 00
	00 00		 mov	 DWORD PTR _i$11[ebp], 0
  00058	eb 09		 jmp	 SHORT $LN4@PerformDis
$LN2@PerformDis:
  0005a	8b 45 d8	 mov	 eax, DWORD PTR _i$11[ebp]
  0005d	83 c0 01	 add	 eax, 1
  00060	89 45 d8	 mov	 DWORD PTR _i$11[ebp], eax
$LN4@PerformDis:
  00063	8b 4d f0	 mov	 ecx, DWORD PTR _this$[ebp]
  00066	83 c1 68	 add	 ecx, 104		; 00000068H
  00069	e8 00 00 00 00	 call	 ?GetCount@?$CWHArray@PAUtagTableFrameInfo@@ABQAU1@@@QBEHXZ ; CWHArray<tagTableFrameInfo *,tagTableFrameInfo * const &>::GetCount
  0006e	39 45 d8	 cmp	 DWORD PTR _i$11[ebp], eax
  00071	0f 8d 03 01 00
	00		 jge	 $LN3@PerformDis

; 629  : 	{
; 630  : 		if (m_MatchTableArray[i]->pTableFrame->IsGameStarted()==false&&m_MatchTableArray[i]->bMatchTaskFinish==false)

  00077	8b 45 d8	 mov	 eax, DWORD PTR _i$11[ebp]
  0007a	50		 push	 eax
  0007b	8b 4d f0	 mov	 ecx, DWORD PTR _this$[ebp]
  0007e	83 c1 68	 add	 ecx, 104		; 00000068H
  00081	e8 00 00 00 00	 call	 ??A?$CWHArray@PAUtagTableFrameInfo@@ABQAU1@@@QAEAAPAUtagTableFrameInfo@@H@Z ; CWHArray<tagTableFrameInfo *,tagTableFrameInfo * const &>::operator[]
  00086	8b 08		 mov	 ecx, DWORD PTR [eax]
  00088	8b 11		 mov	 edx, DWORD PTR [ecx]
  0008a	89 95 70 ff ff
	ff		 mov	 DWORD PTR tv83[ebp], edx
  00090	8b 85 70 ff ff
	ff		 mov	 eax, DWORD PTR tv83[ebp]
  00096	8b 10		 mov	 edx, DWORD PTR [eax]
  00098	8b 8d 70 ff ff
	ff		 mov	 ecx, DWORD PTR tv83[ebp]
  0009e	8b 42 3c	 mov	 eax, DWORD PTR [edx+60]
  000a1	ff d0		 call	 eax
  000a3	0f b6 c8	 movzx	 ecx, al
  000a6	85 c9		 test	 ecx, ecx
  000a8	0f 85 c7 00 00
	00		 jne	 $LN18@PerformDis
  000ae	8b 45 d8	 mov	 eax, DWORD PTR _i$11[ebp]
  000b1	50		 push	 eax
  000b2	8b 4d f0	 mov	 ecx, DWORD PTR _this$[ebp]
  000b5	83 c1 68	 add	 ecx, 104		; 00000068H
  000b8	e8 00 00 00 00	 call	 ??A?$CWHArray@PAUtagTableFrameInfo@@ABQAU1@@@QAEAAPAUtagTableFrameInfo@@H@Z ; CWHArray<tagTableFrameInfo *,tagTableFrameInfo * const &>::operator[]
  000bd	8b 08		 mov	 ecx, DWORD PTR [eax]
  000bf	0f b6 51 12	 movzx	 edx, BYTE PTR [ecx+18]
  000c3	85 d2		 test	 edx, edx
  000c5	0f 85 aa 00 00
	00		 jne	 $LN18@PerformDis

; 631  : 		{
; 632  : 			//获取数量
; 633  : 			INT_PTR cbTimer=m_MatchTimerArray.GetCount();

  000cb	8b 4d f0	 mov	 ecx, DWORD PTR _this$[ebp]
  000ce	83 c1 7c	 add	 ecx, 124		; 0000007cH
  000d1	e8 00 00 00 00	 call	 ?GetCount@?$CWHArray@PAUtagMatchTimer@@ABQAU1@@@QBEHXZ ; CWHArray<tagMatchTimer *,tagMatchTimer * const &>::GetCount
  000d6	89 45 d4	 mov	 DWORD PTR _cbTimer$10[ebp], eax

; 634  : 			bool cbIsInsert=true;

  000d9	c6 45 d3 01	 mov	 BYTE PTR _cbIsInsert$9[ebp], 1

; 635  : 			for (int j=0;j<cbTimer;j++)

  000dd	c7 45 cc 00 00
	00 00		 mov	 DWORD PTR _j$8[ebp], 0
  000e4	eb 09		 jmp	 SHORT $LN7@PerformDis
$LN5@PerformDis:
  000e6	8b 45 cc	 mov	 eax, DWORD PTR _j$8[ebp]
  000e9	83 c0 01	 add	 eax, 1
  000ec	89 45 cc	 mov	 DWORD PTR _j$8[ebp], eax
$LN7@PerformDis:
  000ef	8b 45 cc	 mov	 eax, DWORD PTR _j$8[ebp]
  000f2	3b 45 d4	 cmp	 eax, DWORD PTR _cbTimer$10[ebp]
  000f5	7d 5d		 jge	 SHORT $LN6@PerformDis

; 636  : 			{
; 637  : 				//判断一下有没有卡赛的桌子在等待
; 638  : 				if ((m_MatchTimerArray[j]->dwTimerID==IDI_CHECK_TABLE_START||m_MatchTimerArray[j]->dwTimerID==IDI_CONTINUE_GAME)&&(ITableFrame*)(m_MatchTimerArray[j]->wParam)==m_MatchTableArray[i]->pTableFrame)

  000f7	8b 45 cc	 mov	 eax, DWORD PTR _j$8[ebp]
  000fa	50		 push	 eax
  000fb	8b 4d f0	 mov	 ecx, DWORD PTR _this$[ebp]
  000fe	83 c1 7c	 add	 ecx, 124		; 0000007cH
  00101	e8 00 00 00 00	 call	 ??A?$CWHArray@PAUtagMatchTimer@@ABQAU1@@@QAEAAPAUtagMatchTimer@@H@Z ; CWHArray<tagMatchTimer *,tagMatchTimer * const &>::operator[]
  00106	8b 08		 mov	 ecx, DWORD PTR [eax]
  00108	83 39 03	 cmp	 DWORD PTR [ecx], 3
  0010b	74 16		 je	 SHORT $LN20@PerformDis
  0010d	8b 45 cc	 mov	 eax, DWORD PTR _j$8[ebp]
  00110	50		 push	 eax
  00111	8b 4d f0	 mov	 ecx, DWORD PTR _this$[ebp]
  00114	83 c1 7c	 add	 ecx, 124		; 0000007cH
  00117	e8 00 00 00 00	 call	 ??A?$CWHArray@PAUtagMatchTimer@@ABQAU1@@@QAEAAPAUtagMatchTimer@@H@Z ; CWHArray<tagMatchTimer *,tagMatchTimer * const &>::operator[]
  0011c	8b 08		 mov	 ecx, DWORD PTR [eax]
  0011e	83 39 01	 cmp	 DWORD PTR [ecx], 1
  00121	75 2f		 jne	 SHORT $LN19@PerformDis
$LN20@PerformDis:
  00123	8b 45 cc	 mov	 eax, DWORD PTR _j$8[ebp]
  00126	50		 push	 eax
  00127	8b 4d f0	 mov	 ecx, DWORD PTR _this$[ebp]
  0012a	83 c1 7c	 add	 ecx, 124		; 0000007cH
  0012d	e8 00 00 00 00	 call	 ??A?$CWHArray@PAUtagMatchTimer@@ABQAU1@@@QAEAAPAUtagMatchTimer@@H@Z ; CWHArray<tagMatchTimer *,tagMatchTimer * const &>::operator[]
  00132	8b 30		 mov	 esi, DWORD PTR [eax]
  00134	8b 4d d8	 mov	 ecx, DWORD PTR _i$11[ebp]
  00137	51		 push	 ecx
  00138	8b 4d f0	 mov	 ecx, DWORD PTR _this$[ebp]
  0013b	83 c1 68	 add	 ecx, 104		; 00000068H
  0013e	e8 00 00 00 00	 call	 ??A?$CWHArray@PAUtagTableFrameInfo@@ABQAU1@@@QAEAAPAUtagTableFrameInfo@@H@Z ; CWHArray<tagTableFrameInfo *,tagTableFrameInfo * const &>::operator[]
  00143	8b 10		 mov	 edx, DWORD PTR [eax]
  00145	8b 46 08	 mov	 eax, DWORD PTR [esi+8]
  00148	3b 02		 cmp	 eax, DWORD PTR [edx]
  0014a	75 06		 jne	 SHORT $LN19@PerformDis

; 639  : 				{
; 640  : 					cbIsInsert=false;

  0014c	c6 45 d3 00	 mov	 BYTE PTR _cbIsInsert$9[ebp], 0

; 641  : 					break;

  00150	eb 02		 jmp	 SHORT $LN6@PerformDis
$LN19@PerformDis:

; 642  : 				}
; 643  : 			}

  00152	eb 92		 jmp	 SHORT $LN5@PerformDis
$LN6@PerformDis:

; 644  : 
; 645  : 			//插入判断
; 646  : 			if (cbIsInsert==true)

  00154	0f b6 45 d3	 movzx	 eax, BYTE PTR _cbIsInsert$9[ebp]
  00158	83 f8 01	 cmp	 eax, 1
  0015b	75 18		 jne	 SHORT $LN18@PerformDis

; 647  : 			{
; 648  : 				FreeTableArray.Add(m_MatchTableArray[i]);

  0015d	8b 45 d8	 mov	 eax, DWORD PTR _i$11[ebp]
  00160	50		 push	 eax
  00161	8b 4d f0	 mov	 ecx, DWORD PTR _this$[ebp]
  00164	83 c1 68	 add	 ecx, 104		; 00000068H
  00167	e8 00 00 00 00	 call	 ??A?$CWHArray@PAUtagTableFrameInfo@@ABQAU1@@@QAEAAPAUtagTableFrameInfo@@H@Z ; CWHArray<tagTableFrameInfo *,tagTableFrameInfo * const &>::operator[]
  0016c	50		 push	 eax
  0016d	8d 4d dc	 lea	 ecx, DWORD PTR _FreeTableArray$[ebp]
  00170	e8 00 00 00 00	 call	 ?Add@?$CWHArray@PAUtagTableFrameInfo@@ABQAU1@@@QAEHABQAUtagTableFrameInfo@@@Z ; CWHArray<tagTableFrameInfo *,tagTableFrameInfo * const &>::Add
$LN18@PerformDis:

; 649  : 			}
; 650  : 		}
; 651  : 	}

  00175	e9 e0 fe ff ff	 jmp	 $LN2@PerformDis
$LN3@PerformDis:

; 652  : 
; 653  : 	for (INT_PTR i=0;i<FreeTableArray.GetCount();i++)

  0017a	c7 45 c8 00 00
	00 00		 mov	 DWORD PTR _i$7[ebp], 0
  00181	eb 09		 jmp	 SHORT $LN10@PerformDis
$LN8@PerformDis:
  00183	8b 45 c8	 mov	 eax, DWORD PTR _i$7[ebp]
  00186	83 c0 01	 add	 eax, 1
  00189	89 45 c8	 mov	 DWORD PTR _i$7[ebp], eax
$LN10@PerformDis:
  0018c	8d 4d dc	 lea	 ecx, DWORD PTR _FreeTableArray$[ebp]
  0018f	e8 00 00 00 00	 call	 ?GetCount@?$CWHArray@PAUtagTableFrameInfo@@ABQAU1@@@QBEHXZ ; CWHArray<tagTableFrameInfo *,tagTableFrameInfo * const &>::GetCount
  00194	39 45 c8	 cmp	 DWORD PTR _i$7[ebp], eax
  00197	0f 8d cd 01 00
	00		 jge	 $LN9@PerformDis

; 654  : 	{
; 655  : 		DWORD nCurUserCount=(DWORD)m_FreeUserArray.GetCount();		

  0019d	8b 4d f0	 mov	 ecx, DWORD PTR _this$[ebp]
  001a0	83 c1 54	 add	 ecx, 84			; 00000054H
  001a3	e8 00 00 00 00	 call	 ?GetCount@?$CWHArray@PAUIServerUserItem@@ABQAU1@@@QBEHXZ ; CWHArray<IServerUserItem *,IServerUserItem * const &>::GetCount
  001a8	89 45 c4	 mov	 DWORD PTR _nCurUserCount$6[ebp], eax

; 656  : 		if(nCurUserCount/m_wChairCount>0)

  001ab	0f b7 0d 00 00
	00 00		 movzx	 ecx, WORD PTR ?m_wChairCount@CImmediateGroup@@1GA ; CImmediateGroup::m_wChairCount
  001b2	8b 45 c4	 mov	 eax, DWORD PTR _nCurUserCount$6[ebp]
  001b5	33 d2		 xor	 edx, edx
  001b7	f7 f1		 div	 ecx
  001b9	85 c0		 test	 eax, eax
  001bb	0f 86 a4 01 00
	00		 jbe	 $LN22@PerformDis

; 657  : 		{
; 658  : 			//全部起立
; 659  : 			PerformAllUserStandUp(FreeTableArray[i]->pTableFrame);

  001c1	8b 45 c8	 mov	 eax, DWORD PTR _i$7[ebp]
  001c4	50		 push	 eax
  001c5	8d 4d dc	 lea	 ecx, DWORD PTR _FreeTableArray$[ebp]
  001c8	e8 00 00 00 00	 call	 ??A?$CWHArray@PAUtagTableFrameInfo@@ABQAU1@@@QAEAAPAUtagTableFrameInfo@@H@Z ; CWHArray<tagTableFrameInfo *,tagTableFrameInfo * const &>::operator[]
  001cd	8b 08		 mov	 ecx, DWORD PTR [eax]
  001cf	8b 11		 mov	 edx, DWORD PTR [ecx]
  001d1	52		 push	 edx
  001d2	8b 4d f0	 mov	 ecx, DWORD PTR _this$[ebp]
  001d5	e8 00 00 00 00	 call	 ?PerformAllUserStandUp@CImmediateGroup@@IAEXPAUITableFrame@@@Z ; CImmediateGroup::PerformAllUserStandUp

; 660  : 
; 661  : 			//处理坐下
; 662  : 			for (WORD wChairID=0; wChairID<m_wChairCount; wChairID++)

  001da	33 c0		 xor	 eax, eax
  001dc	66 89 45 c0	 mov	 WORD PTR _wChairID$5[ebp], ax
  001e0	eb 0c		 jmp	 SHORT $LN13@PerformDis
$LN11@PerformDis:
  001e2	66 8b 45 c0	 mov	 ax, WORD PTR _wChairID$5[ebp]
  001e6	66 83 c0 01	 add	 ax, 1
  001ea	66 89 45 c0	 mov	 WORD PTR _wChairID$5[ebp], ax
$LN13@PerformDis:
  001ee	0f b7 45 c0	 movzx	 eax, WORD PTR _wChairID$5[ebp]
  001f2	0f b7 0d 00 00
	00 00		 movzx	 ecx, WORD PTR ?m_wChairCount@CImmediateGroup@@1GA ; CImmediateGroup::m_wChairCount
  001f9	3b c1		 cmp	 eax, ecx
  001fb	0f 8d 45 01 00
	00		 jge	 $LN12@PerformDis

; 663  : 			{
; 664  : 				//用户插入该桌
; 665  : 				WORD wRandID=rand()%(WORD)m_FreeUserArray.GetCount();

  00201	ff 15 00 00 00
	00		 call	 DWORD PTR __imp__rand
  00207	8b f0		 mov	 esi, eax
  00209	8b 4d f0	 mov	 ecx, DWORD PTR _this$[ebp]
  0020c	83 c1 54	 add	 ecx, 84			; 00000054H
  0020f	e8 00 00 00 00	 call	 ?GetCount@?$CWHArray@PAUIServerUserItem@@ABQAU1@@@QBEHXZ ; CWHArray<IServerUserItem *,IServerUserItem * const &>::GetCount
  00214	0f b7 c8	 movzx	 ecx, ax
  00217	8b c6		 mov	 eax, esi
  00219	99		 cdq
  0021a	f7 f9		 idiv	 ecx
  0021c	66 89 55 bc	 mov	 WORD PTR _wRandID$4[ebp], dx

; 666  : 
; 667  : 				//获取用户
; 668  : 				IServerUserItem *pIServerUserItem=m_FreeUserArray[wRandID];				

  00220	0f b7 45 bc	 movzx	 eax, WORD PTR _wRandID$4[ebp]
  00224	50		 push	 eax
  00225	8b 4d f0	 mov	 ecx, DWORD PTR _this$[ebp]
  00228	83 c1 54	 add	 ecx, 84			; 00000054H
  0022b	e8 00 00 00 00	 call	 ??A?$CWHArray@PAUIServerUserItem@@ABQAU1@@@QAEAAPAUIServerUserItem@@H@Z ; CWHArray<IServerUserItem *,IServerUserItem * const &>::operator[]
  00230	8b 08		 mov	 ecx, DWORD PTR [eax]
  00232	89 4d b8	 mov	 DWORD PTR _pIServerUserItem$3[ebp], ecx

; 669  : 				if (pIServerUserItem==NULL) continue;

  00235	83 7d b8 00	 cmp	 DWORD PTR _pIServerUserItem$3[ebp], 0
  00239	75 02		 jne	 SHORT $LN23@PerformDis
  0023b	eb a5		 jmp	 SHORT $LN11@PerformDis
$LN23@PerformDis:

; 670  : 				
; 671  : 				//先起立在坐下 让该桌的人全部起立
; 672  : 				if(pIServerUserItem->GetTableID()!=INVALID_TABLE)

  0023d	8b 45 b8	 mov	 eax, DWORD PTR _pIServerUserItem$3[ebp]
  00240	8b 10		 mov	 edx, DWORD PTR [eax]
  00242	8b 4d b8	 mov	 ecx, DWORD PTR _pIServerUserItem$3[ebp]
  00245	8b 42 68	 mov	 eax, DWORD PTR [edx+104]
  00248	ff d0		 call	 eax
  0024a	0f b7 c8	 movzx	 ecx, ax
  0024d	81 f9 ff ff 00
	00		 cmp	 ecx, 65535		; 0000ffffH
  00253	0f 84 84 00 00
	00		 je	 $LN24@PerformDis

; 673  : 				{
; 674  : 					for(int m=0;m<m_MatchTableArray.GetCount();m++)

  00259	c7 45 b4 00 00
	00 00		 mov	 DWORD PTR _m$2[ebp], 0
  00260	eb 09		 jmp	 SHORT $LN16@PerformDis
$LN14@PerformDis:
  00262	8b 45 b4	 mov	 eax, DWORD PTR _m$2[ebp]
  00265	83 c0 01	 add	 eax, 1
  00268	89 45 b4	 mov	 DWORD PTR _m$2[ebp], eax
$LN16@PerformDis:
  0026b	8b 4d f0	 mov	 ecx, DWORD PTR _this$[ebp]
  0026e	83 c1 68	 add	 ecx, 104		; 00000068H
  00271	e8 00 00 00 00	 call	 ?GetCount@?$CWHArray@PAUtagTableFrameInfo@@ABQAU1@@@QBEHXZ ; CWHArray<tagTableFrameInfo *,tagTableFrameInfo * const &>::GetCount
  00276	39 45 b4	 cmp	 DWORD PTR _m$2[ebp], eax
  00279	7d 62		 jge	 SHORT $LN24@PerformDis

; 675  : 					{
; 676  : 						if(pIServerUserItem->GetTableID()==m_MatchTableArray[m]->wTableID)

  0027b	8b 45 b8	 mov	 eax, DWORD PTR _pIServerUserItem$3[ebp]
  0027e	8b 10		 mov	 edx, DWORD PTR [eax]
  00280	8b 4d b8	 mov	 ecx, DWORD PTR _pIServerUserItem$3[ebp]
  00283	8b 42 68	 mov	 eax, DWORD PTR [edx+104]
  00286	ff d0		 call	 eax
  00288	0f b7 f0	 movzx	 esi, ax
  0028b	8b 4d b4	 mov	 ecx, DWORD PTR _m$2[ebp]
  0028e	51		 push	 ecx
  0028f	8b 4d f0	 mov	 ecx, DWORD PTR _this$[ebp]
  00292	83 c1 68	 add	 ecx, 104		; 00000068H
  00295	e8 00 00 00 00	 call	 ??A?$CWHArray@PAUtagTableFrameInfo@@ABQAU1@@@QAEAAPAUtagTableFrameInfo@@H@Z ; CWHArray<tagTableFrameInfo *,tagTableFrameInfo * const &>::operator[]
  0029a	8b 10		 mov	 edx, DWORD PTR [eax]
  0029c	0f b7 42 04	 movzx	 eax, WORD PTR [edx+4]
  002a0	3b f0		 cmp	 esi, eax
  002a2	75 37		 jne	 SHORT $LN25@PerformDis

; 677  : 						{
; 678  : 							m_MatchTableArray[m]->pTableFrame->PerformStandUpAction(pIServerUserItem);

  002a4	8b 45 b4	 mov	 eax, DWORD PTR _m$2[ebp]
  002a7	50		 push	 eax
  002a8	8b 4d f0	 mov	 ecx, DWORD PTR _this$[ebp]
  002ab	83 c1 68	 add	 ecx, 104		; 00000068H
  002ae	e8 00 00 00 00	 call	 ??A?$CWHArray@PAUtagTableFrameInfo@@ABQAU1@@@QAEAAPAUtagTableFrameInfo@@H@Z ; CWHArray<tagTableFrameInfo *,tagTableFrameInfo * const &>::operator[]
  002b3	8b 08		 mov	 ecx, DWORD PTR [eax]
  002b5	8b 11		 mov	 edx, DWORD PTR [ecx]
  002b7	89 95 70 ff ff
	ff		 mov	 DWORD PTR tv228[ebp], edx
  002bd	6a 00		 push	 0
  002bf	8b 45 b8	 mov	 eax, DWORD PTR _pIServerUserItem$3[ebp]
  002c2	50		 push	 eax
  002c3	8b 8d 70 ff ff
	ff		 mov	 ecx, DWORD PTR tv228[ebp]
  002c9	8b 11		 mov	 edx, DWORD PTR [ecx]
  002cb	8b 8d 70 ff ff
	ff		 mov	 ecx, DWORD PTR tv228[ebp]
  002d1	8b 82 d8 00 00
	00		 mov	 eax, DWORD PTR [edx+216]
  002d7	ff d0		 call	 eax

; 679  : 							break;

  002d9	eb 02		 jmp	 SHORT $LN24@PerformDis
$LN25@PerformDis:

; 680  : 						}
; 681  : 					}

  002db	eb 85		 jmp	 SHORT $LN14@PerformDis
$LN24@PerformDis:

; 682  : 				}
; 683  : 
; 684  : 				if (FreeTableArray[i]->pTableFrame->PerformSitDownAction(wChairID,pIServerUserItem))

  002dd	8b 45 c8	 mov	 eax, DWORD PTR _i$7[ebp]
  002e0	50		 push	 eax
  002e1	8d 4d dc	 lea	 ecx, DWORD PTR _FreeTableArray$[ebp]
  002e4	e8 00 00 00 00	 call	 ??A?$CWHArray@PAUtagTableFrameInfo@@ABQAU1@@@QAEAAPAUtagTableFrameInfo@@H@Z ; CWHArray<tagTableFrameInfo *,tagTableFrameInfo * const &>::operator[]
  002e9	8b 08		 mov	 ecx, DWORD PTR [eax]
  002eb	8b 11		 mov	 edx, DWORD PTR [ecx]
  002ed	89 95 70 ff ff
	ff		 mov	 DWORD PTR tv239[ebp], edx
  002f3	6a 00		 push	 0
  002f5	6a 00		 push	 0
  002f7	8b 45 b8	 mov	 eax, DWORD PTR _pIServerUserItem$3[ebp]
  002fa	50		 push	 eax
  002fb	0f b7 4d c0	 movzx	 ecx, WORD PTR _wChairID$5[ebp]
  002ff	51		 push	 ecx
  00300	8b 95 70 ff ff
	ff		 mov	 edx, DWORD PTR tv239[ebp]
  00306	8b 02		 mov	 eax, DWORD PTR [edx]
  00308	8b 8d 70 ff ff
	ff		 mov	 ecx, DWORD PTR tv239[ebp]
  0030e	8b 90 e0 00 00
	00		 mov	 edx, DWORD PTR [eax+224]
  00314	ff d2		 call	 edx
  00316	0f b6 c0	 movzx	 eax, al
  00319	85 c0		 test	 eax, eax
  0031b	74 14		 je	 SHORT $LN26@PerformDis

; 685  : 				{
; 686  : 					m_FreeUserArray.RemoveAt(wRandID);

  0031d	6a 01		 push	 1
  0031f	0f b7 45 bc	 movzx	 eax, WORD PTR _wRandID$4[ebp]
  00323	50		 push	 eax
  00324	8b 4d f0	 mov	 ecx, DWORD PTR _this$[ebp]
  00327	83 c1 54	 add	 ecx, 84			; 00000054H
  0032a	e8 00 00 00 00	 call	 ?RemoveAt@?$CWHArray@PAUIServerUserItem@@ABQAU1@@@QAEXHH@Z ; CWHArray<IServerUserItem *,IServerUserItem * const &>::RemoveAt

; 687  : 				}
; 688  : 				else

  0032f	eb 10		 jmp	 SHORT $LN27@PerformDis
$LN26@PerformDis:

; 689  : 				{
; 690  : 					CTraceService::TraceString(TEXT("坐下失败？"),TraceLevel_Exception);

  00331	6a 03		 push	 3
  00333	68 00 00 00 00	 push	 OFFSET ??_C@_0L@EGCIENHN@?W?x?O?B?J?$KH?$LA?$NM?$KD?$LP@
  00338	ff 15 00 00 00
	00		 call	 DWORD PTR __imp_?TraceString@CTraceService@@SA_NPBDW4enTraceLevel@@@Z
  0033e	83 c4 08	 add	 esp, 8
$LN27@PerformDis:

; 691  : 				}
; 692  : 			}

  00341	e9 9c fe ff ff	 jmp	 $LN11@PerformDis
$LN12@PerformDis:

; 693  : 
; 694  : 			//10秒后做一个检查 发现该桌还没有开始游戏 说明已经卡掉了
; 695  : 			PostMatchTimer(IDI_CHECK_TABLE_START,10,(WPARAM)FreeTableArray[i]->pTableFrame);

  00346	6a 00		 push	 0
  00348	8b 45 c8	 mov	 eax, DWORD PTR _i$7[ebp]
  0034b	50		 push	 eax
  0034c	8d 4d dc	 lea	 ecx, DWORD PTR _FreeTableArray$[ebp]
  0034f	e8 00 00 00 00	 call	 ??A?$CWHArray@PAUtagTableFrameInfo@@ABQAU1@@@QAEAAPAUtagTableFrameInfo@@H@Z ; CWHArray<tagTableFrameInfo *,tagTableFrameInfo * const &>::operator[]
  00354	8b 08		 mov	 ecx, DWORD PTR [eax]
  00356	8b 11		 mov	 edx, DWORD PTR [ecx]
  00358	52		 push	 edx
  00359	6a 0a		 push	 10			; 0000000aH
  0035b	6a 03		 push	 3
  0035d	8b 4d f0	 mov	 ecx, DWORD PTR _this$[ebp]
  00360	e8 00 00 00 00	 call	 ?PostMatchTimer@CImmediateGroup@@IAEXKHIJ@Z ; CImmediateGroup::PostMatchTimer
$LN22@PerformDis:

; 696  : 		}
; 697  : 	}

  00365	e9 19 fe ff ff	 jmp	 $LN8@PerformDis
$LN9@PerformDis:

; 698  : 
; 699  : 	return;

  0036a	c7 45 fc ff ff
	ff ff		 mov	 DWORD PTR __$EHRec$[ebp+8], -1
  00371	8d 4d dc	 lea	 ecx, DWORD PTR _FreeTableArray$[ebp]
  00374	e8 00 00 00 00	 call	 ??1?$CWHArray@PAUtagTableFrameInfo@@ABQAU1@@@UAE@XZ ; CWHArray<tagTableFrameInfo *,tagTableFrameInfo * const &>::~CWHArray<tagTableFrameInfo *,tagTableFrameInfo * const &>
$LN1@PerformDis:

; 700  : }

  00379	8b 4d f4	 mov	 ecx, DWORD PTR __$EHRec$[ebp]
  0037c	64 89 0d 00 00
	00 00		 mov	 DWORD PTR fs:0, ecx
  00383	59		 pop	 ecx
  00384	5f		 pop	 edi
  00385	5e		 pop	 esi
  00386	5b		 pop	 ebx
  00387	8b e5		 mov	 esp, ebp
  00389	5d		 pop	 ebp
  0038a	c3		 ret	 0
_TEXT	ENDS
;	COMDAT text$x
text$x	SEGMENT
__unwindfunclet$?PerformDistributeTable@CImmediateGroup@@IAEXXZ$0:
  00000	8d 4d dc	 lea	 ecx, DWORD PTR _FreeTableArray$[ebp]
  00003	e9 00 00 00 00	 jmp	 ??1?$CWHArray@PAUtagTableFrameInfo@@ABQAU1@@@UAE@XZ ; CWHArray<tagTableFrameInfo *,tagTableFrameInfo * const &>::~CWHArray<tagTableFrameInfo *,tagTableFrameInfo * const &>
__ehhandler$?PerformDistributeTable@CImmediateGroup@@IAEXXZ:
  00008	8b 54 24 08	 mov	 edx, DWORD PTR [esp+8]
  0000c	8d 42 0c	 lea	 eax, DWORD PTR [edx+12]
  0000f	8b 8a 6c ff ff
	ff		 mov	 ecx, DWORD PTR [edx-148]
  00015	33 c8		 xor	 ecx, eax
  00017	e8 00 00 00 00	 call	 @__security_check_cookie@4
  0001c	b8 00 00 00 00	 mov	 eax, OFFSET __ehfuncinfo$?PerformDistributeTable@CImmediateGroup@@IAEXXZ
  00021	e9 00 00 00 00	 jmp	 ___CxxFrameHandler3
text$x	ENDS
?PerformDistributeTable@CImmediateGroup@@IAEXXZ ENDP	; CImmediateGroup::PerformDistributeTable
; Function compile flags: /Odtp /ZI
; File g:\网狐\happygamewh\服务端\系统模块\服务器组件\比赛服务\immediategroup.cpp
;	COMDAT ?SendWaitMessage@CImmediateGroup@@IAEXPAUITableFrame@@G@Z
_TEXT	SEGMENT
tv234 = -160						; size = 4
tv216 = -160						; size = 4
tv202 = -160						; size = 4
tv88 = -160						; size = 4
_pTableUserItem$1 = -92					; size = 4
_j$2 = -88						; size = 2
_i$3 = -84						; size = 2
_pTableUserItem$4 = -80					; size = 4
_i$5 = -76						; size = 2
_WaitTip$ = -72						; size = 52
_i$6 = -20						; size = 2
_wPlayingTable$ = -16					; size = 2
_pITableFameInfo$ = -12					; size = 4
_this$ = -8						; size = 4
__$ArrayPad$ = -4					; size = 4
_pTableFrame$ = 8					; size = 4
_wChairID$ = 12						; size = 2
?SendWaitMessage@CImmediateGroup@@IAEXPAUITableFrame@@G@Z PROC ; CImmediateGroup::SendWaitMessage, COMDAT
; _this$ = ecx

; 551  : {

  00000	55		 push	 ebp
  00001	8b ec		 mov	 ebp, esp
  00003	81 ec a0 00 00
	00		 sub	 esp, 160		; 000000a0H
  00009	a1 00 00 00 00	 mov	 eax, DWORD PTR ___security_cookie
  0000e	33 c5		 xor	 eax, ebp
  00010	89 45 fc	 mov	 DWORD PTR __$ArrayPad$[ebp], eax
  00013	53		 push	 ebx
  00014	56		 push	 esi
  00015	57		 push	 edi
  00016	89 4d f8	 mov	 DWORD PTR _this$[ebp], ecx

; 552  : 	//状态校验
; 553  : 	if (m_cbMatchStatus==MatchStatus_Null || m_cbMatchStatus==MatchStatus_Signup)

  00019	8b 45 f8	 mov	 eax, DWORD PTR _this$[ebp]
  0001c	0f b6 48 18	 movzx	 ecx, BYTE PTR [eax+24]
  00020	85 c9		 test	 ecx, ecx
  00022	74 0c		 je	 SHORT $LN15@SendWaitMe
  00024	8b 45 f8	 mov	 eax, DWORD PTR _this$[ebp]
  00027	0f b6 48 18	 movzx	 ecx, BYTE PTR [eax+24]
  0002b	83 f9 01	 cmp	 ecx, 1
  0002e	75 05		 jne	 SHORT $LN14@SendWaitMe
$LN15@SendWaitMe:

; 554  : 	{
; 555  : 		return;

  00030	e9 49 03 00 00	 jmp	 $LN1@SendWaitMe
$LN14@SendWaitMe:

; 556  : 	}
; 557  : 
; 558  : 	//获取信息
; 559  : 	tagTableFrameInfo * pITableFameInfo=GetTableInterface(pTableFrame);

  00035	8b 45 08	 mov	 eax, DWORD PTR _pTableFrame$[ebp]
  00038	50		 push	 eax
  00039	8b 4d f8	 mov	 ecx, DWORD PTR _this$[ebp]
  0003c	e8 00 00 00 00	 call	 ?GetTableInterface@CImmediateGroup@@IAEPAUtagTableFrameInfo@@PAUITableFrame@@@Z ; CImmediateGroup::GetTableInterface
  00041	89 45 f4	 mov	 DWORD PTR _pITableFameInfo$[ebp], eax

; 560  : 	if (pITableFameInfo==NULL) return;

  00044	83 7d f4 00	 cmp	 DWORD PTR _pITableFameInfo$[ebp], 0
  00048	75 05		 jne	 SHORT $LN16@SendWaitMe
  0004a	e9 2f 03 00 00	 jmp	 $LN1@SendWaitMe
$LN16@SendWaitMe:

; 561  : 
; 562  : 	//变量定义
; 563  : 	WORD wPlayingTable=0;

  0004f	33 c0		 xor	 eax, eax
  00051	66 89 45 f0	 mov	 WORD PTR _wPlayingTable$[ebp], ax

; 564  : 	for(WORD i=0;i<m_MatchTableArray.GetCount();i++)

  00055	33 c0		 xor	 eax, eax
  00057	66 89 45 ec	 mov	 WORD PTR _i$6[ebp], ax
  0005b	eb 0c		 jmp	 SHORT $LN4@SendWaitMe
$LN2@SendWaitMe:
  0005d	66 8b 45 ec	 mov	 ax, WORD PTR _i$6[ebp]
  00061	66 83 c0 01	 add	 ax, 1
  00065	66 89 45 ec	 mov	 WORD PTR _i$6[ebp], ax
$LN4@SendWaitMe:
  00069	0f b7 75 ec	 movzx	 esi, WORD PTR _i$6[ebp]
  0006d	8b 4d f8	 mov	 ecx, DWORD PTR _this$[ebp]
  00070	83 c1 68	 add	 ecx, 104		; 00000068H
  00073	e8 00 00 00 00	 call	 ?GetCount@?$CWHArray@PAUtagTableFrameInfo@@ABQAU1@@@QBEHXZ ; CWHArray<tagTableFrameInfo *,tagTableFrameInfo * const &>::GetCount
  00078	3b f0		 cmp	 esi, eax
  0007a	7d 43		 jge	 SHORT $LN3@SendWaitMe

; 565  : 	{
; 566  : 		if(m_MatchTableArray[i]->pTableFrame->GetGameStatus()>=GAME_STATUS_PLAY)

  0007c	0f b7 45 ec	 movzx	 eax, WORD PTR _i$6[ebp]
  00080	50		 push	 eax
  00081	8b 4d f8	 mov	 ecx, DWORD PTR _this$[ebp]
  00084	83 c1 68	 add	 ecx, 104		; 00000068H
  00087	e8 00 00 00 00	 call	 ??A?$CWHArray@PAUtagTableFrameInfo@@ABQAU1@@@QAEAAPAUtagTableFrameInfo@@H@Z ; CWHArray<tagTableFrameInfo *,tagTableFrameInfo * const &>::operator[]
  0008c	8b 08		 mov	 ecx, DWORD PTR [eax]
  0008e	8b 11		 mov	 edx, DWORD PTR [ecx]
  00090	89 95 60 ff ff
	ff		 mov	 DWORD PTR tv88[ebp], edx
  00096	8b 85 60 ff ff
	ff		 mov	 eax, DWORD PTR tv88[ebp]
  0009c	8b 10		 mov	 edx, DWORD PTR [eax]
  0009e	8b 8d 60 ff ff
	ff		 mov	 ecx, DWORD PTR tv88[ebp]
  000a4	8b 42 6c	 mov	 eax, DWORD PTR [edx+108]
  000a7	ff d0		 call	 eax
  000a9	0f b6 c8	 movzx	 ecx, al
  000ac	83 f9 64	 cmp	 ecx, 100		; 00000064H
  000af	7c 0c		 jl	 SHORT $LN17@SendWaitMe

; 567  : 		{
; 568  : 			wPlayingTable++;

  000b1	66 8b 45 f0	 mov	 ax, WORD PTR _wPlayingTable$[ebp]
  000b5	66 83 c0 01	 add	 ax, 1
  000b9	66 89 45 f0	 mov	 WORD PTR _wPlayingTable$[ebp], ax
$LN17@SendWaitMe:

; 569  : 		}
; 570  : 	}

  000bd	eb 9e		 jmp	 SHORT $LN2@SendWaitMe
$LN3@SendWaitMe:

; 571  : 
; 572  : 	//变量定义
; 573  : 	CMD_GR_Match_Wait_Tip WaitTip;
; 574  : 	ZeroMemory(&WaitTip,sizeof(WaitTip));

  000bf	6a 34		 push	 52			; 00000034H
  000c1	6a 00		 push	 0
  000c3	8d 45 b8	 lea	 eax, DWORD PTR _WaitTip$[ebp]
  000c6	50		 push	 eax
  000c7	e8 00 00 00 00	 call	 _memset
  000cc	83 c4 0c	 add	 esp, 12			; 0000000cH

; 575  : 	WaitTip.wPlayingTable=wPlayingTable;

  000cf	66 8b 45 f0	 mov	 ax, WORD PTR _wPlayingTable$[ebp]
  000d3	66 89 45 ca	 mov	 WORD PTR _WaitTip$[ebp+18], ax

; 576  : 	WaitTip.wUserCount=(WORD)m_OnMatchUserMap.GetCount();

  000d7	8b 4d f8	 mov	 ecx, DWORD PTR _this$[ebp]
  000da	83 c1 38	 add	 ecx, 56			; 00000038H
  000dd	e8 00 00 00 00	 call	 ?GetCount@?$CMap@KKPAUIServerUserItem@@PAU1@@@QBEHXZ ; CMap<unsigned long,unsigned long,IServerUserItem *,IServerUserItem *>::GetCount
  000e2	66 89 45 c4	 mov	 WORD PTR _WaitTip$[ebp+12], ax

; 577  : 	WaitTip.wCurGameCount=pITableFameInfo->wPlayCount;

  000e6	8b 45 f4	 mov	 eax, DWORD PTR _pITableFameInfo$[ebp]
  000e9	66 8b 48 10	 mov	 cx, WORD PTR [eax+16]
  000ed	66 89 4d c6	 mov	 WORD PTR _WaitTip$[ebp+14], cx

; 578  : 	WaitTip.wGameCount=m_pImmediateMatch->wPlayCount;

  000f1	8b 45 f8	 mov	 eax, DWORD PTR _this$[ebp]
  000f4	8b 48 34	 mov	 ecx, DWORD PTR [eax+52]
  000f7	66 8b 51 16	 mov	 dx, WORD PTR [ecx+22]
  000fb	66 89 55 c8	 mov	 WORD PTR _WaitTip$[ebp+16], dx

; 579  : 
; 580  : 	lstrcpyn(WaitTip.szMatchName, m_pMatchOption->szMatchName,LEN_SERVER);

  000ff	6a 20		 push	 32			; 00000020H
  00101	8b 45 f8	 mov	 eax, DWORD PTR _this$[ebp]
  00104	8b 48 30	 mov	 ecx, DWORD PTR [eax+48]
  00107	83 c1 12	 add	 ecx, 18			; 00000012H
  0010a	51		 push	 ecx
  0010b	8d 55 cc	 lea	 edx, DWORD PTR _WaitTip$[ebp+20]
  0010e	52		 push	 edx
  0010f	ff 15 00 00 00
	00		 call	 DWORD PTR __imp__lstrcpynA@12

; 581  : 
; 582  : 	//发送比赛信息给本桌的玩家
; 583  : 	for(WORD i=0;i<m_wChairCount;i++)

  00115	33 c0		 xor	 eax, eax
  00117	66 89 45 b4	 mov	 WORD PTR _i$5[ebp], ax
  0011b	eb 0c		 jmp	 SHORT $LN7@SendWaitMe
$LN5@SendWaitMe:
  0011d	66 8b 45 b4	 mov	 ax, WORD PTR _i$5[ebp]
  00121	66 83 c0 01	 add	 ax, 1
  00125	66 89 45 b4	 mov	 WORD PTR _i$5[ebp], ax
$LN7@SendWaitMe:
  00129	0f b7 45 b4	 movzx	 eax, WORD PTR _i$5[ebp]
  0012d	0f b7 0d 00 00
	00 00		 movzx	 ecx, WORD PTR ?m_wChairCount@CImmediateGroup@@1GA ; CImmediateGroup::m_wChairCount
  00134	3b c1		 cmp	 eax, ecx
  00136	0f 8d a8 00 00
	00		 jge	 $LN6@SendWaitMe

; 584  : 	{
; 585  : 		if(wChairID!=INVALID_CHAIR && wChairID!=i) continue;

  0013c	0f b7 45 0c	 movzx	 eax, WORD PTR _wChairID$[ebp]
  00140	3d ff ff 00 00	 cmp	 eax, 65535		; 0000ffffH
  00145	74 0e		 je	 SHORT $LN18@SendWaitMe
  00147	0f b7 45 0c	 movzx	 eax, WORD PTR _wChairID$[ebp]
  0014b	0f b7 4d b4	 movzx	 ecx, WORD PTR _i$5[ebp]
  0014f	3b c1		 cmp	 eax, ecx
  00151	74 02		 je	 SHORT $LN18@SendWaitMe
  00153	eb c8		 jmp	 SHORT $LN5@SendWaitMe
$LN18@SendWaitMe:

; 586  : 		IServerUserItem *pTableUserItem=pTableFrame->GetTableUserItem(i);

  00155	0f b7 45 b4	 movzx	 eax, WORD PTR _i$5[ebp]
  00159	50		 push	 eax
  0015a	8b 4d 08	 mov	 ecx, DWORD PTR _pTableFrame$[ebp]
  0015d	8b 11		 mov	 edx, DWORD PTR [ecx]
  0015f	8b 4d 08	 mov	 ecx, DWORD PTR _pTableFrame$[ebp]
  00162	8b 82 9c 00 00
	00		 mov	 eax, DWORD PTR [edx+156]
  00168	ff d0		 call	 eax
  0016a	89 45 b0	 mov	 DWORD PTR _pTableUserItem$4[ebp], eax

; 587  : 		if(pTableUserItem==NULL) continue;

  0016d	83 7d b0 00	 cmp	 DWORD PTR _pTableUserItem$4[ebp], 0
  00171	75 02		 jne	 SHORT $LN19@SendWaitMe
  00173	eb a8		 jmp	 SHORT $LN5@SendWaitMe
$LN19@SendWaitMe:

; 588  : 		WaitTip.wCurTableRank=GetUserRank(pTableUserItem,pTableFrame);

  00175	8b 45 08	 mov	 eax, DWORD PTR _pTableFrame$[ebp]
  00178	50		 push	 eax
  00179	8b 4d b0	 mov	 ecx, DWORD PTR _pTableUserItem$4[ebp]
  0017c	51		 push	 ecx
  0017d	8b 4d f8	 mov	 ecx, DWORD PTR _this$[ebp]
  00180	e8 00 00 00 00	 call	 ?GetUserRank@CImmediateGroup@@IAEGPAUIServerUserItem@@PAUITableFrame@@@Z ; CImmediateGroup::GetUserRank
  00185	66 89 45 c2	 mov	 WORD PTR _WaitTip$[ebp+10], ax

; 589  : 		if(WaitTip.wCurTableRank==INVALID_WORD) continue;

  00189	0f b7 45 c2	 movzx	 eax, WORD PTR _WaitTip$[ebp+10]
  0018d	3d ff ff 00 00	 cmp	 eax, 65535		; 0000ffffH
  00192	75 02		 jne	 SHORT $LN20@SendWaitMe
  00194	eb 87		 jmp	 SHORT $LN5@SendWaitMe
$LN20@SendWaitMe:

; 590  : 
; 591  : 
; 592  : 		WaitTip.wRank=GetUserRank(pTableUserItem);

  00196	6a 00		 push	 0
  00198	8b 45 b0	 mov	 eax, DWORD PTR _pTableUserItem$4[ebp]
  0019b	50		 push	 eax
  0019c	8b 4d f8	 mov	 ecx, DWORD PTR _this$[ebp]
  0019f	e8 00 00 00 00	 call	 ?GetUserRank@CImmediateGroup@@IAEGPAUIServerUserItem@@PAUITableFrame@@@Z ; CImmediateGroup::GetUserRank
  001a4	66 89 45 c0	 mov	 WORD PTR _WaitTip$[ebp+8], ax

; 593  : 		WaitTip.lScore=pTableUserItem->GetUserScore();

  001a8	8b 45 b0	 mov	 eax, DWORD PTR _pTableUserItem$4[ebp]
  001ab	8b 10		 mov	 edx, DWORD PTR [eax]
  001ad	8b 4d b0	 mov	 ecx, DWORD PTR _pTableUserItem$4[ebp]
  001b0	8b 82 88 00 00
	00		 mov	 eax, DWORD PTR [edx+136]
  001b6	ff d0		 call	 eax
  001b8	89 45 b8	 mov	 DWORD PTR _WaitTip$[ebp], eax
  001bb	89 55 bc	 mov	 DWORD PTR _WaitTip$[ebp+4], edx

; 594  : 
; 595  : 		m_pMatchSink->SendData(pTableUserItem,MDM_GF_FRAME,SUB_GR_MATCH_WAIT_TIP,&WaitTip,sizeof(WaitTip));

  001be	6a 34		 push	 52			; 00000034H
  001c0	8d 45 b8	 lea	 eax, DWORD PTR _WaitTip$[ebp]
  001c3	50		 push	 eax
  001c4	6a 08		 push	 8
  001c6	6a 64		 push	 100			; 00000064H
  001c8	8b 4d b0	 mov	 ecx, DWORD PTR _pTableUserItem$4[ebp]
  001cb	51		 push	 ecx
  001cc	8b 55 f8	 mov	 edx, DWORD PTR _this$[ebp]
  001cf	8b 42 2c	 mov	 eax, DWORD PTR [edx+44]
  001d2	8b 4d f8	 mov	 ecx, DWORD PTR _this$[ebp]
  001d5	8b 10		 mov	 edx, DWORD PTR [eax]
  001d7	8b 49 2c	 mov	 ecx, DWORD PTR [ecx+44]
  001da	8b 42 2c	 mov	 eax, DWORD PTR [edx+44]
  001dd	ff d0		 call	 eax

; 596  : 	}

  001df	e9 39 ff ff ff	 jmp	 $LN5@SendWaitMe
$LN6@SendWaitMe:

; 597  : 
; 598  : 	//发送比赛信息给其他桌的玩家
; 599  : 	for(WORD i=0;i<m_MatchTableArray.GetCount();i++)

  001e4	33 c0		 xor	 eax, eax
  001e6	66 89 45 ac	 mov	 WORD PTR _i$3[ebp], ax
  001ea	eb 0c		 jmp	 SHORT $LN10@SendWaitMe
$LN8@SendWaitMe:
  001ec	66 8b 45 ac	 mov	 ax, WORD PTR _i$3[ebp]
  001f0	66 83 c0 01	 add	 ax, 1
  001f4	66 89 45 ac	 mov	 WORD PTR _i$3[ebp], ax
$LN10@SendWaitMe:
  001f8	0f b7 75 ac	 movzx	 esi, WORD PTR _i$3[ebp]
  001fc	8b 4d f8	 mov	 ecx, DWORD PTR _this$[ebp]
  001ff	83 c1 68	 add	 ecx, 104		; 00000068H
  00202	e8 00 00 00 00	 call	 ?GetCount@?$CWHArray@PAUtagTableFrameInfo@@ABQAU1@@@QBEHXZ ; CWHArray<tagTableFrameInfo *,tagTableFrameInfo * const &>::GetCount
  00207	3b f0		 cmp	 esi, eax
  00209	0f 8d 6f 01 00
	00		 jge	 $LN1@SendWaitMe

; 600  : 	{
; 601  : 		if(pTableFrame->GetTableID()==m_MatchTableArray[i]->pTableFrame->GetTableID())continue;

  0020f	0f b7 45 ac	 movzx	 eax, WORD PTR _i$3[ebp]
  00213	50		 push	 eax
  00214	8b 4d f8	 mov	 ecx, DWORD PTR _this$[ebp]
  00217	83 c1 68	 add	 ecx, 104		; 00000068H
  0021a	e8 00 00 00 00	 call	 ??A?$CWHArray@PAUtagTableFrameInfo@@ABQAU1@@@QAEAAPAUtagTableFrameInfo@@H@Z ; CWHArray<tagTableFrameInfo *,tagTableFrameInfo * const &>::operator[]
  0021f	8b 08		 mov	 ecx, DWORD PTR [eax]
  00221	8b 11		 mov	 edx, DWORD PTR [ecx]
  00223	89 95 60 ff ff
	ff		 mov	 DWORD PTR tv202[ebp], edx
  00229	8b 85 60 ff ff
	ff		 mov	 eax, DWORD PTR tv202[ebp]
  0022f	8b 10		 mov	 edx, DWORD PTR [eax]
  00231	8b 8d 60 ff ff
	ff		 mov	 ecx, DWORD PTR tv202[ebp]
  00237	8b 42 08	 mov	 eax, DWORD PTR [edx+8]
  0023a	ff d0		 call	 eax
  0023c	0f b7 f0	 movzx	 esi, ax
  0023f	8b 4d 08	 mov	 ecx, DWORD PTR _pTableFrame$[ebp]
  00242	8b 11		 mov	 edx, DWORD PTR [ecx]
  00244	8b 4d 08	 mov	 ecx, DWORD PTR _pTableFrame$[ebp]
  00247	8b 42 08	 mov	 eax, DWORD PTR [edx+8]
  0024a	ff d0		 call	 eax
  0024c	0f b7 c8	 movzx	 ecx, ax
  0024f	3b ce		 cmp	 ecx, esi
  00251	75 02		 jne	 SHORT $LN21@SendWaitMe
  00253	eb 97		 jmp	 SHORT $LN8@SendWaitMe
$LN21@SendWaitMe:

; 602  : 		if(m_MatchTableArray[i]->pTableFrame->GetGameStatus()>=GAME_STATUS_PLAY) continue; 

  00255	0f b7 45 ac	 movzx	 eax, WORD PTR _i$3[ebp]
  00259	50		 push	 eax
  0025a	8b 4d f8	 mov	 ecx, DWORD PTR _this$[ebp]
  0025d	83 c1 68	 add	 ecx, 104		; 00000068H
  00260	e8 00 00 00 00	 call	 ??A?$CWHArray@PAUtagTableFrameInfo@@ABQAU1@@@QAEAAPAUtagTableFrameInfo@@H@Z ; CWHArray<tagTableFrameInfo *,tagTableFrameInfo * const &>::operator[]
  00265	8b 08		 mov	 ecx, DWORD PTR [eax]
  00267	8b 11		 mov	 edx, DWORD PTR [ecx]
  00269	89 95 60 ff ff
	ff		 mov	 DWORD PTR tv216[ebp], edx
  0026f	8b 85 60 ff ff
	ff		 mov	 eax, DWORD PTR tv216[ebp]
  00275	8b 10		 mov	 edx, DWORD PTR [eax]
  00277	8b 8d 60 ff ff
	ff		 mov	 ecx, DWORD PTR tv216[ebp]
  0027d	8b 42 6c	 mov	 eax, DWORD PTR [edx+108]
  00280	ff d0		 call	 eax
  00282	0f b6 c8	 movzx	 ecx, al
  00285	83 f9 64	 cmp	 ecx, 100		; 00000064H
  00288	7c 05		 jl	 SHORT $LN22@SendWaitMe
  0028a	e9 5d ff ff ff	 jmp	 $LN8@SendWaitMe
$LN22@SendWaitMe:

; 603  : 		for(WORD j=0;j<m_wChairCount;j++)

  0028f	33 c0		 xor	 eax, eax
  00291	66 89 45 a8	 mov	 WORD PTR _j$2[ebp], ax
  00295	eb 0c		 jmp	 SHORT $LN13@SendWaitMe
$LN11@SendWaitMe:
  00297	66 8b 45 a8	 mov	 ax, WORD PTR _j$2[ebp]
  0029b	66 83 c0 01	 add	 ax, 1
  0029f	66 89 45 a8	 mov	 WORD PTR _j$2[ebp], ax
$LN13@SendWaitMe:
  002a3	0f b7 45 a8	 movzx	 eax, WORD PTR _j$2[ebp]
  002a7	0f b7 0d 00 00
	00 00		 movzx	 ecx, WORD PTR ?m_wChairCount@CImmediateGroup@@1GA ; CImmediateGroup::m_wChairCount
  002ae	3b c1		 cmp	 eax, ecx
  002b0	0f 8d c3 00 00
	00		 jge	 $LN12@SendWaitMe

; 604  : 		{
; 605  : 			IServerUserItem *pTableUserItem=m_MatchTableArray[i]->pTableFrame->GetTableUserItem(j);

  002b6	0f b7 45 ac	 movzx	 eax, WORD PTR _i$3[ebp]
  002ba	50		 push	 eax
  002bb	8b 4d f8	 mov	 ecx, DWORD PTR _this$[ebp]
  002be	83 c1 68	 add	 ecx, 104		; 00000068H
  002c1	e8 00 00 00 00	 call	 ??A?$CWHArray@PAUtagTableFrameInfo@@ABQAU1@@@QAEAAPAUtagTableFrameInfo@@H@Z ; CWHArray<tagTableFrameInfo *,tagTableFrameInfo * const &>::operator[]
  002c6	8b 08		 mov	 ecx, DWORD PTR [eax]
  002c8	8b 11		 mov	 edx, DWORD PTR [ecx]
  002ca	89 95 60 ff ff
	ff		 mov	 DWORD PTR tv234[ebp], edx
  002d0	0f b7 45 a8	 movzx	 eax, WORD PTR _j$2[ebp]
  002d4	50		 push	 eax
  002d5	8b 8d 60 ff ff
	ff		 mov	 ecx, DWORD PTR tv234[ebp]
  002db	8b 11		 mov	 edx, DWORD PTR [ecx]
  002dd	8b 8d 60 ff ff
	ff		 mov	 ecx, DWORD PTR tv234[ebp]
  002e3	8b 82 9c 00 00
	00		 mov	 eax, DWORD PTR [edx+156]
  002e9	ff d0		 call	 eax
  002eb	89 45 a4	 mov	 DWORD PTR _pTableUserItem$1[ebp], eax

; 606  : 			if(pTableUserItem==NULL) continue;

  002ee	83 7d a4 00	 cmp	 DWORD PTR _pTableUserItem$1[ebp], 0
  002f2	75 02		 jne	 SHORT $LN23@SendWaitMe
  002f4	eb a1		 jmp	 SHORT $LN11@SendWaitMe
$LN23@SendWaitMe:

; 607  : 			WaitTip.wCurTableRank=GetUserRank(pTableUserItem,m_MatchTableArray[i]->pTableFrame);

  002f6	0f b7 45 ac	 movzx	 eax, WORD PTR _i$3[ebp]
  002fa	50		 push	 eax
  002fb	8b 4d f8	 mov	 ecx, DWORD PTR _this$[ebp]
  002fe	83 c1 68	 add	 ecx, 104		; 00000068H
  00301	e8 00 00 00 00	 call	 ??A?$CWHArray@PAUtagTableFrameInfo@@ABQAU1@@@QAEAAPAUtagTableFrameInfo@@H@Z ; CWHArray<tagTableFrameInfo *,tagTableFrameInfo * const &>::operator[]
  00306	8b 08		 mov	 ecx, DWORD PTR [eax]
  00308	8b 11		 mov	 edx, DWORD PTR [ecx]
  0030a	52		 push	 edx
  0030b	8b 45 a4	 mov	 eax, DWORD PTR _pTableUserItem$1[ebp]
  0030e	50		 push	 eax
  0030f	8b 4d f8	 mov	 ecx, DWORD PTR _this$[ebp]
  00312	e8 00 00 00 00	 call	 ?GetUserRank@CImmediateGroup@@IAEGPAUIServerUserItem@@PAUITableFrame@@@Z ; CImmediateGroup::GetUserRank
  00317	66 89 45 c2	 mov	 WORD PTR _WaitTip$[ebp+10], ax

; 608  : 			if(WaitTip.wCurTableRank==INVALID_WORD) continue;

  0031b	0f b7 45 c2	 movzx	 eax, WORD PTR _WaitTip$[ebp+10]
  0031f	3d ff ff 00 00	 cmp	 eax, 65535		; 0000ffffH
  00324	75 05		 jne	 SHORT $LN24@SendWaitMe
  00326	e9 6c ff ff ff	 jmp	 $LN11@SendWaitMe
$LN24@SendWaitMe:

; 609  : 
; 610  : 			WaitTip.wRank=GetUserRank(pTableUserItem);

  0032b	6a 00		 push	 0
  0032d	8b 45 a4	 mov	 eax, DWORD PTR _pTableUserItem$1[ebp]
  00330	50		 push	 eax
  00331	8b 4d f8	 mov	 ecx, DWORD PTR _this$[ebp]
  00334	e8 00 00 00 00	 call	 ?GetUserRank@CImmediateGroup@@IAEGPAUIServerUserItem@@PAUITableFrame@@@Z ; CImmediateGroup::GetUserRank
  00339	66 89 45 c0	 mov	 WORD PTR _WaitTip$[ebp+8], ax

; 611  : 			WaitTip.lScore=pTableUserItem->GetUserScore();

  0033d	8b 45 a4	 mov	 eax, DWORD PTR _pTableUserItem$1[ebp]
  00340	8b 10		 mov	 edx, DWORD PTR [eax]
  00342	8b 4d a4	 mov	 ecx, DWORD PTR _pTableUserItem$1[ebp]
  00345	8b 82 88 00 00
	00		 mov	 eax, DWORD PTR [edx+136]
  0034b	ff d0		 call	 eax
  0034d	89 45 b8	 mov	 DWORD PTR _WaitTip$[ebp], eax
  00350	89 55 bc	 mov	 DWORD PTR _WaitTip$[ebp+4], edx

; 612  : 
; 613  : 			m_pMatchSink->SendData(pTableUserItem,MDM_GF_FRAME,SUB_GR_MATCH_WAIT_TIP,&WaitTip,sizeof(WaitTip));

  00353	6a 34		 push	 52			; 00000034H
  00355	8d 45 b8	 lea	 eax, DWORD PTR _WaitTip$[ebp]
  00358	50		 push	 eax
  00359	6a 08		 push	 8
  0035b	6a 64		 push	 100			; 00000064H
  0035d	8b 4d a4	 mov	 ecx, DWORD PTR _pTableUserItem$1[ebp]
  00360	51		 push	 ecx
  00361	8b 55 f8	 mov	 edx, DWORD PTR _this$[ebp]
  00364	8b 42 2c	 mov	 eax, DWORD PTR [edx+44]
  00367	8b 4d f8	 mov	 ecx, DWORD PTR _this$[ebp]
  0036a	8b 10		 mov	 edx, DWORD PTR [eax]
  0036c	8b 49 2c	 mov	 ecx, DWORD PTR [ecx+44]
  0036f	8b 42 2c	 mov	 eax, DWORD PTR [edx+44]
  00372	ff d0		 call	 eax

; 614  : 		}

  00374	e9 1e ff ff ff	 jmp	 $LN11@SendWaitMe
$LN12@SendWaitMe:

; 615  : 	}

  00379	e9 6e fe ff ff	 jmp	 $LN8@SendWaitMe
$LN1@SendWaitMe:

; 616  : }

  0037e	5f		 pop	 edi
  0037f	5e		 pop	 esi
  00380	5b		 pop	 ebx
  00381	8b 4d fc	 mov	 ecx, DWORD PTR __$ArrayPad$[ebp]
  00384	33 cd		 xor	 ecx, ebp
  00386	e8 00 00 00 00	 call	 @__security_check_cookie@4
  0038b	8b e5		 mov	 esp, ebp
  0038d	5d		 pop	 ebp
  0038e	c2 08 00	 ret	 8
?SendWaitMessage@CImmediateGroup@@IAEXPAUITableFrame@@G@Z ENDP ; CImmediateGroup::SendWaitMessage
_TEXT	ENDS
; Function compile flags: /Odtp /ZI
; File g:\网狐\happygamewh\服务端\系统模块\服务器组件\比赛服务\immediategroup.cpp
;	COMDAT ?SendTableMatchInfo@CImmediateGroup@@IAEXPAUITableFrame@@G@Z
_TEXT	SEGMENT
_pIServerUserItem$1 = -540				; size = 4
_i$2 = -536						; size = 2
_MatchInfo$3 = -532					; size = 258
_szMsg$ = -272						; size = 256
_wChairCount$ = -16					; size = 2
_pTableFrameInfo$ = -12					; size = 4
_this$ = -8						; size = 4
__$ArrayPad$ = -4					; size = 4
_pITableFrame$ = 8					; size = 4
_wChairID$ = 12						; size = 2
?SendTableMatchInfo@CImmediateGroup@@IAEXPAUITableFrame@@G@Z PROC ; CImmediateGroup::SendTableMatchInfo, COMDAT
; _this$ = ecx

; 904  : {

  00000	55		 push	 ebp
  00001	8b ec		 mov	 ebp, esp
  00003	81 ec 9c 02 00
	00		 sub	 esp, 668		; 0000029cH
  00009	a1 00 00 00 00	 mov	 eax, DWORD PTR ___security_cookie
  0000e	33 c5		 xor	 eax, ebp
  00010	89 45 fc	 mov	 DWORD PTR __$ArrayPad$[ebp], eax
  00013	53		 push	 ebx
  00014	56		 push	 esi
  00015	57		 push	 edi
  00016	89 4d f8	 mov	 DWORD PTR _this$[ebp], ecx

; 905  : 	//验证参数
; 906  : 	ASSERT(pITableFrame!=NULL);

  00019	83 7d 08 00	 cmp	 DWORD PTR _pITableFrame$[ebp], 0
  0001d	75 18		 jne	 SHORT $LN12@SendTableM
  0001f	a1 00 00 00 00	 mov	 eax, DWORD PTR ?__LINE__Var@?0??SendTableMatchInfo@CImmediateGroup@@IAEXPAUITableFrame@@G@Z@4JA
  00024	83 c0 02	 add	 eax, 2
  00027	50		 push	 eax
  00028	68 00 00 00 00	 push	 OFFSET ??_C@_0EL@ONMMFGFJ@g?3?2?M?x?$LK?$PM?2happygamewh?2?$LH?$PO?N?q?$LG?K?2?O?$LF?M?$LD@
  0002d	e8 00 00 00 00	 call	 ?AfxAssertFailedLine@@YGHPBDH@Z ; AfxAssertFailedLine
  00032	85 c0		 test	 eax, eax
  00034	74 01		 je	 SHORT $LN12@SendTableM
  00036	cc		 int	 3
$LN12@SendTableM:

; 907  : 	if (pITableFrame==NULL) return;

  00037	83 7d 08 00	 cmp	 DWORD PTR _pITableFrame$[ebp], 0
  0003b	75 05		 jne	 SHORT $LN5@SendTableM
  0003d	e9 d7 01 00 00	 jmp	 $LN1@SendTableM
$LN5@SendTableM:

; 908  : 
; 909  : 	tagTableFrameInfo *pTableFrameInfo=GetTableInterface(pITableFrame);

  00042	8b 45 08	 mov	 eax, DWORD PTR _pITableFrame$[ebp]
  00045	50		 push	 eax
  00046	8b 4d f8	 mov	 ecx, DWORD PTR _this$[ebp]
  00049	e8 00 00 00 00	 call	 ?GetTableInterface@CImmediateGroup@@IAEPAUtagTableFrameInfo@@PAUITableFrame@@@Z ; CImmediateGroup::GetTableInterface
  0004e	89 45 f4	 mov	 DWORD PTR _pTableFrameInfo$[ebp], eax

; 910  : 	if (pTableFrameInfo==NULL) return;

  00051	83 7d f4 00	 cmp	 DWORD PTR _pTableFrameInfo$[ebp], 0
  00055	75 05		 jne	 SHORT $LN6@SendTableM
  00057	e9 bd 01 00 00	 jmp	 $LN1@SendTableM
$LN6@SendTableM:

; 911  : 
; 912  : 	//变量定义
; 913  : 	WORD wChairCount=pITableFrame->GetChairCount();

  0005c	8b 45 08	 mov	 eax, DWORD PTR _pITableFrame$[ebp]
  0005f	8b 10		 mov	 edx, DWORD PTR [eax]
  00061	8b 4d 08	 mov	 ecx, DWORD PTR _pITableFrame$[ebp]
  00064	8b 42 0c	 mov	 eax, DWORD PTR [edx+12]
  00067	ff d0		 call	 eax
  00069	66 89 45 f0	 mov	 WORD PTR _wChairCount$[ebp], ax

; 914  : 	TCHAR szMsg[256]=TEXT("");

  0006d	a0 00 00 00 00	 mov	 al, BYTE PTR ??_C@_00CNPNBAHC@@
  00072	88 85 f0 fe ff
	ff		 mov	 BYTE PTR _szMsg$[ebp], al
  00078	68 ff 00 00 00	 push	 255			; 000000ffH
  0007d	6a 00		 push	 0
  0007f	8d 85 f1 fe ff
	ff		 lea	 eax, DWORD PTR _szMsg$[ebp+1]
  00085	50		 push	 eax
  00086	e8 00 00 00 00	 call	 _memset
  0008b	83 c4 0c	 add	 esp, 12			; 0000000cH

; 915  : 
; 916  : 	if(m_cbMatchStatus==MatchStatus_Playing)

  0008e	8b 45 f8	 mov	 eax, DWORD PTR _this$[ebp]
  00091	0f b6 48 18	 movzx	 ecx, BYTE PTR [eax+24]
  00095	83 f9 03	 cmp	 ecx, 3
  00098	0f 85 7b 01 00
	00		 jne	 $LN1@SendTableM

; 917  : 	{
; 918  : 		//构造数据
; 919  : 		CMD_GR_Match_Info MatchInfo;
; 920  : 		ZeroMemory(&MatchInfo,sizeof(MatchInfo));

  0009e	68 02 01 00 00	 push	 258			; 00000102H
  000a3	6a 00		 push	 0
  000a5	8d 85 ec fd ff
	ff		 lea	 eax, DWORD PTR _MatchInfo$3[ebp]
  000ab	50		 push	 eax
  000ac	e8 00 00 00 00	 call	 _memset
  000b1	83 c4 0c	 add	 esp, 12			; 0000000cH

; 921  : 		_sntprintf_s(MatchInfo.szTitle[0], CountArray(MatchInfo.szTitle[0]),TEXT("积分方式：累计积分"));

  000b4	68 00 00 00 00	 push	 OFFSET ??_C@_0BD@KNNGNBNI@?$LL?$PN?$LH?V?$LH?$LN?J?$LN?$KD?$LK?$MA?$NL?$LM?F?$LL?$PN?$LH?V@
  000b9	6a 40		 push	 64			; 00000040H
  000bb	b8 40 00 00 00	 mov	 eax, 64			; 00000040H
  000c0	6b c8 00	 imul	 ecx, eax, 0
  000c3	8d 94 0d ec fd
	ff ff		 lea	 edx, DWORD PTR _MatchInfo$3[ebp+ecx]
  000ca	52		 push	 edx
  000cb	e8 00 00 00 00	 call	 ??$_snprintf_s@$0EA@@@YAHAAY0EA@DIPBDZZ ; _snprintf_s<64>
  000d0	83 c4 0c	 add	 esp, 12			; 0000000cH

; 922  : 		_sntprintf_s(MatchInfo.szTitle[1], CountArray(MatchInfo.szTitle[1]),TEXT("游戏基数：%d"), m_lCurBase);

  000d3	8b 45 f8	 mov	 eax, DWORD PTR _this$[ebp]
  000d6	8b 48 0c	 mov	 ecx, DWORD PTR [eax+12]
  000d9	51		 push	 ecx
  000da	8b 50 08	 mov	 edx, DWORD PTR [eax+8]
  000dd	52		 push	 edx
  000de	68 00 00 00 00	 push	 OFFSET ??_C@_0N@JCGEHOBO@?S?N?O?$LH?$LL?y?J?$PN?$KD?$LK?$CFd@
  000e3	6a 40		 push	 64			; 00000040H
  000e5	b8 40 00 00 00	 mov	 eax, 64			; 00000040H
  000ea	c1 e0 00	 shl	 eax, 0
  000ed	8d 8c 05 ec fd
	ff ff		 lea	 ecx, DWORD PTR _MatchInfo$3[ebp+eax]
  000f4	51		 push	 ecx
  000f5	e8 00 00 00 00	 call	 ??$_snprintf_s@$0EA@@@YAHAAY0EA@DIPBDZZ ; _snprintf_s<64>
  000fa	83 c4 14	 add	 esp, 20			; 00000014H

; 923  : 		_sntprintf_s(MatchInfo.szTitle[2], CountArray(MatchInfo.szTitle[2]),TEXT("局制名称：定局排名"));

  000fd	68 00 00 00 00	 push	 OFFSET ??_C@_0BD@EJMLEOOM@?$LO?V?V?F?C?$PL?$LD?F?$KD?$LK?$LG?$KI?$LO?V?E?E?C?$PL@
  00102	6a 40		 push	 64			; 00000040H
  00104	b8 40 00 00 00	 mov	 eax, 64			; 00000040H
  00109	d1 e0		 shl	 eax, 1
  0010b	8d 8c 05 ec fd
	ff ff		 lea	 ecx, DWORD PTR _MatchInfo$3[ebp+eax]
  00112	51		 push	 ecx
  00113	e8 00 00 00 00	 call	 ??$_snprintf_s@$0EA@@@YAHAAY0EA@DIPBDZZ ; _snprintf_s<64>
  00118	83 c4 0c	 add	 esp, 12			; 0000000cH

; 924  : 		_sntprintf_s(MatchInfo.szTitle[3], CountArray(MatchInfo.szTitle[3]),TEXT("需要完成：%d局比赛"), m_pImmediateMatch->wPlayCount);

  0011b	8b 45 f8	 mov	 eax, DWORD PTR _this$[ebp]
  0011e	8b 48 34	 mov	 ecx, DWORD PTR [eax+52]
  00121	0f b7 51 16	 movzx	 edx, WORD PTR [ecx+22]
  00125	52		 push	 edx
  00126	68 00 00 00 00	 push	 OFFSET ??_C@_0BD@DGPONMAO@?P?h?R?$KK?M?j?$LD?I?$KD?$LK?$CFd?$LO?V?$LB?H?H?$PM@
  0012b	6a 40		 push	 64			; 00000040H
  0012d	b8 40 00 00 00	 mov	 eax, 64			; 00000040H
  00132	6b c8 03	 imul	 ecx, eax, 3
  00135	8d 94 0d ec fd
	ff ff		 lea	 edx, DWORD PTR _MatchInfo$3[ebp+ecx]
  0013c	52		 push	 edx
  0013d	e8 00 00 00 00	 call	 ??$_snprintf_s@$0EA@@@YAHAAY0EA@DIPBDZZ ; _snprintf_s<64>
  00142	83 c4 10	 add	 esp, 16			; 00000010H

; 925  : 		MatchInfo.wGameCount=pTableFrameInfo->wPlayCount;

  00145	8b 45 f4	 mov	 eax, DWORD PTR _pTableFrameInfo$[ebp]
  00148	66 8b 48 10	 mov	 cx, WORD PTR [eax+16]
  0014c	66 89 8d ec fe
	ff ff		 mov	 WORD PTR _MatchInfo$3[ebp+256], cx

; 926  : 		
; 927  : 		//wChairID为INVALID_CHAIR发给本桌所有玩家，否则只发给指定玩家
; 928  : 		for(WORD i=0; i<wChairCount; i++)

  00153	33 c0		 xor	 eax, eax
  00155	66 89 85 e8 fd
	ff ff		 mov	 WORD PTR _i$2[ebp], ax
  0015c	eb 12		 jmp	 SHORT $LN4@SendTableM
$LN2@SendTableM:
  0015e	66 8b 85 e8 fd
	ff ff		 mov	 ax, WORD PTR _i$2[ebp]
  00165	66 83 c0 01	 add	 ax, 1
  00169	66 89 85 e8 fd
	ff ff		 mov	 WORD PTR _i$2[ebp], ax
$LN4@SendTableM:
  00170	0f b7 85 e8 fd
	ff ff		 movzx	 eax, WORD PTR _i$2[ebp]
  00177	0f b7 4d f0	 movzx	 ecx, WORD PTR _wChairCount$[ebp]
  0017b	3b c1		 cmp	 eax, ecx
  0017d	7d 72		 jge	 SHORT $LN3@SendTableM

; 929  : 		{
; 930  : 			//获取用户
; 931  : 			if(wChairID!=INVALID_CHAIR && wChairID!=i) continue;

  0017f	0f b7 45 0c	 movzx	 eax, WORD PTR _wChairID$[ebp]
  00183	3d ff ff 00 00	 cmp	 eax, 65535		; 0000ffffH
  00188	74 11		 je	 SHORT $LN8@SendTableM
  0018a	0f b7 45 0c	 movzx	 eax, WORD PTR _wChairID$[ebp]
  0018e	0f b7 8d e8 fd
	ff ff		 movzx	 ecx, WORD PTR _i$2[ebp]
  00195	3b c1		 cmp	 eax, ecx
  00197	74 02		 je	 SHORT $LN8@SendTableM
  00199	eb c3		 jmp	 SHORT $LN2@SendTableM
$LN8@SendTableM:

; 932  : 			IServerUserItem *pIServerUserItem=pITableFrame->GetTableUserItem(i);

  0019b	0f b7 85 e8 fd
	ff ff		 movzx	 eax, WORD PTR _i$2[ebp]
  001a2	50		 push	 eax
  001a3	8b 4d 08	 mov	 ecx, DWORD PTR _pITableFrame$[ebp]
  001a6	8b 11		 mov	 edx, DWORD PTR [ecx]
  001a8	8b 4d 08	 mov	 ecx, DWORD PTR _pITableFrame$[ebp]
  001ab	8b 82 9c 00 00
	00		 mov	 eax, DWORD PTR [edx+156]
  001b1	ff d0		 call	 eax
  001b3	89 85 e4 fd ff
	ff		 mov	 DWORD PTR _pIServerUserItem$1[ebp], eax

; 933  : 			if(pIServerUserItem==NULL) continue;

  001b9	83 bd e4 fd ff
	ff 00		 cmp	 DWORD PTR _pIServerUserItem$1[ebp], 0
  001c0	75 02		 jne	 SHORT $LN9@SendTableM
  001c2	eb 9a		 jmp	 SHORT $LN2@SendTableM
$LN9@SendTableM:

; 934  : 
; 935  : 			//发送数据
; 936  : 			pITableFrame->SendTableData(i, SUB_GR_MATCH_INFO, &MatchInfo, sizeof(MatchInfo), MDM_GF_FRAME);

  001c4	6a 64		 push	 100			; 00000064H
  001c6	68 02 01 00 00	 push	 258			; 00000102H
  001cb	8d 85 ec fd ff
	ff		 lea	 eax, DWORD PTR _MatchInfo$3[ebp]
  001d1	50		 push	 eax
  001d2	6a 01		 push	 1
  001d4	0f b7 8d e8 fd
	ff ff		 movzx	 ecx, WORD PTR _i$2[ebp]
  001db	51		 push	 ecx
  001dc	8b 55 08	 mov	 edx, DWORD PTR _pITableFrame$[ebp]
  001df	8b 02		 mov	 eax, DWORD PTR [edx]
  001e1	8b 4d 08	 mov	 ecx, DWORD PTR _pITableFrame$[ebp]
  001e4	8b 90 ac 00 00
	00		 mov	 edx, DWORD PTR [eax+172]
  001ea	ff d2		 call	 edx

; 937  : 		}

  001ec	e9 6d ff ff ff	 jmp	 $LN2@SendTableM
$LN3@SendTableM:

; 938  : 
; 939  : 		//发送提示
; 940  : 		if ((wChairID!=INVALID_CHAIR) && (pTableFrameInfo->bWaitForNextInnings==true))

  001f1	0f b7 45 0c	 movzx	 eax, WORD PTR _wChairID$[ebp]
  001f5	3d ff ff 00 00	 cmp	 eax, 65535		; 0000ffffH
  001fa	74 1d		 je	 SHORT $LN1@SendTableM
  001fc	8b 45 f4	 mov	 eax, DWORD PTR _pTableFrameInfo$[ebp]
  001ff	0f b6 48 14	 movzx	 ecx, BYTE PTR [eax+20]
  00203	83 f9 01	 cmp	 ecx, 1
  00206	75 11		 jne	 SHORT $LN1@SendTableM

; 941  : 		{
; 942  : 			SendWaitMessage(pITableFrame,wChairID);

  00208	0f b7 45 0c	 movzx	 eax, WORD PTR _wChairID$[ebp]
  0020c	50		 push	 eax
  0020d	8b 4d 08	 mov	 ecx, DWORD PTR _pITableFrame$[ebp]
  00210	51		 push	 ecx
  00211	8b 4d f8	 mov	 ecx, DWORD PTR _this$[ebp]
  00214	e8 00 00 00 00	 call	 ?SendWaitMessage@CImmediateGroup@@IAEXPAUITableFrame@@G@Z ; CImmediateGroup::SendWaitMessage
$LN1@SendTableM:

; 943  : 		}
; 944  : 	}
; 945  : 
; 946  : 	return;
; 947  : }

  00219	5f		 pop	 edi
  0021a	5e		 pop	 esi
  0021b	5b		 pop	 ebx
  0021c	8b 4d fc	 mov	 ecx, DWORD PTR __$ArrayPad$[ebp]
  0021f	33 cd		 xor	 ecx, ebp
  00221	e8 00 00 00 00	 call	 @__security_check_cookie@4
  00226	8b e5		 mov	 esp, ebp
  00228	5d		 pop	 ebp
  00229	c2 08 00	 ret	 8
?SendTableMatchInfo@CImmediateGroup@@IAEXPAUITableFrame@@G@Z ENDP ; CImmediateGroup::SendTableMatchInfo
_TEXT	ENDS
; Function compile flags: /Odtp /ZI
; File g:\网狐\happygamewh\服务端\系统模块\服务器组件\比赛服务\immediategroup.cpp
;	COMDAT ?SendGroupMessage@CImmediateGroup@@IAEXPBD@Z
_TEXT	SEGMENT
_wSendSize$ = -1040					; size = 2
_Message$ = -1036					; size = 1028
_this$ = -8						; size = 4
__$ArrayPad$ = -4					; size = 4
_pStrMessage$ = 8					; size = 4
?SendGroupMessage@CImmediateGroup@@IAEXPBD@Z PROC	; CImmediateGroup::SendGroupMessage, COMDAT
; _this$ = ecx

; 704  : {

  00000	55		 push	 ebp
  00001	8b ec		 mov	 ebp, esp
  00003	81 ec d0 04 00
	00		 sub	 esp, 1232		; 000004d0H
  00009	a1 00 00 00 00	 mov	 eax, DWORD PTR ___security_cookie
  0000e	33 c5		 xor	 eax, ebp
  00010	89 45 fc	 mov	 DWORD PTR __$ArrayPad$[ebp], eax
  00013	53		 push	 ebx
  00014	56		 push	 esi
  00015	57		 push	 edi
  00016	89 4d f8	 mov	 DWORD PTR _this$[ebp], ecx

; 705  : 	//构造数据包
; 706  : 	CMD_CM_SystemMessage Message;
; 707  : 	Message.wType=SMT_EJECT|SMT_CHAT;

  00019	b8 03 00 00 00	 mov	 eax, 3
  0001e	66 89 85 f4 fb
	ff ff		 mov	 WORD PTR _Message$[ebp], ax

; 708  : 	lstrcpyn(Message.szString,pStrMessage,CountArray(Message.szString));

  00025	68 00 04 00 00	 push	 1024			; 00000400H
  0002a	8b 45 08	 mov	 eax, DWORD PTR _pStrMessage$[ebp]
  0002d	50		 push	 eax
  0002e	8d 8d f8 fb ff
	ff		 lea	 ecx, DWORD PTR _Message$[ebp+4]
  00034	51		 push	 ecx
  00035	ff 15 00 00 00
	00		 call	 DWORD PTR __imp__lstrcpynA@12

; 709  : 	Message.wLength=CountStringBuffer(Message.szString);

  0003b	8d 85 f8 fb ff
	ff		 lea	 eax, DWORD PTR _Message$[ebp+4]
  00041	50		 push	 eax
  00042	ff 15 00 00 00
	00		 call	 DWORD PTR __imp__lstrlenA@4
  00048	83 c0 01	 add	 eax, 1
  0004b	66 89 85 f6 fb
	ff ff		 mov	 WORD PTR _Message$[ebp+2], ax

; 710  : 
; 711  :     //发送数据
; 712  : 	WORD wSendSize=sizeof(Message)-sizeof(Message.szString)+Message.wLength*sizeof(TCHAR);

  00052	0f b7 85 f6 fb
	ff ff		 movzx	 eax, WORD PTR _Message$[ebp+2]
  00059	83 c0 04	 add	 eax, 4
  0005c	66 89 85 f0 fb
	ff ff		 mov	 WORD PTR _wSendSize$[ebp], ax

; 713  : 	m_pMatchSink->SendGroupData(MDM_CM_SYSTEM,SUB_CM_SYSTEM_MESSAGE,&Message,wSendSize, this);

  00063	8b 45 f8	 mov	 eax, DWORD PTR _this$[ebp]
  00066	50		 push	 eax
  00067	0f b7 8d f0 fb
	ff ff		 movzx	 ecx, WORD PTR _wSendSize$[ebp]
  0006e	51		 push	 ecx
  0006f	8d 95 f4 fb ff
	ff		 lea	 edx, DWORD PTR _Message$[ebp]
  00075	52		 push	 edx
  00076	6a 01		 push	 1
  00078	68 e8 03 00 00	 push	 1000			; 000003e8H
  0007d	8b 45 f8	 mov	 eax, DWORD PTR _this$[ebp]
  00080	8b 48 2c	 mov	 ecx, DWORD PTR [eax+44]
  00083	8b 55 f8	 mov	 edx, DWORD PTR _this$[ebp]
  00086	8b 01		 mov	 eax, DWORD PTR [ecx]
  00088	8b 4a 2c	 mov	 ecx, DWORD PTR [edx+44]
  0008b	8b 50 28	 mov	 edx, DWORD PTR [eax+40]
  0008e	ff d2		 call	 edx

; 714  : }

  00090	5f		 pop	 edi
  00091	5e		 pop	 esi
  00092	5b		 pop	 ebx
  00093	8b 4d fc	 mov	 ecx, DWORD PTR __$ArrayPad$[ebp]
  00096	33 cd		 xor	 ecx, ebp
  00098	e8 00 00 00 00	 call	 @__security_check_cookie@4
  0009d	8b e5		 mov	 esp, ebp
  0009f	5d		 pop	 ebp
  000a0	c2 04 00	 ret	 4
?SendGroupMessage@CImmediateGroup@@IAEXPBD@Z ENDP	; CImmediateGroup::SendGroupMessage
_TEXT	ENDS
; Function compile flags: /Odtp /ZI
; File g:\网狐\happygamewh\服务端\系统模块\服务器组件\比赛服务\immediategroup.cpp
;	COMDAT ?GetUserRank@CImmediateGroup@@IAEGPAUIServerUserItem@@PAUITableFrame@@@Z
_TEXT	SEGMENT
tv249 = -104						; size = 8
tv207 = -104						; size = 8
_i$1 = -32						; size = 2
_pos$2 = -28						; size = 4
_pLoopUserItem$ = -24					; size = 4
_dwUserID$ = -20					; size = 4
_wRank$ = -16						; size = 2
_lUserScore$ = -12					; size = 8
_this$ = -4						; size = 4
_pUserServerItem$ = 8					; size = 4
_pITableFrame$ = 12					; size = 4
?GetUserRank@CImmediateGroup@@IAEGPAUIServerUserItem@@PAUITableFrame@@@Z PROC ; CImmediateGroup::GetUserRank, COMDAT
; _this$ = ecx

; 480  : {

  00000	55		 push	 ebp
  00001	8b ec		 mov	 ebp, esp
  00003	83 ec 68	 sub	 esp, 104		; 00000068H
  00006	53		 push	 ebx
  00007	56		 push	 esi
  00008	57		 push	 edi
  00009	89 4d fc	 mov	 DWORD PTR _this$[ebp], ecx

; 481  : 	//参数效验
; 482  : 	ASSERT(pUserServerItem!=NULL);

  0000c	83 7d 08 00	 cmp	 DWORD PTR _pUserServerItem$[ebp], 0
  00010	75 18		 jne	 SHORT $LN15@GetUserRan
  00012	a1 00 00 00 00	 mov	 eax, DWORD PTR ?__LINE__Var@?0??GetUserRank@CImmediateGroup@@IAEGPAUIServerUserItem@@PAUITableFrame@@@Z@4JA
  00017	83 c0 02	 add	 eax, 2
  0001a	50		 push	 eax
  0001b	68 00 00 00 00	 push	 OFFSET ??_C@_0EL@ONMMFGFJ@g?3?2?M?x?$LK?$PM?2happygamewh?2?$LH?$PO?N?q?$LG?K?2?O?$LF?M?$LD@
  00020	e8 00 00 00 00	 call	 ?AfxAssertFailedLine@@YGHPBDH@Z ; AfxAssertFailedLine
  00025	85 c0		 test	 eax, eax
  00027	74 01		 je	 SHORT $LN15@GetUserRan
  00029	cc		 int	 3
$LN15@GetUserRan:

; 483  : 	if(pUserServerItem==NULL) return INVALID_WORD;

  0002a	83 7d 08 00	 cmp	 DWORD PTR _pUserServerItem$[ebp], 0
  0002e	75 0a		 jne	 SHORT $LN7@GetUserRan
  00030	b8 ff ff 00 00	 mov	 eax, 65535		; 0000ffffH
  00035	e9 91 01 00 00	 jmp	 $LN1@GetUserRan
$LN7@GetUserRan:

; 484  : 
; 485  : 	//定义变量
; 486  : 	LONGLONG lUserScore=pUserServerItem->GetUserScore();

  0003a	8b 45 08	 mov	 eax, DWORD PTR _pUserServerItem$[ebp]
  0003d	8b 10		 mov	 edx, DWORD PTR [eax]
  0003f	8b 4d 08	 mov	 ecx, DWORD PTR _pUserServerItem$[ebp]
  00042	8b 82 88 00 00
	00		 mov	 eax, DWORD PTR [edx+136]
  00048	ff d0		 call	 eax
  0004a	89 45 f4	 mov	 DWORD PTR _lUserScore$[ebp], eax
  0004d	89 55 f8	 mov	 DWORD PTR _lUserScore$[ebp+4], edx

; 487  : 	WORD wRank=1;

  00050	b8 01 00 00 00	 mov	 eax, 1
  00055	66 89 45 f0	 mov	 WORD PTR _wRank$[ebp], ax

; 488  : 	DWORD dwUserID=0;

  00059	c7 45 ec 00 00
	00 00		 mov	 DWORD PTR _dwUserID$[ebp], 0

; 489  : 	IServerUserItem *pLoopUserItem=NULL;

  00060	c7 45 e8 00 00
	00 00		 mov	 DWORD PTR _pLoopUserItem$[ebp], 0

; 490  : 
; 491  : 	if(pITableFrame==NULL)

  00067	83 7d 0c 00	 cmp	 DWORD PTR _pITableFrame$[ebp], 0
  0006b	75 6e		 jne	 SHORT $LN8@GetUserRan

; 492  : 	{
; 493  : 		//遍历容器
; 494  : 		POSITION pos=m_OnMatchUserMap.GetStartPosition();

  0006d	8b 4d fc	 mov	 ecx, DWORD PTR _this$[ebp]
  00070	83 c1 38	 add	 ecx, 56			; 00000038H
  00073	e8 00 00 00 00	 call	 ?GetStartPosition@?$CMap@KKPAUIServerUserItem@@PAU1@@@QBEPAU__POSITION@@XZ ; CMap<unsigned long,unsigned long,IServerUserItem *,IServerUserItem *>::GetStartPosition
  00078	89 45 e4	 mov	 DWORD PTR _pos$2[ebp], eax
$LN2@GetUserRan:

; 495  : 		while(pos!=NULL)

  0007b	83 7d e4 00	 cmp	 DWORD PTR _pos$2[ebp], 0
  0007f	74 55		 je	 SHORT $LN3@GetUserRan

; 496  : 		{
; 497  : 			m_OnMatchUserMap.GetNextAssoc(pos,dwUserID, pLoopUserItem);

  00081	8d 45 e8	 lea	 eax, DWORD PTR _pLoopUserItem$[ebp]
  00084	50		 push	 eax
  00085	8d 4d ec	 lea	 ecx, DWORD PTR _dwUserID$[ebp]
  00088	51		 push	 ecx
  00089	8d 55 e4	 lea	 edx, DWORD PTR _pos$2[ebp]
  0008c	52		 push	 edx
  0008d	8b 4d fc	 mov	 ecx, DWORD PTR _this$[ebp]
  00090	83 c1 38	 add	 ecx, 56			; 00000038H
  00093	e8 00 00 00 00	 call	 ?GetNextAssoc@?$CMap@KKPAUIServerUserItem@@PAU1@@@QBEXAAPAU__POSITION@@AAKAAPAUIServerUserItem@@@Z ; CMap<unsigned long,unsigned long,IServerUserItem *,IServerUserItem *>::GetNextAssoc

; 498  : 			if(pLoopUserItem!=pUserServerItem && pLoopUserItem->GetUserScore()>lUserScore)

  00098	8b 45 e8	 mov	 eax, DWORD PTR _pLoopUserItem$[ebp]
  0009b	3b 45 08	 cmp	 eax, DWORD PTR _pUserServerItem$[ebp]
  0009e	74 34		 je	 SHORT $LN10@GetUserRan
  000a0	8b 45 e8	 mov	 eax, DWORD PTR _pLoopUserItem$[ebp]
  000a3	8b 10		 mov	 edx, DWORD PTR [eax]
  000a5	8b 4d e8	 mov	 ecx, DWORD PTR _pLoopUserItem$[ebp]
  000a8	8b 82 88 00 00
	00		 mov	 eax, DWORD PTR [edx+136]
  000ae	ff d0		 call	 eax
  000b0	89 45 98	 mov	 DWORD PTR tv207[ebp], eax
  000b3	89 55 9c	 mov	 DWORD PTR tv207[ebp+4], edx
  000b6	8b 4d 9c	 mov	 ecx, DWORD PTR tv207[ebp+4]
  000b9	3b 4d f8	 cmp	 ecx, DWORD PTR _lUserScore$[ebp+4]
  000bc	7c 16		 jl	 SHORT $LN10@GetUserRan
  000be	7f 08		 jg	 SHORT $LN17@GetUserRan
  000c0	8b 55 98	 mov	 edx, DWORD PTR tv207[ebp]
  000c3	3b 55 f4	 cmp	 edx, DWORD PTR _lUserScore$[ebp]
  000c6	76 0c		 jbe	 SHORT $LN10@GetUserRan
$LN17@GetUserRan:

; 499  : 				wRank++;

  000c8	66 8b 45 f0	 mov	 ax, WORD PTR _wRank$[ebp]
  000cc	66 83 c0 01	 add	 ax, 1
  000d0	66 89 45 f0	 mov	 WORD PTR _wRank$[ebp], ax
$LN10@GetUserRan:

; 500  : 		}

  000d4	eb a5		 jmp	 SHORT $LN2@GetUserRan
$LN3@GetUserRan:

; 501  : 	}
; 502  : 	else

  000d6	e9 ec 00 00 00	 jmp	 $LN9@GetUserRan
$LN8@GetUserRan:

; 503  : 	{
; 504  : 		ASSERT(pUserServerItem->GetTableID()==pITableFrame->GetTableID());

  000db	8b 45 08	 mov	 eax, DWORD PTR _pUserServerItem$[ebp]
  000de	8b 10		 mov	 edx, DWORD PTR [eax]
  000e0	8b 4d 08	 mov	 ecx, DWORD PTR _pUserServerItem$[ebp]
  000e3	8b 42 68	 mov	 eax, DWORD PTR [edx+104]
  000e6	ff d0		 call	 eax
  000e8	0f b7 f0	 movzx	 esi, ax
  000eb	8b 4d 0c	 mov	 ecx, DWORD PTR _pITableFrame$[ebp]
  000ee	8b 11		 mov	 edx, DWORD PTR [ecx]
  000f0	8b 4d 0c	 mov	 ecx, DWORD PTR _pITableFrame$[ebp]
  000f3	8b 42 08	 mov	 eax, DWORD PTR [edx+8]
  000f6	ff d0		 call	 eax
  000f8	0f b7 c8	 movzx	 ecx, ax
  000fb	3b f1		 cmp	 esi, ecx
  000fd	74 19		 je	 SHORT $LN16@GetUserRan
  000ff	8b 15 00 00 00
	00		 mov	 edx, DWORD PTR ?__LINE__Var@?0??GetUserRank@CImmediateGroup@@IAEGPAUIServerUserItem@@PAUITableFrame@@@Z@4JA
  00105	83 c2 18	 add	 edx, 24			; 00000018H
  00108	52		 push	 edx
  00109	68 00 00 00 00	 push	 OFFSET ??_C@_0EL@ONMMFGFJ@g?3?2?M?x?$LK?$PM?2happygamewh?2?$LH?$PO?N?q?$LG?K?2?O?$LF?M?$LD@
  0010e	e8 00 00 00 00	 call	 ?AfxAssertFailedLine@@YGHPBDH@Z ; AfxAssertFailedLine
  00113	85 c0		 test	 eax, eax
  00115	74 01		 je	 SHORT $LN16@GetUserRan
  00117	cc		 int	 3
$LN16@GetUserRan:

; 505  : 		if(pUserServerItem->GetTableID()!=pITableFrame->GetTableID()) return INVALID_WORD;

  00118	8b 45 08	 mov	 eax, DWORD PTR _pUserServerItem$[ebp]
  0011b	8b 10		 mov	 edx, DWORD PTR [eax]
  0011d	8b 4d 08	 mov	 ecx, DWORD PTR _pUserServerItem$[ebp]
  00120	8b 42 68	 mov	 eax, DWORD PTR [edx+104]
  00123	ff d0		 call	 eax
  00125	0f b7 f0	 movzx	 esi, ax
  00128	8b 4d 0c	 mov	 ecx, DWORD PTR _pITableFrame$[ebp]
  0012b	8b 11		 mov	 edx, DWORD PTR [ecx]
  0012d	8b 4d 0c	 mov	 ecx, DWORD PTR _pITableFrame$[ebp]
  00130	8b 42 08	 mov	 eax, DWORD PTR [edx+8]
  00133	ff d0		 call	 eax
  00135	0f b7 c8	 movzx	 ecx, ax
  00138	3b f1		 cmp	 esi, ecx
  0013a	74 0a		 je	 SHORT $LN11@GetUserRan
  0013c	b8 ff ff 00 00	 mov	 eax, 65535		; 0000ffffH
  00141	e9 85 00 00 00	 jmp	 $LN1@GetUserRan
$LN11@GetUserRan:

; 506  : 
; 507  : 		for(WORD i=0; i<m_wChairCount; i++)

  00146	33 c0		 xor	 eax, eax
  00148	66 89 45 e0	 mov	 WORD PTR _i$1[ebp], ax
  0014c	eb 0c		 jmp	 SHORT $LN6@GetUserRan
$LN4@GetUserRan:
  0014e	66 8b 45 e0	 mov	 ax, WORD PTR _i$1[ebp]
  00152	66 83 c0 01	 add	 ax, 1
  00156	66 89 45 e0	 mov	 WORD PTR _i$1[ebp], ax
$LN6@GetUserRan:
  0015a	0f b7 45 e0	 movzx	 eax, WORD PTR _i$1[ebp]
  0015e	0f b7 0d 00 00
	00 00		 movzx	 ecx, WORD PTR ?m_wChairCount@CImmediateGroup@@1GA ; CImmediateGroup::m_wChairCount
  00165	3b c1		 cmp	 eax, ecx
  00167	7d 5e		 jge	 SHORT $LN9@GetUserRan

; 508  : 		{
; 509  : 			pLoopUserItem=pITableFrame->GetTableUserItem(i);

  00169	0f b7 45 e0	 movzx	 eax, WORD PTR _i$1[ebp]
  0016d	50		 push	 eax
  0016e	8b 4d 0c	 mov	 ecx, DWORD PTR _pITableFrame$[ebp]
  00171	8b 11		 mov	 edx, DWORD PTR [ecx]
  00173	8b 4d 0c	 mov	 ecx, DWORD PTR _pITableFrame$[ebp]
  00176	8b 82 9c 00 00
	00		 mov	 eax, DWORD PTR [edx+156]
  0017c	ff d0		 call	 eax
  0017e	89 45 e8	 mov	 DWORD PTR _pLoopUserItem$[ebp], eax

; 510  : 			if(pLoopUserItem==NULL) continue;

  00181	83 7d e8 00	 cmp	 DWORD PTR _pLoopUserItem$[ebp], 0
  00185	75 02		 jne	 SHORT $LN12@GetUserRan
  00187	eb c5		 jmp	 SHORT $LN4@GetUserRan
$LN12@GetUserRan:

; 511  : 
; 512  : 			if(pLoopUserItem!=pUserServerItem && pLoopUserItem->GetUserScore()>lUserScore)

  00189	8b 45 e8	 mov	 eax, DWORD PTR _pLoopUserItem$[ebp]
  0018c	3b 45 08	 cmp	 eax, DWORD PTR _pUserServerItem$[ebp]
  0018f	74 34		 je	 SHORT $LN13@GetUserRan
  00191	8b 45 e8	 mov	 eax, DWORD PTR _pLoopUserItem$[ebp]
  00194	8b 10		 mov	 edx, DWORD PTR [eax]
  00196	8b 4d e8	 mov	 ecx, DWORD PTR _pLoopUserItem$[ebp]
  00199	8b 82 88 00 00
	00		 mov	 eax, DWORD PTR [edx+136]
  0019f	ff d0		 call	 eax
  001a1	89 45 98	 mov	 DWORD PTR tv249[ebp], eax
  001a4	89 55 9c	 mov	 DWORD PTR tv249[ebp+4], edx
  001a7	8b 4d 9c	 mov	 ecx, DWORD PTR tv249[ebp+4]
  001aa	3b 4d f8	 cmp	 ecx, DWORD PTR _lUserScore$[ebp+4]
  001ad	7c 16		 jl	 SHORT $LN13@GetUserRan
  001af	7f 08		 jg	 SHORT $LN18@GetUserRan
  001b1	8b 55 98	 mov	 edx, DWORD PTR tv249[ebp]
  001b4	3b 55 f4	 cmp	 edx, DWORD PTR _lUserScore$[ebp]
  001b7	76 0c		 jbe	 SHORT $LN13@GetUserRan
$LN18@GetUserRan:

; 513  : 				wRank++;

  001b9	66 8b 45 f0	 mov	 ax, WORD PTR _wRank$[ebp]
  001bd	66 83 c0 01	 add	 ax, 1
  001c1	66 89 45 f0	 mov	 WORD PTR _wRank$[ebp], ax
$LN13@GetUserRan:

; 514  : 		}

  001c5	eb 87		 jmp	 SHORT $LN4@GetUserRan
$LN9@GetUserRan:

; 515  : 	}
; 516  : 
; 517  : 	return wRank;

  001c7	66 8b 45 f0	 mov	 ax, WORD PTR _wRank$[ebp]
$LN1@GetUserRan:

; 518  : }

  001cb	5f		 pop	 edi
  001cc	5e		 pop	 esi
  001cd	5b		 pop	 ebx
  001ce	8b e5		 mov	 esp, ebp
  001d0	5d		 pop	 ebp
  001d1	c2 08 00	 ret	 8
?GetUserRank@CImmediateGroup@@IAEGPAUIServerUserItem@@PAUITableFrame@@@Z ENDP ; CImmediateGroup::GetUserRank
_TEXT	ENDS
; Function compile flags: /Odtp /ZI
; File g:\网狐\happygamewh\服务端\系统模块\服务器组件\比赛服务\immediategroup.cpp
;	COMDAT ?GetTableInterface@CImmediateGroup@@IAEPAUtagTableFrameInfo@@PAUITableFrame@@@Z
_TEXT	SEGMENT
_i$1 = -8						; size = 4
_this$ = -4						; size = 4
_pITableFrame$ = 8					; size = 4
?GetTableInterface@CImmediateGroup@@IAEPAUtagTableFrameInfo@@PAUITableFrame@@@Z PROC ; CImmediateGroup::GetTableInterface, COMDAT
; _this$ = ecx

; 522  : {

  00000	55		 push	 ebp
  00001	8b ec		 mov	 ebp, esp
  00003	83 ec 48	 sub	 esp, 72			; 00000048H
  00006	53		 push	 ebx
  00007	56		 push	 esi
  00008	57		 push	 edi
  00009	89 4d fc	 mov	 DWORD PTR _this$[ebp], ecx

; 523  : 	for (int i=0;i<m_MatchTableArray.GetCount();i++)

  0000c	c7 45 f8 00 00
	00 00		 mov	 DWORD PTR _i$1[ebp], 0
  00013	eb 09		 jmp	 SHORT $LN4@GetTableIn
$LN2@GetTableIn:
  00015	8b 45 f8	 mov	 eax, DWORD PTR _i$1[ebp]
  00018	83 c0 01	 add	 eax, 1
  0001b	89 45 f8	 mov	 DWORD PTR _i$1[ebp], eax
$LN4@GetTableIn:
  0001e	8b 4d fc	 mov	 ecx, DWORD PTR _this$[ebp]
  00021	83 c1 68	 add	 ecx, 104		; 00000068H
  00024	e8 00 00 00 00	 call	 ?GetCount@?$CWHArray@PAUtagTableFrameInfo@@ABQAU1@@@QBEHXZ ; CWHArray<tagTableFrameInfo *,tagTableFrameInfo * const &>::GetCount
  00029	39 45 f8	 cmp	 DWORD PTR _i$1[ebp], eax
  0002c	7d 2d		 jge	 SHORT $LN3@GetTableIn

; 524  : 	{
; 525  : 		if (m_MatchTableArray[i]->pTableFrame==pITableFrame) return m_MatchTableArray[i];

  0002e	8b 45 f8	 mov	 eax, DWORD PTR _i$1[ebp]
  00031	50		 push	 eax
  00032	8b 4d fc	 mov	 ecx, DWORD PTR _this$[ebp]
  00035	83 c1 68	 add	 ecx, 104		; 00000068H
  00038	e8 00 00 00 00	 call	 ??A?$CWHArray@PAUtagTableFrameInfo@@ABQAU1@@@QAEAAPAUtagTableFrameInfo@@H@Z ; CWHArray<tagTableFrameInfo *,tagTableFrameInfo * const &>::operator[]
  0003d	8b 08		 mov	 ecx, DWORD PTR [eax]
  0003f	8b 11		 mov	 edx, DWORD PTR [ecx]
  00041	3b 55 08	 cmp	 edx, DWORD PTR _pITableFrame$[ebp]
  00044	75 13		 jne	 SHORT $LN5@GetTableIn
  00046	8b 45 f8	 mov	 eax, DWORD PTR _i$1[ebp]
  00049	50		 push	 eax
  0004a	8b 4d fc	 mov	 ecx, DWORD PTR _this$[ebp]
  0004d	83 c1 68	 add	 ecx, 104		; 00000068H
  00050	e8 00 00 00 00	 call	 ??A?$CWHArray@PAUtagTableFrameInfo@@ABQAU1@@@QAEAAPAUtagTableFrameInfo@@H@Z ; CWHArray<tagTableFrameInfo *,tagTableFrameInfo * const &>::operator[]
  00055	8b 00		 mov	 eax, DWORD PTR [eax]
  00057	eb 04		 jmp	 SHORT $LN1@GetTableIn
$LN5@GetTableIn:

; 526  : 	}

  00059	eb ba		 jmp	 SHORT $LN2@GetTableIn
$LN3@GetTableIn:

; 527  : 
; 528  : 	return NULL;

  0005b	33 c0		 xor	 eax, eax
$LN1@GetTableIn:

; 529  : }

  0005d	5f		 pop	 edi
  0005e	5e		 pop	 esi
  0005f	5b		 pop	 ebx
  00060	8b e5		 mov	 esp, ebp
  00062	5d		 pop	 ebp
  00063	c2 04 00	 ret	 4
?GetTableInterface@CImmediateGroup@@IAEPAUtagTableFrameInfo@@PAUITableFrame@@@Z ENDP ; CImmediateGroup::GetTableInterface
_TEXT	ENDS
; Function compile flags: /Odtp /ZI
; File g:\网狐\happygamewh\服务端\系统模块\服务器组件\比赛服务\immediategroup.cpp
;	COMDAT ?SortMapUser@CImmediateGroup@@IAEGQAUtagMatchScore@@@Z
_TEXT	SEGMENT
tv229 = -136						; size = 4
tv228 = -132						; size = 4
tv227 = -128						; size = 4
tv226 = -124						; size = 4
_j$1 = -56						; size = 4
_mid$2 = -52						; size = 4
_Temp$3 = -48						; size = 24
_right$4 = -24						; size = 4
_left$5 = -20						; size = 4
_i$6 = -16						; size = 4
_pos$ = -12						; size = 4
_nCount$ = -8						; size = 4
_this$ = -4						; size = 4
_score$ = 8						; size = 4
?SortMapUser@CImmediateGroup@@IAEGQAUtagMatchScore@@@Z PROC ; CImmediateGroup::SortMapUser, COMDAT
; _this$ = ecx

; 292  : {

  00000	55		 push	 ebp
  00001	8b ec		 mov	 ebp, esp
  00003	81 ec 88 00 00
	00		 sub	 esp, 136		; 00000088H
  00009	53		 push	 ebx
  0000a	56		 push	 esi
  0000b	57		 push	 edi
  0000c	89 4d fc	 mov	 DWORD PTR _this$[ebp], ecx

; 293  : 	INT_PTR nCount=m_OnMatchUserMap.GetCount();

  0000f	8b 4d fc	 mov	 ecx, DWORD PTR _this$[ebp]
  00012	83 c1 38	 add	 ecx, 56			; 00000038H
  00015	e8 00 00 00 00	 call	 ?GetCount@?$CMap@KKPAUIServerUserItem@@PAU1@@@QBEHXZ ; CMap<unsigned long,unsigned long,IServerUserItem *,IServerUserItem *>::GetCount
  0001a	89 45 f8	 mov	 DWORD PTR _nCount$[ebp], eax

; 294  : 	POSITION pos=m_OnMatchUserMap.GetStartPosition();

  0001d	8b 4d fc	 mov	 ecx, DWORD PTR _this$[ebp]
  00020	83 c1 38	 add	 ecx, 56			; 00000038H
  00023	e8 00 00 00 00	 call	 ?GetStartPosition@?$CMap@KKPAUIServerUserItem@@PAU1@@@QBEPAU__POSITION@@XZ ; CMap<unsigned long,unsigned long,IServerUserItem *,IServerUserItem *>::GetStartPosition
  00028	89 45 f4	 mov	 DWORD PTR _pos$[ebp], eax

; 295  : 	nCount=0;

  0002b	c7 45 f8 00 00
	00 00		 mov	 DWORD PTR _nCount$[ebp], 0
$LN2@SortMapUse:

; 296  : 	while(pos!=NULL)

  00032	83 7d f4 00	 cmp	 DWORD PTR _pos$[ebp], 0
  00036	0f 84 87 00 00
	00		 je	 $LN3@SortMapUse

; 297  : 	{
; 298  : 		m_OnMatchUserMap.GetNextAssoc(pos,score[nCount].dwUserID, score[nCount].pUserItem);

  0003c	6b 45 f8 18	 imul	 eax, DWORD PTR _nCount$[ebp], 24
  00040	8b 4d 08	 mov	 ecx, DWORD PTR _score$[ebp]
  00043	8d 54 01 10	 lea	 edx, DWORD PTR [ecx+eax+16]
  00047	52		 push	 edx
  00048	6b 45 f8 18	 imul	 eax, DWORD PTR _nCount$[ebp], 24
  0004c	03 45 08	 add	 eax, DWORD PTR _score$[ebp]
  0004f	50		 push	 eax
  00050	8d 4d f4	 lea	 ecx, DWORD PTR _pos$[ebp]
  00053	51		 push	 ecx
  00054	8b 4d fc	 mov	 ecx, DWORD PTR _this$[ebp]
  00057	83 c1 38	 add	 ecx, 56			; 00000038H
  0005a	e8 00 00 00 00	 call	 ?GetNextAssoc@?$CMap@KKPAUIServerUserItem@@PAU1@@@QBEXAAPAU__POSITION@@AAKAAPAUIServerUserItem@@@Z ; CMap<unsigned long,unsigned long,IServerUserItem *,IServerUserItem *>::GetNextAssoc

; 299  : 		score[nCount].dwUserID=score[nCount].pUserItem->GetUserID();

  0005f	6b 45 f8 18	 imul	 eax, DWORD PTR _nCount$[ebp], 24
  00063	8b 4d 08	 mov	 ecx, DWORD PTR _score$[ebp]
  00066	8b 54 01 10	 mov	 edx, DWORD PTR [ecx+eax+16]
  0006a	6b 45 f8 18	 imul	 eax, DWORD PTR _nCount$[ebp], 24
  0006e	8b 4d 08	 mov	 ecx, DWORD PTR _score$[ebp]
  00071	8b 12		 mov	 edx, DWORD PTR [edx]
  00073	8b 4c 01 10	 mov	 ecx, DWORD PTR [ecx+eax+16]
  00077	8b 42 5c	 mov	 eax, DWORD PTR [edx+92]
  0007a	ff d0		 call	 eax
  0007c	6b 4d f8 18	 imul	 ecx, DWORD PTR _nCount$[ebp], 24
  00080	8b 55 08	 mov	 edx, DWORD PTR _score$[ebp]
  00083	89 04 0a	 mov	 DWORD PTR [edx+ecx], eax

; 300  : 		score[nCount].lScore=score[nCount].pUserItem->GetUserScore();

  00086	6b 45 f8 18	 imul	 eax, DWORD PTR _nCount$[ebp], 24
  0008a	8b 4d 08	 mov	 ecx, DWORD PTR _score$[ebp]
  0008d	8b 54 01 10	 mov	 edx, DWORD PTR [ecx+eax+16]
  00091	6b 45 f8 18	 imul	 eax, DWORD PTR _nCount$[ebp], 24
  00095	8b 4d 08	 mov	 ecx, DWORD PTR _score$[ebp]
  00098	8b 12		 mov	 edx, DWORD PTR [edx]
  0009a	8b 4c 01 10	 mov	 ecx, DWORD PTR [ecx+eax+16]
  0009e	8b 82 88 00 00
	00		 mov	 eax, DWORD PTR [edx+136]
  000a4	ff d0		 call	 eax
  000a6	6b 4d f8 18	 imul	 ecx, DWORD PTR _nCount$[ebp], 24
  000aa	8b 75 08	 mov	 esi, DWORD PTR _score$[ebp]
  000ad	89 44 0e 08	 mov	 DWORD PTR [esi+ecx+8], eax
  000b1	89 54 0e 0c	 mov	 DWORD PTR [esi+ecx+12], edx

; 301  : 		nCount++;

  000b5	8b 45 f8	 mov	 eax, DWORD PTR _nCount$[ebp]
  000b8	83 c0 01	 add	 eax, 1
  000bb	89 45 f8	 mov	 DWORD PTR _nCount$[ebp], eax

; 302  : 	}

  000be	e9 6f ff ff ff	 jmp	 $LN2@SortMapUse
$LN3@SortMapUse:

; 303  : 	for(INT_PTR i = 1;i < nCount;i++)

  000c3	c7 45 f0 01 00
	00 00		 mov	 DWORD PTR _i$6[ebp], 1
  000ca	eb 09		 jmp	 SHORT $LN6@SortMapUse
$LN4@SortMapUse:
  000cc	8b 45 f0	 mov	 eax, DWORD PTR _i$6[ebp]
  000cf	83 c0 01	 add	 eax, 1
  000d2	89 45 f0	 mov	 DWORD PTR _i$6[ebp], eax
$LN6@SortMapUse:
  000d5	8b 45 f0	 mov	 eax, DWORD PTR _i$6[ebp]
  000d8	3b 45 f8	 cmp	 eax, DWORD PTR _nCount$[ebp]
  000db	0f 8d 49 01 00
	00		 jge	 $LN5@SortMapUse

; 304  : 	{
; 305  : 		INT_PTR left = 0,right = i - 1;

  000e1	c7 45 ec 00 00
	00 00		 mov	 DWORD PTR _left$5[ebp], 0
  000e8	8b 45 f0	 mov	 eax, DWORD PTR _i$6[ebp]
  000eb	83 e8 01	 sub	 eax, 1
  000ee	89 45 e8	 mov	 DWORD PTR _right$4[ebp], eax

; 306  : 		tagMatchScore  Temp = score[i];

  000f1	6b 45 f0 18	 imul	 eax, DWORD PTR _i$6[ebp], 24
  000f5	03 45 08	 add	 eax, DWORD PTR _score$[ebp]
  000f8	8b 08		 mov	 ecx, DWORD PTR [eax]
  000fa	89 4d d0	 mov	 DWORD PTR _Temp$3[ebp], ecx
  000fd	8b 50 04	 mov	 edx, DWORD PTR [eax+4]
  00100	89 55 d4	 mov	 DWORD PTR _Temp$3[ebp+4], edx
  00103	8b 48 08	 mov	 ecx, DWORD PTR [eax+8]
  00106	89 4d d8	 mov	 DWORD PTR _Temp$3[ebp+8], ecx
  00109	8b 50 0c	 mov	 edx, DWORD PTR [eax+12]
  0010c	89 55 dc	 mov	 DWORD PTR _Temp$3[ebp+12], edx
  0010f	8b 48 10	 mov	 ecx, DWORD PTR [eax+16]
  00112	89 4d e0	 mov	 DWORD PTR _Temp$3[ebp+16], ecx
  00115	8b 50 14	 mov	 edx, DWORD PTR [eax+20]
  00118	89 55 e4	 mov	 DWORD PTR _Temp$3[ebp+20], edx
$LN7@SortMapUse:

; 307  : 		while(left <= right)

  0011b	8b 45 ec	 mov	 eax, DWORD PTR _left$5[ebp]
  0011e	3b 45 e8	 cmp	 eax, DWORD PTR _right$4[ebp]
  00121	0f 8f 81 00 00
	00		 jg	 $LN8@SortMapUse

; 308  : 		{
; 309  : 			INT_PTR mid = (left + right)/2;

  00127	8b 45 ec	 mov	 eax, DWORD PTR _left$5[ebp]
  0012a	03 45 e8	 add	 eax, DWORD PTR _right$4[ebp]
  0012d	99		 cdq
  0012e	2b c2		 sub	 eax, edx
  00130	d1 f8		 sar	 eax, 1
  00132	89 45 cc	 mov	 DWORD PTR _mid$2[ebp], eax

; 310  : 			if(score[i].lScore > score[mid].lScore) right = mid - 1;

  00135	6b 45 f0 18	 imul	 eax, DWORD PTR _i$6[ebp], 24
  00139	6b 4d cc 18	 imul	 ecx, DWORD PTR _mid$2[ebp], 24
  0013d	8b 55 08	 mov	 edx, DWORD PTR _score$[ebp]
  00140	8b 75 08	 mov	 esi, DWORD PTR _score$[ebp]
  00143	89 55 84	 mov	 DWORD PTR tv226[ebp], edx
  00146	89 45 80	 mov	 DWORD PTR tv227[ebp], eax
  00149	89 b5 7c ff ff
	ff		 mov	 DWORD PTR tv228[ebp], esi
  0014f	89 8d 78 ff ff
	ff		 mov	 DWORD PTR tv229[ebp], ecx
  00155	8b 45 80	 mov	 eax, DWORD PTR tv227[ebp]
  00158	8b 4d 84	 mov	 ecx, DWORD PTR tv226[ebp]
  0015b	8b 95 78 ff ff
	ff		 mov	 edx, DWORD PTR tv229[ebp]
  00161	8b b5 7c ff ff
	ff		 mov	 esi, DWORD PTR tv228[ebp]
  00167	8b 44 01 0c	 mov	 eax, DWORD PTR [ecx+eax+12]
  0016b	3b 44 16 0c	 cmp	 eax, DWORD PTR [esi+edx+12]
  0016f	7c 29		 jl	 SHORT $LN12@SortMapUse
  00171	7f 1c		 jg	 SHORT $LN15@SortMapUse
  00173	8b 4d 80	 mov	 ecx, DWORD PTR tv227[ebp]
  00176	8b 55 84	 mov	 edx, DWORD PTR tv226[ebp]
  00179	8b 85 78 ff ff
	ff		 mov	 eax, DWORD PTR tv229[ebp]
  0017f	8b b5 7c ff ff
	ff		 mov	 esi, DWORD PTR tv228[ebp]
  00185	8b 4c 0a 08	 mov	 ecx, DWORD PTR [edx+ecx+8]
  00189	3b 4c 06 08	 cmp	 ecx, DWORD PTR [esi+eax+8]
  0018d	76 0b		 jbe	 SHORT $LN12@SortMapUse
$LN15@SortMapUse:
  0018f	8b 45 cc	 mov	 eax, DWORD PTR _mid$2[ebp]
  00192	83 e8 01	 sub	 eax, 1
  00195	89 45 e8	 mov	 DWORD PTR _right$4[ebp], eax
  00198	eb 09		 jmp	 SHORT $LN13@SortMapUse
$LN12@SortMapUse:

; 311  : 			else left = mid + 1;

  0019a	8b 45 cc	 mov	 eax, DWORD PTR _mid$2[ebp]
  0019d	83 c0 01	 add	 eax, 1
  001a0	89 45 ec	 mov	 DWORD PTR _left$5[ebp], eax
$LN13@SortMapUse:

; 312  : 		}

  001a3	e9 73 ff ff ff	 jmp	 $LN7@SortMapUse
$LN8@SortMapUse:

; 313  : 		for(INT_PTR j = i - 1;j >= left;j--)

  001a8	8b 45 f0	 mov	 eax, DWORD PTR _i$6[ebp]
  001ab	83 e8 01	 sub	 eax, 1
  001ae	89 45 c8	 mov	 DWORD PTR _j$1[ebp], eax
  001b1	eb 09		 jmp	 SHORT $LN11@SortMapUse
$LN9@SortMapUse:
  001b3	8b 45 c8	 mov	 eax, DWORD PTR _j$1[ebp]
  001b6	83 e8 01	 sub	 eax, 1
  001b9	89 45 c8	 mov	 DWORD PTR _j$1[ebp], eax
$LN11@SortMapUse:
  001bc	8b 45 c8	 mov	 eax, DWORD PTR _j$1[ebp]
  001bf	3b 45 ec	 cmp	 eax, DWORD PTR _left$5[ebp]
  001c2	7c 37		 jl	 SHORT $LN10@SortMapUse

; 314  : 		{
; 315  : 			score[j+1] = score[j];

  001c4	6b 45 c8 18	 imul	 eax, DWORD PTR _j$1[ebp], 24
  001c8	03 45 08	 add	 eax, DWORD PTR _score$[ebp]
  001cb	8b 4d c8	 mov	 ecx, DWORD PTR _j$1[ebp]
  001ce	83 c1 01	 add	 ecx, 1
  001d1	6b d1 18	 imul	 edx, ecx, 24
  001d4	03 55 08	 add	 edx, DWORD PTR _score$[ebp]
  001d7	8b 08		 mov	 ecx, DWORD PTR [eax]
  001d9	89 0a		 mov	 DWORD PTR [edx], ecx
  001db	8b 48 04	 mov	 ecx, DWORD PTR [eax+4]
  001de	89 4a 04	 mov	 DWORD PTR [edx+4], ecx
  001e1	8b 48 08	 mov	 ecx, DWORD PTR [eax+8]
  001e4	89 4a 08	 mov	 DWORD PTR [edx+8], ecx
  001e7	8b 48 0c	 mov	 ecx, DWORD PTR [eax+12]
  001ea	89 4a 0c	 mov	 DWORD PTR [edx+12], ecx
  001ed	8b 48 10	 mov	 ecx, DWORD PTR [eax+16]
  001f0	89 4a 10	 mov	 DWORD PTR [edx+16], ecx
  001f3	8b 40 14	 mov	 eax, DWORD PTR [eax+20]
  001f6	89 42 14	 mov	 DWORD PTR [edx+20], eax

; 316  : 		}

  001f9	eb b8		 jmp	 SHORT $LN9@SortMapUse
$LN10@SortMapUse:

; 317  : 		score[left] = Temp;

  001fb	6b 45 ec 18	 imul	 eax, DWORD PTR _left$5[ebp], 24
  001ff	03 45 08	 add	 eax, DWORD PTR _score$[ebp]
  00202	8b 4d d0	 mov	 ecx, DWORD PTR _Temp$3[ebp]
  00205	89 08		 mov	 DWORD PTR [eax], ecx
  00207	8b 55 d4	 mov	 edx, DWORD PTR _Temp$3[ebp+4]
  0020a	89 50 04	 mov	 DWORD PTR [eax+4], edx
  0020d	8b 4d d8	 mov	 ecx, DWORD PTR _Temp$3[ebp+8]
  00210	89 48 08	 mov	 DWORD PTR [eax+8], ecx
  00213	8b 55 dc	 mov	 edx, DWORD PTR _Temp$3[ebp+12]
  00216	89 50 0c	 mov	 DWORD PTR [eax+12], edx
  00219	8b 4d e0	 mov	 ecx, DWORD PTR _Temp$3[ebp+16]
  0021c	89 48 10	 mov	 DWORD PTR [eax+16], ecx
  0021f	8b 55 e4	 mov	 edx, DWORD PTR _Temp$3[ebp+20]
  00222	89 50 14	 mov	 DWORD PTR [eax+20], edx

; 318  : 	}

  00225	e9 a2 fe ff ff	 jmp	 $LN4@SortMapUse
$LN5@SortMapUse:

; 319  : 
; 320  : 	return (WORD)nCount;

  0022a	66 8b 45 f8	 mov	 ax, WORD PTR _nCount$[ebp]

; 321  : }

  0022e	5f		 pop	 edi
  0022f	5e		 pop	 esi
  00230	5b		 pop	 ebx
  00231	8b e5		 mov	 esp, ebp
  00233	5d		 pop	 ebp
  00234	c2 04 00	 ret	 4
?SortMapUser@CImmediateGroup@@IAEGQAUtagMatchScore@@@Z ENDP ; CImmediateGroup::SortMapUser
_TEXT	ENDS
; Function compile flags: /Odtp /ZI
; File g:\网狐\happygamewh\服务端\系统模块\服务器组件\比赛服务\immediategroup.cpp
;	COMDAT ?ContinueGame@CImmediateGroup@@IAEXPAUITableFrame@@@Z
_TEXT	SEGMENT
_pIServerUserItem$1 = -16				; size = 4
_i$2 = -12						; size = 4
_pTableFrameInfo$ = -8					; size = 4
_this$ = -4						; size = 4
_pITableFrame$ = 8					; size = 4
?ContinueGame@CImmediateGroup@@IAEXPAUITableFrame@@@Z PROC ; CImmediateGroup::ContinueGame, COMDAT
; _this$ = ecx

; 785  : {

  00000	55		 push	 ebp
  00001	8b ec		 mov	 ebp, esp
  00003	83 ec 50	 sub	 esp, 80			; 00000050H
  00006	53		 push	 ebx
  00007	56		 push	 esi
  00008	57		 push	 edi
  00009	89 4d fc	 mov	 DWORD PTR _this$[ebp], ecx

; 786  : 	//参数校验
; 787  : 	ASSERT (pITableFrame!=NULL);

  0000c	83 7d 08 00	 cmp	 DWORD PTR _pITableFrame$[ebp], 0
  00010	75 18		 jne	 SHORT $LN11@ContinueGa
  00012	a1 00 00 00 00	 mov	 eax, DWORD PTR ?__LINE__Var@?0??ContinueGame@CImmediateGroup@@IAEXPAUITableFrame@@@Z@4JA
  00017	83 c0 02	 add	 eax, 2
  0001a	50		 push	 eax
  0001b	68 00 00 00 00	 push	 OFFSET ??_C@_0EL@ONMMFGFJ@g?3?2?M?x?$LK?$PM?2happygamewh?2?$LH?$PO?N?q?$LG?K?2?O?$LF?M?$LD@
  00020	e8 00 00 00 00	 call	 ?AfxAssertFailedLine@@YGHPBDH@Z ; AfxAssertFailedLine
  00025	85 c0		 test	 eax, eax
  00027	74 01		 je	 SHORT $LN11@ContinueGa
  00029	cc		 int	 3
$LN11@ContinueGa:

; 788  : 	if (pITableFrame==NULL) return;

  0002a	83 7d 08 00	 cmp	 DWORD PTR _pITableFrame$[ebp], 0
  0002e	75 05		 jne	 SHORT $LN5@ContinueGa
  00030	e9 18 01 00 00	 jmp	 $LN1@ContinueGa
$LN5@ContinueGa:

; 789  : 
; 790  : 	//获取接口
; 791  : 	tagTableFrameInfo * pTableFrameInfo=GetTableInterface(pITableFrame);

  00035	8b 45 08	 mov	 eax, DWORD PTR _pITableFrame$[ebp]
  00038	50		 push	 eax
  00039	8b 4d fc	 mov	 ecx, DWORD PTR _this$[ebp]
  0003c	e8 00 00 00 00	 call	 ?GetTableInterface@CImmediateGroup@@IAEPAUtagTableFrameInfo@@PAUITableFrame@@@Z ; CImmediateGroup::GetTableInterface
  00041	89 45 f8	 mov	 DWORD PTR _pTableFrameInfo$[ebp], eax

; 792  : 	if (pTableFrameInfo==NULL) return;

  00044	83 7d f8 00	 cmp	 DWORD PTR _pTableFrameInfo$[ebp], 0
  00048	75 05		 jne	 SHORT $LN6@ContinueGa
  0004a	e9 fe 00 00 00	 jmp	 $LN1@ContinueGa
$LN6@ContinueGa:

; 793  : 
; 794  : 	//查找用户
; 795  : 	for (int i=0;i<m_wChairCount;i++)

  0004f	c7 45 f4 00 00
	00 00		 mov	 DWORD PTR _i$2[ebp], 0
  00056	eb 09		 jmp	 SHORT $LN4@ContinueGa
$LN2@ContinueGa:
  00058	8b 45 f4	 mov	 eax, DWORD PTR _i$2[ebp]
  0005b	83 c0 01	 add	 eax, 1
  0005e	89 45 f4	 mov	 DWORD PTR _i$2[ebp], eax
$LN4@ContinueGa:
  00061	0f b7 05 00 00
	00 00		 movzx	 eax, WORD PTR ?m_wChairCount@CImmediateGroup@@1GA ; CImmediateGroup::m_wChairCount
  00068	39 45 f4	 cmp	 DWORD PTR _i$2[ebp], eax
  0006b	0f 8d ca 00 00
	00		 jge	 $LN3@ContinueGa

; 796  : 	{
; 797  : 		//查找用户
; 798  : 		IServerUserItem * pIServerUserItem=pITableFrame->GetTableUserItem(i);

  00071	0f b7 45 f4	 movzx	 eax, WORD PTR _i$2[ebp]
  00075	50		 push	 eax
  00076	8b 4d 08	 mov	 ecx, DWORD PTR _pITableFrame$[ebp]
  00079	8b 11		 mov	 edx, DWORD PTR [ecx]
  0007b	8b 4d 08	 mov	 ecx, DWORD PTR _pITableFrame$[ebp]
  0007e	8b 82 9c 00 00
	00		 mov	 eax, DWORD PTR [edx+156]
  00084	ff d0		 call	 eax
  00086	89 45 f0	 mov	 DWORD PTR _pIServerUserItem$1[ebp], eax

; 799  : 		if (pIServerUserItem==NULL) continue;

  00089	83 7d f0 00	 cmp	 DWORD PTR _pIServerUserItem$1[ebp], 0
  0008d	75 02		 jne	 SHORT $LN7@ContinueGa
  0008f	eb c7		 jmp	 SHORT $LN2@ContinueGa
$LN7@ContinueGa:

; 800  : 
; 801  : 		//处理起立
; 802  : 		if (pITableFrame->PerformStandUpAction(pIServerUserItem)==false)

  00091	6a 00		 push	 0
  00093	8b 45 f0	 mov	 eax, DWORD PTR _pIServerUserItem$1[ebp]
  00096	50		 push	 eax
  00097	8b 4d 08	 mov	 ecx, DWORD PTR _pITableFrame$[ebp]
  0009a	8b 11		 mov	 edx, DWORD PTR [ecx]
  0009c	8b 4d 08	 mov	 ecx, DWORD PTR _pITableFrame$[ebp]
  0009f	8b 82 d8 00 00
	00		 mov	 eax, DWORD PTR [edx+216]
  000a5	ff d0		 call	 eax
  000a7	0f b6 c8	 movzx	 ecx, al
  000aa	85 c9		 test	 ecx, ecx
  000ac	75 32		 jne	 SHORT $LN8@ContinueGa

; 803  : 		{
; 804  : 			ASSERT (FALSE);

  000ae	33 c0		 xor	 eax, eax
  000b0	75 19		 jne	 SHORT $LN12@ContinueGa
  000b2	8b 0d 00 00 00
	00		 mov	 ecx, DWORD PTR ?__LINE__Var@?0??ContinueGame@CImmediateGroup@@IAEXPAUITableFrame@@@Z@4JA
  000b8	83 c1 13	 add	 ecx, 19			; 00000013H
  000bb	51		 push	 ecx
  000bc	68 00 00 00 00	 push	 OFFSET ??_C@_0EL@ONMMFGFJ@g?3?2?M?x?$LK?$PM?2happygamewh?2?$LH?$PO?N?q?$LG?K?2?O?$LF?M?$LD@
  000c1	e8 00 00 00 00	 call	 ?AfxAssertFailedLine@@YGHPBDH@Z ; AfxAssertFailedLine
  000c6	85 c0		 test	 eax, eax
  000c8	74 01		 je	 SHORT $LN12@ContinueGa
  000ca	cc		 int	 3
$LN12@ContinueGa:

; 805  : 			CTraceService::TraceString(TEXT("继续游戏_起立失败"),TraceLevel_Exception);

  000cb	6a 03		 push	 3
  000cd	68 00 00 00 00	 push	 OFFSET ??_C@_0BC@IKPCOJMH@?$LM?L?P?x?S?N?O?$LH_?F?p?A?$KC?J?$KH?$LA?$NM@
  000d2	ff 15 00 00 00
	00		 call	 DWORD PTR __imp_?TraceString@CTraceService@@SA_NPBDW4enTraceLevel@@@Z
  000d8	83 c4 08	 add	 esp, 8

; 806  : 
; 807  : 			continue;

  000db	e9 78 ff ff ff	 jmp	 $LN2@ContinueGa
$LN8@ContinueGa:

; 808  : 		}
; 809  : 
; 810  : 		//处理坐下
; 811  : 		if (pITableFrame->PerformSitDownAction(i,pIServerUserItem)==false)

  000e0	6a 00		 push	 0
  000e2	6a 00		 push	 0
  000e4	8b 45 f0	 mov	 eax, DWORD PTR _pIServerUserItem$1[ebp]
  000e7	50		 push	 eax
  000e8	0f b7 4d f4	 movzx	 ecx, WORD PTR _i$2[ebp]
  000ec	51		 push	 ecx
  000ed	8b 55 08	 mov	 edx, DWORD PTR _pITableFrame$[ebp]
  000f0	8b 02		 mov	 eax, DWORD PTR [edx]
  000f2	8b 4d 08	 mov	 ecx, DWORD PTR _pITableFrame$[ebp]
  000f5	8b 90 e0 00 00
	00		 mov	 edx, DWORD PTR [eax+224]
  000fb	ff d2		 call	 edx
  000fd	0f b6 c0	 movzx	 eax, al
  00100	85 c0		 test	 eax, eax
  00102	75 32		 jne	 SHORT $LN9@ContinueGa

; 812  : 		{			
; 813  : 			ASSERT (FALSE);

  00104	33 c0		 xor	 eax, eax
  00106	75 19		 jne	 SHORT $LN13@ContinueGa
  00108	8b 0d 00 00 00
	00		 mov	 ecx, DWORD PTR ?__LINE__Var@?0??ContinueGame@CImmediateGroup@@IAEXPAUITableFrame@@@Z@4JA
  0010e	83 c1 1c	 add	 ecx, 28			; 0000001cH
  00111	51		 push	 ecx
  00112	68 00 00 00 00	 push	 OFFSET ??_C@_0EL@ONMMFGFJ@g?3?2?M?x?$LK?$PM?2happygamewh?2?$LH?$PO?N?q?$LG?K?2?O?$LF?M?$LD@
  00117	e8 00 00 00 00	 call	 ?AfxAssertFailedLine@@YGHPBDH@Z ; AfxAssertFailedLine
  0011c	85 c0		 test	 eax, eax
  0011e	74 01		 je	 SHORT $LN13@ContinueGa
  00120	cc		 int	 3
$LN13@ContinueGa:

; 814  : 			CTraceService::TraceString(TEXT("继续游戏_坐下失败"),TraceLevel_Exception);

  00121	6a 03		 push	 3
  00123	68 00 00 00 00	 push	 OFFSET ??_C@_0BC@LKGHNAEH@?$LM?L?P?x?S?N?O?$LH_?W?x?O?B?J?$KH?$LA?$NM@
  00128	ff 15 00 00 00
	00		 call	 DWORD PTR __imp_?TraceString@CTraceService@@SA_NPBDW4enTraceLevel@@@Z
  0012e	83 c4 08	 add	 esp, 8

; 815  : 
; 816  : 			continue;

  00131	e9 22 ff ff ff	 jmp	 $LN2@ContinueGa
$LN9@ContinueGa:

; 817  : 		}		
; 818  : 	}

  00136	e9 1d ff ff ff	 jmp	 $LN2@ContinueGa
$LN3@ContinueGa:

; 819  : 
; 820  : 	//设置定时器
; 821  : 	PostMatchTimer(IDI_CHECK_TABLE_START,30,(WPARAM)pITableFrame);

  0013b	6a 00		 push	 0
  0013d	8b 45 08	 mov	 eax, DWORD PTR _pITableFrame$[ebp]
  00140	50		 push	 eax
  00141	6a 1e		 push	 30			; 0000001eH
  00143	6a 03		 push	 3
  00145	8b 4d fc	 mov	 ecx, DWORD PTR _this$[ebp]
  00148	e8 00 00 00 00	 call	 ?PostMatchTimer@CImmediateGroup@@IAEXKHIJ@Z ; CImmediateGroup::PostMatchTimer
$LN1@ContinueGa:

; 822  : }

  0014d	5f		 pop	 edi
  0014e	5e		 pop	 esi
  0014f	5b		 pop	 ebx
  00150	8b e5		 mov	 esp, ebp
  00152	5d		 pop	 ebp
  00153	c2 04 00	 ret	 4
?ContinueGame@CImmediateGroup@@IAEXPAUITableFrame@@@Z ENDP ; CImmediateGroup::ContinueGame
_TEXT	ENDS
; Function compile flags: /Odtp /ZI
; File g:\网狐\happygamewh\服务端\系统模块\服务器组件\比赛服务\immediategroup.cpp
;	COMDAT ?EfficacyStartMatch@CImmediateGroup@@IAEXXZ
_TEXT	SEGMENT
$T1 = -2420						; size = 8
_cbUserMatchStatus$2 = -2089				; size = 1
_wChairID$ = -2088					; size = 2
_pos$ = -2084						; size = 4
_pIServerUserItem$ = -2080				; size = 4
_dwUserID$ = -2076					; size = 4
_wSendSize$3 = -2072					; size = 2
_Message$4 = -2068					; size = 1028
_wSendSize$5 = -1040					; size = 2
_Message$6 = -1036					; size = 1028
_this$ = -8						; size = 4
__$ArrayPad$ = -4					; size = 4
?EfficacyStartMatch@CImmediateGroup@@IAEXXZ PROC	; CImmediateGroup::EfficacyStartMatch, COMDAT
; _this$ = ecx

; 139  : {

  00000	55		 push	 ebp
  00001	8b ec		 mov	 ebp, esp
  00003	81 ec 74 09 00
	00		 sub	 esp, 2420		; 00000974H
  00009	a1 00 00 00 00	 mov	 eax, DWORD PTR ___security_cookie
  0000e	33 c5		 xor	 eax, ebp
  00010	89 45 fc	 mov	 DWORD PTR __$ArrayPad$[ebp], eax
  00013	53		 push	 ebx
  00014	56		 push	 esi
  00015	57		 push	 edi
  00016	89 4d f8	 mov	 DWORD PTR _this$[ebp], ecx

; 140  : 	//插入桌子
; 141  : 	m_pMatchSink->InsertNullTable();

  00019	8b 45 f8	 mov	 eax, DWORD PTR _this$[ebp]
  0001c	8b 48 2c	 mov	 ecx, DWORD PTR [eax+44]
  0001f	8b 55 f8	 mov	 edx, DWORD PTR _this$[ebp]
  00022	8b 01		 mov	 eax, DWORD PTR [ecx]
  00024	8b 4a 2c	 mov	 ecx, DWORD PTR [edx+44]
  00027	8b 50 30	 mov	 edx, DWORD PTR [eax+48]
  0002a	ff d2		 call	 edx

; 142  : 
; 143  : 	//没有桌子的情况
; 144  : 	if( m_MatchTableArray.GetCount()<m_pImmediateMatch->wStartUserCount/m_wChairCount )

  0002c	8b 4d f8	 mov	 ecx, DWORD PTR _this$[ebp]
  0002f	83 c1 68	 add	 ecx, 104		; 00000068H
  00032	e8 00 00 00 00	 call	 ?GetCount@?$CWHArray@PAUtagTableFrameInfo@@ABQAU1@@@QBEHXZ ; CWHArray<tagTableFrameInfo *,tagTableFrameInfo * const &>::GetCount
  00037	8b c8		 mov	 ecx, eax
  00039	8b 55 f8	 mov	 edx, DWORD PTR _this$[ebp]
  0003c	8b 42 34	 mov	 eax, DWORD PTR [edx+52]
  0003f	0f b7 00	 movzx	 eax, WORD PTR [eax]
  00042	0f b7 35 00 00
	00 00		 movzx	 esi, WORD PTR ?m_wChairCount@CImmediateGroup@@1GA ; CImmediateGroup::m_wChairCount
  00049	99		 cdq
  0004a	f7 fe		 idiv	 esi
  0004c	3b c8		 cmp	 ecx, eax
  0004e	0f 8d 5d 01 00
	00		 jge	 $LN4@EfficacySt

; 145  : 	{
; 146  : 		if(m_OnMatchUserMap.GetCount()<m_wChairCount)

  00054	8b 4d f8	 mov	 ecx, DWORD PTR _this$[ebp]
  00057	83 c1 38	 add	 ecx, 56			; 00000038H
  0005a	e8 00 00 00 00	 call	 ?GetCount@?$CMap@KKPAUIServerUserItem@@PAU1@@@QBEHXZ ; CMap<unsigned long,unsigned long,IServerUserItem *,IServerUserItem *>::GetCount
  0005f	0f b7 0d 00 00
	00 00		 movzx	 ecx, WORD PTR ?m_wChairCount@CImmediateGroup@@1GA ; CImmediateGroup::m_wChairCount
  00066	3b c1		 cmp	 eax, ecx
  00068	0f 8d 84 00 00
	00		 jge	 $LN5@EfficacySt

; 147  : 		{
; 148  : 			//构造数据包
; 149  : 			CMD_CM_SystemMessage Message;
; 150  : 			Message.wType=SMT_EJECT|SMT_CHAT|SMT_CLOSE_GAME;

  0006e	b8 03 02 00 00	 mov	 eax, 515		; 00000203H
  00073	66 89 85 f4 fb
	ff ff		 mov	 WORD PTR _Message$6[ebp], ax

; 151  : 			lstrcpyn(Message.szString,TEXT("抱歉，由于某用户强行退出比赛，该场比赛提前结束。你可以继续等待比赛！"),CountArray(Message.szString));

  0007a	68 00 04 00 00	 push	 1024			; 00000400H
  0007f	68 00 00 00 00	 push	 OFFSET ??_C@_0EF@OFDKLJHC@?$LB?$KH?G?$LI?$KD?$KM?S?I?S?Z?D?$LD?S?C?$LL?$KH?G?$LP?P?P?M?K?$LD?v?$LB?H?H?$PM?$KD?$KM?$LI@
  00084	8d 85 f8 fb ff
	ff		 lea	 eax, DWORD PTR _Message$6[ebp+4]
  0008a	50		 push	 eax
  0008b	ff 15 00 00 00
	00		 call	 DWORD PTR __imp__lstrcpynA@12

; 152  : 
; 153  : 			Message.wLength=CountStringBuffer(Message.szString);

  00091	8d 85 f8 fb ff
	ff		 lea	 eax, DWORD PTR _Message$6[ebp+4]
  00097	50		 push	 eax
  00098	ff 15 00 00 00
	00		 call	 DWORD PTR __imp__lstrlenA@4
  0009e	83 c0 01	 add	 eax, 1
  000a1	66 89 85 f6 fb
	ff ff		 mov	 WORD PTR _Message$6[ebp+2], ax

; 154  : 			//发送数据
; 155  : 			WORD wSendSize=sizeof(Message)-sizeof(Message.szString)+Message.wLength*sizeof(TCHAR);

  000a8	0f b7 85 f6 fb
	ff ff		 movzx	 eax, WORD PTR _Message$6[ebp+2]
  000af	83 c0 04	 add	 eax, 4
  000b2	66 89 85 f0 fb
	ff ff		 mov	 WORD PTR _wSendSize$5[ebp], ax

; 156  : 			m_pMatchSink->SendGroupData(MDM_CM_SYSTEM,SUB_CM_SYSTEM_MESSAGE,&Message,wSendSize, this);

  000b9	8b 45 f8	 mov	 eax, DWORD PTR _this$[ebp]
  000bc	50		 push	 eax
  000bd	0f b7 8d f0 fb
	ff ff		 movzx	 ecx, WORD PTR _wSendSize$5[ebp]
  000c4	51		 push	 ecx
  000c5	8d 95 f4 fb ff
	ff		 lea	 edx, DWORD PTR _Message$6[ebp]
  000cb	52		 push	 edx
  000cc	6a 01		 push	 1
  000ce	68 e8 03 00 00	 push	 1000			; 000003e8H
  000d3	8b 45 f8	 mov	 eax, DWORD PTR _this$[ebp]
  000d6	8b 48 2c	 mov	 ecx, DWORD PTR [eax+44]
  000d9	8b 55 f8	 mov	 edx, DWORD PTR _this$[ebp]
  000dc	8b 01		 mov	 eax, DWORD PTR [ecx]
  000de	8b 4a 2c	 mov	 ecx, DWORD PTR [edx+44]
  000e1	8b 50 28	 mov	 edx, DWORD PTR [eax+40]
  000e4	ff d2		 call	 edx

; 157  : 			m_cbMatchStatus=MatchStatus_Signup;

  000e6	8b 45 f8	 mov	 eax, DWORD PTR _this$[ebp]
  000e9	c6 40 18 01	 mov	 BYTE PTR [eax+24], 1

; 158  : 			return ;

  000ed	e9 22 02 00 00	 jmp	 $LN1@EfficacySt
$LN5@EfficacySt:

; 159  : 		}
; 160  : 
; 161  : 		m_cbMatchStatus=MatchStatus_Wait;

  000f2	8b 45 f8	 mov	 eax, DWORD PTR _this$[ebp]
  000f5	c6 40 18 02	 mov	 BYTE PTR [eax+24], 2

; 162  : 		//3秒后继续调用该函数直到有桌子
; 163  : 		SetMatchGameTimer(IDI_WAIT_TABLE,3000,1,NULL);

  000f9	6a 00		 push	 0
  000fb	6a 01		 push	 1
  000fd	68 b8 0b 00 00	 push	 3000			; 00000bb8H
  00102	68 d4 00 00 00	 push	 212			; 000000d4H
  00107	8b 4d f8	 mov	 ecx, DWORD PTR _this$[ebp]
  0010a	e8 00 00 00 00	 call	 ?SetMatchGameTimer@CImmediateGroup@@IAEXKKKI@Z ; CImmediateGroup::SetMatchGameTimer

; 164  : 
; 165  : 		//构造数据包
; 166  : 		CMD_CM_SystemMessage Message;
; 167  : 		Message.wType=SMT_CHAT;

  0010f	b8 01 00 00 00	 mov	 eax, 1
  00114	66 89 85 ec f7
	ff ff		 mov	 WORD PTR _Message$4[ebp], ax

; 168  : 		_sntprintf_s(Message.szString,CountArray(Message.szString),

  0011b	8b 45 f8	 mov	 eax, DWORD PTR _this$[ebp]
  0011e	8b 48 34	 mov	 ecx, DWORD PTR [eax+52]
  00121	0f b7 01	 movzx	 eax, WORD PTR [ecx]
  00124	0f b7 0d 00 00
	00 00		 movzx	 ecx, WORD PTR ?m_wChairCount@CImmediateGroup@@1GA ; CImmediateGroup::m_wChairCount
  0012b	99		 cdq
  0012c	f7 f9		 idiv	 ecx
  0012e	8b f0		 mov	 esi, eax
  00130	8b 4d f8	 mov	 ecx, DWORD PTR _this$[ebp]
  00133	83 c1 68	 add	 ecx, 104		; 00000068H
  00136	e8 00 00 00 00	 call	 ?GetCount@?$CWHArray@PAUtagTableFrameInfo@@ABQAU1@@@QBEHXZ ; CWHArray<tagTableFrameInfo *,tagTableFrameInfo * const &>::GetCount
  0013b	2b f0		 sub	 esi, eax
  0013d	56		 push	 esi
  0013e	68 00 00 00 00	 push	 OFFSET ??_C@_0EA@BEFMOLA@?$LB?$KH?G?$LI?$KD?$KM?S?I?S?Z?$LJ?$PN?$LG?$OA?S?C?$LL?$KH?W?$MA?W?S?J?$PN?A?$LP?$LC?$LL?$LJ?$LL?$KD@
  00143	68 00 04 00 00	 push	 1024			; 00000400H
  00148	8d 95 f0 f7 ff
	ff		 lea	 edx, DWORD PTR _Message$4[ebp+4]
  0014e	52		 push	 edx
  0014f	e8 00 00 00 00	 call	 ??$_snprintf_s@$0EAA@@@YAHAAY0EAA@DIPBDZZ ; _snprintf_s<1024>
  00154	83 c4 10	 add	 esp, 16			; 00000010H

; 169  : 			TEXT("抱歉，由于过多用户桌子数量不够！还差 %d 张桌子开赛,请等待。。。"),m_pImmediateMatch->wStartUserCount/m_wChairCount-m_MatchTableArray.GetCount());
; 170  : 		Message.wLength=CountStringBuffer(Message.szString);

  00157	8d 85 f0 f7 ff
	ff		 lea	 eax, DWORD PTR _Message$4[ebp+4]
  0015d	50		 push	 eax
  0015e	ff 15 00 00 00
	00		 call	 DWORD PTR __imp__lstrlenA@4
  00164	83 c0 01	 add	 eax, 1
  00167	66 89 85 ee f7
	ff ff		 mov	 WORD PTR _Message$4[ebp+2], ax

; 171  : 
; 172  : 		//发送数据
; 173  : 		WORD wSendSize=sizeof(Message)-sizeof(Message.szString)+Message.wLength*sizeof(TCHAR);

  0016e	0f b7 85 ee f7
	ff ff		 movzx	 eax, WORD PTR _Message$4[ebp+2]
  00175	83 c0 04	 add	 eax, 4
  00178	66 89 85 e8 f7
	ff ff		 mov	 WORD PTR _wSendSize$3[ebp], ax

; 174  : 		m_pMatchSink->SendGroupData(MDM_CM_SYSTEM,SUB_CM_SYSTEM_MESSAGE,&Message,wSendSize, this);

  0017f	8b 45 f8	 mov	 eax, DWORD PTR _this$[ebp]
  00182	50		 push	 eax
  00183	0f b7 8d e8 f7
	ff ff		 movzx	 ecx, WORD PTR _wSendSize$3[ebp]
  0018a	51		 push	 ecx
  0018b	8d 95 ec f7 ff
	ff		 lea	 edx, DWORD PTR _Message$4[ebp]
  00191	52		 push	 edx
  00192	6a 01		 push	 1
  00194	68 e8 03 00 00	 push	 1000			; 000003e8H
  00199	8b 45 f8	 mov	 eax, DWORD PTR _this$[ebp]
  0019c	8b 48 2c	 mov	 ecx, DWORD PTR [eax+44]
  0019f	8b 55 f8	 mov	 edx, DWORD PTR _this$[ebp]
  001a2	8b 01		 mov	 eax, DWORD PTR [ecx]
  001a4	8b 4a 2c	 mov	 ecx, DWORD PTR [edx+44]
  001a7	8b 50 28	 mov	 edx, DWORD PTR [eax+40]
  001aa	ff d2		 call	 edx

; 175  : 		return ;

  001ac	e9 63 01 00 00	 jmp	 $LN1@EfficacySt
$LN4@EfficacySt:

; 176  : 	}
; 177  : 
; 178  : 	//预赛安排座位
; 179  : 	DWORD dwUserID=0L;

  001b1	c7 85 e4 f7 ff
	ff 00 00 00 00	 mov	 DWORD PTR _dwUserID$[ebp], 0

; 180  : 	IServerUserItem *pIServerUserItem=NULL;

  001bb	c7 85 e0 f7 ff
	ff 00 00 00 00	 mov	 DWORD PTR _pIServerUserItem$[ebp], 0

; 181  : 	POSITION pos=m_OnMatchUserMap.GetStartPosition();

  001c5	8b 4d f8	 mov	 ecx, DWORD PTR _this$[ebp]
  001c8	83 c1 38	 add	 ecx, 56			; 00000038H
  001cb	e8 00 00 00 00	 call	 ?GetStartPosition@?$CMap@KKPAUIServerUserItem@@PAU1@@@QBEPAU__POSITION@@XZ ; CMap<unsigned long,unsigned long,IServerUserItem *,IServerUserItem *>::GetStartPosition
  001d0	89 85 dc f7 ff
	ff		 mov	 DWORD PTR _pos$[ebp], eax

; 182  : 
; 183  : 	WORD wChairID=0;

  001d6	33 c0		 xor	 eax, eax
  001d8	66 89 85 d8 f7
	ff ff		 mov	 WORD PTR _wChairID$[ebp], ax
$LN2@EfficacySt:

; 184  : 	while (pos!=NULL)

  001df	83 bd dc f7 ff
	ff 00		 cmp	 DWORD PTR _pos$[ebp], 0
  001e6	0f 84 ca 00 00
	00		 je	 $LN3@EfficacySt

; 185  : 	{
; 186  : 		//获取用户
; 187  : 		m_OnMatchUserMap.GetNextAssoc(pos,dwUserID,pIServerUserItem);

  001ec	8d 85 e0 f7 ff
	ff		 lea	 eax, DWORD PTR _pIServerUserItem$[ebp]
  001f2	50		 push	 eax
  001f3	8d 8d e4 f7 ff
	ff		 lea	 ecx, DWORD PTR _dwUserID$[ebp]
  001f9	51		 push	 ecx
  001fa	8d 95 dc f7 ff
	ff		 lea	 edx, DWORD PTR _pos$[ebp]
  00200	52		 push	 edx
  00201	8b 4d f8	 mov	 ecx, DWORD PTR _this$[ebp]
  00204	83 c1 38	 add	 ecx, 56			; 00000038H
  00207	e8 00 00 00 00	 call	 ?GetNextAssoc@?$CMap@KKPAUIServerUserItem@@PAU1@@@QBEXAAPAU__POSITION@@AAKAAPAUIServerUserItem@@@Z ; CMap<unsigned long,unsigned long,IServerUserItem *,IServerUserItem *>::GetNextAssoc

; 188  : 		ASSERT(pIServerUserItem!=NULL);

  0020c	83 bd e0 f7 ff
	ff 00		 cmp	 DWORD PTR _pIServerUserItem$[ebp], 0
  00213	75 18		 jne	 SHORT $LN8@EfficacySt
  00215	a1 00 00 00 00	 mov	 eax, DWORD PTR ?__LINE__Var@?0??EfficacyStartMatch@CImmediateGroup@@IAEXXZ@4JA
  0021a	83 c0 31	 add	 eax, 49			; 00000031H
  0021d	50		 push	 eax
  0021e	68 00 00 00 00	 push	 OFFSET ??_C@_0EL@ONMMFGFJ@g?3?2?M?x?$LK?$PM?2happygamewh?2?$LH?$PO?N?q?$LG?K?2?O?$LF?M?$LD@
  00223	e8 00 00 00 00	 call	 ?AfxAssertFailedLine@@YGHPBDH@Z ; AfxAssertFailedLine
  00228	85 c0		 test	 eax, eax
  0022a	74 01		 je	 SHORT $LN8@EfficacySt
  0022c	cc		 int	 3
$LN8@EfficacySt:

; 189  : 
; 190  : 		InsertFreeGroup(pIServerUserItem);

  0022d	8b 85 e0 f7 ff
	ff		 mov	 eax, DWORD PTR _pIServerUserItem$[ebp]
  00233	50		 push	 eax
  00234	8b 4d f8	 mov	 ecx, DWORD PTR _this$[ebp]
  00237	e8 00 00 00 00	 call	 ?InsertFreeGroup@CImmediateGroup@@IAEXPAUIServerUserItem@@@Z ; CImmediateGroup::InsertFreeGroup

; 191  : 
; 192  : 		//设置用户比赛中
; 193  : 		pIServerUserItem->SetUserMatchStatus(MUS_PLAYING);

  0023c	6a 04		 push	 4
  0023e	8b 85 e0 f7 ff
	ff		 mov	 eax, DWORD PTR _pIServerUserItem$[ebp]
  00244	8b 10		 mov	 edx, DWORD PTR [eax]
  00246	8b 8d e0 f7 ff
	ff		 mov	 ecx, DWORD PTR _pIServerUserItem$[ebp]
  0024c	8b 82 ec 00 00
	00		 mov	 eax, DWORD PTR [edx+236]
  00252	ff d0		 call	 eax

; 194  : 		pIServerUserItem->SetMatchData(this);

  00254	8b 45 f8	 mov	 eax, DWORD PTR _this$[ebp]
  00257	50		 push	 eax
  00258	8b 8d e0 f7 ff
	ff		 mov	 ecx, DWORD PTR _pIServerUserItem$[ebp]
  0025e	8b 11		 mov	 edx, DWORD PTR [ecx]
  00260	8b 8d e0 f7 ff
	ff		 mov	 ecx, DWORD PTR _pIServerUserItem$[ebp]
  00266	8b 82 dc 00 00
	00		 mov	 eax, DWORD PTR [edx+220]
  0026c	ff d0		 call	 eax

; 195  : 
; 196  : 		//发送状态
; 197  : 		BYTE cbUserMatchStatus=pIServerUserItem->GetUserMatchStatus();

  0026e	8b 85 e0 f7 ff
	ff		 mov	 eax, DWORD PTR _pIServerUserItem$[ebp]
  00274	8b 10		 mov	 edx, DWORD PTR [eax]
  00276	8b 8d e0 f7 ff
	ff		 mov	 ecx, DWORD PTR _pIServerUserItem$[ebp]
  0027c	8b 82 e8 00 00
	00		 mov	 eax, DWORD PTR [edx+232]
  00282	ff d0		 call	 eax
  00284	88 85 d7 f7 ff
	ff		 mov	 BYTE PTR _cbUserMatchStatus$2[ebp], al

; 198  : 		m_pMatchSink->SendData(pIServerUserItem,MDM_GR_MATCH,SUB_GR_MATCH_USTATUS,&cbUserMatchStatus,sizeof(cbUserMatchStatus));

  0028a	6a 01		 push	 1
  0028c	8d 85 d7 f7 ff
	ff		 lea	 eax, DWORD PTR _cbUserMatchStatus$2[ebp]
  00292	50		 push	 eax
  00293	6a 0b		 push	 11			; 0000000bH
  00295	6a 0a		 push	 10			; 0000000aH
  00297	8b 8d e0 f7 ff
	ff		 mov	 ecx, DWORD PTR _pIServerUserItem$[ebp]
  0029d	51		 push	 ecx
  0029e	8b 55 f8	 mov	 edx, DWORD PTR _this$[ebp]
  002a1	8b 42 2c	 mov	 eax, DWORD PTR [edx+44]
  002a4	8b 4d f8	 mov	 ecx, DWORD PTR _this$[ebp]
  002a7	8b 10		 mov	 edx, DWORD PTR [eax]
  002a9	8b 49 2c	 mov	 ecx, DWORD PTR [ecx+44]
  002ac	8b 42 2c	 mov	 eax, DWORD PTR [edx+44]
  002af	ff d0		 call	 eax

; 199  : 	}

  002b1	e9 29 ff ff ff	 jmp	 $LN2@EfficacySt
$LN3@EfficacySt:

; 200  : 
; 201  : 	//桌子自动拉人
; 202  : 	PerformDistributeTable();

  002b6	8b 4d f8	 mov	 ecx, DWORD PTR _this$[ebp]
  002b9	e8 00 00 00 00	 call	 ?PerformDistributeTable@CImmediateGroup@@IAEXXZ ; CImmediateGroup::PerformDistributeTable

; 203  : 
; 204  : 	//设置状态	
; 205  : 	m_cbMatchStatus=MatchStatus_Playing;

  002be	8b 45 f8	 mov	 eax, DWORD PTR _this$[ebp]
  002c1	c6 40 18 03	 mov	 BYTE PTR [eax+24], 3

; 206  : 
; 207  : 	//记录时间
; 208  : 	CTime::GetCurrentTime().GetAsSystemTime(m_MatchStartTime);

  002c5	8b 45 f8	 mov	 eax, DWORD PTR _this$[ebp]
  002c8	83 c0 1c	 add	 eax, 28			; 0000001cH
  002cb	50		 push	 eax
  002cc	8d 8d 8c f6 ff
	ff		 lea	 ecx, DWORD PTR $T1[ebp]
  002d2	51		 push	 ecx
  002d3	e8 00 00 00 00	 call	 ?GetTickCount@CTime@ATL@@SG?AV12@XZ ; ATL::CTime::GetTickCount
  002d8	8b c8		 mov	 ecx, eax
  002da	e8 00 00 00 00	 call	 ?GetAsSystemTime@CTime@ATL@@QBE_NAAU_SYSTEMTIME@@@Z ; ATL::CTime::GetAsSystemTime

; 209  : 	
; 210  : 	//开始通知
; 211  : 	if (m_pMatchSink!=NULL) m_pMatchSink->OnEventMatchStart(this);

  002df	8b 45 f8	 mov	 eax, DWORD PTR _this$[ebp]
  002e2	83 78 2c 00	 cmp	 DWORD PTR [eax+44], 0
  002e6	74 16		 je	 SHORT $LN6@EfficacySt
  002e8	8b 45 f8	 mov	 eax, DWORD PTR _this$[ebp]
  002eb	50		 push	 eax
  002ec	8b 4d f8	 mov	 ecx, DWORD PTR _this$[ebp]
  002ef	8b 51 2c	 mov	 edx, DWORD PTR [ecx+44]
  002f2	8b 45 f8	 mov	 eax, DWORD PTR _this$[ebp]
  002f5	8b 12		 mov	 edx, DWORD PTR [edx]
  002f7	8b 48 2c	 mov	 ecx, DWORD PTR [eax+44]
  002fa	8b 02		 mov	 eax, DWORD PTR [edx]
  002fc	ff d0		 call	 eax
$LN6@EfficacySt:

; 212  : 		
; 213  : 	//设置定时器
; 214  : 	SetMatchGameTimer(IDI_CHECK_MATCH,1000,TIMES_INFINITY,0);

  002fe	6a 00		 push	 0
  00300	6a ff		 push	 -1
  00302	68 e8 03 00 00	 push	 1000			; 000003e8H
  00307	68 d3 00 00 00	 push	 211			; 000000d3H
  0030c	8b 4d f8	 mov	 ecx, DWORD PTR _this$[ebp]
  0030f	e8 00 00 00 00	 call	 ?SetMatchGameTimer@CImmediateGroup@@IAEXKKKI@Z ; CImmediateGroup::SetMatchGameTimer
$LN1@EfficacySt:

; 215  : }

  00314	5f		 pop	 edi
  00315	5e		 pop	 esi
  00316	5b		 pop	 ebx
  00317	8b 4d fc	 mov	 ecx, DWORD PTR __$ArrayPad$[ebp]
  0031a	33 cd		 xor	 ecx, ebp
  0031c	e8 00 00 00 00	 call	 @__security_check_cookie@4
  00321	8b e5		 mov	 esp, ebp
  00323	5d		 pop	 ebp
  00324	c3		 ret	 0
?EfficacyStartMatch@CImmediateGroup@@IAEXXZ ENDP	; CImmediateGroup::EfficacyStartMatch
_TEXT	ENDS
; Function compile flags: /Odtp /ZI
; File g:\网狐\happygamewh\服务端\系统模块\服务器组件\比赛服务\immediategroup.cpp
;	COMDAT ?MatchOver@CImmediateGroup@@IAEXXZ
_TEXT	SEGMENT
_this$ = -4						; size = 4
?MatchOver@CImmediateGroup@@IAEXXZ PROC			; CImmediateGroup::MatchOver, COMDAT
; _this$ = ecx

; 533  : {

  00000	55		 push	 ebp
  00001	8b ec		 mov	 ebp, esp
  00003	83 ec 44	 sub	 esp, 68			; 00000044H
  00006	53		 push	 ebx
  00007	56		 push	 esi
  00008	57		 push	 edi
  00009	89 4d fc	 mov	 DWORD PTR _this$[ebp], ecx

; 534  : 	//删除定时器
; 535  : 	AllKillMatchTimer();

  0000c	8b 4d fc	 mov	 ecx, DWORD PTR _this$[ebp]
  0000f	e8 00 00 00 00	 call	 ?AllKillMatchTimer@CImmediateGroup@@IAEXXZ ; CImmediateGroup::AllKillMatchTimer

; 536  : 	KillMatchGameTimer(IDI_CHECK_MATCH);

  00014	68 d3 00 00 00	 push	 211			; 000000d3H
  00019	8b 4d fc	 mov	 ecx, DWORD PTR _this$[ebp]
  0001c	e8 00 00 00 00	 call	 ?KillMatchGameTimer@CImmediateGroup@@IAEXK@Z ; CImmediateGroup::KillMatchGameTimer

; 537  : 	KillMatchGameTimer(IDI_WAIT_TABLE);

  00021	68 d4 00 00 00	 push	 212			; 000000d4H
  00026	8b 4d fc	 mov	 ecx, DWORD PTR _this$[ebp]
  00029	e8 00 00 00 00	 call	 ?KillMatchGameTimer@CImmediateGroup@@IAEXK@Z ; CImmediateGroup::KillMatchGameTimer

; 538  : 	KillMatchGameTimer(IDI_SWITCH_TABLE);

  0002e	68 d6 00 00 00	 push	 214			; 000000d6H
  00033	8b 4d fc	 mov	 ecx, DWORD PTR _this$[ebp]
  00036	e8 00 00 00 00	 call	 ?KillMatchGameTimer@CImmediateGroup@@IAEXK@Z ; CImmediateGroup::KillMatchGameTimer

; 539  : 	KillMatchGameTimer(IDI_MATCH_FINISH);

  0003b	68 d8 00 00 00	 push	 216			; 000000d8H
  00040	8b 4d fc	 mov	 ecx, DWORD PTR _this$[ebp]
  00043	e8 00 00 00 00	 call	 ?KillMatchGameTimer@CImmediateGroup@@IAEXK@Z ; CImmediateGroup::KillMatchGameTimer

; 540  : 
; 541  : 	//设置比赛状态
; 542  : 	if (m_cbMatchStatus==MatchStatus_Playing)

  00048	8b 45 fc	 mov	 eax, DWORD PTR _this$[ebp]
  0004b	0f b6 48 18	 movzx	 ecx, BYTE PTR [eax+24]
  0004f	83 f9 03	 cmp	 ecx, 3
  00052	75 1e		 jne	 SHORT $LN1@MatchOver

; 543  : 	{
; 544  : 		m_cbMatchStatus=MatchStatus_Null;

  00054	8b 45 fc	 mov	 eax, DWORD PTR _this$[ebp]
  00057	c6 40 18 00	 mov	 BYTE PTR [eax+24], 0

; 545  : 		m_pMatchSink->OnEventMatchOver(this);

  0005b	8b 45 fc	 mov	 eax, DWORD PTR _this$[ebp]
  0005e	50		 push	 eax
  0005f	8b 4d fc	 mov	 ecx, DWORD PTR _this$[ebp]
  00062	8b 51 2c	 mov	 edx, DWORD PTR [ecx+44]
  00065	8b 45 fc	 mov	 eax, DWORD PTR _this$[ebp]
  00068	8b 12		 mov	 edx, DWORD PTR [edx]
  0006a	8b 48 2c	 mov	 ecx, DWORD PTR [eax+44]
  0006d	8b 42 04	 mov	 eax, DWORD PTR [edx+4]
  00070	ff d0		 call	 eax
$LN1@MatchOver:

; 546  : 	}
; 547  : }

  00072	5f		 pop	 edi
  00073	5e		 pop	 esi
  00074	5b		 pop	 ebx
  00075	8b e5		 mov	 esp, ebp
  00077	5d		 pop	 ebp
  00078	c3		 ret	 0
?MatchOver@CImmediateGroup@@IAEXXZ ENDP			; CImmediateGroup::MatchOver
_TEXT	ENDS
; Function compile flags: /Odtp /ZI
; File g:\网狐\happygamewh\服务端\系统模块\服务器组件\比赛服务\immediategroup.cpp
;	COMDAT ?OnTimeMessage@CImmediateGroup@@IAE_NKI@Z
_TEXT	SEGMENT
tv67 = -72						; size = 4
_this$ = -4						; size = 4
_dwTimerID$ = 8						; size = 4
_dwBindParameter$ = 12					; size = 4
?OnTimeMessage@CImmediateGroup@@IAE_NKI@Z PROC		; CImmediateGroup::OnTimeMessage, COMDAT
; _this$ = ecx

; 244  : {

  00000	55		 push	 ebp
  00001	8b ec		 mov	 ebp, esp
  00003	83 ec 48	 sub	 esp, 72			; 00000048H
  00006	53		 push	 ebx
  00007	56		 push	 esi
  00008	57		 push	 edi
  00009	89 4d fc	 mov	 DWORD PTR _this$[ebp], ecx

; 245  : 	//状态校验
; 246  : 	if(m_cbMatchStatus==MatchStatus_Null) return true;

  0000c	8b 45 fc	 mov	 eax, DWORD PTR _this$[ebp]
  0000f	0f b6 48 18	 movzx	 ecx, BYTE PTR [eax+24]
  00013	85 c9		 test	 ecx, ecx
  00015	75 04		 jne	 SHORT $LN4@OnTimeMess
  00017	b0 01		 mov	 al, 1
  00019	eb 75		 jmp	 SHORT $LN1@OnTimeMess
$LN4@OnTimeMess:

; 247  : 
; 248  : 	switch(dwTimerID)

  0001b	8b 45 08	 mov	 eax, DWORD PTR _dwTimerID$[ebp]
  0001e	89 45 b8	 mov	 DWORD PTR tv67[ebp], eax
  00021	8b 4d b8	 mov	 ecx, DWORD PTR tv67[ebp]
  00024	81 e9 d3 00 00
	00		 sub	 ecx, 211		; 000000d3H
  0002a	89 4d b8	 mov	 DWORD PTR tv67[ebp], ecx
  0002d	83 7d b8 05	 cmp	 DWORD PTR tv67[ebp], 5
  00031	77 5b		 ja	 SHORT $LN2@OnTimeMess
  00033	8b 55 b8	 mov	 edx, DWORD PTR tv67[ebp]
  00036	ff 24 95 00 00
	00 00		 jmp	 DWORD PTR $LN11@OnTimeMess[edx*4]
$LN5@OnTimeMess:

; 249  : 	{
; 250  : 	case IDI_CHECK_MATCH:
; 251  : 		{
; 252  : 			CaptureMatchTimer();

  0003d	8b 4d fc	 mov	 ecx, DWORD PTR _this$[ebp]
  00040	e8 00 00 00 00	 call	 ?CaptureMatchTimer@CImmediateGroup@@IAEXXZ ; CImmediateGroup::CaptureMatchTimer

; 253  : 
; 254  : 			return true;

  00045	b0 01		 mov	 al, 1
  00047	eb 47		 jmp	 SHORT $LN1@OnTimeMess
$LN6@OnTimeMess:

; 255  : 		}
; 256  : 	case IDI_WAIT_TABLE:
; 257  : 		{
; 258  : 			if(m_cbMatchStatus==MatchStatus_Wait)

  00049	8b 45 fc	 mov	 eax, DWORD PTR _this$[ebp]
  0004c	0f b6 48 18	 movzx	 ecx, BYTE PTR [eax+24]
  00050	83 f9 02	 cmp	 ecx, 2
  00053	75 08		 jne	 SHORT $LN7@OnTimeMess

; 259  : 			{
; 260  : 				EfficacyStartMatch();

  00055	8b 4d fc	 mov	 ecx, DWORD PTR _this$[ebp]
  00058	e8 00 00 00 00	 call	 ?EfficacyStartMatch@CImmediateGroup@@IAEXXZ ; CImmediateGroup::EfficacyStartMatch
$LN7@OnTimeMess:

; 261  : 			}
; 262  : 
; 263  : 			return true;

  0005d	b0 01		 mov	 al, 1
  0005f	eb 2f		 jmp	 SHORT $LN1@OnTimeMess
$LN8@OnTimeMess:

; 264  : 		}
; 265  : 	case IDI_SWITCH_TABLE:
; 266  : 		{	
; 267  : 			//关闭定时器
; 268  : 			KillMatchGameTimer(IDI_SWITCH_TABLE);

  00061	68 d6 00 00 00	 push	 214			; 000000d6H
  00066	8b 4d fc	 mov	 ecx, DWORD PTR _this$[ebp]
  00069	e8 00 00 00 00	 call	 ?KillMatchGameTimer@CImmediateGroup@@IAEXK@Z ; CImmediateGroup::KillMatchGameTimer

; 269  : 
; 270  : 			//全部起立
; 271  : 			PerformAllUserStandUp();

  0006e	8b 4d fc	 mov	 ecx, DWORD PTR _this$[ebp]
  00071	e8 00 00 00 00	 call	 ?PerformAllUserStandUp@CImmediateGroup@@IAEXXZ ; CImmediateGroup::PerformAllUserStandUp

; 272  : 
; 273  : 			//分配桌子
; 274  : 			PerformDistributeTable();

  00076	8b 4d fc	 mov	 ecx, DWORD PTR _this$[ebp]
  00079	e8 00 00 00 00	 call	 ?PerformDistributeTable@CImmediateGroup@@IAEXXZ ; CImmediateGroup::PerformDistributeTable

; 275  : 
; 276  : 			return true;

  0007e	b0 01		 mov	 al, 1
  00080	eb 0e		 jmp	 SHORT $LN1@OnTimeMess
$LN9@OnTimeMess:

; 277  : 		}
; 278  : 	case IDI_MATCH_FINISH:
; 279  : 		{
; 280  : 			//最后结束
; 281  : 			MatchOver();

  00082	8b 4d fc	 mov	 ecx, DWORD PTR _this$[ebp]
  00085	e8 00 00 00 00	 call	 ?MatchOver@CImmediateGroup@@IAEXXZ ; CImmediateGroup::MatchOver

; 282  : 
; 283  : 			return true;

  0008a	b0 01		 mov	 al, 1
  0008c	eb 02		 jmp	 SHORT $LN1@OnTimeMess
$LN2@OnTimeMess:

; 284  : 		}
; 285  : 	}
; 286  : 
; 287  : 	return true;

  0008e	b0 01		 mov	 al, 1
$LN1@OnTimeMess:

; 288  : }

  00090	5f		 pop	 edi
  00091	5e		 pop	 esi
  00092	5b		 pop	 ebx
  00093	8b e5		 mov	 esp, ebp
  00095	5d		 pop	 ebp
  00096	c2 08 00	 ret	 8
  00099	0f 1f 00	 npad	 3
$LN11@OnTimeMess:
  0009c	00 00 00 00	 DD	 $LN5@OnTimeMess
  000a0	00 00 00 00	 DD	 $LN6@OnTimeMess
  000a4	00 00 00 00	 DD	 $LN2@OnTimeMess
  000a8	00 00 00 00	 DD	 $LN8@OnTimeMess
  000ac	00 00 00 00	 DD	 $LN2@OnTimeMess
  000b0	00 00 00 00	 DD	 $LN9@OnTimeMess
?OnTimeMessage@CImmediateGroup@@IAE_NKI@Z ENDP		; CImmediateGroup::OnTimeMessage
_TEXT	ENDS
; Function compile flags: /Odtp /ZI
; File g:\网狐\happygamewh\服务端\系统模块\服务器组件\比赛服务\immediategroup.cpp
;	COMDAT ?InsertFreeGroup@CImmediateGroup@@IAEXPAUIServerUserItem@@@Z
_TEXT	SEGMENT
tv88 = -76						; size = 4
_i$1 = -8						; size = 4
_this$ = -4						; size = 4
_pUserServerItem$ = 8					; size = 4
?InsertFreeGroup@CImmediateGroup@@IAEXPAUIServerUserItem@@@Z PROC ; CImmediateGroup::InsertFreeGroup, COMDAT
; _this$ = ecx

; 889  : {

  00000	55		 push	 ebp
  00001	8b ec		 mov	 ebp, esp
  00003	83 ec 4c	 sub	 esp, 76			; 0000004cH
  00006	53		 push	 ebx
  00007	56		 push	 esi
  00008	57		 push	 edi
  00009	89 4d fc	 mov	 DWORD PTR _this$[ebp], ecx

; 890  : 	//参数校验
; 891  : 	ASSERT (pUserServerItem!=NULL);

  0000c	83 7d 08 00	 cmp	 DWORD PTR _pUserServerItem$[ebp], 0
  00010	75 18		 jne	 SHORT $LN8@InsertFree
  00012	a1 00 00 00 00	 mov	 eax, DWORD PTR ?__LINE__Var@?0??InsertFreeGroup@CImmediateGroup@@IAEXPAUIServerUserItem@@@Z@4JA
  00017	83 c0 02	 add	 eax, 2
  0001a	50		 push	 eax
  0001b	68 00 00 00 00	 push	 OFFSET ??_C@_0EL@ONMMFGFJ@g?3?2?M?x?$LK?$PM?2happygamewh?2?$LH?$PO?N?q?$LG?K?2?O?$LF?M?$LD@
  00020	e8 00 00 00 00	 call	 ?AfxAssertFailedLine@@YGHPBDH@Z ; AfxAssertFailedLine
  00025	85 c0		 test	 eax, eax
  00027	74 01		 je	 SHORT $LN8@InsertFree
  00029	cc		 int	 3
$LN8@InsertFree:

; 892  : 	if (pUserServerItem==NULL) return;

  0002a	83 7d 08 00	 cmp	 DWORD PTR _pUserServerItem$[ebp], 0
  0002e	75 02		 jne	 SHORT $LN5@InsertFree
  00030	eb 7d		 jmp	 SHORT $LN1@InsertFree
$LN5@InsertFree:

; 893  : 	
; 894  : 	for(int i=0;i<m_FreeUserArray.GetCount();i++)

  00032	c7 45 f8 00 00
	00 00		 mov	 DWORD PTR _i$1[ebp], 0
  00039	eb 09		 jmp	 SHORT $LN4@InsertFree
$LN2@InsertFree:
  0003b	8b 45 f8	 mov	 eax, DWORD PTR _i$1[ebp]
  0003e	83 c0 01	 add	 eax, 1
  00041	89 45 f8	 mov	 DWORD PTR _i$1[ebp], eax
$LN4@InsertFree:
  00044	8b 4d fc	 mov	 ecx, DWORD PTR _this$[ebp]
  00047	83 c1 54	 add	 ecx, 84			; 00000054H
  0004a	e8 00 00 00 00	 call	 ?GetCount@?$CWHArray@PAUIServerUserItem@@ABQAU1@@@QBEHXZ ; CWHArray<IServerUserItem *,IServerUserItem * const &>::GetCount
  0004f	39 45 f8	 cmp	 DWORD PTR _i$1[ebp], eax
  00052	7d 4c		 jge	 SHORT $LN3@InsertFree

; 895  : 	{
; 896  : 		if( m_FreeUserArray[i] != NULL && m_FreeUserArray[i]->GetUserID()==pUserServerItem->GetUserID()) return;

  00054	8b 45 f8	 mov	 eax, DWORD PTR _i$1[ebp]
  00057	50		 push	 eax
  00058	8b 4d fc	 mov	 ecx, DWORD PTR _this$[ebp]
  0005b	83 c1 54	 add	 ecx, 84			; 00000054H
  0005e	e8 00 00 00 00	 call	 ??A?$CWHArray@PAUIServerUserItem@@ABQAU1@@@QAEAAPAUIServerUserItem@@H@Z ; CWHArray<IServerUserItem *,IServerUserItem * const &>::operator[]
  00063	83 38 00	 cmp	 DWORD PTR [eax], 0
  00066	74 36		 je	 SHORT $LN6@InsertFree
  00068	8b 45 f8	 mov	 eax, DWORD PTR _i$1[ebp]
  0006b	50		 push	 eax
  0006c	8b 4d fc	 mov	 ecx, DWORD PTR _this$[ebp]
  0006f	83 c1 54	 add	 ecx, 84			; 00000054H
  00072	e8 00 00 00 00	 call	 ??A?$CWHArray@PAUIServerUserItem@@ABQAU1@@@QAEAAPAUIServerUserItem@@H@Z ; CWHArray<IServerUserItem *,IServerUserItem * const &>::operator[]
  00077	8b 08		 mov	 ecx, DWORD PTR [eax]
  00079	89 4d b4	 mov	 DWORD PTR tv88[ebp], ecx
  0007c	8b 55 b4	 mov	 edx, DWORD PTR tv88[ebp]
  0007f	8b 02		 mov	 eax, DWORD PTR [edx]
  00081	8b 4d b4	 mov	 ecx, DWORD PTR tv88[ebp]
  00084	8b 50 5c	 mov	 edx, DWORD PTR [eax+92]
  00087	ff d2		 call	 edx
  00089	8b f0		 mov	 esi, eax
  0008b	8b 45 08	 mov	 eax, DWORD PTR _pUserServerItem$[ebp]
  0008e	8b 10		 mov	 edx, DWORD PTR [eax]
  00090	8b 4d 08	 mov	 ecx, DWORD PTR _pUserServerItem$[ebp]
  00093	8b 42 5c	 mov	 eax, DWORD PTR [edx+92]
  00096	ff d0		 call	 eax
  00098	3b f0		 cmp	 esi, eax
  0009a	75 02		 jne	 SHORT $LN6@InsertFree
  0009c	eb 11		 jmp	 SHORT $LN1@InsertFree
$LN6@InsertFree:

; 897  : 	}

  0009e	eb 9b		 jmp	 SHORT $LN2@InsertFree
$LN3@InsertFree:

; 898  : 
; 899  : 	m_FreeUserArray.Add(pUserServerItem);

  000a0	8d 45 08	 lea	 eax, DWORD PTR _pUserServerItem$[ebp]
  000a3	50		 push	 eax
  000a4	8b 4d fc	 mov	 ecx, DWORD PTR _this$[ebp]
  000a7	83 c1 54	 add	 ecx, 84			; 00000054H
  000aa	e8 00 00 00 00	 call	 ?Add@?$CWHArray@PAUIServerUserItem@@ABQAU1@@@QAEHABQAUIServerUserItem@@@Z ; CWHArray<IServerUserItem *,IServerUserItem * const &>::Add
$LN1@InsertFree:

; 900  : }

  000af	5f		 pop	 edi
  000b0	5e		 pop	 esi
  000b1	5b		 pop	 ebx
  000b2	8b e5		 mov	 esp, ebp
  000b4	5d		 pop	 ebp
  000b5	c2 04 00	 ret	 4
?InsertFreeGroup@CImmediateGroup@@IAEXPAUIServerUserItem@@@Z ENDP ; CImmediateGroup::InsertFreeGroup
_TEXT	ENDS
; Function compile flags: /Odtp /ZI
; File g:\网狐\happygamewh\服务端\系统模块\服务器组件\比赛服务\immediategroup.cpp
;	COMDAT ?OnUserQuitMatch@CImmediateGroup@@QAE_NPAUIServerUserItem@@@Z
_TEXT	SEGMENT
tv81 = -76						; size = 4
_cbUserMatchStatus$ = -6				; size = 1
_bSuccess$ = -5						; size = 1
_this$ = -4						; size = 4
_pUserItem$ = 8						; size = 4
?OnUserQuitMatch@CImmediateGroup@@QAE_NPAUIServerUserItem@@@Z PROC ; CImmediateGroup::OnUserQuitMatch, COMDAT
; _this$ = ecx

; 219  : {

  00000	55		 push	 ebp
  00001	8b ec		 mov	 ebp, esp
  00003	83 ec 4c	 sub	 esp, 76			; 0000004cH
  00006	53		 push	 ebx
  00007	56		 push	 esi
  00008	57		 push	 edi
  00009	89 4d fc	 mov	 DWORD PTR _this$[ebp], ecx

; 220  : 	//用户判断
; 221  : 	ASSERT(pUserItem!=NULL);

  0000c	83 7d 08 00	 cmp	 DWORD PTR _pUserItem$[ebp], 0
  00010	75 18		 jne	 SHORT $LN7@OnUserQuit
  00012	a1 00 00 00 00	 mov	 eax, DWORD PTR ?__LINE__Var@?0??OnUserQuitMatch@CImmediateGroup@@QAE_NPAUIServerUserItem@@@Z@4JA
  00017	83 c0 02	 add	 eax, 2
  0001a	50		 push	 eax
  0001b	68 00 00 00 00	 push	 OFFSET ??_C@_0EL@ONMMFGFJ@g?3?2?M?x?$LK?$PM?2happygamewh?2?$LH?$PO?N?q?$LG?K?2?O?$LF?M?$LD@
  00020	e8 00 00 00 00	 call	 ?AfxAssertFailedLine@@YGHPBDH@Z ; AfxAssertFailedLine
  00025	85 c0		 test	 eax, eax
  00027	74 01		 je	 SHORT $LN7@OnUserQuit
  00029	cc		 int	 3
$LN7@OnUserQuit:

; 222  : 	if (pUserItem==NULL) return false;

  0002a	83 7d 08 00	 cmp	 DWORD PTR _pUserItem$[ebp], 0
  0002e	75 07		 jne	 SHORT $LN2@OnUserQuit
  00030	32 c0		 xor	 al, al
  00032	e9 e4 00 00 00	 jmp	 $LN1@OnUserQuit
$LN2@OnUserQuit:

; 223  : 
; 224  : 	//删除用户
; 225  : 	bool bSuccess=(m_OnMatchUserMap.RemoveKey(pUserItem->GetUserID()) == TRUE);

  00037	8b 45 08	 mov	 eax, DWORD PTR _pUserItem$[ebp]
  0003a	8b 10		 mov	 edx, DWORD PTR [eax]
  0003c	8b 4d 08	 mov	 ecx, DWORD PTR _pUserItem$[ebp]
  0003f	8b 42 5c	 mov	 eax, DWORD PTR [edx+92]
  00042	ff d0		 call	 eax
  00044	50		 push	 eax
  00045	8b 4d fc	 mov	 ecx, DWORD PTR _this$[ebp]
  00048	83 c1 38	 add	 ecx, 56			; 00000038H
  0004b	e8 00 00 00 00	 call	 ?RemoveKey@?$CMap@KKPAUIServerUserItem@@PAU1@@@QAEHK@Z ; CMap<unsigned long,unsigned long,IServerUserItem *,IServerUserItem *>::RemoveKey
  00050	83 f8 01	 cmp	 eax, 1
  00053	75 09		 jne	 SHORT $LN8@OnUserQuit
  00055	c7 45 b4 01 00
	00 00		 mov	 DWORD PTR tv81[ebp], 1
  0005c	eb 07		 jmp	 SHORT $LN9@OnUserQuit
$LN8@OnUserQuit:
  0005e	c7 45 b4 00 00
	00 00		 mov	 DWORD PTR tv81[ebp], 0
$LN9@OnUserQuit:
  00065	8a 4d b4	 mov	 cl, BYTE PTR tv81[ebp]
  00068	88 4d fb	 mov	 BYTE PTR _bSuccess$[ebp], cl

; 226  : 	if(bSuccess==false)return false;

  0006b	0f b6 45 fb	 movzx	 eax, BYTE PTR _bSuccess$[ebp]
  0006f	85 c0		 test	 eax, eax
  00071	75 07		 jne	 SHORT $LN3@OnUserQuit
  00073	32 c0		 xor	 al, al
  00075	e9 a1 00 00 00	 jmp	 $LN1@OnUserQuit
$LN3@OnUserQuit:

; 227  : 
; 228  : 	if (pUserItem->IsAndroidUser())

  0007a	8b 45 08	 mov	 eax, DWORD PTR _pUserItem$[ebp]
  0007d	8b 10		 mov	 edx, DWORD PTR [eax]
  0007f	8b 4d 08	 mov	 ecx, DWORD PTR _pUserItem$[ebp]
  00082	8b 82 d0 00 00
	00		 mov	 eax, DWORD PTR [edx+208]
  00088	ff d0		 call	 eax
  0008a	0f b6 c8	 movzx	 ecx, al
  0008d	85 c9		 test	 ecx, ecx
  0008f	74 41		 je	 SHORT $LN4@OnUserQuit

; 229  : 	{
; 230  : 		ASSERT(m_wAndroidUserCount>0);

  00091	8b 45 fc	 mov	 eax, DWORD PTR _this$[ebp]
  00094	0f b7 48 1a	 movzx	 ecx, WORD PTR [eax+26]
  00098	85 c9		 test	 ecx, ecx
  0009a	7f 19		 jg	 SHORT $LN10@OnUserQuit
  0009c	8b 15 00 00 00
	00		 mov	 edx, DWORD PTR ?__LINE__Var@?0??OnUserQuitMatch@CImmediateGroup@@QAE_NPAUIServerUserItem@@@Z@4JA
  000a2	83 c2 0b	 add	 edx, 11			; 0000000bH
  000a5	52		 push	 edx
  000a6	68 00 00 00 00	 push	 OFFSET ??_C@_0EL@ONMMFGFJ@g?3?2?M?x?$LK?$PM?2happygamewh?2?$LH?$PO?N?q?$LG?K?2?O?$LF?M?$LD@
  000ab	e8 00 00 00 00	 call	 ?AfxAssertFailedLine@@YGHPBDH@Z ; AfxAssertFailedLine
  000b0	85 c0		 test	 eax, eax
  000b2	74 01		 je	 SHORT $LN10@OnUserQuit
  000b4	cc		 int	 3
$LN10@OnUserQuit:

; 231  : 		if (m_wAndroidUserCount>0) m_wAndroidUserCount--;

  000b5	8b 45 fc	 mov	 eax, DWORD PTR _this$[ebp]
  000b8	0f b7 48 1a	 movzx	 ecx, WORD PTR [eax+26]
  000bc	85 c9		 test	 ecx, ecx
  000be	7e 12		 jle	 SHORT $LN4@OnUserQuit
  000c0	8b 45 fc	 mov	 eax, DWORD PTR _this$[ebp]
  000c3	66 8b 48 1a	 mov	 cx, WORD PTR [eax+26]
  000c7	66 83 e9 01	 sub	 cx, 1
  000cb	8b 55 fc	 mov	 edx, DWORD PTR _this$[ebp]
  000ce	66 89 4a 1a	 mov	 WORD PTR [edx+26], cx
$LN4@OnUserQuit:

; 232  : 	}
; 233  : 
; 234  : 	//设置状态
; 235  : 	pUserItem->SetUserMatchStatus(MUS_NULL);

  000d2	6a 00		 push	 0
  000d4	8b 45 08	 mov	 eax, DWORD PTR _pUserItem$[ebp]
  000d7	8b 10		 mov	 edx, DWORD PTR [eax]
  000d9	8b 4d 08	 mov	 ecx, DWORD PTR _pUserItem$[ebp]
  000dc	8b 82 ec 00 00
	00		 mov	 eax, DWORD PTR [edx+236]
  000e2	ff d0		 call	 eax

; 236  : 	BYTE cbUserMatchStatus=pUserItem->GetUserMatchStatus();

  000e4	8b 45 08	 mov	 eax, DWORD PTR _pUserItem$[ebp]
  000e7	8b 10		 mov	 edx, DWORD PTR [eax]
  000e9	8b 4d 08	 mov	 ecx, DWORD PTR _pUserItem$[ebp]
  000ec	8b 82 e8 00 00
	00		 mov	 eax, DWORD PTR [edx+232]
  000f2	ff d0		 call	 eax
  000f4	88 45 fa	 mov	 BYTE PTR _cbUserMatchStatus$[ebp], al

; 237  : 	m_pMatchSink->SendData(pUserItem,MDM_GR_MATCH,SUB_GR_MATCH_USTATUS,&cbUserMatchStatus,sizeof(cbUserMatchStatus));

  000f7	6a 01		 push	 1
  000f9	8d 45 fa	 lea	 eax, DWORD PTR _cbUserMatchStatus$[ebp]
  000fc	50		 push	 eax
  000fd	6a 0b		 push	 11			; 0000000bH
  000ff	6a 0a		 push	 10			; 0000000aH
  00101	8b 4d 08	 mov	 ecx, DWORD PTR _pUserItem$[ebp]
  00104	51		 push	 ecx
  00105	8b 55 fc	 mov	 edx, DWORD PTR _this$[ebp]
  00108	8b 42 2c	 mov	 eax, DWORD PTR [edx+44]
  0010b	8b 4d fc	 mov	 ecx, DWORD PTR _this$[ebp]
  0010e	8b 10		 mov	 edx, DWORD PTR [eax]
  00110	8b 49 2c	 mov	 ecx, DWORD PTR [ecx+44]
  00113	8b 42 2c	 mov	 eax, DWORD PTR [edx+44]
  00116	ff d0		 call	 eax

; 238  : 
; 239  : 	return bSuccess;

  00118	8a 45 fb	 mov	 al, BYTE PTR _bSuccess$[ebp]
$LN1@OnUserQuit:

; 240  : }

  0011b	5f		 pop	 edi
  0011c	5e		 pop	 esi
  0011d	5b		 pop	 ebx
  0011e	8b e5		 mov	 esp, ebp
  00120	5d		 pop	 ebp
  00121	c2 04 00	 ret	 4
?OnUserQuitMatch@CImmediateGroup@@QAE_NPAUIServerUserItem@@@Z ENDP ; CImmediateGroup::OnUserQuitMatch
_TEXT	ENDS
; Function compile flags: /Odtp /ZI
; File g:\网狐\happygamewh\服务端\系统模块\服务器组件\比赛服务\immediategroup.cpp
;	COMDAT ?OnUserSignUpMatch@CImmediateGroup@@QAE_NPAUIServerUserItem@@@Z
_TEXT	SEGMENT
_cbUserMatchStatus$ = -13				; size = 1
_pUserScore$ = -12					; size = 4
_pIServerUserExist$ = -8				; size = 4
_this$ = -4						; size = 4
_pUserItem$ = 8						; size = 4
?OnUserSignUpMatch@CImmediateGroup@@QAE_NPAUIServerUserItem@@@Z PROC ; CImmediateGroup::OnUserSignUpMatch, COMDAT
; _this$ = ecx

; 74   : {

  00000	55		 push	 ebp
  00001	8b ec		 mov	 ebp, esp
  00003	83 ec 50	 sub	 esp, 80			; 00000050H
  00006	53		 push	 ebx
  00007	56		 push	 esi
  00008	57		 push	 edi
  00009	89 4d fc	 mov	 DWORD PTR _this$[ebp], ecx

; 75   : 	//用户判断
; 76   : 	ASSERT(pUserItem!=NULL);

  0000c	83 7d 08 00	 cmp	 DWORD PTR _pUserItem$[ebp], 0
  00010	75 18		 jne	 SHORT $LN10@OnUserSign
  00012	a1 00 00 00 00	 mov	 eax, DWORD PTR ?__LINE__Var@?0??OnUserSignUpMatch@CImmediateGroup@@QAE_NPAUIServerUserItem@@@Z@4JA
  00017	83 c0 02	 add	 eax, 2
  0001a	50		 push	 eax
  0001b	68 00 00 00 00	 push	 OFFSET ??_C@_0EL@ONMMFGFJ@g?3?2?M?x?$LK?$PM?2happygamewh?2?$LH?$PO?N?q?$LG?K?2?O?$LF?M?$LD@
  00020	e8 00 00 00 00	 call	 ?AfxAssertFailedLine@@YGHPBDH@Z ; AfxAssertFailedLine
  00025	85 c0		 test	 eax, eax
  00027	74 01		 je	 SHORT $LN10@OnUserSign
  00029	cc		 int	 3
$LN10@OnUserSign:

; 77   : 	if (pUserItem==NULL) return false;

  0002a	83 7d 08 00	 cmp	 DWORD PTR _pUserItem$[ebp], 0
  0002e	75 07		 jne	 SHORT $LN2@OnUserSign
  00030	32 c0		 xor	 al, al
  00032	e9 55 02 00 00	 jmp	 $LN1@OnUserSign
$LN2@OnUserSign:

; 78   : 
; 79   : 	//查找用户
; 80   : 	IServerUserItem * pIServerUserExist=NULL;

  00037	c7 45 f8 00 00
	00 00		 mov	 DWORD PTR _pIServerUserExist$[ebp], 0

; 81   : 	m_OnMatchUserMap.Lookup(pUserItem->GetUserID(),pIServerUserExist);

  0003e	8d 45 f8	 lea	 eax, DWORD PTR _pIServerUserExist$[ebp]
  00041	50		 push	 eax
  00042	8b 4d 08	 mov	 ecx, DWORD PTR _pUserItem$[ebp]
  00045	8b 11		 mov	 edx, DWORD PTR [ecx]
  00047	8b 4d 08	 mov	 ecx, DWORD PTR _pUserItem$[ebp]
  0004a	8b 42 5c	 mov	 eax, DWORD PTR [edx+92]
  0004d	ff d0		 call	 eax
  0004f	50		 push	 eax
  00050	8b 4d fc	 mov	 ecx, DWORD PTR _this$[ebp]
  00053	83 c1 38	 add	 ecx, 56			; 00000038H
  00056	e8 00 00 00 00	 call	 ?Lookup@?$CMap@KKPAUIServerUserItem@@PAU1@@@QBEHKAAPAUIServerUserItem@@@Z ; CMap<unsigned long,unsigned long,IServerUserItem *,IServerUserItem *>::Lookup

; 82   : 
; 83   : 	//用户判断
; 84   : 	ASSERT(pIServerUserExist==NULL);

  0005b	83 7d f8 00	 cmp	 DWORD PTR _pIServerUserExist$[ebp], 0
  0005f	74 18		 je	 SHORT $LN11@OnUserSign
  00061	a1 00 00 00 00	 mov	 eax, DWORD PTR ?__LINE__Var@?0??OnUserSignUpMatch@CImmediateGroup@@QAE_NPAUIServerUserItem@@@Z@4JA
  00066	83 c0 0a	 add	 eax, 10			; 0000000aH
  00069	50		 push	 eax
  0006a	68 00 00 00 00	 push	 OFFSET ??_C@_0EL@ONMMFGFJ@g?3?2?M?x?$LK?$PM?2happygamewh?2?$LH?$PO?N?q?$LG?K?2?O?$LF?M?$LD@
  0006f	e8 00 00 00 00	 call	 ?AfxAssertFailedLine@@YGHPBDH@Z ; AfxAssertFailedLine
  00074	85 c0		 test	 eax, eax
  00076	74 01		 je	 SHORT $LN11@OnUserSign
  00078	cc		 int	 3
$LN11@OnUserSign:

; 85   : 	if (pIServerUserExist!=NULL) return false;

  00079	83 7d f8 00	 cmp	 DWORD PTR _pIServerUserExist$[ebp], 0
  0007d	74 07		 je	 SHORT $LN3@OnUserSign
  0007f	32 c0		 xor	 al, al
  00081	e9 06 02 00 00	 jmp	 $LN1@OnUserSign
$LN3@OnUserSign:

; 86   : 
; 87   : 	//人数效验
; 88   : 	ASSERT(m_OnMatchUserMap.GetCount()<m_pImmediateMatch->wStartUserCount);

  00086	8b 4d fc	 mov	 ecx, DWORD PTR _this$[ebp]
  00089	83 c1 38	 add	 ecx, 56			; 00000038H
  0008c	e8 00 00 00 00	 call	 ?GetCount@?$CMap@KKPAUIServerUserItem@@PAU1@@@QBEHXZ ; CMap<unsigned long,unsigned long,IServerUserItem *,IServerUserItem *>::GetCount
  00091	8b 4d fc	 mov	 ecx, DWORD PTR _this$[ebp]
  00094	8b 51 34	 mov	 edx, DWORD PTR [ecx+52]
  00097	0f b7 0a	 movzx	 ecx, WORD PTR [edx]
  0009a	3b c1		 cmp	 eax, ecx
  0009c	7c 19		 jl	 SHORT $LN12@OnUserSign
  0009e	8b 15 00 00 00
	00		 mov	 edx, DWORD PTR ?__LINE__Var@?0??OnUserSignUpMatch@CImmediateGroup@@QAE_NPAUIServerUserItem@@@Z@4JA
  000a4	83 c2 0e	 add	 edx, 14			; 0000000eH
  000a7	52		 push	 edx
  000a8	68 00 00 00 00	 push	 OFFSET ??_C@_0EL@ONMMFGFJ@g?3?2?M?x?$LK?$PM?2happygamewh?2?$LH?$PO?N?q?$LG?K?2?O?$LF?M?$LD@
  000ad	e8 00 00 00 00	 call	 ?AfxAssertFailedLine@@YGHPBDH@Z ; AfxAssertFailedLine
  000b2	85 c0		 test	 eax, eax
  000b4	74 01		 je	 SHORT $LN12@OnUserSign
  000b6	cc		 int	 3
$LN12@OnUserSign:

; 89   : 	if (m_OnMatchUserMap.GetCount()>=m_pImmediateMatch->wStartUserCount) return false;

  000b7	8b 4d fc	 mov	 ecx, DWORD PTR _this$[ebp]
  000ba	83 c1 38	 add	 ecx, 56			; 00000038H
  000bd	e8 00 00 00 00	 call	 ?GetCount@?$CMap@KKPAUIServerUserItem@@PAU1@@@QBEHXZ ; CMap<unsigned long,unsigned long,IServerUserItem *,IServerUserItem *>::GetCount
  000c2	8b 4d fc	 mov	 ecx, DWORD PTR _this$[ebp]
  000c5	8b 51 34	 mov	 edx, DWORD PTR [ecx+52]
  000c8	0f b7 0a	 movzx	 ecx, WORD PTR [edx]
  000cb	3b c1		 cmp	 eax, ecx
  000cd	7c 07		 jl	 SHORT $LN4@OnUserSign
  000cf	32 c0		 xor	 al, al
  000d1	e9 b6 01 00 00	 jmp	 $LN1@OnUserSign
$LN4@OnUserSign:

; 90   : 
; 91   : 	//机器判断
; 92   : 	if (pUserItem->IsAndroidUser()==true)

  000d6	8b 45 08	 mov	 eax, DWORD PTR _pUserItem$[ebp]
  000d9	8b 10		 mov	 edx, DWORD PTR [eax]
  000db	8b 4d 08	 mov	 ecx, DWORD PTR _pUserItem$[ebp]
  000de	8b 82 d0 00 00
	00		 mov	 eax, DWORD PTR [edx+208]
  000e4	ff d0		 call	 eax
  000e6	0f b6 c8	 movzx	 ecx, al
  000e9	83 f9 01	 cmp	 ecx, 1
  000ec	75 2e		 jne	 SHORT $LN5@OnUserSign

; 93   : 	{
; 94   : 		if (m_wAndroidUserCount>=m_pImmediateMatch->wAndroidUserCount)

  000ee	8b 45 fc	 mov	 eax, DWORD PTR _this$[ebp]
  000f1	0f b7 48 1a	 movzx	 ecx, WORD PTR [eax+26]
  000f5	8b 55 fc	 mov	 edx, DWORD PTR _this$[ebp]
  000f8	8b 42 34	 mov	 eax, DWORD PTR [edx+52]
  000fb	0f b7 50 02	 movzx	 edx, WORD PTR [eax+2]
  000ff	3b ca		 cmp	 ecx, edx
  00101	7c 07		 jl	 SHORT $LN6@OnUserSign

; 95   : 		{
; 96   : 			return false;

  00103	32 c0		 xor	 al, al
  00105	e9 82 01 00 00	 jmp	 $LN1@OnUserSign
$LN6@OnUserSign:

; 97   : 		}
; 98   : 		m_wAndroidUserCount++;

  0010a	8b 45 fc	 mov	 eax, DWORD PTR _this$[ebp]
  0010d	66 8b 48 1a	 mov	 cx, WORD PTR [eax+26]
  00111	66 83 c1 01	 add	 cx, 1
  00115	8b 55 fc	 mov	 edx, DWORD PTR _this$[ebp]
  00118	66 89 4a 1a	 mov	 WORD PTR [edx+26], cx
$LN5@OnUserSign:

; 99   : 	}
; 100  : 
; 101  : 	//设置成绩
; 102  : 	tagUserInfo *pUserScore=pUserItem->GetUserInfo();

  0011c	8b 45 08	 mov	 eax, DWORD PTR _pUserItem$[ebp]
  0011f	8b 10		 mov	 edx, DWORD PTR [eax]
  00121	8b 4d 08	 mov	 ecx, DWORD PTR _pUserItem$[ebp]
  00124	8b 42 20	 mov	 eax, DWORD PTR [edx+32]
  00127	ff d0		 call	 eax
  00129	89 45 f4	 mov	 DWORD PTR _pUserScore$[ebp], eax

; 103  : 	pUserScore->dwWinCount=0L;

  0012c	8b 45 f4	 mov	 eax, DWORD PTR _pUserScore$[ebp]
  0012f	c7 80 d8 00 00
	00 00 00 00 00	 mov	 DWORD PTR [eax+216], 0

; 104  : 	pUserScore->dwLostCount=0L;

  00139	8b 45 f4	 mov	 eax, DWORD PTR _pUserScore$[ebp]
  0013c	c7 80 dc 00 00
	00 00 00 00 00	 mov	 DWORD PTR [eax+220], 0

; 105  : 	pUserScore->dwFleeCount=0L;

  00146	8b 45 f4	 mov	 eax, DWORD PTR _pUserScore$[ebp]
  00149	c7 80 e4 00 00
	00 00 00 00 00	 mov	 DWORD PTR [eax+228], 0

; 106  : 	pUserScore->dwDrawCount=0L;

  00153	8b 45 f4	 mov	 eax, DWORD PTR _pUserScore$[ebp]
  00156	c7 80 e0 00 00
	00 00 00 00 00	 mov	 DWORD PTR [eax+224], 0

; 107  : 	pUserScore->lIntegralCount=0L;

  00160	8b 45 f4	 mov	 eax, DWORD PTR _pUserScore$[ebp]
  00163	c7 80 f4 00 00
	00 00 00 00 00	 mov	 DWORD PTR [eax+244], 0
  0016d	c7 80 f8 00 00
	00 00 00 00 00	 mov	 DWORD PTR [eax+248], 0

; 108  : 	pUserScore->bConsumptionType.lScore = (LONGLONG)m_pImmediateMatch->lInitalScore;

  00177	8b 45 fc	 mov	 eax, DWORD PTR _this$[ebp]
  0017a	8b 48 34	 mov	 ecx, DWORD PTR [eax+52]
  0017d	8b 55 f4	 mov	 edx, DWORD PTR _pUserScore$[ebp]
  00180	8b 41 0e	 mov	 eax, DWORD PTR [ecx+14]
  00183	89 82 a8 00 00
	00		 mov	 DWORD PTR [edx+168], eax
  00189	8b 49 12	 mov	 ecx, DWORD PTR [ecx+18]
  0018c	89 8a ac 00 00
	00		 mov	 DWORD PTR [edx+172], ecx

; 109  : 
; 110  : 	//发送成绩
; 111  : 	m_pMatchSink->SendGroupUserScore(pUserItem,NULL);

  00192	6a 00		 push	 0
  00194	8b 45 08	 mov	 eax, DWORD PTR _pUserItem$[ebp]
  00197	50		 push	 eax
  00198	8b 4d fc	 mov	 ecx, DWORD PTR _this$[ebp]
  0019b	8b 51 2c	 mov	 edx, DWORD PTR [ecx+44]
  0019e	8b 45 fc	 mov	 eax, DWORD PTR _this$[ebp]
  001a1	8b 12		 mov	 edx, DWORD PTR [edx]
  001a3	8b 48 2c	 mov	 ecx, DWORD PTR [eax+44]
  001a6	8b 42 18	 mov	 eax, DWORD PTR [edx+24]
  001a9	ff d0		 call	 eax

; 112  : 
; 113  : 	//设置用户
; 114  : 	m_OnMatchUserMap[pUserItem->GetUserID()]=pUserItem;

  001ab	8b 45 08	 mov	 eax, DWORD PTR _pUserItem$[ebp]
  001ae	8b 10		 mov	 edx, DWORD PTR [eax]
  001b0	8b 4d 08	 mov	 ecx, DWORD PTR _pUserItem$[ebp]
  001b3	8b 42 5c	 mov	 eax, DWORD PTR [edx+92]
  001b6	ff d0		 call	 eax
  001b8	50		 push	 eax
  001b9	8b 4d fc	 mov	 ecx, DWORD PTR _this$[ebp]
  001bc	83 c1 38	 add	 ecx, 56			; 00000038H
  001bf	e8 00 00 00 00	 call	 ??A?$CMap@KKPAUIServerUserItem@@PAU1@@@QAEAAPAUIServerUserItem@@K@Z ; CMap<unsigned long,unsigned long,IServerUserItem *,IServerUserItem *>::operator[]
  001c4	8b 4d 08	 mov	 ecx, DWORD PTR _pUserItem$[ebp]
  001c7	89 08		 mov	 DWORD PTR [eax], ecx

; 115  : 
; 116  : 	//设置报名状态
; 117  : 	pUserItem->SetUserMatchStatus(MUS_SIGNUPED);

  001c9	6a 02		 push	 2
  001cb	8b 45 08	 mov	 eax, DWORD PTR _pUserItem$[ebp]
  001ce	8b 10		 mov	 edx, DWORD PTR [eax]
  001d0	8b 4d 08	 mov	 ecx, DWORD PTR _pUserItem$[ebp]
  001d3	8b 82 ec 00 00
	00		 mov	 eax, DWORD PTR [edx+236]
  001d9	ff d0		 call	 eax

; 118  : 
; 119  : 	//设置报名时间
; 120  : 	pUserItem->SetSignUpTime((DWORD)time(NULL));

  001db	6a 00		 push	 0
  001dd	e8 00 00 00 00	 call	 _time
  001e2	83 c4 04	 add	 esp, 4
  001e5	50		 push	 eax
  001e6	8b 45 08	 mov	 eax, DWORD PTR _pUserItem$[ebp]
  001e9	8b 10		 mov	 edx, DWORD PTR [eax]
  001eb	8b 4d 08	 mov	 ecx, DWORD PTR _pUserItem$[ebp]
  001ee	8b 82 e4 00 00
	00		 mov	 eax, DWORD PTR [edx+228]
  001f4	ff d0		 call	 eax

; 121  : 
; 122  : 	//发送报名状态
; 123  : 	BYTE cbUserMatchStatus=pUserItem->GetUserMatchStatus();

  001f6	8b 45 08	 mov	 eax, DWORD PTR _pUserItem$[ebp]
  001f9	8b 10		 mov	 edx, DWORD PTR [eax]
  001fb	8b 4d 08	 mov	 ecx, DWORD PTR _pUserItem$[ebp]
  001fe	8b 82 e8 00 00
	00		 mov	 eax, DWORD PTR [edx+232]
  00204	ff d0		 call	 eax
  00206	88 45 f3	 mov	 BYTE PTR _cbUserMatchStatus$[ebp], al

; 124  : 	m_pMatchSink->SendData(pUserItem,MDM_GR_MATCH,SUB_GR_MATCH_USTATUS,&cbUserMatchStatus,sizeof(cbUserMatchStatus));

  00209	6a 01		 push	 1
  0020b	8d 45 f3	 lea	 eax, DWORD PTR _cbUserMatchStatus$[ebp]
  0020e	50		 push	 eax
  0020f	6a 0b		 push	 11			; 0000000bH
  00211	6a 0a		 push	 10			; 0000000aH
  00213	8b 4d 08	 mov	 ecx, DWORD PTR _pUserItem$[ebp]
  00216	51		 push	 ecx
  00217	8b 55 fc	 mov	 edx, DWORD PTR _this$[ebp]
  0021a	8b 42 2c	 mov	 eax, DWORD PTR [edx+44]
  0021d	8b 4d fc	 mov	 ecx, DWORD PTR _this$[ebp]
  00220	8b 10		 mov	 edx, DWORD PTR [eax]
  00222	8b 49 2c	 mov	 ecx, DWORD PTR [ecx+44]
  00225	8b 42 2c	 mov	 eax, DWORD PTR [edx+44]
  00228	ff d0		 call	 eax

; 125  : 
; 126  : 	//报名人满
; 127  : 	if (m_OnMatchUserMap.GetCount()>=m_pImmediateMatch->wStartUserCount)

  0022a	8b 4d fc	 mov	 ecx, DWORD PTR _this$[ebp]
  0022d	83 c1 38	 add	 ecx, 56			; 00000038H
  00230	e8 00 00 00 00	 call	 ?GetCount@?$CMap@KKPAUIServerUserItem@@PAU1@@@QBEHXZ ; CMap<unsigned long,unsigned long,IServerUserItem *,IServerUserItem *>::GetCount
  00235	8b 4d fc	 mov	 ecx, DWORD PTR _this$[ebp]
  00238	8b 51 34	 mov	 edx, DWORD PTR [ecx+52]
  0023b	0f b7 0a	 movzx	 ecx, WORD PTR [edx]
  0023e	3b c1		 cmp	 eax, ecx
  00240	7c 48		 jl	 SHORT $LN7@OnUserSign

; 128  : 	{
; 129  : 		//事件通知
; 130  : 		ASSERT(m_pMatchSink!=NULL);

  00242	8b 45 fc	 mov	 eax, DWORD PTR _this$[ebp]
  00245	83 78 2c 00	 cmp	 DWORD PTR [eax+44], 0
  00249	75 19		 jne	 SHORT $LN13@OnUserSign
  0024b	8b 0d 00 00 00
	00		 mov	 ecx, DWORD PTR ?__LINE__Var@?0??OnUserSignUpMatch@CImmediateGroup@@QAE_NPAUIServerUserItem@@@Z@4JA
  00251	83 c1 38	 add	 ecx, 56			; 00000038H
  00254	51		 push	 ecx
  00255	68 00 00 00 00	 push	 OFFSET ??_C@_0EL@ONMMFGFJ@g?3?2?M?x?$LK?$PM?2happygamewh?2?$LH?$PO?N?q?$LG?K?2?O?$LF?M?$LD@
  0025a	e8 00 00 00 00	 call	 ?AfxAssertFailedLine@@YGHPBDH@Z ; AfxAssertFailedLine
  0025f	85 c0		 test	 eax, eax
  00261	74 01		 je	 SHORT $LN13@OnUserSign
  00263	cc		 int	 3
$LN13@OnUserSign:

; 131  : 		if (m_pMatchSink!=NULL) m_pMatchSink->SendMatchInfo(NULL);

  00264	8b 45 fc	 mov	 eax, DWORD PTR _this$[ebp]
  00267	83 78 2c 00	 cmp	 DWORD PTR [eax+44], 0
  0026b	74 15		 je	 SHORT $LN8@OnUserSign
  0026d	6a 00		 push	 0
  0026f	8b 45 fc	 mov	 eax, DWORD PTR _this$[ebp]
  00272	8b 48 2c	 mov	 ecx, DWORD PTR [eax+44]
  00275	8b 55 fc	 mov	 edx, DWORD PTR _this$[ebp]
  00278	8b 01		 mov	 eax, DWORD PTR [ecx]
  0027a	8b 4a 2c	 mov	 ecx, DWORD PTR [edx+44]
  0027d	8b 50 10	 mov	 edx, DWORD PTR [eax+16]
  00280	ff d2		 call	 edx
$LN8@OnUserSign:

; 132  : 		EfficacyStartMatch();

  00282	8b 4d fc	 mov	 ecx, DWORD PTR _this$[ebp]
  00285	e8 00 00 00 00	 call	 ?EfficacyStartMatch@CImmediateGroup@@IAEXXZ ; CImmediateGroup::EfficacyStartMatch
$LN7@OnUserSign:

; 133  : 	}
; 134  : 
; 135  : 	return true;

  0028a	b0 01		 mov	 al, 1
$LN1@OnUserSign:

; 136  : }

  0028c	5f		 pop	 edi
  0028d	5e		 pop	 esi
  0028e	5b		 pop	 ebx
  0028f	8b e5		 mov	 esp, ebp
  00291	5d		 pop	 ebp
  00292	c2 04 00	 ret	 4
?OnUserSignUpMatch@CImmediateGroup@@QAE_NPAUIServerUserItem@@@Z ENDP ; CImmediateGroup::OnUserSignUpMatch
_TEXT	ENDS
; Function compile flags: /Odtp /ZI
; File g:\网狐\happygamewh\服务端\系统模块\服务器组件\比赛服务\immediategroup.cpp
;	COMDAT ?OnActionUserOnReady@CImmediateGroup@@UAE_NGGPAUIServerUserItem@@PAXG@Z
_TEXT	SEGMENT
_this$ = -4						; size = 4
_wTableID$ = 8						; size = 2
_wChairID$ = 12						; size = 2
_pIServerUserItem$ = 16					; size = 4
_pData$ = 20						; size = 4
_wDataSize$ = 24					; size = 2
?OnActionUserOnReady@CImmediateGroup@@UAE_NGGPAUIServerUserItem@@PAXG@Z PROC ; CImmediateGroup::OnActionUserOnReady, COMDAT
; _this$ = ecx

; 474  : { 

  00000	55		 push	 ebp
  00001	8b ec		 mov	 ebp, esp
  00003	83 ec 44	 sub	 esp, 68			; 00000044H
  00006	53		 push	 ebx
  00007	56		 push	 esi
  00008	57		 push	 edi
  00009	89 4d fc	 mov	 DWORD PTR _this$[ebp], ecx

; 475  : 	return false; 

  0000c	32 c0		 xor	 al, al

; 476  : }

  0000e	5f		 pop	 edi
  0000f	5e		 pop	 esi
  00010	5b		 pop	 ebx
  00011	8b e5		 mov	 esp, ebp
  00013	5d		 pop	 ebp
  00014	c2 14 00	 ret	 20			; 00000014H
?OnActionUserOnReady@CImmediateGroup@@UAE_NGGPAUIServerUserItem@@PAXG@Z ENDP ; CImmediateGroup::OnActionUserOnReady
_TEXT	ENDS
; Function compile flags: /Odtp /ZI
; File g:\网狐\happygamewh\服务端\系统模块\服务器组件\比赛服务\immediategroup.cpp
;	COMDAT ?OnActionUserStandUp@CImmediateGroup@@UAE_NGGPAUIServerUserItem@@_N@Z
_TEXT	SEGMENT
_this$ = -4						; size = 4
_wTableID$ = 8						; size = 2
_wChairID$ = 12						; size = 2
_pIServerUserItem$ = 16					; size = 4
_bLookonUser$ = 20					; size = 1
?OnActionUserStandUp@CImmediateGroup@@UAE_NGGPAUIServerUserItem@@_N@Z PROC ; CImmediateGroup::OnActionUserStandUp, COMDAT
; _this$ = ecx

; 468  : {

  00000	55		 push	 ebp
  00001	8b ec		 mov	 ebp, esp
  00003	83 ec 44	 sub	 esp, 68			; 00000044H
  00006	53		 push	 ebx
  00007	56		 push	 esi
  00008	57		 push	 edi
  00009	89 4d fc	 mov	 DWORD PTR _this$[ebp], ecx

; 469  : 	return true;

  0000c	b0 01		 mov	 al, 1

; 470  : }

  0000e	5f		 pop	 edi
  0000f	5e		 pop	 esi
  00010	5b		 pop	 ebx
  00011	8b e5		 mov	 esp, ebp
  00013	5d		 pop	 ebp
  00014	c2 10 00	 ret	 16			; 00000010H
?OnActionUserStandUp@CImmediateGroup@@UAE_NGGPAUIServerUserItem@@_N@Z ENDP ; CImmediateGroup::OnActionUserStandUp
_TEXT	ENDS
; Function compile flags: /Odtp /ZI
; File g:\网狐\happygamewh\服务端\系统模块\服务器组件\比赛服务\immediategroup.cpp
;	COMDAT ?OnActionUserSitDown@CImmediateGroup@@UAE_NGGPAUIServerUserItem@@_N@Z
_TEXT	SEGMENT
_this$ = -4						; size = 4
_wTableID$ = 8						; size = 2
_wChairID$ = 12						; size = 2
_pIServerUserItem$ = 16					; size = 4
_bLookonUser$ = 20					; size = 1
?OnActionUserSitDown@CImmediateGroup@@UAE_NGGPAUIServerUserItem@@_N@Z PROC ; CImmediateGroup::OnActionUserSitDown, COMDAT
; _this$ = ecx

; 462  : { 

  00000	55		 push	 ebp
  00001	8b ec		 mov	 ebp, esp
  00003	83 ec 44	 sub	 esp, 68			; 00000044H
  00006	53		 push	 ebx
  00007	56		 push	 esi
  00008	57		 push	 edi
  00009	89 4d fc	 mov	 DWORD PTR _this$[ebp], ecx

; 463  : 	return true; 

  0000c	b0 01		 mov	 al, 1

; 464  : }

  0000e	5f		 pop	 edi
  0000f	5e		 pop	 esi
  00010	5b		 pop	 ebx
  00011	8b e5		 mov	 esp, ebp
  00013	5d		 pop	 ebp
  00014	c2 10 00	 ret	 16			; 00000010H
?OnActionUserSitDown@CImmediateGroup@@UAE_NGGPAUIServerUserItem@@_N@Z ENDP ; CImmediateGroup::OnActionUserSitDown
_TEXT	ENDS
; Function compile flags: /Odtp /ZI
; File g:\网狐\happygamewh\服务端\系统模块\服务器组件\比赛服务\immediategroup.cpp
;	COMDAT ?OnEventUserReturnMatch@CImmediateGroup@@UAE_NPAUITableFrame@@PAUIServerUserItem@@@Z
_TEXT	SEGMENT
_this$ = -4						; size = 4
_pITableFrame$ = 8					; size = 4
_pIServerUserItem$ = 12					; size = 4
?OnEventUserReturnMatch@CImmediateGroup@@UAE_NPAUITableFrame@@PAUIServerUserItem@@@Z PROC ; CImmediateGroup::OnEventUserReturnMatch, COMDAT
; _this$ = ecx

; 453  : {

  00000	55		 push	 ebp
  00001	8b ec		 mov	 ebp, esp
  00003	83 ec 44	 sub	 esp, 68			; 00000044H
  00006	53		 push	 ebx
  00007	56		 push	 esi
  00008	57		 push	 edi
  00009	89 4d fc	 mov	 DWORD PTR _this$[ebp], ecx

; 454  : 	//发送比赛信息
; 455  : 	SendTableMatchInfo(pITableFrame,pIServerUserItem->GetChairID());

  0000c	8b 45 0c	 mov	 eax, DWORD PTR _pIServerUserItem$[ebp]
  0000f	8b 10		 mov	 edx, DWORD PTR [eax]
  00011	8b 4d 0c	 mov	 ecx, DWORD PTR _pIServerUserItem$[ebp]
  00014	8b 42 70	 mov	 eax, DWORD PTR [edx+112]
  00017	ff d0		 call	 eax
  00019	0f b7 c8	 movzx	 ecx, ax
  0001c	51		 push	 ecx
  0001d	8b 55 08	 mov	 edx, DWORD PTR _pITableFrame$[ebp]
  00020	52		 push	 edx
  00021	8b 4d fc	 mov	 ecx, DWORD PTR _this$[ebp]
  00024	e8 00 00 00 00	 call	 ?SendTableMatchInfo@CImmediateGroup@@IAEXPAUITableFrame@@G@Z ; CImmediateGroup::SendTableMatchInfo

; 456  : 
; 457  : 	return true;

  00029	b0 01		 mov	 al, 1

; 458  : }

  0002b	5f		 pop	 edi
  0002c	5e		 pop	 esi
  0002d	5b		 pop	 ebx
  0002e	8b e5		 mov	 esp, ebp
  00030	5d		 pop	 ebp
  00031	c2 08 00	 ret	 8
?OnEventUserReturnMatch@CImmediateGroup@@UAE_NPAUITableFrame@@PAUIServerUserItem@@@Z ENDP ; CImmediateGroup::OnEventUserReturnMatch
_TEXT	ENDS
; Function compile flags: /Odtp /ZI
; File g:\网狐\happygamewh\服务端\系统模块\服务器组件\比赛服务\immediategroup.cpp
;	COMDAT ?OnEventGameEnd@CImmediateGroup@@UAE_NPAUITableFrame@@GPAUIServerUserItem@@E@Z
_TEXT	SEGMENT
$T2 = -248						; size = 4
$T3 = -244						; size = 4
_i$4 = -176						; size = 2
_wCount$5 = -172					; size = 2
_pScore$6 = -168					; size = 4
_pIServerUserItem$7 = -164				; size = 4
_i$8 = -160						; size = 2
_szMessage$ = -156					; size = 128
_pTableFrameInfo$ = -28					; size = 4
_this$ = -24						; size = 4
__$ArrayPad$ = -20					; size = 4
__$EHRec$ = -16						; size = 16
_pITableFrame$ = 8					; size = 4
_wChairID$ = 12						; size = 2
_pIServerUserItem$ = 16					; size = 4
_cbReason$ = 20						; size = 1
?OnEventGameEnd@CImmediateGroup@@UAE_NPAUITableFrame@@GPAUIServerUserItem@@E@Z PROC ; CImmediateGroup::OnEventGameEnd, COMDAT
; _this$ = ecx

; 363  : {

  00000	55		 push	 ebp
  00001	8b ec		 mov	 ebp, esp
  00003	6a ff		 push	 -1
  00005	68 00 00 00 00	 push	 __ehhandler$?OnEventGameEnd@CImmediateGroup@@UAE_NPAUITableFrame@@GPAUIServerUserItem@@E@Z
  0000a	64 a1 00 00 00
	00		 mov	 eax, DWORD PTR fs:0
  00010	50		 push	 eax
  00011	51		 push	 ecx
  00012	81 ec e8 00 00
	00		 sub	 esp, 232		; 000000e8H
  00018	a1 00 00 00 00	 mov	 eax, DWORD PTR ___security_cookie
  0001d	33 c5		 xor	 eax, ebp
  0001f	89 45 ec	 mov	 DWORD PTR __$ArrayPad$[ebp], eax
  00022	53		 push	 ebx
  00023	56		 push	 esi
  00024	57		 push	 edi
  00025	50		 push	 eax
  00026	8d 45 f4	 lea	 eax, DWORD PTR __$EHRec$[ebp+4]
  00029	64 a3 00 00 00
	00		 mov	 DWORD PTR fs:0, eax
  0002f	89 65 f0	 mov	 DWORD PTR __$EHRec$[ebp], esp
  00032	89 4d e8	 mov	 DWORD PTR _this$[ebp], ecx

; 364  : 	//获取桌子信息
; 365  : 	tagTableFrameInfo * pTableFrameInfo=GetTableInterface(pITableFrame);

  00035	8b 45 08	 mov	 eax, DWORD PTR _pITableFrame$[ebp]
  00038	50		 push	 eax
  00039	8b 4d e8	 mov	 ecx, DWORD PTR _this$[ebp]
  0003c	e8 00 00 00 00	 call	 ?GetTableInterface@CImmediateGroup@@IAEPAUtagTableFrameInfo@@PAUITableFrame@@@Z ; CImmediateGroup::GetTableInterface
  00041	89 45 e4	 mov	 DWORD PTR _pTableFrameInfo$[ebp], eax

; 366  : 	if (pTableFrameInfo==NULL) return false;

  00044	83 7d e4 00	 cmp	 DWORD PTR _pTableFrameInfo$[ebp], 0
  00048	75 07		 jne	 SHORT $LN8@OnEventGam
  0004a	32 c0		 xor	 al, al
  0004c	e9 17 03 00 00	 jmp	 $LN1@OnEventGam
$LN8@OnEventGam:

; 367  : 
; 368  : 	//设置标识
; 369  : 	pTableFrameInfo->bWaitForNextInnings=true;

  00051	8b 45 e4	 mov	 eax, DWORD PTR _pTableFrameInfo$[ebp]
  00054	c6 40 14 01	 mov	 BYTE PTR [eax+20], 1

; 370  : 
; 371  : 	//变量定义
; 372  : 	TCHAR szMessage[128]=TEXT("");

  00058	a0 00 00 00 00	 mov	 al, BYTE PTR ??_C@_00CNPNBAHC@@
  0005d	88 85 64 ff ff
	ff		 mov	 BYTE PTR _szMessage$[ebp], al
  00063	6a 7f		 push	 127			; 0000007fH
  00065	6a 00		 push	 0
  00067	8d 85 65 ff ff
	ff		 lea	 eax, DWORD PTR _szMessage$[ebp+1]
  0006d	50		 push	 eax
  0006e	e8 00 00 00 00	 call	 _memset
  00073	83 c4 0c	 add	 esp, 12			; 0000000cH

; 373  : 
; 374  : 	//完成局数
; 375  : 	if (pTableFrameInfo->wPlayCount>=m_pImmediateMatch->wPlayCount)

  00076	8b 45 e4	 mov	 eax, DWORD PTR _pTableFrameInfo$[ebp]
  00079	0f b7 48 10	 movzx	 ecx, WORD PTR [eax+16]
  0007d	8b 55 e8	 mov	 edx, DWORD PTR _this$[ebp]
  00080	8b 42 34	 mov	 eax, DWORD PTR [edx+52]
  00083	0f b7 50 16	 movzx	 edx, WORD PTR [eax+22]
  00087	3b ca		 cmp	 ecx, edx
  00089	7c 70		 jl	 SHORT $LN9@OnEventGam

; 376  : 	{
; 377  : 		//等待提醒
; 378  : 		SendWaitMessage(pITableFrame);	

  0008b	68 ff ff 00 00	 push	 65535			; 0000ffffH
  00090	8b 45 08	 mov	 eax, DWORD PTR _pITableFrame$[ebp]
  00093	50		 push	 eax
  00094	8b 4d e8	 mov	 ecx, DWORD PTR _this$[ebp]
  00097	e8 00 00 00 00	 call	 ?SendWaitMessage@CImmediateGroup@@IAEXPAUITableFrame@@G@Z ; CImmediateGroup::SendWaitMessage

; 379  : 
; 380  : 		//设置变量
; 381  : 		pTableFrameInfo->wPlayCount=0;

  0009c	33 c0		 xor	 eax, eax
  0009e	8b 4d e4	 mov	 ecx, DWORD PTR _pTableFrameInfo$[ebp]
  000a1	66 89 41 10	 mov	 WORD PTR [ecx+16], ax

; 382  : 		pTableFrameInfo->bMatchTaskFinish=true;	

  000a5	8b 45 e4	 mov	 eax, DWORD PTR _pTableFrameInfo$[ebp]
  000a8	c6 40 12 01	 mov	 BYTE PTR [eax+18], 1

; 383  : 
; 384  : 		//比赛完成
; 385  : 		if (CheckMatchTaskFinish()==true)

  000ac	8b 4d e8	 mov	 ecx, DWORD PTR _this$[ebp]
  000af	e8 00 00 00 00	 call	 ?CheckMatchTaskFinish@CImmediateGroup@@IAE_NXZ ; CImmediateGroup::CheckMatchTaskFinish
  000b4	0f b6 c0	 movzx	 eax, al
  000b7	83 f8 01	 cmp	 eax, 1
  000ba	75 16		 jne	 SHORT $LN11@OnEventGam

; 386  : 		{
; 387  : 			SetMatchGameTimer(IDI_MATCH_FINISH,5000,1,0);		

  000bc	6a 00		 push	 0
  000be	6a 01		 push	 1
  000c0	68 88 13 00 00	 push	 5000			; 00001388H
  000c5	68 d8 00 00 00	 push	 216			; 000000d8H
  000ca	8b 4d e8	 mov	 ecx, DWORD PTR _this$[ebp]
  000cd	e8 00 00 00 00	 call	 ?SetMatchGameTimer@CImmediateGroup@@IAEXKKKI@Z ; CImmediateGroup::SetMatchGameTimer
$LN11@OnEventGam:

; 388  : 		}
; 389  : 
; 390  : 		//构造消息		
; 391  : 		_sntprintf_s(szMessage,CountArray(szMessage),TEXT("恭喜您,您已玩满%d局游戏,等其他桌完成后系统将进行排名,请您耐心等待！"),m_pImmediateMatch->wPlayCount);

  000d2	8b 45 e8	 mov	 eax, DWORD PTR _this$[ebp]
  000d5	8b 48 34	 mov	 ecx, DWORD PTR [eax+52]
  000d8	0f b7 51 16	 movzx	 edx, WORD PTR [ecx+22]
  000dc	52		 push	 edx
  000dd	68 00 00 00 00	 push	 OFFSET ??_C@_0EE@LPJNIANI@?$LJ?$KH?O?$LC?D?z?0?D?z?R?Q?M?f?B?z?$CFd?$LO?V?S?N?O?$LH?0?$LF?H?F?d?K?$PL?W@
  000e2	68 80 00 00 00	 push	 128			; 00000080H
  000e7	8d 85 64 ff ff
	ff		 lea	 eax, DWORD PTR _szMessage$[ebp]
  000ed	50		 push	 eax
  000ee	e8 00 00 00 00	 call	 ??$_snprintf_s@$0IA@@@YAHAAY0IA@DIPBDZZ ; _snprintf_s<128>
  000f3	83 c4 10	 add	 esp, 16			; 00000010H

; 392  : 	}
; 393  : 	else

  000f6	e9 15 01 00 00	 jmp	 $LN10@OnEventGam
$LN9@OnEventGam:

; 394  : 	{
; 395  : 		//换桌判断
; 396  : 		if (m_pImmediateMatch->cbSwitchTableCount>0&&(pTableFrameInfo->wPlayCount%m_pImmediateMatch->cbSwitchTableCount)==0)

  000fb	8b 45 e8	 mov	 eax, DWORD PTR _this$[ebp]
  000fe	8b 48 34	 mov	 ecx, DWORD PTR [eax+52]
  00101	0f b6 51 18	 movzx	 edx, BYTE PTR [ecx+24]
  00105	85 d2		 test	 edx, edx
  00107	0f 8e da 00 00
	00		 jle	 $LN12@OnEventGam
  0010d	8b 45 e4	 mov	 eax, DWORD PTR _pTableFrameInfo$[ebp]
  00110	0f b7 40 10	 movzx	 eax, WORD PTR [eax+16]
  00114	8b 4d e8	 mov	 ecx, DWORD PTR _this$[ebp]
  00117	8b 51 34	 mov	 edx, DWORD PTR [ecx+52]
  0011a	0f b6 4a 18	 movzx	 ecx, BYTE PTR [edx+24]
  0011e	99		 cdq
  0011f	f7 f9		 idiv	 ecx
  00121	85 d2		 test	 edx, edx
  00123	0f 85 be 00 00
	00		 jne	 $LN12@OnEventGam

; 397  : 		{
; 398  : 			//设置状态
; 399  : 			pTableFrameInfo->bSwtichTaskFinish=true;

  00129	8b 45 e4	 mov	 eax, DWORD PTR _pTableFrameInfo$[ebp]
  0012c	c6 40 13 01	 mov	 BYTE PTR [eax+19], 1

; 400  : 
; 401  : 			//插入空闲列表
; 402  : 			for (WORD i=0;i<m_wChairCount;i++)

  00130	33 c0		 xor	 eax, eax
  00132	66 89 85 60 ff
	ff ff		 mov	 WORD PTR _i$8[ebp], ax
  00139	eb 12		 jmp	 SHORT $LN4@OnEventGam
$LN2@OnEventGam:
  0013b	66 8b 85 60 ff
	ff ff		 mov	 ax, WORD PTR _i$8[ebp]
  00142	66 83 c0 01	 add	 ax, 1
  00146	66 89 85 60 ff
	ff ff		 mov	 WORD PTR _i$8[ebp], ax
$LN4@OnEventGam:
  0014d	0f b7 85 60 ff
	ff ff		 movzx	 eax, WORD PTR _i$8[ebp]
  00154	0f b7 0d 00 00
	00 00		 movzx	 ecx, WORD PTR ?m_wChairCount@CImmediateGroup@@1GA ; CImmediateGroup::m_wChairCount
  0015b	3b c1		 cmp	 eax, ecx
  0015d	7d 38		 jge	 SHORT $LN3@OnEventGam

; 403  : 			{
; 404  : 				IServerUserItem *pIServerUserItem=pITableFrame->GetTableUserItem(i);

  0015f	0f b7 85 60 ff
	ff ff		 movzx	 eax, WORD PTR _i$8[ebp]
  00166	50		 push	 eax
  00167	8b 4d 08	 mov	 ecx, DWORD PTR _pITableFrame$[ebp]
  0016a	8b 11		 mov	 edx, DWORD PTR [ecx]
  0016c	8b 4d 08	 mov	 ecx, DWORD PTR _pITableFrame$[ebp]
  0016f	8b 82 9c 00 00
	00		 mov	 eax, DWORD PTR [edx+156]
  00175	ff d0		 call	 eax
  00177	89 85 5c ff ff
	ff		 mov	 DWORD PTR _pIServerUserItem$7[ebp], eax

; 405  : 				if (pIServerUserItem!=NULL) InsertFreeGroup(pIServerUserItem);

  0017d	83 bd 5c ff ff
	ff 00		 cmp	 DWORD PTR _pIServerUserItem$7[ebp], 0
  00184	74 0f		 je	 SHORT $LN14@OnEventGam
  00186	8b 85 5c ff ff
	ff		 mov	 eax, DWORD PTR _pIServerUserItem$7[ebp]
  0018c	50		 push	 eax
  0018d	8b 4d e8	 mov	 ecx, DWORD PTR _this$[ebp]
  00190	e8 00 00 00 00	 call	 ?InsertFreeGroup@CImmediateGroup@@IAEXPAUIServerUserItem@@@Z ; CImmediateGroup::InsertFreeGroup
$LN14@OnEventGam:

; 406  : 			}

  00195	eb a4		 jmp	 SHORT $LN2@OnEventGam
$LN3@OnEventGam:

; 407  : 
; 408  : 			//检查换桌
; 409  : 			if (CheckSwitchTaskFinish()==true)

  00197	8b 4d e8	 mov	 ecx, DWORD PTR _this$[ebp]
  0019a	e8 00 00 00 00	 call	 ?CheckSwitchTaskFinish@CImmediateGroup@@IAE_NXZ ; CImmediateGroup::CheckSwitchTaskFinish
  0019f	0f b6 c0	 movzx	 eax, al
  001a2	83 f8 01	 cmp	 eax, 1
  001a5	75 16		 jne	 SHORT $LN15@OnEventGam

; 410  : 			{
; 411  : 				SetMatchGameTimer(IDI_SWITCH_TABLE,5000,1,0);

  001a7	6a 00		 push	 0
  001a9	6a 01		 push	 1
  001ab	68 88 13 00 00	 push	 5000			; 00001388H
  001b0	68 d6 00 00 00	 push	 214			; 000000d6H
  001b5	8b 4d e8	 mov	 ecx, DWORD PTR _this$[ebp]
  001b8	e8 00 00 00 00	 call	 ?SetMatchGameTimer@CImmediateGroup@@IAEXKKKI@Z ; CImmediateGroup::SetMatchGameTimer
$LN15@OnEventGam:

; 412  : 			}
; 413  : 
; 414  : 			//等待提醒
; 415  : 			SendWaitMessage(pITableFrame);

  001bd	68 ff ff 00 00	 push	 65535			; 0000ffffH
  001c2	8b 45 08	 mov	 eax, DWORD PTR _pITableFrame$[ebp]
  001c5	50		 push	 eax
  001c6	8b 4d e8	 mov	 ecx, DWORD PTR _this$[ebp]
  001c9	e8 00 00 00 00	 call	 ?SendWaitMessage@CImmediateGroup@@IAEXPAUITableFrame@@G@Z ; CImmediateGroup::SendWaitMessage

; 416  : 
; 417  : 			//构造消息
; 418  : 			lstrcpyn(szMessage,TEXT("本局已结束，请耐心等待其他桌完成，稍后为您配桌..."),CountArray(szMessage));

  001ce	68 80 00 00 00	 push	 128			; 00000080H
  001d3	68 00 00 00 00	 push	 OFFSET ??_C@_0DC@OCDKCEOG@?$LB?$LO?$LO?V?R?Q?$LN?a?J?x?$KD?$KM?G?k?D?M?P?D?$LF?H?$LE?$PN?F?d?K?$PL?W?$MA?M?j?$LD@
  001d8	8d 85 64 ff ff
	ff		 lea	 eax, DWORD PTR _szMessage$[ebp]
  001de	50		 push	 eax
  001df	ff 15 00 00 00
	00		 call	 DWORD PTR __imp__lstrcpynA@12

; 419  : 		}
; 420  : 		else

  001e5	eb 29		 jmp	 SHORT $LN10@OnEventGam
$LN12@OnEventGam:

; 421  : 		{
; 422  : 			//设置定时器
; 423  : 			PostMatchTimer(IDI_CONTINUE_GAME,5,(WPARAM)pITableFrame);

  001e7	6a 00		 push	 0
  001e9	8b 45 08	 mov	 eax, DWORD PTR _pITableFrame$[ebp]
  001ec	50		 push	 eax
  001ed	6a 05		 push	 5
  001ef	6a 01		 push	 1
  001f1	8b 4d e8	 mov	 ecx, DWORD PTR _this$[ebp]
  001f4	e8 00 00 00 00	 call	 ?PostMatchTimer@CImmediateGroup@@IAEXKHIJ@Z ; CImmediateGroup::PostMatchTimer

; 424  : 
; 425  : 			//构造消息
; 426  : 			lstrcpyn(szMessage,TEXT("本局已结束，请稍候，系统配桌中..."),CountArray(szMessage));

  001f9	68 80 00 00 00	 push	 128			; 00000080H
  001fe	68 00 00 00 00	 push	 OFFSET ??_C@_0CC@GOIHMJKJ@?$LB?$LO?$LO?V?R?Q?$LN?a?J?x?$KD?$KM?G?k?I?T?$LK?r?$KD?$KM?O?$LF?M?$LD?E?d?W?$MA?V?P?4@
  00203	8d 85 64 ff ff
	ff		 lea	 eax, DWORD PTR _szMessage$[ebp]
  00209	50		 push	 eax
  0020a	ff 15 00 00 00
	00		 call	 DWORD PTR __imp__lstrcpynA@12
$LN10@OnEventGam:

; 427  : 		}			
; 428  : 	}
; 429  : 
; 430  : 	//发送消息
; 431  : 	pITableFrame->SendGameMessage(szMessage,SMT_CHAT|SMT_TABLE_ROLL);

  00210	6a 11		 push	 17			; 00000011H
  00212	8d 85 64 ff ff
	ff		 lea	 eax, DWORD PTR _szMessage$[ebp]
  00218	50		 push	 eax
  00219	8b 4d 08	 mov	 ecx, DWORD PTR _pITableFrame$[ebp]
  0021c	8b 11		 mov	 edx, DWORD PTR [ecx]
  0021e	8b 4d 08	 mov	 ecx, DWORD PTR _pITableFrame$[ebp]
  00221	8b 82 d0 00 00
	00		 mov	 eax, DWORD PTR [edx+208]
  00227	ff d0		 call	 eax

; 432  : 
; 433  : 	//分数通知
; 434  : 	if (m_OnMatchUserMap.GetCount()>0)

  00229	8b 4d e8	 mov	 ecx, DWORD PTR _this$[ebp]
  0022c	83 c1 38	 add	 ecx, 56			; 00000038H
  0022f	e8 00 00 00 00	 call	 ?GetCount@?$CMap@KKPAUIServerUserItem@@PAU1@@@QBEHXZ ; CMap<unsigned long,unsigned long,IServerUserItem *,IServerUserItem *>::GetCount
  00234	85 c0		 test	 eax, eax
  00236	0f 8e 2a 01 00
	00		 jle	 $LN16@OnEventGam

; 435  : 	{
; 436  : 		//分数通知
; 437  : 		tagMatchScore *pScore = new tagMatchScore[m_OnMatchUserMap.GetCount()];

  0023c	8b 4d e8	 mov	 ecx, DWORD PTR _this$[ebp]
  0023f	83 c1 38	 add	 ecx, 56			; 00000038H
  00242	e8 00 00 00 00	 call	 ?GetCount@?$CMap@KKPAUIServerUserItem@@PAU1@@@QBEHXZ ; CMap<unsigned long,unsigned long,IServerUserItem *,IServerUserItem *>::GetCount
  00247	33 c9		 xor	 ecx, ecx
  00249	ba 18 00 00 00	 mov	 edx, 24			; 00000018H
  0024e	f7 e2		 mul	 edx
  00250	0f 90 c1	 seto	 cl
  00253	f7 d9		 neg	 ecx
  00255	0b c8		 or	 ecx, eax
  00257	51		 push	 ecx
  00258	e8 00 00 00 00	 call	 ??_U@YAPAXI@Z		; operator new[]
  0025d	83 c4 04	 add	 esp, 4
  00260	89 85 0c ff ff
	ff		 mov	 DWORD PTR $T3[ebp], eax
  00266	8b 85 0c ff ff
	ff		 mov	 eax, DWORD PTR $T3[ebp]
  0026c	89 85 58 ff ff
	ff		 mov	 DWORD PTR _pScore$6[ebp], eax

; 438  : 		ZeroMemory(pScore,sizeof(tagMatchScore)*m_OnMatchUserMap.GetCount());

  00272	8b 4d e8	 mov	 ecx, DWORD PTR _this$[ebp]
  00275	83 c1 38	 add	 ecx, 56			; 00000038H
  00278	e8 00 00 00 00	 call	 ?GetCount@?$CMap@KKPAUIServerUserItem@@PAU1@@@QBEHXZ ; CMap<unsigned long,unsigned long,IServerUserItem *,IServerUserItem *>::GetCount
  0027d	6b c0 18	 imul	 eax, eax, 24
  00280	50		 push	 eax
  00281	6a 00		 push	 0
  00283	8b 8d 58 ff ff
	ff		 mov	 ecx, DWORD PTR _pScore$6[ebp]
  00289	51		 push	 ecx
  0028a	e8 00 00 00 00	 call	 _memset
  0028f	83 c4 0c	 add	 esp, 12			; 0000000cH

; 439  : 		WORD wCount=SortMapUser(pScore);

  00292	8b 85 58 ff ff
	ff		 mov	 eax, DWORD PTR _pScore$6[ebp]
  00298	50		 push	 eax
  00299	8b 4d e8	 mov	 ecx, DWORD PTR _this$[ebp]
  0029c	e8 00 00 00 00	 call	 ?SortMapUser@CImmediateGroup@@IAEGQAUtagMatchScore@@@Z ; CImmediateGroup::SortMapUser
  002a1	66 89 85 54 ff
	ff ff		 mov	 WORD PTR _wCount$5[ebp], ax

; 440  : 		for (WORD i=0;i<wCount;i++)

  002a8	33 c0		 xor	 eax, eax
  002aa	66 89 85 50 ff
	ff ff		 mov	 WORD PTR _i$4[ebp], ax
  002b1	eb 12		 jmp	 SHORT $LN7@OnEventGam
$LN5@OnEventGam:
  002b3	66 8b 85 50 ff
	ff ff		 mov	 ax, WORD PTR _i$4[ebp]
  002ba	66 83 c0 01	 add	 ax, 1
  002be	66 89 85 50 ff
	ff ff		 mov	 WORD PTR _i$4[ebp], ax
$LN7@OnEventGam:
  002c5	0f b7 85 50 ff
	ff ff		 movzx	 eax, WORD PTR _i$4[ebp]
  002cc	0f b7 8d 54 ff
	ff ff		 movzx	 ecx, WORD PTR _wCount$5[ebp]
  002d3	3b c1		 cmp	 eax, ecx
  002d5	7d 2e		 jge	 SHORT $LN6@OnEventGam

; 441  : 		{
; 442  : 			m_pMatchSink->SendGroupUserScore(pScore[i].pUserItem,this);

  002d7	8b 45 e8	 mov	 eax, DWORD PTR _this$[ebp]
  002da	50		 push	 eax
  002db	0f b7 8d 50 ff
	ff ff		 movzx	 ecx, WORD PTR _i$4[ebp]
  002e2	6b d1 18	 imul	 edx, ecx, 24
  002e5	8b 85 58 ff ff
	ff		 mov	 eax, DWORD PTR _pScore$6[ebp]
  002eb	8b 4c 10 10	 mov	 ecx, DWORD PTR [eax+edx+16]
  002ef	51		 push	 ecx
  002f0	8b 55 e8	 mov	 edx, DWORD PTR _this$[ebp]
  002f3	8b 42 2c	 mov	 eax, DWORD PTR [edx+44]
  002f6	8b 4d e8	 mov	 ecx, DWORD PTR _this$[ebp]
  002f9	8b 10		 mov	 edx, DWORD PTR [eax]
  002fb	8b 49 2c	 mov	 ecx, DWORD PTR [ecx+44]
  002fe	8b 42 18	 mov	 eax, DWORD PTR [edx+24]
  00301	ff d0		 call	 eax

; 443  : 		}

  00303	eb ae		 jmp	 SHORT $LN5@OnEventGam
$LN6@OnEventGam:

; 444  : 
; 445  : 		SafeDeleteArray(pScore);

  00305	c7 45 fc 00 00
	00 00		 mov	 DWORD PTR __$EHRec$[ebp+12], 0
  0030c	8b 85 58 ff ff
	ff		 mov	 eax, DWORD PTR _pScore$6[ebp]
  00312	89 85 08 ff ff
	ff		 mov	 DWORD PTR $T2[ebp], eax
  00318	8b 8d 08 ff ff
	ff		 mov	 ecx, DWORD PTR $T2[ebp]
  0031e	51		 push	 ecx
  0031f	e8 00 00 00 00	 call	 ??_V@YAXPAX@Z		; operator delete[]
  00324	83 c4 04	 add	 esp, 4
  00327	eb 23		 jmp	 SHORT $LN20@OnEventGam
__catch$?OnEventGameEnd@CImmediateGroup@@UAE_NPAUITableFrame@@GPAUIServerUserItem@@E@Z$0:
  00329	33 c0		 xor	 eax, eax
  0032b	75 19		 jne	 SHORT $LN19@OnEventGam
  0032d	8b 0d 00 00 00
	00		 mov	 ecx, DWORD PTR ?__LINE__Var@?0??OnEventGameEnd@CImmediateGroup@@UAE_NPAUITableFrame@@GPAUIServerUserItem@@E@Z@4JA
  00333	83 c1 52	 add	 ecx, 82			; 00000052H
  00336	51		 push	 ecx
  00337	68 00 00 00 00	 push	 OFFSET ??_C@_0EL@ONMMFGFJ@g?3?2?M?x?$LK?$PM?2happygamewh?2?$LH?$PO?N?q?$LG?K?2?O?$LF?M?$LD@
  0033c	e8 00 00 00 00	 call	 ?AfxAssertFailedLine@@YGHPBDH@Z ; AfxAssertFailedLine
  00341	85 c0		 test	 eax, eax
  00343	74 01		 je	 SHORT $LN19@OnEventGam
  00345	cc		 int	 3
$LN19@OnEventGam:
  00346	b8 00 00 00 00	 mov	 eax, $LN23@OnEventGam
  0034b	c3		 ret	 0
$LN20@OnEventGam:
  0034c	c7 45 fc ff ff
	ff ff		 mov	 DWORD PTR __$EHRec$[ebp+12], -1
  00353	eb 07		 jmp	 SHORT __tryend$?OnEventGameEnd@CImmediateGroup@@UAE_NPAUITableFrame@@GPAUIServerUserItem@@E@Z$1
$LN23@OnEventGam:
  00355	c7 45 fc ff ff
	ff ff		 mov	 DWORD PTR __$EHRec$[ebp+12], -1
__tryend$?OnEventGameEnd@CImmediateGroup@@UAE_NPAUITableFrame@@GPAUIServerUserItem@@E@Z$1:
  0035c	c7 85 58 ff ff
	ff 00 00 00 00	 mov	 DWORD PTR _pScore$6[ebp], 0
$LN16@OnEventGam:

; 446  : 	}
; 447  : 
; 448  : 	return true;

  00366	b0 01		 mov	 al, 1
$LN1@OnEventGam:

; 449  : }

  00368	8b 4d f4	 mov	 ecx, DWORD PTR __$EHRec$[ebp+4]
  0036b	64 89 0d 00 00
	00 00		 mov	 DWORD PTR fs:0, ecx
  00372	59		 pop	 ecx
  00373	5f		 pop	 edi
  00374	5e		 pop	 esi
  00375	5b		 pop	 ebx
  00376	8b 4d ec	 mov	 ecx, DWORD PTR __$ArrayPad$[ebp]
  00379	33 cd		 xor	 ecx, ebp
  0037b	e8 00 00 00 00	 call	 @__security_check_cookie@4
  00380	8b e5		 mov	 esp, ebp
  00382	5d		 pop	 ebp
  00383	c2 10 00	 ret	 16			; 00000010H
_TEXT	ENDS
;	COMDAT text$x
text$x	SEGMENT
__ehhandler$?OnEventGameEnd@CImmediateGroup@@UAE_NPAUITableFrame@@GPAUIServerUserItem@@E@Z:
  00000	8b 54 24 08	 mov	 edx, DWORD PTR [esp+8]
  00004	8d 42 0c	 lea	 eax, DWORD PTR [edx+12]
  00007	8b 8a 04 ff ff
	ff		 mov	 ecx, DWORD PTR [edx-252]
  0000d	33 c8		 xor	 ecx, eax
  0000f	e8 00 00 00 00	 call	 @__security_check_cookie@4
  00014	8b 4a f8	 mov	 ecx, DWORD PTR [edx-8]
  00017	33 c8		 xor	 ecx, eax
  00019	e8 00 00 00 00	 call	 @__security_check_cookie@4
  0001e	b8 00 00 00 00	 mov	 eax, OFFSET __ehfuncinfo$?OnEventGameEnd@CImmediateGroup@@UAE_NPAUITableFrame@@GPAUIServerUserItem@@E@Z
  00023	e9 00 00 00 00	 jmp	 ___CxxFrameHandler3
text$x	ENDS
?OnEventGameEnd@CImmediateGroup@@UAE_NPAUITableFrame@@GPAUIServerUserItem@@E@Z ENDP ; CImmediateGroup::OnEventGameEnd
; Function compile flags: /Odtp /ZI
; File g:\网狐\happygamewh\服务端\系统模块\服务器组件\比赛服务\immediategroup.cpp
;	COMDAT ?OnEventGameStart@CImmediateGroup@@UAE_NPAUITableFrame@@G@Z
_TEXT	SEGMENT
_wSendSize$ = -1300					; size = 2
_szMsg$ = -1296						; size = 256
_SystemMessage$ = -1040					; size = 1028
_pTableFrameInfo$ = -12					; size = 4
_this$ = -8						; size = 4
__$ArrayPad$ = -4					; size = 4
_pITableFrame$ = 8					; size = 4
_wChairCount$ = 12					; size = 2
?OnEventGameStart@CImmediateGroup@@UAE_NPAUITableFrame@@G@Z PROC ; CImmediateGroup::OnEventGameStart, COMDAT
; _this$ = ecx

; 325  : {

  00000	55		 push	 ebp
  00001	8b ec		 mov	 ebp, esp
  00003	81 ec d4 05 00
	00		 sub	 esp, 1492		; 000005d4H
  00009	a1 00 00 00 00	 mov	 eax, DWORD PTR ___security_cookie
  0000e	33 c5		 xor	 eax, ebp
  00010	89 45 fc	 mov	 DWORD PTR __$ArrayPad$[ebp], eax
  00013	53		 push	 ebx
  00014	56		 push	 esi
  00015	57		 push	 edi
  00016	89 4d f8	 mov	 DWORD PTR _this$[ebp], ecx

; 326  : 	//设置底分
; 327  : 	pITableFrame->SetCellScore((LONG)m_lCurBase);

  00019	8b 45 f8	 mov	 eax, DWORD PTR _this$[ebp]
  0001c	8b 48 08	 mov	 ecx, DWORD PTR [eax+8]
  0001f	51		 push	 ecx
  00020	8b 55 08	 mov	 edx, DWORD PTR _pITableFrame$[ebp]
  00023	8b 02		 mov	 eax, DWORD PTR [edx]
  00025	8b 4d 08	 mov	 ecx, DWORD PTR _pITableFrame$[ebp]
  00028	8b 50 34	 mov	 edx, DWORD PTR [eax+52]
  0002b	ff d2		 call	 edx

; 328  : 	KillMatchTimer(IDI_CHECK_TABLE_START,(WPARAM)pITableFrame);

  0002d	8b 45 08	 mov	 eax, DWORD PTR _pITableFrame$[ebp]
  00030	50		 push	 eax
  00031	6a 03		 push	 3
  00033	8b 4d f8	 mov	 ecx, DWORD PTR _this$[ebp]
  00036	e8 00 00 00 00	 call	 ?KillMatchTimer@CImmediateGroup@@IAE_NKI@Z ; CImmediateGroup::KillMatchTimer

; 329  : 
; 330  : 	//获取接口
; 331  : 	tagTableFrameInfo *pTableFrameInfo=GetTableInterface(pITableFrame);

  0003b	8b 45 08	 mov	 eax, DWORD PTR _pITableFrame$[ebp]
  0003e	50		 push	 eax
  0003f	8b 4d f8	 mov	 ecx, DWORD PTR _this$[ebp]
  00042	e8 00 00 00 00	 call	 ?GetTableInterface@CImmediateGroup@@IAEPAUtagTableFrameInfo@@PAUITableFrame@@@Z ; CImmediateGroup::GetTableInterface
  00047	89 45 f4	 mov	 DWORD PTR _pTableFrameInfo$[ebp], eax

; 332  : 
; 333  : 	//设置状态
; 334  : 	pTableFrameInfo->bMatchTaskFinish=false;

  0004a	8b 45 f4	 mov	 eax, DWORD PTR _pTableFrameInfo$[ebp]
  0004d	c6 40 12 00	 mov	 BYTE PTR [eax+18], 0

; 335  : 	pTableFrameInfo->bSwtichTaskFinish=false;

  00051	8b 45 f4	 mov	 eax, DWORD PTR _pTableFrameInfo$[ebp]
  00054	c6 40 13 00	 mov	 BYTE PTR [eax+19], 0

; 336  : 	pTableFrameInfo->bWaitForNextInnings=false;

  00058	8b 45 f4	 mov	 eax, DWORD PTR _pTableFrameInfo$[ebp]
  0005b	c6 40 14 00	 mov	 BYTE PTR [eax+20], 0

; 337  : 
; 338  : 	//已完成局数加1
; 339  : 	pTableFrameInfo->wPlayCount++;

  0005f	8b 45 f4	 mov	 eax, DWORD PTR _pTableFrameInfo$[ebp]
  00062	66 8b 48 10	 mov	 cx, WORD PTR [eax+16]
  00066	66 83 c1 01	 add	 cx, 1
  0006a	8b 55 f4	 mov	 edx, DWORD PTR _pTableFrameInfo$[ebp]
  0006d	66 89 4a 10	 mov	 WORD PTR [edx+16], cx

; 340  : 
; 341  : 	//发送比赛信息
; 342  : 	SendTableMatchInfo(pITableFrame, INVALID_CHAIR);

  00071	68 ff ff 00 00	 push	 65535			; 0000ffffH
  00076	8b 45 08	 mov	 eax, DWORD PTR _pITableFrame$[ebp]
  00079	50		 push	 eax
  0007a	8b 4d f8	 mov	 ecx, DWORD PTR _this$[ebp]
  0007d	e8 00 00 00 00	 call	 ?SendTableMatchInfo@CImmediateGroup@@IAEXPAUITableFrame@@G@Z ; CImmediateGroup::SendTableMatchInfo

; 343  : 
; 344  : 	//构造数据包
; 345  : 	CMD_CM_SystemMessage SystemMessage;
; 346  : 	ZeroMemory(&SystemMessage,sizeof(SystemMessage));

  00082	68 04 04 00 00	 push	 1028			; 00000404H
  00087	6a 00		 push	 0
  00089	8d 85 f0 fb ff
	ff		 lea	 eax, DWORD PTR _SystemMessage$[ebp]
  0008f	50		 push	 eax
  00090	e8 00 00 00 00	 call	 _memset
  00095	83 c4 0c	 add	 esp, 12			; 0000000cH

; 347  : 
; 348  : 	TCHAR szMsg[256];
; 349  : 	_sntprintf_s(szMsg, CountArray(szMsg),TEXT("定局排名赛第%d局开始（共%d局）。"),pTableFrameInfo->wPlayCount,m_pImmediateMatch->wPlayCount);

  00098	8b 45 f8	 mov	 eax, DWORD PTR _this$[ebp]
  0009b	8b 48 34	 mov	 ecx, DWORD PTR [eax+52]
  0009e	0f b7 51 16	 movzx	 edx, WORD PTR [ecx+22]
  000a2	52		 push	 edx
  000a3	8b 45 f4	 mov	 eax, DWORD PTR _pTableFrameInfo$[ebp]
  000a6	0f b7 48 10	 movzx	 ecx, WORD PTR [eax+16]
  000aa	51		 push	 ecx
  000ab	68 00 00 00 00	 push	 OFFSET ??_C@_0CB@BLALCHJO@?$LG?$KI?$LO?V?E?E?C?$PL?H?$PM?$LF?Z?$CFd?$LO?V?$LP?$KK?J?$LM?$KD?$KI?$LJ?$LC?$CFd?$LO?V?$KD?$KJ?$KB@
  000b0	68 00 01 00 00	 push	 256			; 00000100H
  000b5	8d 95 f0 fa ff
	ff		 lea	 edx, DWORD PTR _szMsg$[ebp]
  000bb	52		 push	 edx
  000bc	e8 00 00 00 00	 call	 ??$_snprintf_s@$0BAA@@@YAHAAY0BAA@DIPBDZZ ; _snprintf_s<256>
  000c1	83 c4 14	 add	 esp, 20			; 00000014H

; 350  : 	lstrcpyn(SystemMessage.szString,szMsg,CountArray(SystemMessage.szString));

  000c4	68 00 04 00 00	 push	 1024			; 00000400H
  000c9	8d 85 f0 fa ff
	ff		 lea	 eax, DWORD PTR _szMsg$[ebp]
  000cf	50		 push	 eax
  000d0	8d 8d f4 fb ff
	ff		 lea	 ecx, DWORD PTR _SystemMessage$[ebp+4]
  000d6	51		 push	 ecx
  000d7	ff 15 00 00 00
	00		 call	 DWORD PTR __imp__lstrcpynA@12

; 351  : 	SystemMessage.wLength=CountStringBuffer(SystemMessage.szString);

  000dd	8d 85 f4 fb ff
	ff		 lea	 eax, DWORD PTR _SystemMessage$[ebp+4]
  000e3	50		 push	 eax
  000e4	ff 15 00 00 00
	00		 call	 DWORD PTR __imp__lstrlenA@4
  000ea	83 c0 01	 add	 eax, 1
  000ed	66 89 85 f2 fb
	ff ff		 mov	 WORD PTR _SystemMessage$[ebp+2], ax

; 352  : 	SystemMessage.wType=SMT_CHAT;

  000f4	b8 01 00 00 00	 mov	 eax, 1
  000f9	66 89 85 f0 fb
	ff ff		 mov	 WORD PTR _SystemMessage$[ebp], ax

; 353  : 
; 354  : 	//发送数据
; 355  : 	WORD wSendSize=sizeof(SystemMessage)-sizeof(SystemMessage.szString)+SystemMessage.wLength*sizeof(TCHAR);

  00100	0f b7 85 f2 fb
	ff ff		 movzx	 eax, WORD PTR _SystemMessage$[ebp+2]
  00107	83 c0 04	 add	 eax, 4
  0010a	66 89 85 ec fa
	ff ff		 mov	 WORD PTR _wSendSize$[ebp], ax

; 356  : 	pITableFrame->SendTableData(INVALID_CHAIR,SUB_GF_SYSTEM_MESSAGE, (VOID*)&SystemMessage,wSendSize,MDM_GF_FRAME);

  00111	6a 64		 push	 100			; 00000064H
  00113	0f b7 85 ec fa
	ff ff		 movzx	 eax, WORD PTR _wSendSize$[ebp]
  0011a	50		 push	 eax
  0011b	8d 8d f0 fb ff
	ff		 lea	 ecx, DWORD PTR _SystemMessage$[ebp]
  00121	51		 push	 ecx
  00122	68 c8 00 00 00	 push	 200			; 000000c8H
  00127	68 ff ff 00 00	 push	 65535			; 0000ffffH
  0012c	8b 55 08	 mov	 edx, DWORD PTR _pITableFrame$[ebp]
  0012f	8b 02		 mov	 eax, DWORD PTR [edx]
  00131	8b 4d 08	 mov	 ecx, DWORD PTR _pITableFrame$[ebp]
  00134	8b 90 ac 00 00
	00		 mov	 edx, DWORD PTR [eax+172]
  0013a	ff d2		 call	 edx

; 357  : 
; 358  : 	return true;

  0013c	b0 01		 mov	 al, 1

; 359  : }

  0013e	5f		 pop	 edi
  0013f	5e		 pop	 esi
  00140	5b		 pop	 ebx
  00141	8b 4d fc	 mov	 ecx, DWORD PTR __$ArrayPad$[ebp]
  00144	33 cd		 xor	 ecx, ebp
  00146	e8 00 00 00 00	 call	 @__security_check_cookie@4
  0014b	8b e5		 mov	 esp, ebp
  0014d	5d		 pop	 ebp
  0014e	c2 08 00	 ret	 8
?OnEventGameStart@CImmediateGroup@@UAE_NPAUITableFrame@@G@Z ENDP ; CImmediateGroup::OnEventGameStart
_TEXT	ENDS
; Function compile flags: /Odtp /ZI
; File g:\网狐\happygamewh\服务端\系统模块\服务器组件\比赛服务\immediategroup.cpp
;	COMDAT ?QueryInterface@CImmediateGroup@@UAEPAXABU_GUID@@K@Z
_TEXT	SEGMENT
_this$ = -4						; size = 4
_Guid$ = 8						; size = 4
_dwQueryVer$ = 12					; size = 4
?QueryInterface@CImmediateGroup@@UAEPAXABU_GUID@@K@Z PROC ; CImmediateGroup::QueryInterface, COMDAT
; _this$ = ecx

; 66   : {

  00000	55		 push	 ebp
  00001	8b ec		 mov	 ebp, esp
  00003	83 ec 44	 sub	 esp, 68			; 00000044H
  00006	53		 push	 ebx
  00007	56		 push	 esi
  00008	57		 push	 edi
  00009	89 4d fc	 mov	 DWORD PTR _this$[ebp], ecx

; 67   : 	QUERYINTERFACE(IMatchEventSink,Guid,dwQueryVer);

  0000c	68 00 00 00 00	 push	 OFFSET ?IID_IMatchEventSink@@3U_GUID@@B
  00011	8b 45 08	 mov	 eax, DWORD PTR _Guid$[ebp]
  00014	50		 push	 eax
  00015	e8 00 00 00 00	 call	 _==
  0001a	83 c4 08	 add	 esp, 8
  0001d	0f b6 c8	 movzx	 ecx, al
  00020	85 c9		 test	 ecx, ecx
  00022	74 1d		 je	 SHORT $LN2@QueryInter
  00024	68 00 01 01 06	 push	 100729088		; 06010100H
  00029	8b 45 0c	 mov	 eax, DWORD PTR _dwQueryVer$[ebp]
  0002c	50		 push	 eax
  0002d	e8 00 00 00 00	 call	 ?InterfaceVersionCompare@@YA_NKK@Z ; InterfaceVersionCompare
  00032	83 c4 08	 add	 esp, 8
  00035	0f b6 c8	 movzx	 ecx, al
  00038	85 c9		 test	 ecx, ecx
  0003a	74 05		 je	 SHORT $LN2@QueryInter
  0003c	8b 45 fc	 mov	 eax, DWORD PTR _this$[ebp]
  0003f	eb 37		 jmp	 SHORT $LN1@QueryInter
$LN2@QueryInter:

; 68   : 	QUERYINTERFACE_IUNKNOWNEX(IMatchEventSink,Guid,dwQueryVer);

  00041	68 00 00 00 00	 push	 OFFSET ?IID_IUnknownEx@@3U_GUID@@B
  00046	8b 45 08	 mov	 eax, DWORD PTR _Guid$[ebp]
  00049	50		 push	 eax
  0004a	e8 00 00 00 00	 call	 _==
  0004f	83 c4 08	 add	 esp, 8
  00052	0f b6 c8	 movzx	 ecx, al
  00055	85 c9		 test	 ecx, ecx
  00057	74 1d		 je	 SHORT $LN3@QueryInter
  00059	68 00 01 01 06	 push	 100729088		; 06010100H
  0005e	8b 45 0c	 mov	 eax, DWORD PTR _dwQueryVer$[ebp]
  00061	50		 push	 eax
  00062	e8 00 00 00 00	 call	 ?InterfaceVersionCompare@@YA_NKK@Z ; InterfaceVersionCompare
  00067	83 c4 08	 add	 esp, 8
  0006a	0f b6 c8	 movzx	 ecx, al
  0006d	85 c9		 test	 ecx, ecx
  0006f	74 05		 je	 SHORT $LN3@QueryInter
  00071	8b 45 fc	 mov	 eax, DWORD PTR _this$[ebp]
  00074	eb 02		 jmp	 SHORT $LN1@QueryInter
$LN3@QueryInter:

; 69   : 	return NULL;

  00076	33 c0		 xor	 eax, eax
$LN1@QueryInter:

; 70   : }

  00078	5f		 pop	 edi
  00079	5e		 pop	 esi
  0007a	5b		 pop	 ebx
  0007b	8b e5		 mov	 esp, ebp
  0007d	5d		 pop	 ebp
  0007e	c2 08 00	 ret	 8
?QueryInterface@CImmediateGroup@@UAEPAXABU_GUID@@K@Z ENDP ; CImmediateGroup::QueryInterface
_TEXT	ENDS
; Function compile flags: /Odtp /ZI
; File g:\网狐\happygamewh\服务端\系统模块\服务器组件\比赛服务\immediategroup.h
;	COMDAT ?Release@CImmediateGroup@@UAEXXZ
_TEXT	SEGMENT
tv70 = -80						; size = 4
$T1 = -76						; size = 4
$T2 = -72						; size = 4
_this$ = -4						; size = 4
?Release@CImmediateGroup@@UAEXXZ PROC			; CImmediateGroup::Release, COMDAT
; _this$ = ecx

; 184  : 	virtual VOID Release(){ delete this; };

  00000	55		 push	 ebp
  00001	8b ec		 mov	 ebp, esp
  00003	83 ec 50	 sub	 esp, 80			; 00000050H
  00006	53		 push	 ebx
  00007	56		 push	 esi
  00008	57		 push	 edi
  00009	89 4d fc	 mov	 DWORD PTR _this$[ebp], ecx
  0000c	8b 45 fc	 mov	 eax, DWORD PTR _this$[ebp]
  0000f	89 45 b4	 mov	 DWORD PTR $T1[ebp], eax
  00012	8b 4d b4	 mov	 ecx, DWORD PTR $T1[ebp]
  00015	89 4d b8	 mov	 DWORD PTR $T2[ebp], ecx
  00018	83 7d b8 00	 cmp	 DWORD PTR $T2[ebp], 0
  0001c	74 14		 je	 SHORT $LN3@Release
  0001e	6a 01		 push	 1
  00020	8b 55 b8	 mov	 edx, DWORD PTR $T2[ebp]
  00023	8b 02		 mov	 eax, DWORD PTR [edx]
  00025	8b 4d b8	 mov	 ecx, DWORD PTR $T2[ebp]
  00028	8b 50 20	 mov	 edx, DWORD PTR [eax+32]
  0002b	ff d2		 call	 edx
  0002d	89 45 b0	 mov	 DWORD PTR tv70[ebp], eax
  00030	eb 07		 jmp	 SHORT $LN1@Release
$LN3@Release:
  00032	c7 45 b0 00 00
	00 00		 mov	 DWORD PTR tv70[ebp], 0
$LN1@Release:
  00039	5f		 pop	 edi
  0003a	5e		 pop	 esi
  0003b	5b		 pop	 ebx
  0003c	8b e5		 mov	 esp, ebp
  0003e	5d		 pop	 ebp
  0003f	c3		 ret	 0
?Release@CImmediateGroup@@UAEXXZ ENDP			; CImmediateGroup::Release
_TEXT	ENDS
; Function compile flags: /Odtp /ZI
; File g:\网狐\happygamewh\服务端\系统模块\服务器组件\比赛服务\immediategroup.cpp
;	COMDAT ??1CImmediateGroup@@UAE@XZ
_TEXT	SEGMENT
tv161 = -96						; size = 4
$T2 = -92						; size = 4
_i$3 = -24						; size = 4
_this$ = -20						; size = 4
__$EHRec$ = -16						; size = 16
??1CImmediateGroup@@UAE@XZ PROC				; CImmediateGroup::~CImmediateGroup, COMDAT
; _this$ = ecx

; 44   : {

  00000	55		 push	 ebp
  00001	8b ec		 mov	 ebp, esp
  00003	6a ff		 push	 -1
  00005	68 00 00 00 00	 push	 __ehhandler$??1CImmediateGroup@@UAE@XZ
  0000a	64 a1 00 00 00
	00		 mov	 eax, DWORD PTR fs:0
  00010	50		 push	 eax
  00011	51		 push	 ecx
  00012	83 ec 50	 sub	 esp, 80			; 00000050H
  00015	53		 push	 ebx
  00016	56		 push	 esi
  00017	57		 push	 edi
  00018	a1 00 00 00 00	 mov	 eax, DWORD PTR ___security_cookie
  0001d	33 c5		 xor	 eax, ebp
  0001f	50		 push	 eax
  00020	8d 45 f4	 lea	 eax, DWORD PTR __$EHRec$[ebp+4]
  00023	64 a3 00 00 00
	00		 mov	 DWORD PTR fs:0, eax
  00029	89 65 f0	 mov	 DWORD PTR __$EHRec$[ebp], esp
  0002c	89 4d ec	 mov	 DWORD PTR _this$[ebp], ecx
  0002f	8b 45 ec	 mov	 eax, DWORD PTR _this$[ebp]
  00032	c7 00 00 00 00
	00		 mov	 DWORD PTR [eax], OFFSET ??_7CImmediateGroup@@6B@
  00038	c7 45 fc 03 00
	00 00		 mov	 DWORD PTR __$EHRec$[ebp+12], 3

; 45   : 	//杀死定时器
; 46   : 	AllKillMatchTimer();

  0003f	8b 4d ec	 mov	 ecx, DWORD PTR _this$[ebp]
  00042	e8 00 00 00 00	 call	 ?AllKillMatchTimer@CImmediateGroup@@IAEXXZ ; CImmediateGroup::AllKillMatchTimer

; 47   : 
; 48   : 	//设置状态
; 49   : 	m_wAndroidUserCount=0;

  00047	33 c0		 xor	 eax, eax
  00049	8b 4d ec	 mov	 ecx, DWORD PTR _this$[ebp]
  0004c	66 89 41 1a	 mov	 WORD PTR [ecx+26], ax

; 50   : 	m_cbMatchStatus=MatchStatus_Null;

  00050	8b 45 ec	 mov	 eax, DWORD PTR _this$[ebp]
  00053	c6 40 18 00	 mov	 BYTE PTR [eax+24], 0

; 51   : 
; 52   : 	//释放桌子
; 53   : 	for (int i=0; i<m_MatchTableArray.GetCount(); i++)

  00057	c7 45 e8 00 00
	00 00		 mov	 DWORD PTR _i$3[ebp], 0
  0005e	eb 09		 jmp	 SHORT $LN4@CImmediate
$LN2@CImmediate:
  00060	8b 45 e8	 mov	 eax, DWORD PTR _i$3[ebp]
  00063	83 c0 01	 add	 eax, 1
  00066	89 45 e8	 mov	 DWORD PTR _i$3[ebp], eax
$LN4@CImmediate:
  00069	8b 4d ec	 mov	 ecx, DWORD PTR _this$[ebp]
  0006c	83 c1 68	 add	 ecx, 104		; 00000068H
  0006f	e8 00 00 00 00	 call	 ?GetCount@?$CWHArray@PAUtagTableFrameInfo@@ABQAU1@@@QBEHXZ ; CWHArray<tagTableFrameInfo *,tagTableFrameInfo * const &>::GetCount
  00074	39 45 e8	 cmp	 DWORD PTR _i$3[ebp], eax
  00077	7d 7b		 jge	 SHORT $LN3@CImmediate

; 54   : 	{
; 55   : 		SafeDelete(m_MatchTableArray[i]);

  00079	c6 45 fc 04	 mov	 BYTE PTR __$EHRec$[ebp+12], 4
  0007d	8b 45 e8	 mov	 eax, DWORD PTR _i$3[ebp]
  00080	50		 push	 eax
  00081	8b 4d ec	 mov	 ecx, DWORD PTR _this$[ebp]
  00084	83 c1 68	 add	 ecx, 104		; 00000068H
  00087	e8 00 00 00 00	 call	 ??A?$CWHArray@PAUtagTableFrameInfo@@ABQAU1@@@QAEAAPAUtagTableFrameInfo@@H@Z ; CWHArray<tagTableFrameInfo *,tagTableFrameInfo * const &>::operator[]
  0008c	89 45 a0	 mov	 DWORD PTR tv161[ebp], eax
  0008f	8b 4d a0	 mov	 ecx, DWORD PTR tv161[ebp]
  00092	8b 11		 mov	 edx, DWORD PTR [ecx]
  00094	89 55 a4	 mov	 DWORD PTR $T2[ebp], edx
  00097	6a 18		 push	 24			; 00000018H
  00099	8b 45 a4	 mov	 eax, DWORD PTR $T2[ebp]
  0009c	50		 push	 eax
  0009d	e8 00 00 00 00	 call	 ??3@YAXPAXI@Z		; operator delete
  000a2	83 c4 08	 add	 esp, 8
  000a5	eb 23		 jmp	 SHORT $LN8@CImmediate
__catch$??1CImmediateGroup@@UAE@XZ$0:
  000a7	33 c0		 xor	 eax, eax
  000a9	75 19		 jne	 SHORT $LN7@CImmediate
  000ab	8b 0d 00 00 00
	00		 mov	 ecx, DWORD PTR ?__LINE__Var@?0???1CImmediateGroup@@UAE@XZ@4JA
  000b1	83 c1 0b	 add	 ecx, 11			; 0000000bH
  000b4	51		 push	 ecx
  000b5	68 00 00 00 00	 push	 OFFSET ??_C@_0EL@ONMMFGFJ@g?3?2?M?x?$LK?$PM?2happygamewh?2?$LH?$PO?N?q?$LG?K?2?O?$LF?M?$LD@
  000ba	e8 00 00 00 00	 call	 ?AfxAssertFailedLine@@YGHPBDH@Z ; AfxAssertFailedLine
  000bf	85 c0		 test	 eax, eax
  000c1	74 01		 je	 SHORT $LN7@CImmediate
  000c3	cc		 int	 3
$LN7@CImmediate:
  000c4	b8 00 00 00 00	 mov	 eax, $LN15@CImmediate
  000c9	c3		 ret	 0
$LN8@CImmediate:
  000ca	c7 45 fc 03 00
	00 00		 mov	 DWORD PTR __$EHRec$[ebp+12], 3
  000d1	eb 07		 jmp	 SHORT __tryend$??1CImmediateGroup@@UAE@XZ$1
$LN15@CImmediate:
  000d3	c7 45 fc 03 00
	00 00		 mov	 DWORD PTR __$EHRec$[ebp+12], 3
__tryend$??1CImmediateGroup@@UAE@XZ$1:
  000da	8b 45 e8	 mov	 eax, DWORD PTR _i$3[ebp]
  000dd	50		 push	 eax
  000de	8b 4d ec	 mov	 ecx, DWORD PTR _this$[ebp]
  000e1	83 c1 68	 add	 ecx, 104		; 00000068H
  000e4	e8 00 00 00 00	 call	 ??A?$CWHArray@PAUtagTableFrameInfo@@ABQAU1@@@QAEAAPAUtagTableFrameInfo@@H@Z ; CWHArray<tagTableFrameInfo *,tagTableFrameInfo * const &>::operator[]
  000e9	c7 00 00 00 00
	00		 mov	 DWORD PTR [eax], 0

; 56   : 	}

  000ef	e9 6c ff ff ff	 jmp	 $LN2@CImmediate
$LN3@CImmediate:

; 57   : 
; 58   : 	//移除元素
; 59   : 	m_MatchTableArray.RemoveAll();

  000f4	8b 4d ec	 mov	 ecx, DWORD PTR _this$[ebp]
  000f7	83 c1 68	 add	 ecx, 104		; 00000068H
  000fa	e8 00 00 00 00	 call	 ?RemoveAll@?$CWHArray@PAUtagTableFrameInfo@@ABQAU1@@@QAEXXZ ; CWHArray<tagTableFrameInfo *,tagTableFrameInfo * const &>::RemoveAll

; 60   : 	m_OnMatchUserMap.RemoveAll();

  000ff	8b 4d ec	 mov	 ecx, DWORD PTR _this$[ebp]
  00102	83 c1 38	 add	 ecx, 56			; 00000038H
  00105	e8 00 00 00 00	 call	 ?RemoveAll@?$CMap@KKPAUIServerUserItem@@PAU1@@@QAEXXZ ; CMap<unsigned long,unsigned long,IServerUserItem *,IServerUserItem *>::RemoveAll

; 61   : 	m_FreeUserArray.RemoveAll();

  0010a	8b 4d ec	 mov	 ecx, DWORD PTR _this$[ebp]
  0010d	83 c1 54	 add	 ecx, 84			; 00000054H
  00110	e8 00 00 00 00	 call	 ?RemoveAll@?$CWHArray@PAUIServerUserItem@@ABQAU1@@@QAEXXZ ; CWHArray<IServerUserItem *,IServerUserItem * const &>::RemoveAll

; 62   : }

  00115	c6 45 fc 02	 mov	 BYTE PTR __$EHRec$[ebp+12], 2
  00119	8b 4d ec	 mov	 ecx, DWORD PTR _this$[ebp]
  0011c	83 c1 7c	 add	 ecx, 124		; 0000007cH
  0011f	e8 00 00 00 00	 call	 ??1?$CWHArray@PAUtagMatchTimer@@ABQAU1@@@UAE@XZ ; CWHArray<tagMatchTimer *,tagMatchTimer * const &>::~CWHArray<tagMatchTimer *,tagMatchTimer * const &>
  00124	c6 45 fc 01	 mov	 BYTE PTR __$EHRec$[ebp+12], 1
  00128	8b 4d ec	 mov	 ecx, DWORD PTR _this$[ebp]
  0012b	83 c1 68	 add	 ecx, 104		; 00000068H
  0012e	e8 00 00 00 00	 call	 ??1?$CWHArray@PAUtagTableFrameInfo@@ABQAU1@@@UAE@XZ ; CWHArray<tagTableFrameInfo *,tagTableFrameInfo * const &>::~CWHArray<tagTableFrameInfo *,tagTableFrameInfo * const &>
  00133	c6 45 fc 00	 mov	 BYTE PTR __$EHRec$[ebp+12], 0
  00137	8b 4d ec	 mov	 ecx, DWORD PTR _this$[ebp]
  0013a	83 c1 54	 add	 ecx, 84			; 00000054H
  0013d	e8 00 00 00 00	 call	 ??1?$CWHArray@PAUIServerUserItem@@ABQAU1@@@UAE@XZ ; CWHArray<IServerUserItem *,IServerUserItem * const &>::~CWHArray<IServerUserItem *,IServerUserItem * const &>
  00142	c7 45 fc ff ff
	ff ff		 mov	 DWORD PTR __$EHRec$[ebp+12], -1
  00149	8b 4d ec	 mov	 ecx, DWORD PTR _this$[ebp]
  0014c	83 c1 38	 add	 ecx, 56			; 00000038H
  0014f	e8 00 00 00 00	 call	 ??1?$CMap@KKPAUIServerUserItem@@PAU1@@@UAE@XZ ; CMap<unsigned long,unsigned long,IServerUserItem *,IServerUserItem *>::~CMap<unsigned long,unsigned long,IServerUserItem *,IServerUserItem *>
  00154	8b 4d f4	 mov	 ecx, DWORD PTR __$EHRec$[ebp+4]
  00157	64 89 0d 00 00
	00 00		 mov	 DWORD PTR fs:0, ecx
  0015e	59		 pop	 ecx
  0015f	5f		 pop	 edi
  00160	5e		 pop	 esi
  00161	5b		 pop	 ebx
  00162	8b e5		 mov	 esp, ebp
  00164	5d		 pop	 ebp
  00165	c3		 ret	 0
_TEXT	ENDS
;	COMDAT text$x
text$x	SEGMENT
__unwindfunclet$??1CImmediateGroup@@UAE@XZ$2:
  00000	8b 4d ec	 mov	 ecx, DWORD PTR _this$[ebp]
  00003	83 c1 38	 add	 ecx, 56			; 00000038H
  00006	e9 00 00 00 00	 jmp	 ??1?$CMap@KKPAUIServerUserItem@@PAU1@@@UAE@XZ ; CMap<unsigned long,unsigned long,IServerUserItem *,IServerUserItem *>::~CMap<unsigned long,unsigned long,IServerUserItem *,IServerUserItem *>
__unwindfunclet$??1CImmediateGroup@@UAE@XZ$3:
  0000b	8b 4d ec	 mov	 ecx, DWORD PTR _this$[ebp]
  0000e	83 c1 54	 add	 ecx, 84			; 00000054H
  00011	e9 00 00 00 00	 jmp	 ??1?$CWHArray@PAUIServerUserItem@@ABQAU1@@@UAE@XZ ; CWHArray<IServerUserItem *,IServerUserItem * const &>::~CWHArray<IServerUserItem *,IServerUserItem * const &>
__unwindfunclet$??1CImmediateGroup@@UAE@XZ$4:
  00016	8b 4d ec	 mov	 ecx, DWORD PTR _this$[ebp]
  00019	83 c1 68	 add	 ecx, 104		; 00000068H
  0001c	e9 00 00 00 00	 jmp	 ??1?$CWHArray@PAUtagTableFrameInfo@@ABQAU1@@@UAE@XZ ; CWHArray<tagTableFrameInfo *,tagTableFrameInfo * const &>::~CWHArray<tagTableFrameInfo *,tagTableFrameInfo * const &>
__unwindfunclet$??1CImmediateGroup@@UAE@XZ$5:
  00021	8b 4d ec	 mov	 ecx, DWORD PTR _this$[ebp]
  00024	83 c1 7c	 add	 ecx, 124		; 0000007cH
  00027	e9 00 00 00 00	 jmp	 ??1?$CWHArray@PAUtagMatchTimer@@ABQAU1@@@UAE@XZ ; CWHArray<tagMatchTimer *,tagMatchTimer * const &>::~CWHArray<tagMatchTimer *,tagMatchTimer * const &>
__ehhandler$??1CImmediateGroup@@UAE@XZ:
  0002c	8b 54 24 08	 mov	 edx, DWORD PTR [esp+8]
  00030	8d 42 0c	 lea	 eax, DWORD PTR [edx+12]
  00033	8b 4a 9c	 mov	 ecx, DWORD PTR [edx-100]
  00036	33 c8		 xor	 ecx, eax
  00038	e8 00 00 00 00	 call	 @__security_check_cookie@4
  0003d	b8 00 00 00 00	 mov	 eax, OFFSET __ehfuncinfo$??1CImmediateGroup@@UAE@XZ
  00042	e9 00 00 00 00	 jmp	 ___CxxFrameHandler3
text$x	ENDS
??1CImmediateGroup@@UAE@XZ ENDP				; CImmediateGroup::~CImmediateGroup
; Function compile flags: /Odtp /ZI
; File g:\网狐\happygamewh\服务端\系统模块\服务器组件\比赛服务\immediategroup.cpp
;	COMDAT ??0CImmediateGroup@@QAE@_JPAUtagGameMatchOption@@PAUIImmediateGroupSink@@@Z
_TEXT	SEGMENT
_this$ = -16						; size = 4
__$EHRec$ = -12						; size = 12
_lMatchNo$ = 8						; size = 8
_pGameMatchOption$ = 16					; size = 4
_pIImmediateGroupSink$ = 20				; size = 4
??0CImmediateGroup@@QAE@_JPAUtagGameMatchOption@@PAUIImmediateGroupSink@@@Z PROC ; CImmediateGroup::CImmediateGroup, COMDAT
; _this$ = ecx

; 18   : {

  00000	55		 push	 ebp
  00001	8b ec		 mov	 ebp, esp
  00003	6a ff		 push	 -1
  00005	68 00 00 00 00	 push	 __ehhandler$??0CImmediateGroup@@QAE@_JPAUtagGameMatchOption@@PAUIImmediateGroupSink@@@Z
  0000a	64 a1 00 00 00
	00		 mov	 eax, DWORD PTR fs:0
  00010	50		 push	 eax
  00011	83 ec 44	 sub	 esp, 68			; 00000044H
  00014	53		 push	 ebx
  00015	56		 push	 esi
  00016	57		 push	 edi
  00017	a1 00 00 00 00	 mov	 eax, DWORD PTR ___security_cookie
  0001c	33 c5		 xor	 eax, ebp
  0001e	50		 push	 eax
  0001f	8d 45 f4	 lea	 eax, DWORD PTR __$EHRec$[ebp]
  00022	64 a3 00 00 00
	00		 mov	 DWORD PTR fs:0, eax
  00028	89 4d f0	 mov	 DWORD PTR _this$[ebp], ecx
  0002b	8b 4d f0	 mov	 ecx, DWORD PTR _this$[ebp]
  0002e	e8 00 00 00 00	 call	 ??0IMatchEventSink@@QAE@XZ
  00033	8b 45 f0	 mov	 eax, DWORD PTR _this$[ebp]
  00036	c7 00 00 00 00
	00		 mov	 DWORD PTR [eax], OFFSET ??_7CImmediateGroup@@6B@
  0003c	6a 0a		 push	 10			; 0000000aH
  0003e	8b 4d f0	 mov	 ecx, DWORD PTR _this$[ebp]
  00041	83 c1 38	 add	 ecx, 56			; 00000038H
  00044	e8 00 00 00 00	 call	 ??0?$CMap@KKPAUIServerUserItem@@PAU1@@@QAE@H@Z ; CMap<unsigned long,unsigned long,IServerUserItem *,IServerUserItem *>::CMap<unsigned long,unsigned long,IServerUserItem *,IServerUserItem *>
  00049	c7 45 fc 00 00
	00 00		 mov	 DWORD PTR __$EHRec$[ebp+8], 0
  00050	8b 4d f0	 mov	 ecx, DWORD PTR _this$[ebp]
  00053	83 c1 54	 add	 ecx, 84			; 00000054H
  00056	e8 00 00 00 00	 call	 ??0?$CWHArray@PAUIServerUserItem@@ABQAU1@@@QAE@XZ ; CWHArray<IServerUserItem *,IServerUserItem * const &>::CWHArray<IServerUserItem *,IServerUserItem * const &>
  0005b	c6 45 fc 01	 mov	 BYTE PTR __$EHRec$[ebp+8], 1
  0005f	8b 4d f0	 mov	 ecx, DWORD PTR _this$[ebp]
  00062	83 c1 68	 add	 ecx, 104		; 00000068H
  00065	e8 00 00 00 00	 call	 ??0?$CWHArray@PAUtagTableFrameInfo@@ABQAU1@@@QAE@XZ ; CWHArray<tagTableFrameInfo *,tagTableFrameInfo * const &>::CWHArray<tagTableFrameInfo *,tagTableFrameInfo * const &>
  0006a	c6 45 fc 02	 mov	 BYTE PTR __$EHRec$[ebp+8], 2
  0006e	8b 4d f0	 mov	 ecx, DWORD PTR _this$[ebp]
  00071	83 c1 7c	 add	 ecx, 124		; 0000007cH
  00074	e8 00 00 00 00	 call	 ??0?$CWHArray@PAUtagMatchTimer@@ABQAU1@@@QAE@XZ ; CWHArray<tagMatchTimer *,tagMatchTimer * const &>::CWHArray<tagMatchTimer *,tagMatchTimer * const &>
  00079	c6 45 fc 03	 mov	 BYTE PTR __$EHRec$[ebp+8], 3

; 19   : 	//指针变量
; 20   : 	m_pMatchOption=pGameMatchOption;

  0007d	8b 45 f0	 mov	 eax, DWORD PTR _this$[ebp]
  00080	8b 4d 10	 mov	 ecx, DWORD PTR _pGameMatchOption$[ebp]
  00083	89 48 30	 mov	 DWORD PTR [eax+48], ecx

; 21   : 	m_pMatchSink=pIImmediateGroupSink;

  00086	8b 45 f0	 mov	 eax, DWORD PTR _this$[ebp]
  00089	8b 4d 14	 mov	 ecx, DWORD PTR _pIImmediateGroupSink$[ebp]
  0008c	89 48 2c	 mov	 DWORD PTR [eax+44], ecx

; 22   : 	m_pImmediateMatch=(tagImmediateMatch *)pGameMatchOption->cbMatchRule;

  0008f	8b 45 10	 mov	 eax, DWORD PTR _pGameMatchOption$[ebp]
  00092	83 c0 7e	 add	 eax, 126		; 0000007eH
  00095	8b 4d f0	 mov	 ecx, DWORD PTR _this$[ebp]
  00098	89 41 34	 mov	 DWORD PTR [ecx+52], eax

; 23   : 
; 24   : 	//状态变量
; 25   : 	m_lMatchNo=lMatchNo;

  0009b	8b 45 f0	 mov	 eax, DWORD PTR _this$[ebp]
  0009e	8b 4d 08	 mov	 ecx, DWORD PTR _lMatchNo$[ebp]
  000a1	89 48 10	 mov	 DWORD PTR [eax+16], ecx
  000a4	8b 55 0c	 mov	 edx, DWORD PTR _lMatchNo$[ebp+4]
  000a7	89 50 14	 mov	 DWORD PTR [eax+20], edx

; 26   : 	m_cbMatchStatus=MatchStatus_Signup;

  000aa	8b 45 f0	 mov	 eax, DWORD PTR _this$[ebp]
  000ad	c6 40 18 01	 mov	 BYTE PTR [eax+24], 1

; 27   : 	m_lCurBase=m_pImmediateMatch->lInitalBase;

  000b1	8b 45 f0	 mov	 eax, DWORD PTR _this$[ebp]
  000b4	8b 48 34	 mov	 ecx, DWORD PTR [eax+52]
  000b7	8b 55 f0	 mov	 edx, DWORD PTR _this$[ebp]
  000ba	8b 41 06	 mov	 eax, DWORD PTR [ecx+6]
  000bd	89 42 08	 mov	 DWORD PTR [edx+8], eax
  000c0	8b 49 0a	 mov	 ecx, DWORD PTR [ecx+10]
  000c3	89 4a 0c	 mov	 DWORD PTR [edx+12], ecx

; 28   : 
; 29   : 	//设置变量
; 30   : 	ZeroMemory(&m_MatchStartTime,sizeof(m_MatchStartTime));

  000c6	6a 10		 push	 16			; 00000010H
  000c8	6a 00		 push	 0
  000ca	8b 45 f0	 mov	 eax, DWORD PTR _this$[ebp]
  000cd	83 c0 1c	 add	 eax, 28			; 0000001cH
  000d0	50		 push	 eax
  000d1	e8 00 00 00 00	 call	 _memset
  000d6	83 c4 0c	 add	 esp, 12			; 0000000cH

; 31   : 
; 32   : 	//移除元素
; 33   : 	m_OnMatchUserMap.RemoveAll();

  000d9	8b 4d f0	 mov	 ecx, DWORD PTR _this$[ebp]
  000dc	83 c1 38	 add	 ecx, 56			; 00000038H
  000df	e8 00 00 00 00	 call	 ?RemoveAll@?$CMap@KKPAUIServerUserItem@@PAU1@@@QAEXXZ ; CMap<unsigned long,unsigned long,IServerUserItem *,IServerUserItem *>::RemoveAll

; 34   : 	m_FreeUserArray.RemoveAll();

  000e4	8b 4d f0	 mov	 ecx, DWORD PTR _this$[ebp]
  000e7	83 c1 54	 add	 ecx, 84			; 00000054H
  000ea	e8 00 00 00 00	 call	 ?RemoveAll@?$CWHArray@PAUIServerUserItem@@ABQAU1@@@QAEXXZ ; CWHArray<IServerUserItem *,IServerUserItem * const &>::RemoveAll

; 35   : 	m_MatchTableArray.RemoveAll();

  000ef	8b 4d f0	 mov	 ecx, DWORD PTR _this$[ebp]
  000f2	83 c1 68	 add	 ecx, 104		; 00000068H
  000f5	e8 00 00 00 00	 call	 ?RemoveAll@?$CWHArray@PAUtagTableFrameInfo@@ABQAU1@@@QAEXXZ ; CWHArray<tagTableFrameInfo *,tagTableFrameInfo * const &>::RemoveAll

; 36   :     
; 37   : 	//设置变量
; 38   : 	m_LoopTimer=0;

  000fa	8b 45 f0	 mov	 eax, DWORD PTR _this$[ebp]
  000fd	c6 40 19 00	 mov	 BYTE PTR [eax+25], 0

; 39   : 	m_wAndroidUserCount=0;	

  00101	33 c0		 xor	 eax, eax
  00103	8b 4d f0	 mov	 ecx, DWORD PTR _this$[ebp]
  00106	66 89 41 1a	 mov	 WORD PTR [ecx+26], ax

; 40   : }

  0010a	c7 45 fc ff ff
	ff ff		 mov	 DWORD PTR __$EHRec$[ebp+8], -1
  00111	8b 45 f0	 mov	 eax, DWORD PTR _this$[ebp]
  00114	8b 4d f4	 mov	 ecx, DWORD PTR __$EHRec$[ebp]
  00117	64 89 0d 00 00
	00 00		 mov	 DWORD PTR fs:0, ecx
  0011e	59		 pop	 ecx
  0011f	5f		 pop	 edi
  00120	5e		 pop	 esi
  00121	5b		 pop	 ebx
  00122	8b e5		 mov	 esp, ebp
  00124	5d		 pop	 ebp
  00125	c2 10 00	 ret	 16			; 00000010H
_TEXT	ENDS
;	COMDAT text$x
text$x	SEGMENT
__unwindfunclet$??0CImmediateGroup@@QAE@_JPAUtagGameMatchOption@@PAUIImmediateGroupSink@@@Z$0:
  00000	8b 4d f0	 mov	 ecx, DWORD PTR _this$[ebp]
  00003	83 c1 38	 add	 ecx, 56			; 00000038H
  00006	e9 00 00 00 00	 jmp	 ??1?$CMap@KKPAUIServerUserItem@@PAU1@@@UAE@XZ ; CMap<unsigned long,unsigned long,IServerUserItem *,IServerUserItem *>::~CMap<unsigned long,unsigned long,IServerUserItem *,IServerUserItem *>
__unwindfunclet$??0CImmediateGroup@@QAE@_JPAUtagGameMatchOption@@PAUIImmediateGroupSink@@@Z$1:
  0000b	8b 4d f0	 mov	 ecx, DWORD PTR _this$[ebp]
  0000e	83 c1 54	 add	 ecx, 84			; 00000054H
  00011	e9 00 00 00 00	 jmp	 ??1?$CWHArray@PAUIServerUserItem@@ABQAU1@@@UAE@XZ ; CWHArray<IServerUserItem *,IServerUserItem * const &>::~CWHArray<IServerUserItem *,IServerUserItem * const &>
__unwindfunclet$??0CImmediateGroup@@QAE@_JPAUtagGameMatchOption@@PAUIImmediateGroupSink@@@Z$2:
  00016	8b 4d f0	 mov	 ecx, DWORD PTR _this$[ebp]
  00019	83 c1 68	 add	 ecx, 104		; 00000068H
  0001c	e9 00 00 00 00	 jmp	 ??1?$CWHArray@PAUtagTableFrameInfo@@ABQAU1@@@UAE@XZ ; CWHArray<tagTableFrameInfo *,tagTableFrameInfo * const &>::~CWHArray<tagTableFrameInfo *,tagTableFrameInfo * const &>
__unwindfunclet$??0CImmediateGroup@@QAE@_JPAUtagGameMatchOption@@PAUIImmediateGroupSink@@@Z$3:
  00021	8b 4d f0	 mov	 ecx, DWORD PTR _this$[ebp]
  00024	83 c1 7c	 add	 ecx, 124		; 0000007cH
  00027	e9 00 00 00 00	 jmp	 ??1?$CWHArray@PAUtagMatchTimer@@ABQAU1@@@UAE@XZ ; CWHArray<tagMatchTimer *,tagMatchTimer * const &>::~CWHArray<tagMatchTimer *,tagMatchTimer * const &>
__ehhandler$??0CImmediateGroup@@QAE@_JPAUtagGameMatchOption@@PAUIImmediateGroupSink@@@Z:
  0002c	8b 54 24 08	 mov	 edx, DWORD PTR [esp+8]
  00030	8d 42 0c	 lea	 eax, DWORD PTR [edx+12]
  00033	8b 4a ac	 mov	 ecx, DWORD PTR [edx-84]
  00036	33 c8		 xor	 ecx, eax
  00038	e8 00 00 00 00	 call	 @__security_check_cookie@4
  0003d	b8 00 00 00 00	 mov	 eax, OFFSET __ehfuncinfo$??0CImmediateGroup@@QAE@_JPAUtagGameMatchOption@@PAUIImmediateGroupSink@@@Z
  00042	e9 00 00 00 00	 jmp	 ___CxxFrameHandler3
text$x	ENDS
??0CImmediateGroup@@QAE@_JPAUtagGameMatchOption@@PAUIImmediateGroupSink@@@Z ENDP ; CImmediateGroup::CImmediateGroup
; Function compile flags: /Odtp /ZI
;	COMDAT ??_G?$CWHArray@PAUtagMatchTimer@@ABQAU1@@@UAEPAXI@Z
_TEXT	SEGMENT
_this$ = -4						; size = 4
___flags$ = 8						; size = 4
??_G?$CWHArray@PAUtagMatchTimer@@ABQAU1@@@UAEPAXI@Z PROC ; CWHArray<tagMatchTimer *,tagMatchTimer * const &>::`scalar deleting destructor', COMDAT
; _this$ = ecx
  00000	55		 push	 ebp
  00001	8b ec		 mov	 ebp, esp
  00003	83 ec 44	 sub	 esp, 68			; 00000044H
  00006	53		 push	 ebx
  00007	56		 push	 esi
  00008	57		 push	 edi
  00009	89 4d fc	 mov	 DWORD PTR _this$[ebp], ecx
  0000c	8b 4d fc	 mov	 ecx, DWORD PTR _this$[ebp]
  0000f	e8 00 00 00 00	 call	 ??1?$CWHArray@PAUtagMatchTimer@@ABQAU1@@@UAE@XZ ; CWHArray<tagMatchTimer *,tagMatchTimer * const &>::~CWHArray<tagMatchTimer *,tagMatchTimer * const &>
  00014	8b 45 08	 mov	 eax, DWORD PTR ___flags$[ebp]
  00017	83 e0 01	 and	 eax, 1
  0001a	74 0e		 je	 SHORT $LN2@scalar
  0001c	6a 14		 push	 20			; 00000014H
  0001e	8b 45 fc	 mov	 eax, DWORD PTR _this$[ebp]
  00021	50		 push	 eax
  00022	e8 00 00 00 00	 call	 ??3@YAXPAXI@Z		; operator delete
  00027	83 c4 08	 add	 esp, 8
$LN2@scalar:
  0002a	8b 45 fc	 mov	 eax, DWORD PTR _this$[ebp]
  0002d	5f		 pop	 edi
  0002e	5e		 pop	 esi
  0002f	5b		 pop	 ebx
  00030	8b e5		 mov	 esp, ebp
  00032	5d		 pop	 ebp
  00033	c2 04 00	 ret	 4
??_G?$CWHArray@PAUtagMatchTimer@@ABQAU1@@@UAEPAXI@Z ENDP ; CWHArray<tagMatchTimer *,tagMatchTimer * const &>::`scalar deleting destructor'
_TEXT	ENDS
; Function compile flags: /Odtp /ZI
; File g:\网狐\happygamewh\服务端\系统模块\全局定义\array.h
;	COMDAT ?AllocMemory@?$CWHArray@PAUtagMatchTimer@@ABQAU1@@@QAEXH@Z
_TEXT	SEGMENT
tv78 = -92						; size = 4
tv79 = -88						; size = 4
$T1 = -84						; size = 4
$T2 = -80						; size = 4
_pNewData$3 = -12					; size = 4
_nGrowCount$4 = -8					; size = 4
_this$ = -4						; size = 4
_nNewCount$ = 8						; size = 4
?AllocMemory@?$CWHArray@PAUtagMatchTimer@@ABQAU1@@@QAEXH@Z PROC ; CWHArray<tagMatchTimer *,tagMatchTimer * const &>::AllocMemory, COMDAT
; _this$ = ecx

; 413  : {

  00000	55		 push	 ebp
  00001	8b ec		 mov	 ebp, esp
  00003	83 ec 5c	 sub	 esp, 92			; 0000005cH
  00006	53		 push	 ebx
  00007	56		 push	 esi
  00008	57		 push	 edi
  00009	89 4d fc	 mov	 DWORD PTR _this$[ebp], ecx

; 414  : 	//效验参数
; 415  : 	ASSERT(nNewCount>=0);

  0000c	83 7d 08 00	 cmp	 DWORD PTR _nNewCount$[ebp], 0
  00010	7d 14		 jge	 SHORT $LN5@AllocMemor
  00012	68 9f 01 00 00	 push	 415			; 0000019fH
  00017	68 00 00 00 00	 push	 OFFSET ??_C@_0DF@LDFGAABH@g?3?2?M?x?$LK?$PM?2happygamewh?2?$LH?$PO?N?q?$LG?K?2?O?$LF?M?$LD@
  0001c	e8 00 00 00 00	 call	 ?AfxAssertFailedLine@@YGHPBDH@Z ; AfxAssertFailedLine
  00021	85 c0		 test	 eax, eax
  00023	74 01		 je	 SHORT $LN5@AllocMemor
  00025	cc		 int	 3
$LN5@AllocMemor:

; 416  : 
; 417  : 	if (nNewCount>m_nMaxCount)

  00026	8b 45 fc	 mov	 eax, DWORD PTR _this$[ebp]
  00029	8b 4d 08	 mov	 ecx, DWORD PTR _nNewCount$[ebp]
  0002c	3b 48 08	 cmp	 ecx, DWORD PTR [eax+8]
  0002f	0f 8e dd 00 00
	00		 jle	 $LN1@AllocMemor

; 418  : 	{
; 419  : 		//计算数目
; 420  : 		INT_PTR nGrowCount=m_nGrowCount;

  00035	8b 45 fc	 mov	 eax, DWORD PTR _this$[ebp]
  00038	8b 48 0c	 mov	 ecx, DWORD PTR [eax+12]
  0003b	89 4d f8	 mov	 DWORD PTR _nGrowCount$4[ebp], ecx

; 421  : 		if (nGrowCount==0)

  0003e	83 7d f8 00	 cmp	 DWORD PTR _nGrowCount$4[ebp], 0
  00042	75 45		 jne	 SHORT $LN3@AllocMemor

; 422  : 		{
; 423  : 			nGrowCount=m_nElementCount/8;

  00044	8b 45 fc	 mov	 eax, DWORD PTR _this$[ebp]
  00047	8b 40 10	 mov	 eax, DWORD PTR [eax+16]
  0004a	99		 cdq
  0004b	83 e2 07	 and	 edx, 7
  0004e	03 c2		 add	 eax, edx
  00050	c1 f8 03	 sar	 eax, 3
  00053	89 45 f8	 mov	 DWORD PTR _nGrowCount$4[ebp], eax

; 424  : 			nGrowCount=(nGrowCount<4)?4:((nGrowCount>1024)?1024:nGrowCount);

  00056	83 7d f8 04	 cmp	 DWORD PTR _nGrowCount$4[ebp], 4
  0005a	7d 09		 jge	 SHORT $LN8@AllocMemor
  0005c	c7 45 a8 04 00
	00 00		 mov	 DWORD PTR tv79[ebp], 4
  00063	eb 1e		 jmp	 SHORT $LN9@AllocMemor
$LN8@AllocMemor:
  00065	81 7d f8 00 04
	00 00		 cmp	 DWORD PTR _nGrowCount$4[ebp], 1024 ; 00000400H
  0006c	7e 09		 jle	 SHORT $LN6@AllocMemor
  0006e	c7 45 a4 00 04
	00 00		 mov	 DWORD PTR tv78[ebp], 1024 ; 00000400H
  00075	eb 06		 jmp	 SHORT $LN7@AllocMemor
$LN6@AllocMemor:
  00077	8b 45 f8	 mov	 eax, DWORD PTR _nGrowCount$4[ebp]
  0007a	89 45 a4	 mov	 DWORD PTR tv78[ebp], eax
$LN7@AllocMemor:
  0007d	8b 4d a4	 mov	 ecx, DWORD PTR tv78[ebp]
  00080	89 4d a8	 mov	 DWORD PTR tv79[ebp], ecx
$LN9@AllocMemor:
  00083	8b 55 a8	 mov	 edx, DWORD PTR tv79[ebp]
  00086	89 55 f8	 mov	 DWORD PTR _nGrowCount$4[ebp], edx
$LN3@AllocMemor:

; 425  : 		}
; 426  : 		nNewCount+=nGrowCount;

  00089	8b 45 08	 mov	 eax, DWORD PTR _nNewCount$[ebp]
  0008c	03 45 f8	 add	 eax, DWORD PTR _nGrowCount$4[ebp]
  0008f	89 45 08	 mov	 DWORD PTR _nNewCount$[ebp], eax

; 427  : 
; 428  : 		//申请内存
; 429  : 		TYPE * pNewData=(TYPE *) new BYTE[nNewCount*sizeof(TYPE)];

  00092	8b 45 08	 mov	 eax, DWORD PTR _nNewCount$[ebp]
  00095	c1 e0 02	 shl	 eax, 2
  00098	50		 push	 eax
  00099	e8 00 00 00 00	 call	 ??_U@YAPAXI@Z		; operator new[]
  0009e	83 c4 04	 add	 esp, 4
  000a1	89 45 b0	 mov	 DWORD PTR $T2[ebp], eax
  000a4	8b 4d b0	 mov	 ecx, DWORD PTR $T2[ebp]
  000a7	89 4d f4	 mov	 DWORD PTR _pNewData$3[ebp], ecx

; 430  : 		memcpy(pNewData,m_pData,m_nElementCount*sizeof(TYPE));

  000aa	8b 45 fc	 mov	 eax, DWORD PTR _this$[ebp]
  000ad	8b 48 10	 mov	 ecx, DWORD PTR [eax+16]
  000b0	c1 e1 02	 shl	 ecx, 2
  000b3	51		 push	 ecx
  000b4	8b 55 fc	 mov	 edx, DWORD PTR _this$[ebp]
  000b7	8b 42 04	 mov	 eax, DWORD PTR [edx+4]
  000ba	50		 push	 eax
  000bb	8b 4d f4	 mov	 ecx, DWORD PTR _pNewData$3[ebp]
  000be	51		 push	 ecx
  000bf	e8 00 00 00 00	 call	 _memcpy
  000c4	83 c4 0c	 add	 esp, 12			; 0000000cH

; 431  : 		memset(pNewData+m_nElementCount,0,(nNewCount-m_nElementCount)*sizeof(TYPE));

  000c7	8b 45 fc	 mov	 eax, DWORD PTR _this$[ebp]
  000ca	8b 4d 08	 mov	 ecx, DWORD PTR _nNewCount$[ebp]
  000cd	2b 48 10	 sub	 ecx, DWORD PTR [eax+16]
  000d0	c1 e1 02	 shl	 ecx, 2
  000d3	51		 push	 ecx
  000d4	6a 00		 push	 0
  000d6	8b 55 fc	 mov	 edx, DWORD PTR _this$[ebp]
  000d9	8b 42 10	 mov	 eax, DWORD PTR [edx+16]
  000dc	8b 4d f4	 mov	 ecx, DWORD PTR _pNewData$3[ebp]
  000df	8d 14 81	 lea	 edx, DWORD PTR [ecx+eax*4]
  000e2	52		 push	 edx
  000e3	e8 00 00 00 00	 call	 _memset
  000e8	83 c4 0c	 add	 esp, 12			; 0000000cH

; 432  : 		delete [] (BYTE *)m_pData;

  000eb	8b 45 fc	 mov	 eax, DWORD PTR _this$[ebp]
  000ee	8b 48 04	 mov	 ecx, DWORD PTR [eax+4]
  000f1	89 4d ac	 mov	 DWORD PTR $T1[ebp], ecx
  000f4	8b 55 ac	 mov	 edx, DWORD PTR $T1[ebp]
  000f7	52		 push	 edx
  000f8	e8 00 00 00 00	 call	 ??_V@YAXPAX@Z		; operator delete[]
  000fd	83 c4 04	 add	 esp, 4

; 433  : 
; 434  : 		//设置变量
; 435  : 		m_pData=pNewData;

  00100	8b 45 fc	 mov	 eax, DWORD PTR _this$[ebp]
  00103	8b 4d f4	 mov	 ecx, DWORD PTR _pNewData$3[ebp]
  00106	89 48 04	 mov	 DWORD PTR [eax+4], ecx

; 436  : 		m_nMaxCount=nNewCount;

  00109	8b 45 fc	 mov	 eax, DWORD PTR _this$[ebp]
  0010c	8b 4d 08	 mov	 ecx, DWORD PTR _nNewCount$[ebp]
  0010f	89 48 08	 mov	 DWORD PTR [eax+8], ecx
$LN1@AllocMemor:

; 437  : 	}
; 438  : 
; 439  : 	return;
; 440  : }

  00112	5f		 pop	 edi
  00113	5e		 pop	 esi
  00114	5b		 pop	 ebx
  00115	8b e5		 mov	 esp, ebp
  00117	5d		 pop	 ebp
  00118	c2 04 00	 ret	 4
?AllocMemory@?$CWHArray@PAUtagMatchTimer@@ABQAU1@@@QAEXH@Z ENDP ; CWHArray<tagMatchTimer *,tagMatchTimer * const &>::AllocMemory
_TEXT	ENDS
; Function compile flags: /Odtp /ZI
; File g:\网狐\happygamewh\服务端\系统模块\全局定义\array.h
;	COMDAT ??A?$CWHArray@PAUtagMatchTimer@@ABQAU1@@@QAEAAPAUtagMatchTimer@@H@Z
_TEXT	SEGMENT
_this$ = -4						; size = 4
_nIndex$ = 8						; size = 4
??A?$CWHArray@PAUtagMatchTimer@@ABQAU1@@@QAEAAPAUtagMatchTimer@@H@Z PROC ; CWHArray<tagMatchTimer *,tagMatchTimer * const &>::operator[], COMDAT
; _this$ = ecx

; 114  : { 

  00000	55		 push	 ebp
  00001	8b ec		 mov	 ebp, esp
  00003	83 ec 44	 sub	 esp, 68			; 00000044H
  00006	53		 push	 ebx
  00007	56		 push	 esi
  00008	57		 push	 edi
  00009	89 4d fc	 mov	 DWORD PTR _this$[ebp], ecx

; 115  : 	return ElementAt(nIndex);

  0000c	8b 45 08	 mov	 eax, DWORD PTR _nIndex$[ebp]
  0000f	50		 push	 eax
  00010	8b 4d fc	 mov	 ecx, DWORD PTR _this$[ebp]
  00013	e8 00 00 00 00	 call	 ?ElementAt@?$CWHArray@PAUtagMatchTimer@@ABQAU1@@@QAEAAPAUtagMatchTimer@@H@Z ; CWHArray<tagMatchTimer *,tagMatchTimer * const &>::ElementAt

; 116  : }

  00018	5f		 pop	 edi
  00019	5e		 pop	 esi
  0001a	5b		 pop	 ebx
  0001b	8b e5		 mov	 esp, ebp
  0001d	5d		 pop	 ebp
  0001e	c2 04 00	 ret	 4
??A?$CWHArray@PAUtagMatchTimer@@ABQAU1@@@QAEAAPAUtagMatchTimer@@H@Z ENDP ; CWHArray<tagMatchTimer *,tagMatchTimer * const &>::operator[]
_TEXT	ENDS
; Function compile flags: /Odtp /ZI
; File g:\网狐\happygamewh\服务端\系统模块\全局定义\array.h
;	COMDAT ?RemoveAt@?$CWHArray@PAUtagMatchTimer@@ABQAU1@@@QAEXHH@Z
_TEXT	SEGMENT
_i$1 = -12						; size = 4
_nMoveCount$ = -8					; size = 4
_this$ = -4						; size = 4
_nIndex$ = 8						; size = 4
_nCount$ = 12						; size = 4
?RemoveAt@?$CWHArray@PAUtagMatchTimer@@ABQAU1@@@QAEXHH@Z PROC ; CWHArray<tagMatchTimer *,tagMatchTimer * const &>::RemoveAt, COMDAT
; _this$ = ecx

; 360  : {

  00000	55		 push	 ebp
  00001	8b ec		 mov	 ebp, esp
  00003	83 ec 4c	 sub	 esp, 76			; 0000004cH
  00006	53		 push	 ebx
  00007	56		 push	 esi
  00008	57		 push	 edi
  00009	89 4d fc	 mov	 DWORD PTR _this$[ebp], ecx

; 361  : 	//效验参数
; 362  : 	ASSERT(nIndex>=0);

  0000c	83 7d 08 00	 cmp	 DWORD PTR _nIndex$[ebp], 0
  00010	7d 14		 jge	 SHORT $LN9@RemoveAt
  00012	68 6a 01 00 00	 push	 362			; 0000016aH
  00017	68 00 00 00 00	 push	 OFFSET ??_C@_0DF@LDFGAABH@g?3?2?M?x?$LK?$PM?2happygamewh?2?$LH?$PO?N?q?$LG?K?2?O?$LF?M?$LD@
  0001c	e8 00 00 00 00	 call	 ?AfxAssertFailedLine@@YGHPBDH@Z ; AfxAssertFailedLine
  00021	85 c0		 test	 eax, eax
  00023	74 01		 je	 SHORT $LN9@RemoveAt
  00025	cc		 int	 3
$LN9@RemoveAt:

; 363  : 	ASSERT(nCount>=0);

  00026	83 7d 0c 00	 cmp	 DWORD PTR _nCount$[ebp], 0
  0002a	7d 14		 jge	 SHORT $LN10@RemoveAt
  0002c	68 6b 01 00 00	 push	 363			; 0000016bH
  00031	68 00 00 00 00	 push	 OFFSET ??_C@_0DF@LDFGAABH@g?3?2?M?x?$LK?$PM?2happygamewh?2?$LH?$PO?N?q?$LG?K?2?O?$LF?M?$LD@
  00036	e8 00 00 00 00	 call	 ?AfxAssertFailedLine@@YGHPBDH@Z ; AfxAssertFailedLine
  0003b	85 c0		 test	 eax, eax
  0003d	74 01		 je	 SHORT $LN10@RemoveAt
  0003f	cc		 int	 3
$LN10@RemoveAt:

; 364  : 	ASSERT(nIndex+nCount<=m_nElementCount);

  00040	8b 45 08	 mov	 eax, DWORD PTR _nIndex$[ebp]
  00043	03 45 0c	 add	 eax, DWORD PTR _nCount$[ebp]
  00046	8b 4d fc	 mov	 ecx, DWORD PTR _this$[ebp]
  00049	3b 41 10	 cmp	 eax, DWORD PTR [ecx+16]
  0004c	7e 14		 jle	 SHORT $LN11@RemoveAt
  0004e	68 6c 01 00 00	 push	 364			; 0000016cH
  00053	68 00 00 00 00	 push	 OFFSET ??_C@_0DF@LDFGAABH@g?3?2?M?x?$LK?$PM?2happygamewh?2?$LH?$PO?N?q?$LG?K?2?O?$LF?M?$LD@
  00058	e8 00 00 00 00	 call	 ?AfxAssertFailedLine@@YGHPBDH@Z ; AfxAssertFailedLine
  0005d	85 c0		 test	 eax, eax
  0005f	74 01		 je	 SHORT $LN11@RemoveAt
  00061	cc		 int	 3
$LN11@RemoveAt:

; 365  : 	if ((nIndex<0)||(nCount<0)||((nIndex+nCount>m_nElementCount))) AfxThrowInvalidArgException();

  00062	83 7d 08 00	 cmp	 DWORD PTR _nIndex$[ebp], 0
  00066	7c 14		 jl	 SHORT $LN6@RemoveAt
  00068	83 7d 0c 00	 cmp	 DWORD PTR _nCount$[ebp], 0
  0006c	7c 0e		 jl	 SHORT $LN6@RemoveAt
  0006e	8b 45 08	 mov	 eax, DWORD PTR _nIndex$[ebp]
  00071	03 45 0c	 add	 eax, DWORD PTR _nCount$[ebp]
  00074	8b 4d fc	 mov	 ecx, DWORD PTR _this$[ebp]
  00077	3b 41 10	 cmp	 eax, DWORD PTR [ecx+16]
  0007a	7e 05		 jle	 SHORT $LN5@RemoveAt
$LN6@RemoveAt:
  0007c	e8 00 00 00 00	 call	 ?AfxThrowInvalidArgException@@YGXXZ ; AfxThrowInvalidArgException
$LN5@RemoveAt:

; 366  : 
; 367  : 	//删除数据
; 368  : 	INT_PTR nMoveCount=m_nElementCount-(nIndex+nCount);

  00081	8b 45 08	 mov	 eax, DWORD PTR _nIndex$[ebp]
  00084	03 45 0c	 add	 eax, DWORD PTR _nCount$[ebp]
  00087	8b 4d fc	 mov	 ecx, DWORD PTR _this$[ebp]
  0008a	8b 51 10	 mov	 edx, DWORD PTR [ecx+16]
  0008d	2b d0		 sub	 edx, eax
  0008f	89 55 f8	 mov	 DWORD PTR _nMoveCount$[ebp], edx

; 369  : 	for (INT_PTR i=0;i<nCount;i++) (m_pData+nIndex+i)->~TYPE();

  00092	c7 45 f4 00 00
	00 00		 mov	 DWORD PTR _i$1[ebp], 0
  00099	eb 09		 jmp	 SHORT $LN4@RemoveAt
$LN2@RemoveAt:
  0009b	8b 45 f4	 mov	 eax, DWORD PTR _i$1[ebp]
  0009e	83 c0 01	 add	 eax, 1
  000a1	89 45 f4	 mov	 DWORD PTR _i$1[ebp], eax
$LN4@RemoveAt:
  000a4	8b 45 f4	 mov	 eax, DWORD PTR _i$1[ebp]
  000a7	3b 45 0c	 cmp	 eax, DWORD PTR _nCount$[ebp]
  000aa	7d 02		 jge	 SHORT $LN3@RemoveAt
  000ac	eb ed		 jmp	 SHORT $LN2@RemoveAt
$LN3@RemoveAt:

; 370  : 	if (nMoveCount>0) memmove(m_pData+nIndex,m_pData+nIndex+nCount,nMoveCount*sizeof(TYPE));

  000ae	83 7d f8 00	 cmp	 DWORD PTR _nMoveCount$[ebp], 0
  000b2	7e 2f		 jle	 SHORT $LN7@RemoveAt
  000b4	8b 45 f8	 mov	 eax, DWORD PTR _nMoveCount$[ebp]
  000b7	c1 e0 02	 shl	 eax, 2
  000ba	50		 push	 eax
  000bb	8b 4d fc	 mov	 ecx, DWORD PTR _this$[ebp]
  000be	8b 51 04	 mov	 edx, DWORD PTR [ecx+4]
  000c1	8b 45 08	 mov	 eax, DWORD PTR _nIndex$[ebp]
  000c4	8d 0c 82	 lea	 ecx, DWORD PTR [edx+eax*4]
  000c7	8b 55 0c	 mov	 edx, DWORD PTR _nCount$[ebp]
  000ca	8d 04 91	 lea	 eax, DWORD PTR [ecx+edx*4]
  000cd	50		 push	 eax
  000ce	8b 4d fc	 mov	 ecx, DWORD PTR _this$[ebp]
  000d1	8b 51 04	 mov	 edx, DWORD PTR [ecx+4]
  000d4	8b 45 08	 mov	 eax, DWORD PTR _nIndex$[ebp]
  000d7	8d 0c 82	 lea	 ecx, DWORD PTR [edx+eax*4]
  000da	51		 push	 ecx
  000db	e8 00 00 00 00	 call	 _memmove
  000e0	83 c4 0c	 add	 esp, 12			; 0000000cH
$LN7@RemoveAt:

; 371  : 	m_nElementCount-=nCount;

  000e3	8b 45 fc	 mov	 eax, DWORD PTR _this$[ebp]
  000e6	8b 48 10	 mov	 ecx, DWORD PTR [eax+16]
  000e9	2b 4d 0c	 sub	 ecx, DWORD PTR _nCount$[ebp]
  000ec	8b 55 fc	 mov	 edx, DWORD PTR _this$[ebp]
  000ef	89 4a 10	 mov	 DWORD PTR [edx+16], ecx
$LN8@RemoveAt:

; 372  : 
; 373  : 	return;
; 374  : }

  000f2	5f		 pop	 edi
  000f3	5e		 pop	 esi
  000f4	5b		 pop	 ebx
  000f5	8b e5		 mov	 esp, ebp
  000f7	5d		 pop	 ebp
  000f8	c2 08 00	 ret	 8
?RemoveAt@?$CWHArray@PAUtagMatchTimer@@ABQAU1@@@QAEXHH@Z ENDP ; CWHArray<tagMatchTimer *,tagMatchTimer * const &>::RemoveAt
_TEXT	ENDS
; Function compile flags: /Odtp /ZI
; File g:\网狐\happygamewh\服务端\系统模块\全局定义\array.h
;	COMDAT ?SetAtGrow@?$CWHArray@PAUtagMatchTimer@@ABQAU1@@@QAEXHABQAUtagMatchTimer@@@Z
_TEXT	SEGMENT
_this$ = -4						; size = 4
_nIndex$ = 8						; size = 4
_newElement$ = 12					; size = 4
?SetAtGrow@?$CWHArray@PAUtagMatchTimer@@ABQAU1@@@QAEXHABQAUtagMatchTimer@@@Z PROC ; CWHArray<tagMatchTimer *,tagMatchTimer * const &>::SetAtGrow, COMDAT
; _this$ = ecx

; 287  : {

  00000	55		 push	 ebp
  00001	8b ec		 mov	 ebp, esp
  00003	83 ec 44	 sub	 esp, 68			; 00000044H
  00006	53		 push	 ebx
  00007	56		 push	 esi
  00008	57		 push	 edi
  00009	89 4d fc	 mov	 DWORD PTR _this$[ebp], ecx

; 288  : 	//效验参数
; 289  : 	ASSERT(nIndex>=0);

  0000c	83 7d 08 00	 cmp	 DWORD PTR _nIndex$[ebp], 0
  00010	7d 14		 jge	 SHORT $LN5@SetAtGrow
  00012	68 21 01 00 00	 push	 289			; 00000121H
  00017	68 00 00 00 00	 push	 OFFSET ??_C@_0DF@LDFGAABH@g?3?2?M?x?$LK?$PM?2happygamewh?2?$LH?$PO?N?q?$LG?K?2?O?$LF?M?$LD@
  0001c	e8 00 00 00 00	 call	 ?AfxAssertFailedLine@@YGHPBDH@Z ; AfxAssertFailedLine
  00021	85 c0		 test	 eax, eax
  00023	74 01		 je	 SHORT $LN5@SetAtGrow
  00025	cc		 int	 3
$LN5@SetAtGrow:

; 290  : 	if (nIndex<0) AfxThrowInvalidArgException();

  00026	83 7d 08 00	 cmp	 DWORD PTR _nIndex$[ebp], 0
  0002a	7d 05		 jge	 SHORT $LN2@SetAtGrow
  0002c	e8 00 00 00 00	 call	 ?AfxThrowInvalidArgException@@YGXXZ ; AfxThrowInvalidArgException
$LN2@SetAtGrow:

; 291  : 
; 292  : 	//设置元素
; 293  : 	if (nIndex>=m_nElementCount) SetSize(m_nElementCount+1);

  00031	8b 45 fc	 mov	 eax, DWORD PTR _this$[ebp]
  00034	8b 4d 08	 mov	 ecx, DWORD PTR _nIndex$[ebp]
  00037	3b 48 10	 cmp	 ecx, DWORD PTR [eax+16]
  0003a	7c 12		 jl	 SHORT $LN3@SetAtGrow
  0003c	8b 45 fc	 mov	 eax, DWORD PTR _this$[ebp]
  0003f	8b 48 10	 mov	 ecx, DWORD PTR [eax+16]
  00042	83 c1 01	 add	 ecx, 1
  00045	51		 push	 ecx
  00046	8b 4d fc	 mov	 ecx, DWORD PTR _this$[ebp]
  00049	e8 00 00 00 00	 call	 ?SetSize@?$CWHArray@PAUtagMatchTimer@@ABQAU1@@@QAEXH@Z ; CWHArray<tagMatchTimer *,tagMatchTimer * const &>::SetSize
$LN3@SetAtGrow:

; 294  : 	m_pData[nIndex]=newElement;

  0004e	8b 45 fc	 mov	 eax, DWORD PTR _this$[ebp]
  00051	8b 48 04	 mov	 ecx, DWORD PTR [eax+4]
  00054	8b 55 08	 mov	 edx, DWORD PTR _nIndex$[ebp]
  00057	8b 45 0c	 mov	 eax, DWORD PTR _newElement$[ebp]
  0005a	8b 00		 mov	 eax, DWORD PTR [eax]
  0005c	89 04 91	 mov	 DWORD PTR [ecx+edx*4], eax
$LN4@SetAtGrow:

; 295  : 
; 296  : 	return;
; 297  : }

  0005f	5f		 pop	 edi
  00060	5e		 pop	 esi
  00061	5b		 pop	 ebx
  00062	8b e5		 mov	 esp, ebp
  00064	5d		 pop	 ebp
  00065	c2 08 00	 ret	 8
?SetAtGrow@?$CWHArray@PAUtagMatchTimer@@ABQAU1@@@QAEXHABQAUtagMatchTimer@@@Z ENDP ; CWHArray<tagMatchTimer *,tagMatchTimer * const &>::SetAtGrow
_TEXT	ENDS
; Function compile flags: /Odtp /ZI
; File g:\网狐\happygamewh\服务端\系统模块\全局定义\array.h
;	COMDAT ?SetSize@?$CWHArray@PAUtagMatchTimer@@ABQAU1@@@QAEXH@Z
_TEXT	SEGMENT
$T1 = -80						; size = 4
_i$2 = -12						; size = 4
_i$3 = -8						; size = 4
_this$ = -4						; size = 4
_nNewSize$ = 8						; size = 4
?SetSize@?$CWHArray@PAUtagMatchTimer@@ABQAU1@@@QAEXH@Z PROC ; CWHArray<tagMatchTimer *,tagMatchTimer * const &>::SetSize, COMDAT
; _this$ = ecx

; 252  : {

  00000	55		 push	 ebp
  00001	8b ec		 mov	 ebp, esp
  00003	83 ec 50	 sub	 esp, 80			; 00000050H
  00006	53		 push	 ebx
  00007	56		 push	 esi
  00008	57		 push	 edi
  00009	89 4d fc	 mov	 DWORD PTR _this$[ebp], ecx

; 253  : 	//效验参数
; 254  : 	ASSERT(nNewSize>=0);

  0000c	83 7d 08 00	 cmp	 DWORD PTR _nNewSize$[ebp], 0
  00010	7d 14		 jge	 SHORT $LN13@SetSize
  00012	68 fe 00 00 00	 push	 254			; 000000feH
  00017	68 00 00 00 00	 push	 OFFSET ??_C@_0DF@LDFGAABH@g?3?2?M?x?$LK?$PM?2happygamewh?2?$LH?$PO?N?q?$LG?K?2?O?$LF?M?$LD@
  0001c	e8 00 00 00 00	 call	 ?AfxAssertFailedLine@@YGHPBDH@Z ; AfxAssertFailedLine
  00021	85 c0		 test	 eax, eax
  00023	74 01		 je	 SHORT $LN13@SetSize
  00025	cc		 int	 3
$LN13@SetSize:

; 255  : 	if (nNewSize<0)	AfxThrowInvalidArgException();

  00026	83 7d 08 00	 cmp	 DWORD PTR _nNewSize$[ebp], 0
  0002a	7d 05		 jge	 SHORT $LN8@SetSize
  0002c	e8 00 00 00 00	 call	 ?AfxThrowInvalidArgException@@YGXXZ ; AfxThrowInvalidArgException
$LN8@SetSize:

; 256  : 	
; 257  : 	//设置大小
; 258  : 	AllocMemory(nNewSize);

  00031	8b 45 08	 mov	 eax, DWORD PTR _nNewSize$[ebp]
  00034	50		 push	 eax
  00035	8b 4d fc	 mov	 ecx, DWORD PTR _this$[ebp]
  00038	e8 00 00 00 00	 call	 ?AllocMemory@?$CWHArray@PAUtagMatchTimer@@ABQAU1@@@QAEXH@Z ; CWHArray<tagMatchTimer *,tagMatchTimer * const &>::AllocMemory

; 259  : 	if (nNewSize>m_nElementCount)

  0003d	8b 45 fc	 mov	 eax, DWORD PTR _this$[ebp]
  00040	8b 4d 08	 mov	 ecx, DWORD PTR _nNewSize$[ebp]
  00043	3b 48 10	 cmp	 ecx, DWORD PTR [eax+16]
  00046	7e 3a		 jle	 SHORT $LN9@SetSize

; 260  : 	{
; 261  : 		for (INT_PTR i=m_nElementCount;i<nNewSize;i++) new ((VOID *)(m_pData+i)) TYPE;

  00048	8b 45 fc	 mov	 eax, DWORD PTR _this$[ebp]
  0004b	8b 48 10	 mov	 ecx, DWORD PTR [eax+16]
  0004e	89 4d f8	 mov	 DWORD PTR _i$3[ebp], ecx
  00051	eb 09		 jmp	 SHORT $LN4@SetSize
$LN2@SetSize:
  00053	8b 45 f8	 mov	 eax, DWORD PTR _i$3[ebp]
  00056	83 c0 01	 add	 eax, 1
  00059	89 45 f8	 mov	 DWORD PTR _i$3[ebp], eax
$LN4@SetSize:
  0005c	8b 45 f8	 mov	 eax, DWORD PTR _i$3[ebp]
  0005f	3b 45 08	 cmp	 eax, DWORD PTR _nNewSize$[ebp]
  00062	7d 1c		 jge	 SHORT $LN3@SetSize
  00064	8b 45 fc	 mov	 eax, DWORD PTR _this$[ebp]
  00067	8b 48 04	 mov	 ecx, DWORD PTR [eax+4]
  0006a	8b 55 f8	 mov	 edx, DWORD PTR _i$3[ebp]
  0006d	8d 04 91	 lea	 eax, DWORD PTR [ecx+edx*4]
  00070	50		 push	 eax
  00071	6a 04		 push	 4
  00073	e8 00 00 00 00	 call	 ??2@YAPAXIPAX@Z		; operator new
  00078	83 c4 08	 add	 esp, 8
  0007b	89 45 b0	 mov	 DWORD PTR $T1[ebp], eax
  0007e	eb d3		 jmp	 SHORT $LN2@SetSize
$LN3@SetSize:

; 262  : 	}
; 263  : 	else if (nNewSize<m_nElementCount)

  00080	eb 4d		 jmp	 SHORT $LN10@SetSize
$LN9@SetSize:
  00082	8b 45 fc	 mov	 eax, DWORD PTR _this$[ebp]
  00085	8b 4d 08	 mov	 ecx, DWORD PTR _nNewSize$[ebp]
  00088	3b 48 10	 cmp	 ecx, DWORD PTR [eax+16]
  0008b	7d 42		 jge	 SHORT $LN10@SetSize

; 264  : 	{
; 265  : 		for (INT_PTR i=nNewSize;i<m_nElementCount;i++) (m_pData+i)->~TYPE();

  0008d	8b 45 08	 mov	 eax, DWORD PTR _nNewSize$[ebp]
  00090	89 45 f4	 mov	 DWORD PTR _i$2[ebp], eax
  00093	eb 09		 jmp	 SHORT $LN7@SetSize
$LN5@SetSize:
  00095	8b 45 f4	 mov	 eax, DWORD PTR _i$2[ebp]
  00098	83 c0 01	 add	 eax, 1
  0009b	89 45 f4	 mov	 DWORD PTR _i$2[ebp], eax
$LN7@SetSize:
  0009e	8b 45 fc	 mov	 eax, DWORD PTR _this$[ebp]
  000a1	8b 4d f4	 mov	 ecx, DWORD PTR _i$2[ebp]
  000a4	3b 48 10	 cmp	 ecx, DWORD PTR [eax+16]
  000a7	7d 02		 jge	 SHORT $LN6@SetSize
  000a9	eb ea		 jmp	 SHORT $LN5@SetSize
$LN6@SetSize:

; 266  : 		memset(m_pData+nNewSize,0,(m_nElementCount-nNewSize)*sizeof(TYPE));

  000ab	8b 45 fc	 mov	 eax, DWORD PTR _this$[ebp]
  000ae	8b 48 10	 mov	 ecx, DWORD PTR [eax+16]
  000b1	2b 4d 08	 sub	 ecx, DWORD PTR _nNewSize$[ebp]
  000b4	c1 e1 02	 shl	 ecx, 2
  000b7	51		 push	 ecx
  000b8	6a 00		 push	 0
  000ba	8b 55 fc	 mov	 edx, DWORD PTR _this$[ebp]
  000bd	8b 42 04	 mov	 eax, DWORD PTR [edx+4]
  000c0	8b 4d 08	 mov	 ecx, DWORD PTR _nNewSize$[ebp]
  000c3	8d 14 88	 lea	 edx, DWORD PTR [eax+ecx*4]
  000c6	52		 push	 edx
  000c7	e8 00 00 00 00	 call	 _memset
  000cc	83 c4 0c	 add	 esp, 12			; 0000000cH
$LN10@SetSize:

; 267  : 	}
; 268  : 	m_nElementCount=nNewSize;

  000cf	8b 45 fc	 mov	 eax, DWORD PTR _this$[ebp]
  000d2	8b 4d 08	 mov	 ecx, DWORD PTR _nNewSize$[ebp]
  000d5	89 48 10	 mov	 DWORD PTR [eax+16], ecx
$LN12@SetSize:

; 269  : 
; 270  : 	return;
; 271  : }

  000d8	5f		 pop	 edi
  000d9	5e		 pop	 esi
  000da	5b		 pop	 ebx
  000db	8b e5		 mov	 esp, ebp
  000dd	5d		 pop	 ebp
  000de	c2 04 00	 ret	 4
?SetSize@?$CWHArray@PAUtagMatchTimer@@ABQAU1@@@QAEXH@Z ENDP ; CWHArray<tagMatchTimer *,tagMatchTimer * const &>::SetSize
_TEXT	ENDS
; Function compile flags: /Odtp /ZI
; File g:\网狐\happygamewh\服务端\系统模块\全局定义\array.h
;	COMDAT ?ElementAt@?$CWHArray@PAUtagMatchTimer@@ABQAU1@@@QAEAAPAUtagMatchTimer@@H@Z
_TEXT	SEGMENT
_this$ = -4						; size = 4
_nIndex$ = 8						; size = 4
?ElementAt@?$CWHArray@PAUtagMatchTimer@@ABQAU1@@@QAEAAPAUtagMatchTimer@@H@Z PROC ; CWHArray<tagMatchTimer *,tagMatchTimer * const &>::ElementAt, COMDAT
; _this$ = ecx

; 232  : {

  00000	55		 push	 ebp
  00001	8b ec		 mov	 ebp, esp
  00003	83 ec 44	 sub	 esp, 68			; 00000044H
  00006	53		 push	 ebx
  00007	56		 push	 esi
  00008	57		 push	 edi
  00009	89 4d fc	 mov	 DWORD PTR _this$[ebp], ecx

; 233  : 	ASSERT((nIndex>=0)&&(nIndex<m_nElementCount));

  0000c	83 7d 08 00	 cmp	 DWORD PTR _nIndex$[ebp], 0
  00010	7c 0b		 jl	 SHORT $LN4@ElementAt
  00012	8b 45 fc	 mov	 eax, DWORD PTR _this$[ebp]
  00015	8b 4d 08	 mov	 ecx, DWORD PTR _nIndex$[ebp]
  00018	3b 48 10	 cmp	 ecx, DWORD PTR [eax+16]
  0001b	7c 14		 jl	 SHORT $LN5@ElementAt
$LN4@ElementAt:
  0001d	68 e9 00 00 00	 push	 233			; 000000e9H
  00022	68 00 00 00 00	 push	 OFFSET ??_C@_0DF@LDFGAABH@g?3?2?M?x?$LK?$PM?2happygamewh?2?$LH?$PO?N?q?$LG?K?2?O?$LF?M?$LD@
  00027	e8 00 00 00 00	 call	 ?AfxAssertFailedLine@@YGHPBDH@Z ; AfxAssertFailedLine
  0002c	85 c0		 test	 eax, eax
  0002e	74 01		 je	 SHORT $LN5@ElementAt
  00030	cc		 int	 3
$LN5@ElementAt:

; 234  : 	if ((nIndex<0)&&(nIndex>=m_nElementCount)) AfxThrowInvalidArgException();

  00031	83 7d 08 00	 cmp	 DWORD PTR _nIndex$[ebp], 0
  00035	7d 10		 jge	 SHORT $LN2@ElementAt
  00037	8b 45 fc	 mov	 eax, DWORD PTR _this$[ebp]
  0003a	8b 4d 08	 mov	 ecx, DWORD PTR _nIndex$[ebp]
  0003d	3b 48 10	 cmp	 ecx, DWORD PTR [eax+16]
  00040	7c 05		 jl	 SHORT $LN2@ElementAt
  00042	e8 00 00 00 00	 call	 ?AfxThrowInvalidArgException@@YGXXZ ; AfxThrowInvalidArgException
$LN2@ElementAt:

; 235  : 	
; 236  : 	return m_pData[nIndex];

  00047	8b 45 fc	 mov	 eax, DWORD PTR _this$[ebp]
  0004a	8b 48 04	 mov	 ecx, DWORD PTR [eax+4]
  0004d	8b 55 08	 mov	 edx, DWORD PTR _nIndex$[ebp]
  00050	8d 04 91	 lea	 eax, DWORD PTR [ecx+edx*4]
$LN3@ElementAt:

; 237  : }

  00053	5f		 pop	 edi
  00054	5e		 pop	 esi
  00055	5b		 pop	 ebx
  00056	8b e5		 mov	 esp, ebp
  00058	5d		 pop	 ebp
  00059	c2 04 00	 ret	 4
?ElementAt@?$CWHArray@PAUtagMatchTimer@@ABQAU1@@@QAEAAPAUtagMatchTimer@@H@Z ENDP ; CWHArray<tagMatchTimer *,tagMatchTimer * const &>::ElementAt
_TEXT	ENDS
; Function compile flags: /Odtp /ZI
; File g:\网狐\happygamewh\服务端\系统模块\全局定义\array.h
;	COMDAT ?Add@?$CWHArray@PAUtagMatchTimer@@ABQAU1@@@QAEHABQAUtagMatchTimer@@@Z
_TEXT	SEGMENT
_nIndex$ = -8						; size = 4
_this$ = -4						; size = 4
_newElement$ = 8					; size = 4
?Add@?$CWHArray@PAUtagMatchTimer@@ABQAU1@@@QAEHABQAUtagMatchTimer@@@Z PROC ; CWHArray<tagMatchTimer *,tagMatchTimer * const &>::Add, COMDAT
; _this$ = ecx

; 105  : {

  00000	55		 push	 ebp
  00001	8b ec		 mov	 ebp, esp
  00003	83 ec 48	 sub	 esp, 72			; 00000048H
  00006	53		 push	 ebx
  00007	56		 push	 esi
  00008	57		 push	 edi
  00009	89 4d fc	 mov	 DWORD PTR _this$[ebp], ecx

; 106  : 	INT_PTR nIndex=m_nElementCount;

  0000c	8b 45 fc	 mov	 eax, DWORD PTR _this$[ebp]
  0000f	8b 48 10	 mov	 ecx, DWORD PTR [eax+16]
  00012	89 4d f8	 mov	 DWORD PTR _nIndex$[ebp], ecx

; 107  : 	SetAtGrow(nIndex,newElement);

  00015	8b 45 08	 mov	 eax, DWORD PTR _newElement$[ebp]
  00018	50		 push	 eax
  00019	8b 4d f8	 mov	 ecx, DWORD PTR _nIndex$[ebp]
  0001c	51		 push	 ecx
  0001d	8b 4d fc	 mov	 ecx, DWORD PTR _this$[ebp]
  00020	e8 00 00 00 00	 call	 ?SetAtGrow@?$CWHArray@PAUtagMatchTimer@@ABQAU1@@@QAEXHABQAUtagMatchTimer@@@Z ; CWHArray<tagMatchTimer *,tagMatchTimer * const &>::SetAtGrow

; 108  : 	return nIndex;

  00025	8b 45 f8	 mov	 eax, DWORD PTR _nIndex$[ebp]

; 109  : }

  00028	5f		 pop	 edi
  00029	5e		 pop	 esi
  0002a	5b		 pop	 ebx
  0002b	8b e5		 mov	 esp, ebp
  0002d	5d		 pop	 ebp
  0002e	c2 04 00	 ret	 4
?Add@?$CWHArray@PAUtagMatchTimer@@ABQAU1@@@QAEHABQAUtagMatchTimer@@@Z ENDP ; CWHArray<tagMatchTimer *,tagMatchTimer * const &>::Add
_TEXT	ENDS
; Function compile flags: /Odtp /ZI
; File g:\网狐\happygamewh\服务端\系统模块\全局定义\array.h
;	COMDAT ?GetCount@?$CWHArray@PAUtagMatchTimer@@ABQAU1@@@QBEHXZ
_TEXT	SEGMENT
_this$ = -4						; size = 4
?GetCount@?$CWHArray@PAUtagMatchTimer@@ABQAU1@@@QBEHXZ PROC ; CWHArray<tagMatchTimer *,tagMatchTimer * const &>::GetCount, COMDAT
; _this$ = ecx

; 98   : {

  00000	55		 push	 ebp
  00001	8b ec		 mov	 ebp, esp
  00003	83 ec 44	 sub	 esp, 68			; 00000044H
  00006	53		 push	 ebx
  00007	56		 push	 esi
  00008	57		 push	 edi
  00009	89 4d fc	 mov	 DWORD PTR _this$[ebp], ecx

; 99   : 	return m_nElementCount;

  0000c	8b 45 fc	 mov	 eax, DWORD PTR _this$[ebp]
  0000f	8b 40 10	 mov	 eax, DWORD PTR [eax+16]

; 100  : }

  00012	5f		 pop	 edi
  00013	5e		 pop	 esi
  00014	5b		 pop	 ebx
  00015	8b e5		 mov	 esp, ebp
  00017	5d		 pop	 ebp
  00018	c3		 ret	 0
?GetCount@?$CWHArray@PAUtagMatchTimer@@ABQAU1@@@QBEHXZ ENDP ; CWHArray<tagMatchTimer *,tagMatchTimer * const &>::GetCount
_TEXT	ENDS
; Function compile flags: /Odtp /ZI
; File g:\网狐\happygamewh\服务端\系统模块\全局定义\array.h
;	COMDAT ??1?$CWHArray@PAUtagMatchTimer@@ABQAU1@@@UAE@XZ
_TEXT	SEGMENT
$T1 = -76						; size = 4
_i$2 = -8						; size = 4
_this$ = -4						; size = 4
??1?$CWHArray@PAUtagMatchTimer@@ABQAU1@@@UAE@XZ PROC	; CWHArray<tagMatchTimer *,tagMatchTimer * const &>::~CWHArray<tagMatchTimer *,tagMatchTimer * const &>, COMDAT
; _this$ = ecx

; 143  : {

  00000	55		 push	 ebp
  00001	8b ec		 mov	 ebp, esp
  00003	83 ec 4c	 sub	 esp, 76			; 0000004cH
  00006	53		 push	 ebx
  00007	56		 push	 esi
  00008	57		 push	 edi
  00009	89 4d fc	 mov	 DWORD PTR _this$[ebp], ecx
  0000c	8b 45 fc	 mov	 eax, DWORD PTR _this$[ebp]
  0000f	c7 00 00 00 00
	00		 mov	 DWORD PTR [eax], OFFSET ??_7?$CWHArray@PAUtagMatchTimer@@ABQAU1@@@6B@

; 144  : 	if (m_pData!=NULL)

  00015	8b 45 fc	 mov	 eax, DWORD PTR _this$[ebp]
  00018	83 78 04 00	 cmp	 DWORD PTR [eax+4], 0
  0001c	74 3e		 je	 SHORT $LN6@CWHArray

; 145  : 	{
; 146  : 		for (INT_PTR i=0;i<m_nElementCount;i++)	(m_pData+i)->~TYPE();

  0001e	c7 45 f8 00 00
	00 00		 mov	 DWORD PTR _i$2[ebp], 0
  00025	eb 09		 jmp	 SHORT $LN4@CWHArray
$LN2@CWHArray:
  00027	8b 45 f8	 mov	 eax, DWORD PTR _i$2[ebp]
  0002a	83 c0 01	 add	 eax, 1
  0002d	89 45 f8	 mov	 DWORD PTR _i$2[ebp], eax
$LN4@CWHArray:
  00030	8b 45 fc	 mov	 eax, DWORD PTR _this$[ebp]
  00033	8b 4d f8	 mov	 ecx, DWORD PTR _i$2[ebp]
  00036	3b 48 10	 cmp	 ecx, DWORD PTR [eax+16]
  00039	7d 02		 jge	 SHORT $LN3@CWHArray
  0003b	eb ea		 jmp	 SHORT $LN2@CWHArray
$LN3@CWHArray:

; 147  : 		delete [] (BYTE *)m_pData;

  0003d	8b 45 fc	 mov	 eax, DWORD PTR _this$[ebp]
  00040	8b 48 04	 mov	 ecx, DWORD PTR [eax+4]
  00043	89 4d b4	 mov	 DWORD PTR $T1[ebp], ecx
  00046	8b 55 b4	 mov	 edx, DWORD PTR $T1[ebp]
  00049	52		 push	 edx
  0004a	e8 00 00 00 00	 call	 ??_V@YAXPAX@Z		; operator delete[]
  0004f	83 c4 04	 add	 esp, 4

; 148  : 		m_pData=NULL;

  00052	8b 45 fc	 mov	 eax, DWORD PTR _this$[ebp]
  00055	c7 40 04 00 00
	00 00		 mov	 DWORD PTR [eax+4], 0
$LN6@CWHArray:

; 149  : 	}
; 150  : 
; 151  : 	return;
; 152  : }

  0005c	5f		 pop	 edi
  0005d	5e		 pop	 esi
  0005e	5b		 pop	 ebx
  0005f	8b e5		 mov	 esp, ebp
  00061	5d		 pop	 ebp
  00062	c3		 ret	 0
??1?$CWHArray@PAUtagMatchTimer@@ABQAU1@@@UAE@XZ ENDP	; CWHArray<tagMatchTimer *,tagMatchTimer * const &>::~CWHArray<tagMatchTimer *,tagMatchTimer * const &>
_TEXT	ENDS
; Function compile flags: /Odtp /ZI
; File g:\网狐\happygamewh\服务端\系统模块\全局定义\array.h
;	COMDAT ??0?$CWHArray@PAUtagMatchTimer@@ABQAU1@@@QAE@XZ
_TEXT	SEGMENT
_this$ = -4						; size = 4
??0?$CWHArray@PAUtagMatchTimer@@ABQAU1@@@QAE@XZ PROC	; CWHArray<tagMatchTimer *,tagMatchTimer * const &>::CWHArray<tagMatchTimer *,tagMatchTimer * const &>, COMDAT
; _this$ = ecx

; 131  : {

  00000	55		 push	 ebp
  00001	8b ec		 mov	 ebp, esp
  00003	83 ec 44	 sub	 esp, 68			; 00000044H
  00006	53		 push	 ebx
  00007	56		 push	 esi
  00008	57		 push	 edi
  00009	89 4d fc	 mov	 DWORD PTR _this$[ebp], ecx
  0000c	8b 45 fc	 mov	 eax, DWORD PTR _this$[ebp]
  0000f	c7 00 00 00 00
	00		 mov	 DWORD PTR [eax], OFFSET ??_7?$CWHArray@PAUtagMatchTimer@@ABQAU1@@@6B@

; 132  : 	m_pData=NULL;

  00015	8b 45 fc	 mov	 eax, DWORD PTR _this$[ebp]
  00018	c7 40 04 00 00
	00 00		 mov	 DWORD PTR [eax+4], 0

; 133  : 	m_nMaxCount=0;

  0001f	8b 45 fc	 mov	 eax, DWORD PTR _this$[ebp]
  00022	c7 40 08 00 00
	00 00		 mov	 DWORD PTR [eax+8], 0

; 134  : 	m_nGrowCount=0;

  00029	8b 45 fc	 mov	 eax, DWORD PTR _this$[ebp]
  0002c	c7 40 0c 00 00
	00 00		 mov	 DWORD PTR [eax+12], 0

; 135  : 	m_nElementCount=0;

  00033	8b 45 fc	 mov	 eax, DWORD PTR _this$[ebp]
  00036	c7 40 10 00 00
	00 00		 mov	 DWORD PTR [eax+16], 0

; 136  : 
; 137  : 	return;
; 138  : }

  0003d	8b 45 fc	 mov	 eax, DWORD PTR _this$[ebp]
  00040	5f		 pop	 edi
  00041	5e		 pop	 esi
  00042	5b		 pop	 ebx
  00043	8b e5		 mov	 esp, ebp
  00045	5d		 pop	 ebp
  00046	c3		 ret	 0
??0?$CWHArray@PAUtagMatchTimer@@ABQAU1@@@QAE@XZ ENDP	; CWHArray<tagMatchTimer *,tagMatchTimer * const &>::CWHArray<tagMatchTimer *,tagMatchTimer * const &>
_TEXT	ENDS
; Function compile flags: /Odtp /ZI
;	COMDAT ??_G?$CWHArray@PAUtagTableFrameInfo@@ABQAU1@@@UAEPAXI@Z
_TEXT	SEGMENT
_this$ = -4						; size = 4
___flags$ = 8						; size = 4
??_G?$CWHArray@PAUtagTableFrameInfo@@ABQAU1@@@UAEPAXI@Z PROC ; CWHArray<tagTableFrameInfo *,tagTableFrameInfo * const &>::`scalar deleting destructor', COMDAT
; _this$ = ecx
  00000	55		 push	 ebp
  00001	8b ec		 mov	 ebp, esp
  00003	83 ec 44	 sub	 esp, 68			; 00000044H
  00006	53		 push	 ebx
  00007	56		 push	 esi
  00008	57		 push	 edi
  00009	89 4d fc	 mov	 DWORD PTR _this$[ebp], ecx
  0000c	8b 4d fc	 mov	 ecx, DWORD PTR _this$[ebp]
  0000f	e8 00 00 00 00	 call	 ??1?$CWHArray@PAUtagTableFrameInfo@@ABQAU1@@@UAE@XZ ; CWHArray<tagTableFrameInfo *,tagTableFrameInfo * const &>::~CWHArray<tagTableFrameInfo *,tagTableFrameInfo * const &>
  00014	8b 45 08	 mov	 eax, DWORD PTR ___flags$[ebp]
  00017	83 e0 01	 and	 eax, 1
  0001a	74 0e		 je	 SHORT $LN2@scalar
  0001c	6a 14		 push	 20			; 00000014H
  0001e	8b 45 fc	 mov	 eax, DWORD PTR _this$[ebp]
  00021	50		 push	 eax
  00022	e8 00 00 00 00	 call	 ??3@YAXPAXI@Z		; operator delete
  00027	83 c4 08	 add	 esp, 8
$LN2@scalar:
  0002a	8b 45 fc	 mov	 eax, DWORD PTR _this$[ebp]
  0002d	5f		 pop	 edi
  0002e	5e		 pop	 esi
  0002f	5b		 pop	 ebx
  00030	8b e5		 mov	 esp, ebp
  00032	5d		 pop	 ebp
  00033	c2 04 00	 ret	 4
??_G?$CWHArray@PAUtagTableFrameInfo@@ABQAU1@@@UAEPAXI@Z ENDP ; CWHArray<tagTableFrameInfo *,tagTableFrameInfo * const &>::`scalar deleting destructor'
_TEXT	ENDS
; Function compile flags: /Odtp /ZI
; File g:\网狐\happygamewh\服务端\系统模块\全局定义\array.h
;	COMDAT ?AllocMemory@?$CWHArray@PAUtagTableFrameInfo@@ABQAU1@@@QAEXH@Z
_TEXT	SEGMENT
tv78 = -92						; size = 4
tv79 = -88						; size = 4
$T1 = -84						; size = 4
$T2 = -80						; size = 4
_pNewData$3 = -12					; size = 4
_nGrowCount$4 = -8					; size = 4
_this$ = -4						; size = 4
_nNewCount$ = 8						; size = 4
?AllocMemory@?$CWHArray@PAUtagTableFrameInfo@@ABQAU1@@@QAEXH@Z PROC ; CWHArray<tagTableFrameInfo *,tagTableFrameInfo * const &>::AllocMemory, COMDAT
; _this$ = ecx

; 413  : {

  00000	55		 push	 ebp
  00001	8b ec		 mov	 ebp, esp
  00003	83 ec 5c	 sub	 esp, 92			; 0000005cH
  00006	53		 push	 ebx
  00007	56		 push	 esi
  00008	57		 push	 edi
  00009	89 4d fc	 mov	 DWORD PTR _this$[ebp], ecx

; 414  : 	//效验参数
; 415  : 	ASSERT(nNewCount>=0);

  0000c	83 7d 08 00	 cmp	 DWORD PTR _nNewCount$[ebp], 0
  00010	7d 14		 jge	 SHORT $LN5@AllocMemor
  00012	68 9f 01 00 00	 push	 415			; 0000019fH
  00017	68 00 00 00 00	 push	 OFFSET ??_C@_0DF@LDFGAABH@g?3?2?M?x?$LK?$PM?2happygamewh?2?$LH?$PO?N?q?$LG?K?2?O?$LF?M?$LD@
  0001c	e8 00 00 00 00	 call	 ?AfxAssertFailedLine@@YGHPBDH@Z ; AfxAssertFailedLine
  00021	85 c0		 test	 eax, eax
  00023	74 01		 je	 SHORT $LN5@AllocMemor
  00025	cc		 int	 3
$LN5@AllocMemor:

; 416  : 
; 417  : 	if (nNewCount>m_nMaxCount)

  00026	8b 45 fc	 mov	 eax, DWORD PTR _this$[ebp]
  00029	8b 4d 08	 mov	 ecx, DWORD PTR _nNewCount$[ebp]
  0002c	3b 48 08	 cmp	 ecx, DWORD PTR [eax+8]
  0002f	0f 8e dd 00 00
	00		 jle	 $LN1@AllocMemor

; 418  : 	{
; 419  : 		//计算数目
; 420  : 		INT_PTR nGrowCount=m_nGrowCount;

  00035	8b 45 fc	 mov	 eax, DWORD PTR _this$[ebp]
  00038	8b 48 0c	 mov	 ecx, DWORD PTR [eax+12]
  0003b	89 4d f8	 mov	 DWORD PTR _nGrowCount$4[ebp], ecx

; 421  : 		if (nGrowCount==0)

  0003e	83 7d f8 00	 cmp	 DWORD PTR _nGrowCount$4[ebp], 0
  00042	75 45		 jne	 SHORT $LN3@AllocMemor

; 422  : 		{
; 423  : 			nGrowCount=m_nElementCount/8;

  00044	8b 45 fc	 mov	 eax, DWORD PTR _this$[ebp]
  00047	8b 40 10	 mov	 eax, DWORD PTR [eax+16]
  0004a	99		 cdq
  0004b	83 e2 07	 and	 edx, 7
  0004e	03 c2		 add	 eax, edx
  00050	c1 f8 03	 sar	 eax, 3
  00053	89 45 f8	 mov	 DWORD PTR _nGrowCount$4[ebp], eax

; 424  : 			nGrowCount=(nGrowCount<4)?4:((nGrowCount>1024)?1024:nGrowCount);

  00056	83 7d f8 04	 cmp	 DWORD PTR _nGrowCount$4[ebp], 4
  0005a	7d 09		 jge	 SHORT $LN8@AllocMemor
  0005c	c7 45 a8 04 00
	00 00		 mov	 DWORD PTR tv79[ebp], 4
  00063	eb 1e		 jmp	 SHORT $LN9@AllocMemor
$LN8@AllocMemor:
  00065	81 7d f8 00 04
	00 00		 cmp	 DWORD PTR _nGrowCount$4[ebp], 1024 ; 00000400H
  0006c	7e 09		 jle	 SHORT $LN6@AllocMemor
  0006e	c7 45 a4 00 04
	00 00		 mov	 DWORD PTR tv78[ebp], 1024 ; 00000400H
  00075	eb 06		 jmp	 SHORT $LN7@AllocMemor
$LN6@AllocMemor:
  00077	8b 45 f8	 mov	 eax, DWORD PTR _nGrowCount$4[ebp]
  0007a	89 45 a4	 mov	 DWORD PTR tv78[ebp], eax
$LN7@AllocMemor:
  0007d	8b 4d a4	 mov	 ecx, DWORD PTR tv78[ebp]
  00080	89 4d a8	 mov	 DWORD PTR tv79[ebp], ecx
$LN9@AllocMemor:
  00083	8b 55 a8	 mov	 edx, DWORD PTR tv79[ebp]
  00086	89 55 f8	 mov	 DWORD PTR _nGrowCount$4[ebp], edx
$LN3@AllocMemor:

; 425  : 		}
; 426  : 		nNewCount+=nGrowCount;

  00089	8b 45 08	 mov	 eax, DWORD PTR _nNewCount$[ebp]
  0008c	03 45 f8	 add	 eax, DWORD PTR _nGrowCount$4[ebp]
  0008f	89 45 08	 mov	 DWORD PTR _nNewCount$[ebp], eax

; 427  : 
; 428  : 		//申请内存
; 429  : 		TYPE * pNewData=(TYPE *) new BYTE[nNewCount*sizeof(TYPE)];

  00092	8b 45 08	 mov	 eax, DWORD PTR _nNewCount$[ebp]
  00095	c1 e0 02	 shl	 eax, 2
  00098	50		 push	 eax
  00099	e8 00 00 00 00	 call	 ??_U@YAPAXI@Z		; operator new[]
  0009e	83 c4 04	 add	 esp, 4
  000a1	89 45 b0	 mov	 DWORD PTR $T2[ebp], eax
  000a4	8b 4d b0	 mov	 ecx, DWORD PTR $T2[ebp]
  000a7	89 4d f4	 mov	 DWORD PTR _pNewData$3[ebp], ecx

; 430  : 		memcpy(pNewData,m_pData,m_nElementCount*sizeof(TYPE));

  000aa	8b 45 fc	 mov	 eax, DWORD PTR _this$[ebp]
  000ad	8b 48 10	 mov	 ecx, DWORD PTR [eax+16]
  000b0	c1 e1 02	 shl	 ecx, 2
  000b3	51		 push	 ecx
  000b4	8b 55 fc	 mov	 edx, DWORD PTR _this$[ebp]
  000b7	8b 42 04	 mov	 eax, DWORD PTR [edx+4]
  000ba	50		 push	 eax
  000bb	8b 4d f4	 mov	 ecx, DWORD PTR _pNewData$3[ebp]
  000be	51		 push	 ecx
  000bf	e8 00 00 00 00	 call	 _memcpy
  000c4	83 c4 0c	 add	 esp, 12			; 0000000cH

; 431  : 		memset(pNewData+m_nElementCount,0,(nNewCount-m_nElementCount)*sizeof(TYPE));

  000c7	8b 45 fc	 mov	 eax, DWORD PTR _this$[ebp]
  000ca	8b 4d 08	 mov	 ecx, DWORD PTR _nNewCount$[ebp]
  000cd	2b 48 10	 sub	 ecx, DWORD PTR [eax+16]
  000d0	c1 e1 02	 shl	 ecx, 2
  000d3	51		 push	 ecx
  000d4	6a 00		 push	 0
  000d6	8b 55 fc	 mov	 edx, DWORD PTR _this$[ebp]
  000d9	8b 42 10	 mov	 eax, DWORD PTR [edx+16]
  000dc	8b 4d f4	 mov	 ecx, DWORD PTR _pNewData$3[ebp]
  000df	8d 14 81	 lea	 edx, DWORD PTR [ecx+eax*4]
  000e2	52		 push	 edx
  000e3	e8 00 00 00 00	 call	 _memset
  000e8	83 c4 0c	 add	 esp, 12			; 0000000cH

; 432  : 		delete [] (BYTE *)m_pData;

  000eb	8b 45 fc	 mov	 eax, DWORD PTR _this$[ebp]
  000ee	8b 48 04	 mov	 ecx, DWORD PTR [eax+4]
  000f1	89 4d ac	 mov	 DWORD PTR $T1[ebp], ecx
  000f4	8b 55 ac	 mov	 edx, DWORD PTR $T1[ebp]
  000f7	52		 push	 edx
  000f8	e8 00 00 00 00	 call	 ??_V@YAXPAX@Z		; operator delete[]
  000fd	83 c4 04	 add	 esp, 4

; 433  : 
; 434  : 		//设置变量
; 435  : 		m_pData=pNewData;

  00100	8b 45 fc	 mov	 eax, DWORD PTR _this$[ebp]
  00103	8b 4d f4	 mov	 ecx, DWORD PTR _pNewData$3[ebp]
  00106	89 48 04	 mov	 DWORD PTR [eax+4], ecx

; 436  : 		m_nMaxCount=nNewCount;

  00109	8b 45 fc	 mov	 eax, DWORD PTR _this$[ebp]
  0010c	8b 4d 08	 mov	 ecx, DWORD PTR _nNewCount$[ebp]
  0010f	89 48 08	 mov	 DWORD PTR [eax+8], ecx
$LN1@AllocMemor:

; 437  : 	}
; 438  : 
; 439  : 	return;
; 440  : }

  00112	5f		 pop	 edi
  00113	5e		 pop	 esi
  00114	5b		 pop	 ebx
  00115	8b e5		 mov	 esp, ebp
  00117	5d		 pop	 ebp
  00118	c2 04 00	 ret	 4
?AllocMemory@?$CWHArray@PAUtagTableFrameInfo@@ABQAU1@@@QAEXH@Z ENDP ; CWHArray<tagTableFrameInfo *,tagTableFrameInfo * const &>::AllocMemory
_TEXT	ENDS
; Function compile flags: /Odtp /ZI
; File g:\网狐\happygamewh\服务端\系统模块\全局定义\array.h
;	COMDAT ??A?$CWHArray@PAUtagTableFrameInfo@@ABQAU1@@@QAEAAPAUtagTableFrameInfo@@H@Z
_TEXT	SEGMENT
_this$ = -4						; size = 4
_nIndex$ = 8						; size = 4
??A?$CWHArray@PAUtagTableFrameInfo@@ABQAU1@@@QAEAAPAUtagTableFrameInfo@@H@Z PROC ; CWHArray<tagTableFrameInfo *,tagTableFrameInfo * const &>::operator[], COMDAT
; _this$ = ecx

; 114  : { 

  00000	55		 push	 ebp
  00001	8b ec		 mov	 ebp, esp
  00003	83 ec 44	 sub	 esp, 68			; 00000044H
  00006	53		 push	 ebx
  00007	56		 push	 esi
  00008	57		 push	 edi
  00009	89 4d fc	 mov	 DWORD PTR _this$[ebp], ecx

; 115  : 	return ElementAt(nIndex);

  0000c	8b 45 08	 mov	 eax, DWORD PTR _nIndex$[ebp]
  0000f	50		 push	 eax
  00010	8b 4d fc	 mov	 ecx, DWORD PTR _this$[ebp]
  00013	e8 00 00 00 00	 call	 ?ElementAt@?$CWHArray@PAUtagTableFrameInfo@@ABQAU1@@@QAEAAPAUtagTableFrameInfo@@H@Z ; CWHArray<tagTableFrameInfo *,tagTableFrameInfo * const &>::ElementAt

; 116  : }

  00018	5f		 pop	 edi
  00019	5e		 pop	 esi
  0001a	5b		 pop	 ebx
  0001b	8b e5		 mov	 esp, ebp
  0001d	5d		 pop	 ebp
  0001e	c2 04 00	 ret	 4
??A?$CWHArray@PAUtagTableFrameInfo@@ABQAU1@@@QAEAAPAUtagTableFrameInfo@@H@Z ENDP ; CWHArray<tagTableFrameInfo *,tagTableFrameInfo * const &>::operator[]
_TEXT	ENDS
; Function compile flags: /Odtp /ZI
; File g:\网狐\happygamewh\服务端\系统模块\全局定义\array.h
;	COMDAT ?RemoveAll@?$CWHArray@PAUtagTableFrameInfo@@ABQAU1@@@QAEXXZ
_TEXT	SEGMENT
_i$1 = -8						; size = 4
_this$ = -4						; size = 4
?RemoveAll@?$CWHArray@PAUtagTableFrameInfo@@ABQAU1@@@QAEXXZ PROC ; CWHArray<tagTableFrameInfo *,tagTableFrameInfo * const &>::RemoveAll, COMDAT
; _this$ = ecx

; 379  : {

  00000	55		 push	 ebp
  00001	8b ec		 mov	 ebp, esp
  00003	83 ec 48	 sub	 esp, 72			; 00000048H
  00006	53		 push	 ebx
  00007	56		 push	 esi
  00008	57		 push	 edi
  00009	89 4d fc	 mov	 DWORD PTR _this$[ebp], ecx

; 380  : 	if (m_nElementCount>0)

  0000c	8b 45 fc	 mov	 eax, DWORD PTR _this$[ebp]
  0000f	83 78 10 00	 cmp	 DWORD PTR [eax+16], 0
  00013	7e 44		 jle	 SHORT $LN1@RemoveAll

; 381  : 	{
; 382  : 		for (INT_PTR i=0;i<m_nElementCount;i++) (m_pData+i)->~TYPE();

  00015	c7 45 f8 00 00
	00 00		 mov	 DWORD PTR _i$1[ebp], 0
  0001c	eb 09		 jmp	 SHORT $LN4@RemoveAll
$LN2@RemoveAll:
  0001e	8b 45 f8	 mov	 eax, DWORD PTR _i$1[ebp]
  00021	83 c0 01	 add	 eax, 1
  00024	89 45 f8	 mov	 DWORD PTR _i$1[ebp], eax
$LN4@RemoveAll:
  00027	8b 45 fc	 mov	 eax, DWORD PTR _this$[ebp]
  0002a	8b 4d f8	 mov	 ecx, DWORD PTR _i$1[ebp]
  0002d	3b 48 10	 cmp	 ecx, DWORD PTR [eax+16]
  00030	7d 02		 jge	 SHORT $LN3@RemoveAll
  00032	eb ea		 jmp	 SHORT $LN2@RemoveAll
$LN3@RemoveAll:

; 383  : 		memset(m_pData,0,m_nElementCount*sizeof(TYPE));

  00034	8b 45 fc	 mov	 eax, DWORD PTR _this$[ebp]
  00037	8b 48 10	 mov	 ecx, DWORD PTR [eax+16]
  0003a	c1 e1 02	 shl	 ecx, 2
  0003d	51		 push	 ecx
  0003e	6a 00		 push	 0
  00040	8b 55 fc	 mov	 edx, DWORD PTR _this$[ebp]
  00043	8b 42 04	 mov	 eax, DWORD PTR [edx+4]
  00046	50		 push	 eax
  00047	e8 00 00 00 00	 call	 _memset
  0004c	83 c4 0c	 add	 esp, 12			; 0000000cH

; 384  : 		m_nElementCount=0;

  0004f	8b 45 fc	 mov	 eax, DWORD PTR _this$[ebp]
  00052	c7 40 10 00 00
	00 00		 mov	 DWORD PTR [eax+16], 0
$LN1@RemoveAll:

; 385  : 	}
; 386  : 
; 387  : 	return;
; 388  : }

  00059	5f		 pop	 edi
  0005a	5e		 pop	 esi
  0005b	5b		 pop	 ebx
  0005c	8b e5		 mov	 esp, ebp
  0005e	5d		 pop	 ebp
  0005f	c3		 ret	 0
?RemoveAll@?$CWHArray@PAUtagTableFrameInfo@@ABQAU1@@@QAEXXZ ENDP ; CWHArray<tagTableFrameInfo *,tagTableFrameInfo * const &>::RemoveAll
_TEXT	ENDS
; Function compile flags: /Odtp /ZI
; File g:\网狐\happygamewh\服务端\系统模块\全局定义\array.h
;	COMDAT ?SetAtGrow@?$CWHArray@PAUtagTableFrameInfo@@ABQAU1@@@QAEXHABQAUtagTableFrameInfo@@@Z
_TEXT	SEGMENT
_this$ = -4						; size = 4
_nIndex$ = 8						; size = 4
_newElement$ = 12					; size = 4
?SetAtGrow@?$CWHArray@PAUtagTableFrameInfo@@ABQAU1@@@QAEXHABQAUtagTableFrameInfo@@@Z PROC ; CWHArray<tagTableFrameInfo *,tagTableFrameInfo * const &>::SetAtGrow, COMDAT
; _this$ = ecx

; 287  : {

  00000	55		 push	 ebp
  00001	8b ec		 mov	 ebp, esp
  00003	83 ec 44	 sub	 esp, 68			; 00000044H
  00006	53		 push	 ebx
  00007	56		 push	 esi
  00008	57		 push	 edi
  00009	89 4d fc	 mov	 DWORD PTR _this$[ebp], ecx

; 288  : 	//效验参数
; 289  : 	ASSERT(nIndex>=0);

  0000c	83 7d 08 00	 cmp	 DWORD PTR _nIndex$[ebp], 0
  00010	7d 14		 jge	 SHORT $LN5@SetAtGrow
  00012	68 21 01 00 00	 push	 289			; 00000121H
  00017	68 00 00 00 00	 push	 OFFSET ??_C@_0DF@LDFGAABH@g?3?2?M?x?$LK?$PM?2happygamewh?2?$LH?$PO?N?q?$LG?K?2?O?$LF?M?$LD@
  0001c	e8 00 00 00 00	 call	 ?AfxAssertFailedLine@@YGHPBDH@Z ; AfxAssertFailedLine
  00021	85 c0		 test	 eax, eax
  00023	74 01		 je	 SHORT $LN5@SetAtGrow
  00025	cc		 int	 3
$LN5@SetAtGrow:

; 290  : 	if (nIndex<0) AfxThrowInvalidArgException();

  00026	83 7d 08 00	 cmp	 DWORD PTR _nIndex$[ebp], 0
  0002a	7d 05		 jge	 SHORT $LN2@SetAtGrow
  0002c	e8 00 00 00 00	 call	 ?AfxThrowInvalidArgException@@YGXXZ ; AfxThrowInvalidArgException
$LN2@SetAtGrow:

; 291  : 
; 292  : 	//设置元素
; 293  : 	if (nIndex>=m_nElementCount) SetSize(m_nElementCount+1);

  00031	8b 45 fc	 mov	 eax, DWORD PTR _this$[ebp]
  00034	8b 4d 08	 mov	 ecx, DWORD PTR _nIndex$[ebp]
  00037	3b 48 10	 cmp	 ecx, DWORD PTR [eax+16]
  0003a	7c 12		 jl	 SHORT $LN3@SetAtGrow
  0003c	8b 45 fc	 mov	 eax, DWORD PTR _this$[ebp]
  0003f	8b 48 10	 mov	 ecx, DWORD PTR [eax+16]
  00042	83 c1 01	 add	 ecx, 1
  00045	51		 push	 ecx
  00046	8b 4d fc	 mov	 ecx, DWORD PTR _this$[ebp]
  00049	e8 00 00 00 00	 call	 ?SetSize@?$CWHArray@PAUtagTableFrameInfo@@ABQAU1@@@QAEXH@Z ; CWHArray<tagTableFrameInfo *,tagTableFrameInfo * const &>::SetSize
$LN3@SetAtGrow:

; 294  : 	m_pData[nIndex]=newElement;

  0004e	8b 45 fc	 mov	 eax, DWORD PTR _this$[ebp]
  00051	8b 48 04	 mov	 ecx, DWORD PTR [eax+4]
  00054	8b 55 08	 mov	 edx, DWORD PTR _nIndex$[ebp]
  00057	8b 45 0c	 mov	 eax, DWORD PTR _newElement$[ebp]
  0005a	8b 00		 mov	 eax, DWORD PTR [eax]
  0005c	89 04 91	 mov	 DWORD PTR [ecx+edx*4], eax
$LN4@SetAtGrow:

; 295  : 
; 296  : 	return;
; 297  : }

  0005f	5f		 pop	 edi
  00060	5e		 pop	 esi
  00061	5b		 pop	 ebx
  00062	8b e5		 mov	 esp, ebp
  00064	5d		 pop	 ebp
  00065	c2 08 00	 ret	 8
?SetAtGrow@?$CWHArray@PAUtagTableFrameInfo@@ABQAU1@@@QAEXHABQAUtagTableFrameInfo@@@Z ENDP ; CWHArray<tagTableFrameInfo *,tagTableFrameInfo * const &>::SetAtGrow
_TEXT	ENDS
; Function compile flags: /Odtp /ZI
; File g:\网狐\happygamewh\服务端\系统模块\全局定义\array.h
;	COMDAT ?SetSize@?$CWHArray@PAUtagTableFrameInfo@@ABQAU1@@@QAEXH@Z
_TEXT	SEGMENT
$T1 = -80						; size = 4
_i$2 = -12						; size = 4
_i$3 = -8						; size = 4
_this$ = -4						; size = 4
_nNewSize$ = 8						; size = 4
?SetSize@?$CWHArray@PAUtagTableFrameInfo@@ABQAU1@@@QAEXH@Z PROC ; CWHArray<tagTableFrameInfo *,tagTableFrameInfo * const &>::SetSize, COMDAT
; _this$ = ecx

; 252  : {

  00000	55		 push	 ebp
  00001	8b ec		 mov	 ebp, esp
  00003	83 ec 50	 sub	 esp, 80			; 00000050H
  00006	53		 push	 ebx
  00007	56		 push	 esi
  00008	57		 push	 edi
  00009	89 4d fc	 mov	 DWORD PTR _this$[ebp], ecx

; 253  : 	//效验参数
; 254  : 	ASSERT(nNewSize>=0);

  0000c	83 7d 08 00	 cmp	 DWORD PTR _nNewSize$[ebp], 0
  00010	7d 14		 jge	 SHORT $LN13@SetSize
  00012	68 fe 00 00 00	 push	 254			; 000000feH
  00017	68 00 00 00 00	 push	 OFFSET ??_C@_0DF@LDFGAABH@g?3?2?M?x?$LK?$PM?2happygamewh?2?$LH?$PO?N?q?$LG?K?2?O?$LF?M?$LD@
  0001c	e8 00 00 00 00	 call	 ?AfxAssertFailedLine@@YGHPBDH@Z ; AfxAssertFailedLine
  00021	85 c0		 test	 eax, eax
  00023	74 01		 je	 SHORT $LN13@SetSize
  00025	cc		 int	 3
$LN13@SetSize:

; 255  : 	if (nNewSize<0)	AfxThrowInvalidArgException();

  00026	83 7d 08 00	 cmp	 DWORD PTR _nNewSize$[ebp], 0
  0002a	7d 05		 jge	 SHORT $LN8@SetSize
  0002c	e8 00 00 00 00	 call	 ?AfxThrowInvalidArgException@@YGXXZ ; AfxThrowInvalidArgException
$LN8@SetSize:

; 256  : 	
; 257  : 	//设置大小
; 258  : 	AllocMemory(nNewSize);

  00031	8b 45 08	 mov	 eax, DWORD PTR _nNewSize$[ebp]
  00034	50		 push	 eax
  00035	8b 4d fc	 mov	 ecx, DWORD PTR _this$[ebp]
  00038	e8 00 00 00 00	 call	 ?AllocMemory@?$CWHArray@PAUtagTableFrameInfo@@ABQAU1@@@QAEXH@Z ; CWHArray<tagTableFrameInfo *,tagTableFrameInfo * const &>::AllocMemory

; 259  : 	if (nNewSize>m_nElementCount)

  0003d	8b 45 fc	 mov	 eax, DWORD PTR _this$[ebp]
  00040	8b 4d 08	 mov	 ecx, DWORD PTR _nNewSize$[ebp]
  00043	3b 48 10	 cmp	 ecx, DWORD PTR [eax+16]
  00046	7e 3a		 jle	 SHORT $LN9@SetSize

; 260  : 	{
; 261  : 		for (INT_PTR i=m_nElementCount;i<nNewSize;i++) new ((VOID *)(m_pData+i)) TYPE;

  00048	8b 45 fc	 mov	 eax, DWORD PTR _this$[ebp]
  0004b	8b 48 10	 mov	 ecx, DWORD PTR [eax+16]
  0004e	89 4d f8	 mov	 DWORD PTR _i$3[ebp], ecx
  00051	eb 09		 jmp	 SHORT $LN4@SetSize
$LN2@SetSize:
  00053	8b 45 f8	 mov	 eax, DWORD PTR _i$3[ebp]
  00056	83 c0 01	 add	 eax, 1
  00059	89 45 f8	 mov	 DWORD PTR _i$3[ebp], eax
$LN4@SetSize:
  0005c	8b 45 f8	 mov	 eax, DWORD PTR _i$3[ebp]
  0005f	3b 45 08	 cmp	 eax, DWORD PTR _nNewSize$[ebp]
  00062	7d 1c		 jge	 SHORT $LN3@SetSize
  00064	8b 45 fc	 mov	 eax, DWORD PTR _this$[ebp]
  00067	8b 48 04	 mov	 ecx, DWORD PTR [eax+4]
  0006a	8b 55 f8	 mov	 edx, DWORD PTR _i$3[ebp]
  0006d	8d 04 91	 lea	 eax, DWORD PTR [ecx+edx*4]
  00070	50		 push	 eax
  00071	6a 04		 push	 4
  00073	e8 00 00 00 00	 call	 ??2@YAPAXIPAX@Z		; operator new
  00078	83 c4 08	 add	 esp, 8
  0007b	89 45 b0	 mov	 DWORD PTR $T1[ebp], eax
  0007e	eb d3		 jmp	 SHORT $LN2@SetSize
$LN3@SetSize:

; 262  : 	}
; 263  : 	else if (nNewSize<m_nElementCount)

  00080	eb 4d		 jmp	 SHORT $LN10@SetSize
$LN9@SetSize:
  00082	8b 45 fc	 mov	 eax, DWORD PTR _this$[ebp]
  00085	8b 4d 08	 mov	 ecx, DWORD PTR _nNewSize$[ebp]
  00088	3b 48 10	 cmp	 ecx, DWORD PTR [eax+16]
  0008b	7d 42		 jge	 SHORT $LN10@SetSize

; 264  : 	{
; 265  : 		for (INT_PTR i=nNewSize;i<m_nElementCount;i++) (m_pData+i)->~TYPE();

  0008d	8b 45 08	 mov	 eax, DWORD PTR _nNewSize$[ebp]
  00090	89 45 f4	 mov	 DWORD PTR _i$2[ebp], eax
  00093	eb 09		 jmp	 SHORT $LN7@SetSize
$LN5@SetSize:
  00095	8b 45 f4	 mov	 eax, DWORD PTR _i$2[ebp]
  00098	83 c0 01	 add	 eax, 1
  0009b	89 45 f4	 mov	 DWORD PTR _i$2[ebp], eax
$LN7@SetSize:
  0009e	8b 45 fc	 mov	 eax, DWORD PTR _this$[ebp]
  000a1	8b 4d f4	 mov	 ecx, DWORD PTR _i$2[ebp]
  000a4	3b 48 10	 cmp	 ecx, DWORD PTR [eax+16]
  000a7	7d 02		 jge	 SHORT $LN6@SetSize
  000a9	eb ea		 jmp	 SHORT $LN5@SetSize
$LN6@SetSize:

; 266  : 		memset(m_pData+nNewSize,0,(m_nElementCount-nNewSize)*sizeof(TYPE));

  000ab	8b 45 fc	 mov	 eax, DWORD PTR _this$[ebp]
  000ae	8b 48 10	 mov	 ecx, DWORD PTR [eax+16]
  000b1	2b 4d 08	 sub	 ecx, DWORD PTR _nNewSize$[ebp]
  000b4	c1 e1 02	 shl	 ecx, 2
  000b7	51		 push	 ecx
  000b8	6a 00		 push	 0
  000ba	8b 55 fc	 mov	 edx, DWORD PTR _this$[ebp]
  000bd	8b 42 04	 mov	 eax, DWORD PTR [edx+4]
  000c0	8b 4d 08	 mov	 ecx, DWORD PTR _nNewSize$[ebp]
  000c3	8d 14 88	 lea	 edx, DWORD PTR [eax+ecx*4]
  000c6	52		 push	 edx
  000c7	e8 00 00 00 00	 call	 _memset
  000cc	83 c4 0c	 add	 esp, 12			; 0000000cH
$LN10@SetSize:

; 267  : 	}
; 268  : 	m_nElementCount=nNewSize;

  000cf	8b 45 fc	 mov	 eax, DWORD PTR _this$[ebp]
  000d2	8b 4d 08	 mov	 ecx, DWORD PTR _nNewSize$[ebp]
  000d5	89 48 10	 mov	 DWORD PTR [eax+16], ecx
$LN12@SetSize:

; 269  : 
; 270  : 	return;
; 271  : }

  000d8	5f		 pop	 edi
  000d9	5e		 pop	 esi
  000da	5b		 pop	 ebx
  000db	8b e5		 mov	 esp, ebp
  000dd	5d		 pop	 ebp
  000de	c2 04 00	 ret	 4
?SetSize@?$CWHArray@PAUtagTableFrameInfo@@ABQAU1@@@QAEXH@Z ENDP ; CWHArray<tagTableFrameInfo *,tagTableFrameInfo * const &>::SetSize
_TEXT	ENDS
; Function compile flags: /Odtp /ZI
; File g:\网狐\happygamewh\服务端\系统模块\全局定义\array.h
;	COMDAT ?ElementAt@?$CWHArray@PAUtagTableFrameInfo@@ABQAU1@@@QAEAAPAUtagTableFrameInfo@@H@Z
_TEXT	SEGMENT
_this$ = -4						; size = 4
_nIndex$ = 8						; size = 4
?ElementAt@?$CWHArray@PAUtagTableFrameInfo@@ABQAU1@@@QAEAAPAUtagTableFrameInfo@@H@Z PROC ; CWHArray<tagTableFrameInfo *,tagTableFrameInfo * const &>::ElementAt, COMDAT
; _this$ = ecx

; 232  : {

  00000	55		 push	 ebp
  00001	8b ec		 mov	 ebp, esp
  00003	83 ec 44	 sub	 esp, 68			; 00000044H
  00006	53		 push	 ebx
  00007	56		 push	 esi
  00008	57		 push	 edi
  00009	89 4d fc	 mov	 DWORD PTR _this$[ebp], ecx

; 233  : 	ASSERT((nIndex>=0)&&(nIndex<m_nElementCount));

  0000c	83 7d 08 00	 cmp	 DWORD PTR _nIndex$[ebp], 0
  00010	7c 0b		 jl	 SHORT $LN4@ElementAt
  00012	8b 45 fc	 mov	 eax, DWORD PTR _this$[ebp]
  00015	8b 4d 08	 mov	 ecx, DWORD PTR _nIndex$[ebp]
  00018	3b 48 10	 cmp	 ecx, DWORD PTR [eax+16]
  0001b	7c 14		 jl	 SHORT $LN5@ElementAt
$LN4@ElementAt:
  0001d	68 e9 00 00 00	 push	 233			; 000000e9H
  00022	68 00 00 00 00	 push	 OFFSET ??_C@_0DF@LDFGAABH@g?3?2?M?x?$LK?$PM?2happygamewh?2?$LH?$PO?N?q?$LG?K?2?O?$LF?M?$LD@
  00027	e8 00 00 00 00	 call	 ?AfxAssertFailedLine@@YGHPBDH@Z ; AfxAssertFailedLine
  0002c	85 c0		 test	 eax, eax
  0002e	74 01		 je	 SHORT $LN5@ElementAt
  00030	cc		 int	 3
$LN5@ElementAt:

; 234  : 	if ((nIndex<0)&&(nIndex>=m_nElementCount)) AfxThrowInvalidArgException();

  00031	83 7d 08 00	 cmp	 DWORD PTR _nIndex$[ebp], 0
  00035	7d 10		 jge	 SHORT $LN2@ElementAt
  00037	8b 45 fc	 mov	 eax, DWORD PTR _this$[ebp]
  0003a	8b 4d 08	 mov	 ecx, DWORD PTR _nIndex$[ebp]
  0003d	3b 48 10	 cmp	 ecx, DWORD PTR [eax+16]
  00040	7c 05		 jl	 SHORT $LN2@ElementAt
  00042	e8 00 00 00 00	 call	 ?AfxThrowInvalidArgException@@YGXXZ ; AfxThrowInvalidArgException
$LN2@ElementAt:

; 235  : 	
; 236  : 	return m_pData[nIndex];

  00047	8b 45 fc	 mov	 eax, DWORD PTR _this$[ebp]
  0004a	8b 48 04	 mov	 ecx, DWORD PTR [eax+4]
  0004d	8b 55 08	 mov	 edx, DWORD PTR _nIndex$[ebp]
  00050	8d 04 91	 lea	 eax, DWORD PTR [ecx+edx*4]
$LN3@ElementAt:

; 237  : }

  00053	5f		 pop	 edi
  00054	5e		 pop	 esi
  00055	5b		 pop	 ebx
  00056	8b e5		 mov	 esp, ebp
  00058	5d		 pop	 ebp
  00059	c2 04 00	 ret	 4
?ElementAt@?$CWHArray@PAUtagTableFrameInfo@@ABQAU1@@@QAEAAPAUtagTableFrameInfo@@H@Z ENDP ; CWHArray<tagTableFrameInfo *,tagTableFrameInfo * const &>::ElementAt
_TEXT	ENDS
; Function compile flags: /Odtp /ZI
; File g:\网狐\happygamewh\服务端\系统模块\全局定义\array.h
;	COMDAT ?Add@?$CWHArray@PAUtagTableFrameInfo@@ABQAU1@@@QAEHABQAUtagTableFrameInfo@@@Z
_TEXT	SEGMENT
_nIndex$ = -8						; size = 4
_this$ = -4						; size = 4
_newElement$ = 8					; size = 4
?Add@?$CWHArray@PAUtagTableFrameInfo@@ABQAU1@@@QAEHABQAUtagTableFrameInfo@@@Z PROC ; CWHArray<tagTableFrameInfo *,tagTableFrameInfo * const &>::Add, COMDAT
; _this$ = ecx

; 105  : {

  00000	55		 push	 ebp
  00001	8b ec		 mov	 ebp, esp
  00003	83 ec 48	 sub	 esp, 72			; 00000048H
  00006	53		 push	 ebx
  00007	56		 push	 esi
  00008	57		 push	 edi
  00009	89 4d fc	 mov	 DWORD PTR _this$[ebp], ecx

; 106  : 	INT_PTR nIndex=m_nElementCount;

  0000c	8b 45 fc	 mov	 eax, DWORD PTR _this$[ebp]
  0000f	8b 48 10	 mov	 ecx, DWORD PTR [eax+16]
  00012	89 4d f8	 mov	 DWORD PTR _nIndex$[ebp], ecx

; 107  : 	SetAtGrow(nIndex,newElement);

  00015	8b 45 08	 mov	 eax, DWORD PTR _newElement$[ebp]
  00018	50		 push	 eax
  00019	8b 4d f8	 mov	 ecx, DWORD PTR _nIndex$[ebp]
  0001c	51		 push	 ecx
  0001d	8b 4d fc	 mov	 ecx, DWORD PTR _this$[ebp]
  00020	e8 00 00 00 00	 call	 ?SetAtGrow@?$CWHArray@PAUtagTableFrameInfo@@ABQAU1@@@QAEXHABQAUtagTableFrameInfo@@@Z ; CWHArray<tagTableFrameInfo *,tagTableFrameInfo * const &>::SetAtGrow

; 108  : 	return nIndex;

  00025	8b 45 f8	 mov	 eax, DWORD PTR _nIndex$[ebp]

; 109  : }

  00028	5f		 pop	 edi
  00029	5e		 pop	 esi
  0002a	5b		 pop	 ebx
  0002b	8b e5		 mov	 esp, ebp
  0002d	5d		 pop	 ebp
  0002e	c2 04 00	 ret	 4
?Add@?$CWHArray@PAUtagTableFrameInfo@@ABQAU1@@@QAEHABQAUtagTableFrameInfo@@@Z ENDP ; CWHArray<tagTableFrameInfo *,tagTableFrameInfo * const &>::Add
_TEXT	ENDS
; Function compile flags: /Odtp /ZI
; File g:\网狐\happygamewh\服务端\系统模块\全局定义\array.h
;	COMDAT ?GetCount@?$CWHArray@PAUtagTableFrameInfo@@ABQAU1@@@QBEHXZ
_TEXT	SEGMENT
_this$ = -4						; size = 4
?GetCount@?$CWHArray@PAUtagTableFrameInfo@@ABQAU1@@@QBEHXZ PROC ; CWHArray<tagTableFrameInfo *,tagTableFrameInfo * const &>::GetCount, COMDAT
; _this$ = ecx

; 98   : {

  00000	55		 push	 ebp
  00001	8b ec		 mov	 ebp, esp
  00003	83 ec 44	 sub	 esp, 68			; 00000044H
  00006	53		 push	 ebx
  00007	56		 push	 esi
  00008	57		 push	 edi
  00009	89 4d fc	 mov	 DWORD PTR _this$[ebp], ecx

; 99   : 	return m_nElementCount;

  0000c	8b 45 fc	 mov	 eax, DWORD PTR _this$[ebp]
  0000f	8b 40 10	 mov	 eax, DWORD PTR [eax+16]

; 100  : }

  00012	5f		 pop	 edi
  00013	5e		 pop	 esi
  00014	5b		 pop	 ebx
  00015	8b e5		 mov	 esp, ebp
  00017	5d		 pop	 ebp
  00018	c3		 ret	 0
?GetCount@?$CWHArray@PAUtagTableFrameInfo@@ABQAU1@@@QBEHXZ ENDP ; CWHArray<tagTableFrameInfo *,tagTableFrameInfo * const &>::GetCount
_TEXT	ENDS
; Function compile flags: /Odtp /ZI
; File g:\网狐\happygamewh\服务端\系统模块\全局定义\array.h
;	COMDAT ??1?$CWHArray@PAUtagTableFrameInfo@@ABQAU1@@@UAE@XZ
_TEXT	SEGMENT
$T1 = -76						; size = 4
_i$2 = -8						; size = 4
_this$ = -4						; size = 4
??1?$CWHArray@PAUtagTableFrameInfo@@ABQAU1@@@UAE@XZ PROC ; CWHArray<tagTableFrameInfo *,tagTableFrameInfo * const &>::~CWHArray<tagTableFrameInfo *,tagTableFrameInfo * const &>, COMDAT
; _this$ = ecx

; 143  : {

  00000	55		 push	 ebp
  00001	8b ec		 mov	 ebp, esp
  00003	83 ec 4c	 sub	 esp, 76			; 0000004cH
  00006	53		 push	 ebx
  00007	56		 push	 esi
  00008	57		 push	 edi
  00009	89 4d fc	 mov	 DWORD PTR _this$[ebp], ecx
  0000c	8b 45 fc	 mov	 eax, DWORD PTR _this$[ebp]
  0000f	c7 00 00 00 00
	00		 mov	 DWORD PTR [eax], OFFSET ??_7?$CWHArray@PAUtagTableFrameInfo@@ABQAU1@@@6B@

; 144  : 	if (m_pData!=NULL)

  00015	8b 45 fc	 mov	 eax, DWORD PTR _this$[ebp]
  00018	83 78 04 00	 cmp	 DWORD PTR [eax+4], 0
  0001c	74 3e		 je	 SHORT $LN6@CWHArray

; 145  : 	{
; 146  : 		for (INT_PTR i=0;i<m_nElementCount;i++)	(m_pData+i)->~TYPE();

  0001e	c7 45 f8 00 00
	00 00		 mov	 DWORD PTR _i$2[ebp], 0
  00025	eb 09		 jmp	 SHORT $LN4@CWHArray
$LN2@CWHArray:
  00027	8b 45 f8	 mov	 eax, DWORD PTR _i$2[ebp]
  0002a	83 c0 01	 add	 eax, 1
  0002d	89 45 f8	 mov	 DWORD PTR _i$2[ebp], eax
$LN4@CWHArray:
  00030	8b 45 fc	 mov	 eax, DWORD PTR _this$[ebp]
  00033	8b 4d f8	 mov	 ecx, DWORD PTR _i$2[ebp]
  00036	3b 48 10	 cmp	 ecx, DWORD PTR [eax+16]
  00039	7d 02		 jge	 SHORT $LN3@CWHArray
  0003b	eb ea		 jmp	 SHORT $LN2@CWHArray
$LN3@CWHArray:

; 147  : 		delete [] (BYTE *)m_pData;

  0003d	8b 45 fc	 mov	 eax, DWORD PTR _this$[ebp]
  00040	8b 48 04	 mov	 ecx, DWORD PTR [eax+4]
  00043	89 4d b4	 mov	 DWORD PTR $T1[ebp], ecx
  00046	8b 55 b4	 mov	 edx, DWORD PTR $T1[ebp]
  00049	52		 push	 edx
  0004a	e8 00 00 00 00	 call	 ??_V@YAXPAX@Z		; operator delete[]
  0004f	83 c4 04	 add	 esp, 4

; 148  : 		m_pData=NULL;

  00052	8b 45 fc	 mov	 eax, DWORD PTR _this$[ebp]
  00055	c7 40 04 00 00
	00 00		 mov	 DWORD PTR [eax+4], 0
$LN6@CWHArray:

; 149  : 	}
; 150  : 
; 151  : 	return;
; 152  : }

  0005c	5f		 pop	 edi
  0005d	5e		 pop	 esi
  0005e	5b		 pop	 ebx
  0005f	8b e5		 mov	 esp, ebp
  00061	5d		 pop	 ebp
  00062	c3		 ret	 0
??1?$CWHArray@PAUtagTableFrameInfo@@ABQAU1@@@UAE@XZ ENDP ; CWHArray<tagTableFrameInfo *,tagTableFrameInfo * const &>::~CWHArray<tagTableFrameInfo *,tagTableFrameInfo * const &>
_TEXT	ENDS
; Function compile flags: /Odtp /ZI
; File g:\网狐\happygamewh\服务端\系统模块\全局定义\array.h
;	COMDAT ??0?$CWHArray@PAUtagTableFrameInfo@@ABQAU1@@@QAE@XZ
_TEXT	SEGMENT
_this$ = -4						; size = 4
??0?$CWHArray@PAUtagTableFrameInfo@@ABQAU1@@@QAE@XZ PROC ; CWHArray<tagTableFrameInfo *,tagTableFrameInfo * const &>::CWHArray<tagTableFrameInfo *,tagTableFrameInfo * const &>, COMDAT
; _this$ = ecx

; 131  : {

  00000	55		 push	 ebp
  00001	8b ec		 mov	 ebp, esp
  00003	83 ec 44	 sub	 esp, 68			; 00000044H
  00006	53		 push	 ebx
  00007	56		 push	 esi
  00008	57		 push	 edi
  00009	89 4d fc	 mov	 DWORD PTR _this$[ebp], ecx
  0000c	8b 45 fc	 mov	 eax, DWORD PTR _this$[ebp]
  0000f	c7 00 00 00 00
	00		 mov	 DWORD PTR [eax], OFFSET ??_7?$CWHArray@PAUtagTableFrameInfo@@ABQAU1@@@6B@

; 132  : 	m_pData=NULL;

  00015	8b 45 fc	 mov	 eax, DWORD PTR _this$[ebp]
  00018	c7 40 04 00 00
	00 00		 mov	 DWORD PTR [eax+4], 0

; 133  : 	m_nMaxCount=0;

  0001f	8b 45 fc	 mov	 eax, DWORD PTR _this$[ebp]
  00022	c7 40 08 00 00
	00 00		 mov	 DWORD PTR [eax+8], 0

; 134  : 	m_nGrowCount=0;

  00029	8b 45 fc	 mov	 eax, DWORD PTR _this$[ebp]
  0002c	c7 40 0c 00 00
	00 00		 mov	 DWORD PTR [eax+12], 0

; 135  : 	m_nElementCount=0;

  00033	8b 45 fc	 mov	 eax, DWORD PTR _this$[ebp]
  00036	c7 40 10 00 00
	00 00		 mov	 DWORD PTR [eax+16], 0

; 136  : 
; 137  : 	return;
; 138  : }

  0003d	8b 45 fc	 mov	 eax, DWORD PTR _this$[ebp]
  00040	5f		 pop	 edi
  00041	5e		 pop	 esi
  00042	5b		 pop	 ebx
  00043	8b e5		 mov	 esp, ebp
  00045	5d		 pop	 ebp
  00046	c3		 ret	 0
??0?$CWHArray@PAUtagTableFrameInfo@@ABQAU1@@@QAE@XZ ENDP ; CWHArray<tagTableFrameInfo *,tagTableFrameInfo * const &>::CWHArray<tagTableFrameInfo *,tagTableFrameInfo * const &>
_TEXT	ENDS
; Function compile flags: /Odtp /ZI
;	COMDAT ??_G?$CWHArray@PAUIServerUserItem@@ABQAU1@@@UAEPAXI@Z
_TEXT	SEGMENT
_this$ = -4						; size = 4
___flags$ = 8						; size = 4
??_G?$CWHArray@PAUIServerUserItem@@ABQAU1@@@UAEPAXI@Z PROC ; CWHArray<IServerUserItem *,IServerUserItem * const &>::`scalar deleting destructor', COMDAT
; _this$ = ecx
  00000	55		 push	 ebp
  00001	8b ec		 mov	 ebp, esp
  00003	83 ec 44	 sub	 esp, 68			; 00000044H
  00006	53		 push	 ebx
  00007	56		 push	 esi
  00008	57		 push	 edi
  00009	89 4d fc	 mov	 DWORD PTR _this$[ebp], ecx
  0000c	8b 4d fc	 mov	 ecx, DWORD PTR _this$[ebp]
  0000f	e8 00 00 00 00	 call	 ??1?$CWHArray@PAUIServerUserItem@@ABQAU1@@@UAE@XZ ; CWHArray<IServerUserItem *,IServerUserItem * const &>::~CWHArray<IServerUserItem *,IServerUserItem * const &>
  00014	8b 45 08	 mov	 eax, DWORD PTR ___flags$[ebp]
  00017	83 e0 01	 and	 eax, 1
  0001a	74 0e		 je	 SHORT $LN2@scalar
  0001c	6a 14		 push	 20			; 00000014H
  0001e	8b 45 fc	 mov	 eax, DWORD PTR _this$[ebp]
  00021	50		 push	 eax
  00022	e8 00 00 00 00	 call	 ??3@YAXPAXI@Z		; operator delete
  00027	83 c4 08	 add	 esp, 8
$LN2@scalar:
  0002a	8b 45 fc	 mov	 eax, DWORD PTR _this$[ebp]
  0002d	5f		 pop	 edi
  0002e	5e		 pop	 esi
  0002f	5b		 pop	 ebx
  00030	8b e5		 mov	 esp, ebp
  00032	5d		 pop	 ebp
  00033	c2 04 00	 ret	 4
??_G?$CWHArray@PAUIServerUserItem@@ABQAU1@@@UAEPAXI@Z ENDP ; CWHArray<IServerUserItem *,IServerUserItem * const &>::`scalar deleting destructor'
_TEXT	ENDS
; Function compile flags: /Odtp /ZI
; File g:\网狐\happygamewh\服务端\系统模块\全局定义\array.h
;	COMDAT ?AllocMemory@?$CWHArray@PAUIServerUserItem@@ABQAU1@@@QAEXH@Z
_TEXT	SEGMENT
tv78 = -92						; size = 4
tv79 = -88						; size = 4
$T1 = -84						; size = 4
$T2 = -80						; size = 4
_pNewData$3 = -12					; size = 4
_nGrowCount$4 = -8					; size = 4
_this$ = -4						; size = 4
_nNewCount$ = 8						; size = 4
?AllocMemory@?$CWHArray@PAUIServerUserItem@@ABQAU1@@@QAEXH@Z PROC ; CWHArray<IServerUserItem *,IServerUserItem * const &>::AllocMemory, COMDAT
; _this$ = ecx

; 413  : {

  00000	55		 push	 ebp
  00001	8b ec		 mov	 ebp, esp
  00003	83 ec 5c	 sub	 esp, 92			; 0000005cH
  00006	53		 push	 ebx
  00007	56		 push	 esi
  00008	57		 push	 edi
  00009	89 4d fc	 mov	 DWORD PTR _this$[ebp], ecx

; 414  : 	//效验参数
; 415  : 	ASSERT(nNewCount>=0);

  0000c	83 7d 08 00	 cmp	 DWORD PTR _nNewCount$[ebp], 0
  00010	7d 14		 jge	 SHORT $LN5@AllocMemor
  00012	68 9f 01 00 00	 push	 415			; 0000019fH
  00017	68 00 00 00 00	 push	 OFFSET ??_C@_0DF@LDFGAABH@g?3?2?M?x?$LK?$PM?2happygamewh?2?$LH?$PO?N?q?$LG?K?2?O?$LF?M?$LD@
  0001c	e8 00 00 00 00	 call	 ?AfxAssertFailedLine@@YGHPBDH@Z ; AfxAssertFailedLine
  00021	85 c0		 test	 eax, eax
  00023	74 01		 je	 SHORT $LN5@AllocMemor
  00025	cc		 int	 3
$LN5@AllocMemor:

; 416  : 
; 417  : 	if (nNewCount>m_nMaxCount)

  00026	8b 45 fc	 mov	 eax, DWORD PTR _this$[ebp]
  00029	8b 4d 08	 mov	 ecx, DWORD PTR _nNewCount$[ebp]
  0002c	3b 48 08	 cmp	 ecx, DWORD PTR [eax+8]
  0002f	0f 8e dd 00 00
	00		 jle	 $LN1@AllocMemor

; 418  : 	{
; 419  : 		//计算数目
; 420  : 		INT_PTR nGrowCount=m_nGrowCount;

  00035	8b 45 fc	 mov	 eax, DWORD PTR _this$[ebp]
  00038	8b 48 0c	 mov	 ecx, DWORD PTR [eax+12]
  0003b	89 4d f8	 mov	 DWORD PTR _nGrowCount$4[ebp], ecx

; 421  : 		if (nGrowCount==0)

  0003e	83 7d f8 00	 cmp	 DWORD PTR _nGrowCount$4[ebp], 0
  00042	75 45		 jne	 SHORT $LN3@AllocMemor

; 422  : 		{
; 423  : 			nGrowCount=m_nElementCount/8;

  00044	8b 45 fc	 mov	 eax, DWORD PTR _this$[ebp]
  00047	8b 40 10	 mov	 eax, DWORD PTR [eax+16]
  0004a	99		 cdq
  0004b	83 e2 07	 and	 edx, 7
  0004e	03 c2		 add	 eax, edx
  00050	c1 f8 03	 sar	 eax, 3
  00053	89 45 f8	 mov	 DWORD PTR _nGrowCount$4[ebp], eax

; 424  : 			nGrowCount=(nGrowCount<4)?4:((nGrowCount>1024)?1024:nGrowCount);

  00056	83 7d f8 04	 cmp	 DWORD PTR _nGrowCount$4[ebp], 4
  0005a	7d 09		 jge	 SHORT $LN8@AllocMemor
  0005c	c7 45 a8 04 00
	00 00		 mov	 DWORD PTR tv79[ebp], 4
  00063	eb 1e		 jmp	 SHORT $LN9@AllocMemor
$LN8@AllocMemor:
  00065	81 7d f8 00 04
	00 00		 cmp	 DWORD PTR _nGrowCount$4[ebp], 1024 ; 00000400H
  0006c	7e 09		 jle	 SHORT $LN6@AllocMemor
  0006e	c7 45 a4 00 04
	00 00		 mov	 DWORD PTR tv78[ebp], 1024 ; 00000400H
  00075	eb 06		 jmp	 SHORT $LN7@AllocMemor
$LN6@AllocMemor:
  00077	8b 45 f8	 mov	 eax, DWORD PTR _nGrowCount$4[ebp]
  0007a	89 45 a4	 mov	 DWORD PTR tv78[ebp], eax
$LN7@AllocMemor:
  0007d	8b 4d a4	 mov	 ecx, DWORD PTR tv78[ebp]
  00080	89 4d a8	 mov	 DWORD PTR tv79[ebp], ecx
$LN9@AllocMemor:
  00083	8b 55 a8	 mov	 edx, DWORD PTR tv79[ebp]
  00086	89 55 f8	 mov	 DWORD PTR _nGrowCount$4[ebp], edx
$LN3@AllocMemor:

; 425  : 		}
; 426  : 		nNewCount+=nGrowCount;

  00089	8b 45 08	 mov	 eax, DWORD PTR _nNewCount$[ebp]
  0008c	03 45 f8	 add	 eax, DWORD PTR _nGrowCount$4[ebp]
  0008f	89 45 08	 mov	 DWORD PTR _nNewCount$[ebp], eax

; 427  : 
; 428  : 		//申请内存
; 429  : 		TYPE * pNewData=(TYPE *) new BYTE[nNewCount*sizeof(TYPE)];

  00092	8b 45 08	 mov	 eax, DWORD PTR _nNewCount$[ebp]
  00095	c1 e0 02	 shl	 eax, 2
  00098	50		 push	 eax
  00099	e8 00 00 00 00	 call	 ??_U@YAPAXI@Z		; operator new[]
  0009e	83 c4 04	 add	 esp, 4
  000a1	89 45 b0	 mov	 DWORD PTR $T2[ebp], eax
  000a4	8b 4d b0	 mov	 ecx, DWORD PTR $T2[ebp]
  000a7	89 4d f4	 mov	 DWORD PTR _pNewData$3[ebp], ecx

; 430  : 		memcpy(pNewData,m_pData,m_nElementCount*sizeof(TYPE));

  000aa	8b 45 fc	 mov	 eax, DWORD PTR _this$[ebp]
  000ad	8b 48 10	 mov	 ecx, DWORD PTR [eax+16]
  000b0	c1 e1 02	 shl	 ecx, 2
  000b3	51		 push	 ecx
  000b4	8b 55 fc	 mov	 edx, DWORD PTR _this$[ebp]
  000b7	8b 42 04	 mov	 eax, DWORD PTR [edx+4]
  000ba	50		 push	 eax
  000bb	8b 4d f4	 mov	 ecx, DWORD PTR _pNewData$3[ebp]
  000be	51		 push	 ecx
  000bf	e8 00 00 00 00	 call	 _memcpy
  000c4	83 c4 0c	 add	 esp, 12			; 0000000cH

; 431  : 		memset(pNewData+m_nElementCount,0,(nNewCount-m_nElementCount)*sizeof(TYPE));

  000c7	8b 45 fc	 mov	 eax, DWORD PTR _this$[ebp]
  000ca	8b 4d 08	 mov	 ecx, DWORD PTR _nNewCount$[ebp]
  000cd	2b 48 10	 sub	 ecx, DWORD PTR [eax+16]
  000d0	c1 e1 02	 shl	 ecx, 2
  000d3	51		 push	 ecx
  000d4	6a 00		 push	 0
  000d6	8b 55 fc	 mov	 edx, DWORD PTR _this$[ebp]
  000d9	8b 42 10	 mov	 eax, DWORD PTR [edx+16]
  000dc	8b 4d f4	 mov	 ecx, DWORD PTR _pNewData$3[ebp]
  000df	8d 14 81	 lea	 edx, DWORD PTR [ecx+eax*4]
  000e2	52		 push	 edx
  000e3	e8 00 00 00 00	 call	 _memset
  000e8	83 c4 0c	 add	 esp, 12			; 0000000cH

; 432  : 		delete [] (BYTE *)m_pData;

  000eb	8b 45 fc	 mov	 eax, DWORD PTR _this$[ebp]
  000ee	8b 48 04	 mov	 ecx, DWORD PTR [eax+4]
  000f1	89 4d ac	 mov	 DWORD PTR $T1[ebp], ecx
  000f4	8b 55 ac	 mov	 edx, DWORD PTR $T1[ebp]
  000f7	52		 push	 edx
  000f8	e8 00 00 00 00	 call	 ??_V@YAXPAX@Z		; operator delete[]
  000fd	83 c4 04	 add	 esp, 4

; 433  : 
; 434  : 		//设置变量
; 435  : 		m_pData=pNewData;

  00100	8b 45 fc	 mov	 eax, DWORD PTR _this$[ebp]
  00103	8b 4d f4	 mov	 ecx, DWORD PTR _pNewData$3[ebp]
  00106	89 48 04	 mov	 DWORD PTR [eax+4], ecx

; 436  : 		m_nMaxCount=nNewCount;

  00109	8b 45 fc	 mov	 eax, DWORD PTR _this$[ebp]
  0010c	8b 4d 08	 mov	 ecx, DWORD PTR _nNewCount$[ebp]
  0010f	89 48 08	 mov	 DWORD PTR [eax+8], ecx
$LN1@AllocMemor:

; 437  : 	}
; 438  : 
; 439  : 	return;
; 440  : }

  00112	5f		 pop	 edi
  00113	5e		 pop	 esi
  00114	5b		 pop	 ebx
  00115	8b e5		 mov	 esp, ebp
  00117	5d		 pop	 ebp
  00118	c2 04 00	 ret	 4
?AllocMemory@?$CWHArray@PAUIServerUserItem@@ABQAU1@@@QAEXH@Z ENDP ; CWHArray<IServerUserItem *,IServerUserItem * const &>::AllocMemory
_TEXT	ENDS
; Function compile flags: /Odtp /ZI
; File g:\网狐\happygamewh\服务端\系统模块\全局定义\array.h
;	COMDAT ??A?$CWHArray@PAUIServerUserItem@@ABQAU1@@@QAEAAPAUIServerUserItem@@H@Z
_TEXT	SEGMENT
_this$ = -4						; size = 4
_nIndex$ = 8						; size = 4
??A?$CWHArray@PAUIServerUserItem@@ABQAU1@@@QAEAAPAUIServerUserItem@@H@Z PROC ; CWHArray<IServerUserItem *,IServerUserItem * const &>::operator[], COMDAT
; _this$ = ecx

; 114  : { 

  00000	55		 push	 ebp
  00001	8b ec		 mov	 ebp, esp
  00003	83 ec 44	 sub	 esp, 68			; 00000044H
  00006	53		 push	 ebx
  00007	56		 push	 esi
  00008	57		 push	 edi
  00009	89 4d fc	 mov	 DWORD PTR _this$[ebp], ecx

; 115  : 	return ElementAt(nIndex);

  0000c	8b 45 08	 mov	 eax, DWORD PTR _nIndex$[ebp]
  0000f	50		 push	 eax
  00010	8b 4d fc	 mov	 ecx, DWORD PTR _this$[ebp]
  00013	e8 00 00 00 00	 call	 ?ElementAt@?$CWHArray@PAUIServerUserItem@@ABQAU1@@@QAEAAPAUIServerUserItem@@H@Z ; CWHArray<IServerUserItem *,IServerUserItem * const &>::ElementAt

; 116  : }

  00018	5f		 pop	 edi
  00019	5e		 pop	 esi
  0001a	5b		 pop	 ebx
  0001b	8b e5		 mov	 esp, ebp
  0001d	5d		 pop	 ebp
  0001e	c2 04 00	 ret	 4
??A?$CWHArray@PAUIServerUserItem@@ABQAU1@@@QAEAAPAUIServerUserItem@@H@Z ENDP ; CWHArray<IServerUserItem *,IServerUserItem * const &>::operator[]
_TEXT	ENDS
; Function compile flags: /Odtp /ZI
; File g:\网狐\happygamewh\服务端\系统模块\全局定义\array.h
;	COMDAT ?RemoveAll@?$CWHArray@PAUIServerUserItem@@ABQAU1@@@QAEXXZ
_TEXT	SEGMENT
_i$1 = -8						; size = 4
_this$ = -4						; size = 4
?RemoveAll@?$CWHArray@PAUIServerUserItem@@ABQAU1@@@QAEXXZ PROC ; CWHArray<IServerUserItem *,IServerUserItem * const &>::RemoveAll, COMDAT
; _this$ = ecx

; 379  : {

  00000	55		 push	 ebp
  00001	8b ec		 mov	 ebp, esp
  00003	83 ec 48	 sub	 esp, 72			; 00000048H
  00006	53		 push	 ebx
  00007	56		 push	 esi
  00008	57		 push	 edi
  00009	89 4d fc	 mov	 DWORD PTR _this$[ebp], ecx

; 380  : 	if (m_nElementCount>0)

  0000c	8b 45 fc	 mov	 eax, DWORD PTR _this$[ebp]
  0000f	83 78 10 00	 cmp	 DWORD PTR [eax+16], 0
  00013	7e 44		 jle	 SHORT $LN1@RemoveAll

; 381  : 	{
; 382  : 		for (INT_PTR i=0;i<m_nElementCount;i++) (m_pData+i)->~TYPE();

  00015	c7 45 f8 00 00
	00 00		 mov	 DWORD PTR _i$1[ebp], 0
  0001c	eb 09		 jmp	 SHORT $LN4@RemoveAll
$LN2@RemoveAll:
  0001e	8b 45 f8	 mov	 eax, DWORD PTR _i$1[ebp]
  00021	83 c0 01	 add	 eax, 1
  00024	89 45 f8	 mov	 DWORD PTR _i$1[ebp], eax
$LN4@RemoveAll:
  00027	8b 45 fc	 mov	 eax, DWORD PTR _this$[ebp]
  0002a	8b 4d f8	 mov	 ecx, DWORD PTR _i$1[ebp]
  0002d	3b 48 10	 cmp	 ecx, DWORD PTR [eax+16]
  00030	7d 02		 jge	 SHORT $LN3@RemoveAll
  00032	eb ea		 jmp	 SHORT $LN2@RemoveAll
$LN3@RemoveAll:

; 383  : 		memset(m_pData,0,m_nElementCount*sizeof(TYPE));

  00034	8b 45 fc	 mov	 eax, DWORD PTR _this$[ebp]
  00037	8b 48 10	 mov	 ecx, DWORD PTR [eax+16]
  0003a	c1 e1 02	 shl	 ecx, 2
  0003d	51		 push	 ecx
  0003e	6a 00		 push	 0
  00040	8b 55 fc	 mov	 edx, DWORD PTR _this$[ebp]
  00043	8b 42 04	 mov	 eax, DWORD PTR [edx+4]
  00046	50		 push	 eax
  00047	e8 00 00 00 00	 call	 _memset
  0004c	83 c4 0c	 add	 esp, 12			; 0000000cH

; 384  : 		m_nElementCount=0;

  0004f	8b 45 fc	 mov	 eax, DWORD PTR _this$[ebp]
  00052	c7 40 10 00 00
	00 00		 mov	 DWORD PTR [eax+16], 0
$LN1@RemoveAll:

; 385  : 	}
; 386  : 
; 387  : 	return;
; 388  : }

  00059	5f		 pop	 edi
  0005a	5e		 pop	 esi
  0005b	5b		 pop	 ebx
  0005c	8b e5		 mov	 esp, ebp
  0005e	5d		 pop	 ebp
  0005f	c3		 ret	 0
?RemoveAll@?$CWHArray@PAUIServerUserItem@@ABQAU1@@@QAEXXZ ENDP ; CWHArray<IServerUserItem *,IServerUserItem * const &>::RemoveAll
_TEXT	ENDS
; Function compile flags: /Odtp /ZI
; File g:\网狐\happygamewh\服务端\系统模块\全局定义\array.h
;	COMDAT ?RemoveAt@?$CWHArray@PAUIServerUserItem@@ABQAU1@@@QAEXHH@Z
_TEXT	SEGMENT
_i$1 = -12						; size = 4
_nMoveCount$ = -8					; size = 4
_this$ = -4						; size = 4
_nIndex$ = 8						; size = 4
_nCount$ = 12						; size = 4
?RemoveAt@?$CWHArray@PAUIServerUserItem@@ABQAU1@@@QAEXHH@Z PROC ; CWHArray<IServerUserItem *,IServerUserItem * const &>::RemoveAt, COMDAT
; _this$ = ecx

; 360  : {

  00000	55		 push	 ebp
  00001	8b ec		 mov	 ebp, esp
  00003	83 ec 4c	 sub	 esp, 76			; 0000004cH
  00006	53		 push	 ebx
  00007	56		 push	 esi
  00008	57		 push	 edi
  00009	89 4d fc	 mov	 DWORD PTR _this$[ebp], ecx

; 361  : 	//效验参数
; 362  : 	ASSERT(nIndex>=0);

  0000c	83 7d 08 00	 cmp	 DWORD PTR _nIndex$[ebp], 0
  00010	7d 14		 jge	 SHORT $LN9@RemoveAt
  00012	68 6a 01 00 00	 push	 362			; 0000016aH
  00017	68 00 00 00 00	 push	 OFFSET ??_C@_0DF@LDFGAABH@g?3?2?M?x?$LK?$PM?2happygamewh?2?$LH?$PO?N?q?$LG?K?2?O?$LF?M?$LD@
  0001c	e8 00 00 00 00	 call	 ?AfxAssertFailedLine@@YGHPBDH@Z ; AfxAssertFailedLine
  00021	85 c0		 test	 eax, eax
  00023	74 01		 je	 SHORT $LN9@RemoveAt
  00025	cc		 int	 3
$LN9@RemoveAt:

; 363  : 	ASSERT(nCount>=0);

  00026	83 7d 0c 00	 cmp	 DWORD PTR _nCount$[ebp], 0
  0002a	7d 14		 jge	 SHORT $LN10@RemoveAt
  0002c	68 6b 01 00 00	 push	 363			; 0000016bH
  00031	68 00 00 00 00	 push	 OFFSET ??_C@_0DF@LDFGAABH@g?3?2?M?x?$LK?$PM?2happygamewh?2?$LH?$PO?N?q?$LG?K?2?O?$LF?M?$LD@
  00036	e8 00 00 00 00	 call	 ?AfxAssertFailedLine@@YGHPBDH@Z ; AfxAssertFailedLine
  0003b	85 c0		 test	 eax, eax
  0003d	74 01		 je	 SHORT $LN10@RemoveAt
  0003f	cc		 int	 3
$LN10@RemoveAt:

; 364  : 	ASSERT(nIndex+nCount<=m_nElementCount);

  00040	8b 45 08	 mov	 eax, DWORD PTR _nIndex$[ebp]
  00043	03 45 0c	 add	 eax, DWORD PTR _nCount$[ebp]
  00046	8b 4d fc	 mov	 ecx, DWORD PTR _this$[ebp]
  00049	3b 41 10	 cmp	 eax, DWORD PTR [ecx+16]
  0004c	7e 14		 jle	 SHORT $LN11@RemoveAt
  0004e	68 6c 01 00 00	 push	 364			; 0000016cH
  00053	68 00 00 00 00	 push	 OFFSET ??_C@_0DF@LDFGAABH@g?3?2?M?x?$LK?$PM?2happygamewh?2?$LH?$PO?N?q?$LG?K?2?O?$LF?M?$LD@
  00058	e8 00 00 00 00	 call	 ?AfxAssertFailedLine@@YGHPBDH@Z ; AfxAssertFailedLine
  0005d	85 c0		 test	 eax, eax
  0005f	74 01		 je	 SHORT $LN11@RemoveAt
  00061	cc		 int	 3
$LN11@RemoveAt:

; 365  : 	if ((nIndex<0)||(nCount<0)||((nIndex+nCount>m_nElementCount))) AfxThrowInvalidArgException();

  00062	83 7d 08 00	 cmp	 DWORD PTR _nIndex$[ebp], 0
  00066	7c 14		 jl	 SHORT $LN6@RemoveAt
  00068	83 7d 0c 00	 cmp	 DWORD PTR _nCount$[ebp], 0
  0006c	7c 0e		 jl	 SHORT $LN6@RemoveAt
  0006e	8b 45 08	 mov	 eax, DWORD PTR _nIndex$[ebp]
  00071	03 45 0c	 add	 eax, DWORD PTR _nCount$[ebp]
  00074	8b 4d fc	 mov	 ecx, DWORD PTR _this$[ebp]
  00077	3b 41 10	 cmp	 eax, DWORD PTR [ecx+16]
  0007a	7e 05		 jle	 SHORT $LN5@RemoveAt
$LN6@RemoveAt:
  0007c	e8 00 00 00 00	 call	 ?AfxThrowInvalidArgException@@YGXXZ ; AfxThrowInvalidArgException
$LN5@RemoveAt:

; 366  : 
; 367  : 	//删除数据
; 368  : 	INT_PTR nMoveCount=m_nElementCount-(nIndex+nCount);

  00081	8b 45 08	 mov	 eax, DWORD PTR _nIndex$[ebp]
  00084	03 45 0c	 add	 eax, DWORD PTR _nCount$[ebp]
  00087	8b 4d fc	 mov	 ecx, DWORD PTR _this$[ebp]
  0008a	8b 51 10	 mov	 edx, DWORD PTR [ecx+16]
  0008d	2b d0		 sub	 edx, eax
  0008f	89 55 f8	 mov	 DWORD PTR _nMoveCount$[ebp], edx

; 369  : 	for (INT_PTR i=0;i<nCount;i++) (m_pData+nIndex+i)->~TYPE();

  00092	c7 45 f4 00 00
	00 00		 mov	 DWORD PTR _i$1[ebp], 0
  00099	eb 09		 jmp	 SHORT $LN4@RemoveAt
$LN2@RemoveAt:
  0009b	8b 45 f4	 mov	 eax, DWORD PTR _i$1[ebp]
  0009e	83 c0 01	 add	 eax, 1
  000a1	89 45 f4	 mov	 DWORD PTR _i$1[ebp], eax
$LN4@RemoveAt:
  000a4	8b 45 f4	 mov	 eax, DWORD PTR _i$1[ebp]
  000a7	3b 45 0c	 cmp	 eax, DWORD PTR _nCount$[ebp]
  000aa	7d 02		 jge	 SHORT $LN3@RemoveAt
  000ac	eb ed		 jmp	 SHORT $LN2@RemoveAt
$LN3@RemoveAt:

; 370  : 	if (nMoveCount>0) memmove(m_pData+nIndex,m_pData+nIndex+nCount,nMoveCount*sizeof(TYPE));

  000ae	83 7d f8 00	 cmp	 DWORD PTR _nMoveCount$[ebp], 0
  000b2	7e 2f		 jle	 SHORT $LN7@RemoveAt
  000b4	8b 45 f8	 mov	 eax, DWORD PTR _nMoveCount$[ebp]
  000b7	c1 e0 02	 shl	 eax, 2
  000ba	50		 push	 eax
  000bb	8b 4d fc	 mov	 ecx, DWORD PTR _this$[ebp]
  000be	8b 51 04	 mov	 edx, DWORD PTR [ecx+4]
  000c1	8b 45 08	 mov	 eax, DWORD PTR _nIndex$[ebp]
  000c4	8d 0c 82	 lea	 ecx, DWORD PTR [edx+eax*4]
  000c7	8b 55 0c	 mov	 edx, DWORD PTR _nCount$[ebp]
  000ca	8d 04 91	 lea	 eax, DWORD PTR [ecx+edx*4]
  000cd	50		 push	 eax
  000ce	8b 4d fc	 mov	 ecx, DWORD PTR _this$[ebp]
  000d1	8b 51 04	 mov	 edx, DWORD PTR [ecx+4]
  000d4	8b 45 08	 mov	 eax, DWORD PTR _nIndex$[ebp]
  000d7	8d 0c 82	 lea	 ecx, DWORD PTR [edx+eax*4]
  000da	51		 push	 ecx
  000db	e8 00 00 00 00	 call	 _memmove
  000e0	83 c4 0c	 add	 esp, 12			; 0000000cH
$LN7@RemoveAt:

; 371  : 	m_nElementCount-=nCount;

  000e3	8b 45 fc	 mov	 eax, DWORD PTR _this$[ebp]
  000e6	8b 48 10	 mov	 ecx, DWORD PTR [eax+16]
  000e9	2b 4d 0c	 sub	 ecx, DWORD PTR _nCount$[ebp]
  000ec	8b 55 fc	 mov	 edx, DWORD PTR _this$[ebp]
  000ef	89 4a 10	 mov	 DWORD PTR [edx+16], ecx
$LN8@RemoveAt:

; 372  : 
; 373  : 	return;
; 374  : }

  000f2	5f		 pop	 edi
  000f3	5e		 pop	 esi
  000f4	5b		 pop	 ebx
  000f5	8b e5		 mov	 esp, ebp
  000f7	5d		 pop	 ebp
  000f8	c2 08 00	 ret	 8
?RemoveAt@?$CWHArray@PAUIServerUserItem@@ABQAU1@@@QAEXHH@Z ENDP ; CWHArray<IServerUserItem *,IServerUserItem * const &>::RemoveAt
_TEXT	ENDS
; Function compile flags: /Odtp /ZI
; File g:\网狐\happygamewh\服务端\系统模块\全局定义\array.h
;	COMDAT ?SetAtGrow@?$CWHArray@PAUIServerUserItem@@ABQAU1@@@QAEXHABQAUIServerUserItem@@@Z
_TEXT	SEGMENT
_this$ = -4						; size = 4
_nIndex$ = 8						; size = 4
_newElement$ = 12					; size = 4
?SetAtGrow@?$CWHArray@PAUIServerUserItem@@ABQAU1@@@QAEXHABQAUIServerUserItem@@@Z PROC ; CWHArray<IServerUserItem *,IServerUserItem * const &>::SetAtGrow, COMDAT
; _this$ = ecx

; 287  : {

  00000	55		 push	 ebp
  00001	8b ec		 mov	 ebp, esp
  00003	83 ec 44	 sub	 esp, 68			; 00000044H
  00006	53		 push	 ebx
  00007	56		 push	 esi
  00008	57		 push	 edi
  00009	89 4d fc	 mov	 DWORD PTR _this$[ebp], ecx

; 288  : 	//效验参数
; 289  : 	ASSERT(nIndex>=0);

  0000c	83 7d 08 00	 cmp	 DWORD PTR _nIndex$[ebp], 0
  00010	7d 14		 jge	 SHORT $LN5@SetAtGrow
  00012	68 21 01 00 00	 push	 289			; 00000121H
  00017	68 00 00 00 00	 push	 OFFSET ??_C@_0DF@LDFGAABH@g?3?2?M?x?$LK?$PM?2happygamewh?2?$LH?$PO?N?q?$LG?K?2?O?$LF?M?$LD@
  0001c	e8 00 00 00 00	 call	 ?AfxAssertFailedLine@@YGHPBDH@Z ; AfxAssertFailedLine
  00021	85 c0		 test	 eax, eax
  00023	74 01		 je	 SHORT $LN5@SetAtGrow
  00025	cc		 int	 3
$LN5@SetAtGrow:

; 290  : 	if (nIndex<0) AfxThrowInvalidArgException();

  00026	83 7d 08 00	 cmp	 DWORD PTR _nIndex$[ebp], 0
  0002a	7d 05		 jge	 SHORT $LN2@SetAtGrow
  0002c	e8 00 00 00 00	 call	 ?AfxThrowInvalidArgException@@YGXXZ ; AfxThrowInvalidArgException
$LN2@SetAtGrow:

; 291  : 
; 292  : 	//设置元素
; 293  : 	if (nIndex>=m_nElementCount) SetSize(m_nElementCount+1);

  00031	8b 45 fc	 mov	 eax, DWORD PTR _this$[ebp]
  00034	8b 4d 08	 mov	 ecx, DWORD PTR _nIndex$[ebp]
  00037	3b 48 10	 cmp	 ecx, DWORD PTR [eax+16]
  0003a	7c 12		 jl	 SHORT $LN3@SetAtGrow
  0003c	8b 45 fc	 mov	 eax, DWORD PTR _this$[ebp]
  0003f	8b 48 10	 mov	 ecx, DWORD PTR [eax+16]
  00042	83 c1 01	 add	 ecx, 1
  00045	51		 push	 ecx
  00046	8b 4d fc	 mov	 ecx, DWORD PTR _this$[ebp]
  00049	e8 00 00 00 00	 call	 ?SetSize@?$CWHArray@PAUIServerUserItem@@ABQAU1@@@QAEXH@Z ; CWHArray<IServerUserItem *,IServerUserItem * const &>::SetSize
$LN3@SetAtGrow:

; 294  : 	m_pData[nIndex]=newElement;

  0004e	8b 45 fc	 mov	 eax, DWORD PTR _this$[ebp]
  00051	8b 48 04	 mov	 ecx, DWORD PTR [eax+4]
  00054	8b 55 08	 mov	 edx, DWORD PTR _nIndex$[ebp]
  00057	8b 45 0c	 mov	 eax, DWORD PTR _newElement$[ebp]
  0005a	8b 00		 mov	 eax, DWORD PTR [eax]
  0005c	89 04 91	 mov	 DWORD PTR [ecx+edx*4], eax
$LN4@SetAtGrow:

; 295  : 
; 296  : 	return;
; 297  : }

  0005f	5f		 pop	 edi
  00060	5e		 pop	 esi
  00061	5b		 pop	 ebx
  00062	8b e5		 mov	 esp, ebp
  00064	5d		 pop	 ebp
  00065	c2 08 00	 ret	 8
?SetAtGrow@?$CWHArray@PAUIServerUserItem@@ABQAU1@@@QAEXHABQAUIServerUserItem@@@Z ENDP ; CWHArray<IServerUserItem *,IServerUserItem * const &>::SetAtGrow
_TEXT	ENDS
; Function compile flags: /Odtp /ZI
; File g:\网狐\happygamewh\服务端\系统模块\全局定义\array.h
;	COMDAT ?SetSize@?$CWHArray@PAUIServerUserItem@@ABQAU1@@@QAEXH@Z
_TEXT	SEGMENT
$T1 = -80						; size = 4
_i$2 = -12						; size = 4
_i$3 = -8						; size = 4
_this$ = -4						; size = 4
_nNewSize$ = 8						; size = 4
?SetSize@?$CWHArray@PAUIServerUserItem@@ABQAU1@@@QAEXH@Z PROC ; CWHArray<IServerUserItem *,IServerUserItem * const &>::SetSize, COMDAT
; _this$ = ecx

; 252  : {

  00000	55		 push	 ebp
  00001	8b ec		 mov	 ebp, esp
  00003	83 ec 50	 sub	 esp, 80			; 00000050H
  00006	53		 push	 ebx
  00007	56		 push	 esi
  00008	57		 push	 edi
  00009	89 4d fc	 mov	 DWORD PTR _this$[ebp], ecx

; 253  : 	//效验参数
; 254  : 	ASSERT(nNewSize>=0);

  0000c	83 7d 08 00	 cmp	 DWORD PTR _nNewSize$[ebp], 0
  00010	7d 14		 jge	 SHORT $LN13@SetSize
  00012	68 fe 00 00 00	 push	 254			; 000000feH
  00017	68 00 00 00 00	 push	 OFFSET ??_C@_0DF@LDFGAABH@g?3?2?M?x?$LK?$PM?2happygamewh?2?$LH?$PO?N?q?$LG?K?2?O?$LF?M?$LD@
  0001c	e8 00 00 00 00	 call	 ?AfxAssertFailedLine@@YGHPBDH@Z ; AfxAssertFailedLine
  00021	85 c0		 test	 eax, eax
  00023	74 01		 je	 SHORT $LN13@SetSize
  00025	cc		 int	 3
$LN13@SetSize:

; 255  : 	if (nNewSize<0)	AfxThrowInvalidArgException();

  00026	83 7d 08 00	 cmp	 DWORD PTR _nNewSize$[ebp], 0
  0002a	7d 05		 jge	 SHORT $LN8@SetSize
  0002c	e8 00 00 00 00	 call	 ?AfxThrowInvalidArgException@@YGXXZ ; AfxThrowInvalidArgException
$LN8@SetSize:

; 256  : 	
; 257  : 	//设置大小
; 258  : 	AllocMemory(nNewSize);

  00031	8b 45 08	 mov	 eax, DWORD PTR _nNewSize$[ebp]
  00034	50		 push	 eax
  00035	8b 4d fc	 mov	 ecx, DWORD PTR _this$[ebp]
  00038	e8 00 00 00 00	 call	 ?AllocMemory@?$CWHArray@PAUIServerUserItem@@ABQAU1@@@QAEXH@Z ; CWHArray<IServerUserItem *,IServerUserItem * const &>::AllocMemory

; 259  : 	if (nNewSize>m_nElementCount)

  0003d	8b 45 fc	 mov	 eax, DWORD PTR _this$[ebp]
  00040	8b 4d 08	 mov	 ecx, DWORD PTR _nNewSize$[ebp]
  00043	3b 48 10	 cmp	 ecx, DWORD PTR [eax+16]
  00046	7e 3a		 jle	 SHORT $LN9@SetSize

; 260  : 	{
; 261  : 		for (INT_PTR i=m_nElementCount;i<nNewSize;i++) new ((VOID *)(m_pData+i)) TYPE;

  00048	8b 45 fc	 mov	 eax, DWORD PTR _this$[ebp]
  0004b	8b 48 10	 mov	 ecx, DWORD PTR [eax+16]
  0004e	89 4d f8	 mov	 DWORD PTR _i$3[ebp], ecx
  00051	eb 09		 jmp	 SHORT $LN4@SetSize
$LN2@SetSize:
  00053	8b 45 f8	 mov	 eax, DWORD PTR _i$3[ebp]
  00056	83 c0 01	 add	 eax, 1
  00059	89 45 f8	 mov	 DWORD PTR _i$3[ebp], eax
$LN4@SetSize:
  0005c	8b 45 f8	 mov	 eax, DWORD PTR _i$3[ebp]
  0005f	3b 45 08	 cmp	 eax, DWORD PTR _nNewSize$[ebp]
  00062	7d 1c		 jge	 SHORT $LN3@SetSize
  00064	8b 45 fc	 mov	 eax, DWORD PTR _this$[ebp]
  00067	8b 48 04	 mov	 ecx, DWORD PTR [eax+4]
  0006a	8b 55 f8	 mov	 edx, DWORD PTR _i$3[ebp]
  0006d	8d 04 91	 lea	 eax, DWORD PTR [ecx+edx*4]
  00070	50		 push	 eax
  00071	6a 04		 push	 4
  00073	e8 00 00 00 00	 call	 ??2@YAPAXIPAX@Z		; operator new
  00078	83 c4 08	 add	 esp, 8
  0007b	89 45 b0	 mov	 DWORD PTR $T1[ebp], eax
  0007e	eb d3		 jmp	 SHORT $LN2@SetSize
$LN3@SetSize:

; 262  : 	}
; 263  : 	else if (nNewSize<m_nElementCount)

  00080	eb 4d		 jmp	 SHORT $LN10@SetSize
$LN9@SetSize:
  00082	8b 45 fc	 mov	 eax, DWORD PTR _this$[ebp]
  00085	8b 4d 08	 mov	 ecx, DWORD PTR _nNewSize$[ebp]
  00088	3b 48 10	 cmp	 ecx, DWORD PTR [eax+16]
  0008b	7d 42		 jge	 SHORT $LN10@SetSize

; 264  : 	{
; 265  : 		for (INT_PTR i=nNewSize;i<m_nElementCount;i++) (m_pData+i)->~TYPE();

  0008d	8b 45 08	 mov	 eax, DWORD PTR _nNewSize$[ebp]
  00090	89 45 f4	 mov	 DWORD PTR _i$2[ebp], eax
  00093	eb 09		 jmp	 SHORT $LN7@SetSize
$LN5@SetSize:
  00095	8b 45 f4	 mov	 eax, DWORD PTR _i$2[ebp]
  00098	83 c0 01	 add	 eax, 1
  0009b	89 45 f4	 mov	 DWORD PTR _i$2[ebp], eax
$LN7@SetSize:
  0009e	8b 45 fc	 mov	 eax, DWORD PTR _this$[ebp]
  000a1	8b 4d f4	 mov	 ecx, DWORD PTR _i$2[ebp]
  000a4	3b 48 10	 cmp	 ecx, DWORD PTR [eax+16]
  000a7	7d 02		 jge	 SHORT $LN6@SetSize
  000a9	eb ea		 jmp	 SHORT $LN5@SetSize
$LN6@SetSize:

; 266  : 		memset(m_pData+nNewSize,0,(m_nElementCount-nNewSize)*sizeof(TYPE));

  000ab	8b 45 fc	 mov	 eax, DWORD PTR _this$[ebp]
  000ae	8b 48 10	 mov	 ecx, DWORD PTR [eax+16]
  000b1	2b 4d 08	 sub	 ecx, DWORD PTR _nNewSize$[ebp]
  000b4	c1 e1 02	 shl	 ecx, 2
  000b7	51		 push	 ecx
  000b8	6a 00		 push	 0
  000ba	8b 55 fc	 mov	 edx, DWORD PTR _this$[ebp]
  000bd	8b 42 04	 mov	 eax, DWORD PTR [edx+4]
  000c0	8b 4d 08	 mov	 ecx, DWORD PTR _nNewSize$[ebp]
  000c3	8d 14 88	 lea	 edx, DWORD PTR [eax+ecx*4]
  000c6	52		 push	 edx
  000c7	e8 00 00 00 00	 call	 _memset
  000cc	83 c4 0c	 add	 esp, 12			; 0000000cH
$LN10@SetSize:

; 267  : 	}
; 268  : 	m_nElementCount=nNewSize;

  000cf	8b 45 fc	 mov	 eax, DWORD PTR _this$[ebp]
  000d2	8b 4d 08	 mov	 ecx, DWORD PTR _nNewSize$[ebp]
  000d5	89 48 10	 mov	 DWORD PTR [eax+16], ecx
$LN12@SetSize:

; 269  : 
; 270  : 	return;
; 271  : }

  000d8	5f		 pop	 edi
  000d9	5e		 pop	 esi
  000da	5b		 pop	 ebx
  000db	8b e5		 mov	 esp, ebp
  000dd	5d		 pop	 ebp
  000de	c2 04 00	 ret	 4
?SetSize@?$CWHArray@PAUIServerUserItem@@ABQAU1@@@QAEXH@Z ENDP ; CWHArray<IServerUserItem *,IServerUserItem * const &>::SetSize
_TEXT	ENDS
; Function compile flags: /Odtp /ZI
; File g:\网狐\happygamewh\服务端\系统模块\全局定义\array.h
;	COMDAT ?ElementAt@?$CWHArray@PAUIServerUserItem@@ABQAU1@@@QAEAAPAUIServerUserItem@@H@Z
_TEXT	SEGMENT
_this$ = -4						; size = 4
_nIndex$ = 8						; size = 4
?ElementAt@?$CWHArray@PAUIServerUserItem@@ABQAU1@@@QAEAAPAUIServerUserItem@@H@Z PROC ; CWHArray<IServerUserItem *,IServerUserItem * const &>::ElementAt, COMDAT
; _this$ = ecx

; 232  : {

  00000	55		 push	 ebp
  00001	8b ec		 mov	 ebp, esp
  00003	83 ec 44	 sub	 esp, 68			; 00000044H
  00006	53		 push	 ebx
  00007	56		 push	 esi
  00008	57		 push	 edi
  00009	89 4d fc	 mov	 DWORD PTR _this$[ebp], ecx

; 233  : 	ASSERT((nIndex>=0)&&(nIndex<m_nElementCount));

  0000c	83 7d 08 00	 cmp	 DWORD PTR _nIndex$[ebp], 0
  00010	7c 0b		 jl	 SHORT $LN4@ElementAt
  00012	8b 45 fc	 mov	 eax, DWORD PTR _this$[ebp]
  00015	8b 4d 08	 mov	 ecx, DWORD PTR _nIndex$[ebp]
  00018	3b 48 10	 cmp	 ecx, DWORD PTR [eax+16]
  0001b	7c 14		 jl	 SHORT $LN5@ElementAt
$LN4@ElementAt:
  0001d	68 e9 00 00 00	 push	 233			; 000000e9H
  00022	68 00 00 00 00	 push	 OFFSET ??_C@_0DF@LDFGAABH@g?3?2?M?x?$LK?$PM?2happygamewh?2?$LH?$PO?N?q?$LG?K?2?O?$LF?M?$LD@
  00027	e8 00 00 00 00	 call	 ?AfxAssertFailedLine@@YGHPBDH@Z ; AfxAssertFailedLine
  0002c	85 c0		 test	 eax, eax
  0002e	74 01		 je	 SHORT $LN5@ElementAt
  00030	cc		 int	 3
$LN5@ElementAt:

; 234  : 	if ((nIndex<0)&&(nIndex>=m_nElementCount)) AfxThrowInvalidArgException();

  00031	83 7d 08 00	 cmp	 DWORD PTR _nIndex$[ebp], 0
  00035	7d 10		 jge	 SHORT $LN2@ElementAt
  00037	8b 45 fc	 mov	 eax, DWORD PTR _this$[ebp]
  0003a	8b 4d 08	 mov	 ecx, DWORD PTR _nIndex$[ebp]
  0003d	3b 48 10	 cmp	 ecx, DWORD PTR [eax+16]
  00040	7c 05		 jl	 SHORT $LN2@ElementAt
  00042	e8 00 00 00 00	 call	 ?AfxThrowInvalidArgException@@YGXXZ ; AfxThrowInvalidArgException
$LN2@ElementAt:

; 235  : 	
; 236  : 	return m_pData[nIndex];

  00047	8b 45 fc	 mov	 eax, DWORD PTR _this$[ebp]
  0004a	8b 48 04	 mov	 ecx, DWORD PTR [eax+4]
  0004d	8b 55 08	 mov	 edx, DWORD PTR _nIndex$[ebp]
  00050	8d 04 91	 lea	 eax, DWORD PTR [ecx+edx*4]
$LN3@ElementAt:

; 237  : }

  00053	5f		 pop	 edi
  00054	5e		 pop	 esi
  00055	5b		 pop	 ebx
  00056	8b e5		 mov	 esp, ebp
  00058	5d		 pop	 ebp
  00059	c2 04 00	 ret	 4
?ElementAt@?$CWHArray@PAUIServerUserItem@@ABQAU1@@@QAEAAPAUIServerUserItem@@H@Z ENDP ; CWHArray<IServerUserItem *,IServerUserItem * const &>::ElementAt
_TEXT	ENDS
; Function compile flags: /Odtp /ZI
; File g:\网狐\happygamewh\服务端\系统模块\全局定义\array.h
;	COMDAT ?Add@?$CWHArray@PAUIServerUserItem@@ABQAU1@@@QAEHABQAUIServerUserItem@@@Z
_TEXT	SEGMENT
_nIndex$ = -8						; size = 4
_this$ = -4						; size = 4
_newElement$ = 8					; size = 4
?Add@?$CWHArray@PAUIServerUserItem@@ABQAU1@@@QAEHABQAUIServerUserItem@@@Z PROC ; CWHArray<IServerUserItem *,IServerUserItem * const &>::Add, COMDAT
; _this$ = ecx

; 105  : {

  00000	55		 push	 ebp
  00001	8b ec		 mov	 ebp, esp
  00003	83 ec 48	 sub	 esp, 72			; 00000048H
  00006	53		 push	 ebx
  00007	56		 push	 esi
  00008	57		 push	 edi
  00009	89 4d fc	 mov	 DWORD PTR _this$[ebp], ecx

; 106  : 	INT_PTR nIndex=m_nElementCount;

  0000c	8b 45 fc	 mov	 eax, DWORD PTR _this$[ebp]
  0000f	8b 48 10	 mov	 ecx, DWORD PTR [eax+16]
  00012	89 4d f8	 mov	 DWORD PTR _nIndex$[ebp], ecx

; 107  : 	SetAtGrow(nIndex,newElement);

  00015	8b 45 08	 mov	 eax, DWORD PTR _newElement$[ebp]
  00018	50		 push	 eax
  00019	8b 4d f8	 mov	 ecx, DWORD PTR _nIndex$[ebp]
  0001c	51		 push	 ecx
  0001d	8b 4d fc	 mov	 ecx, DWORD PTR _this$[ebp]
  00020	e8 00 00 00 00	 call	 ?SetAtGrow@?$CWHArray@PAUIServerUserItem@@ABQAU1@@@QAEXHABQAUIServerUserItem@@@Z ; CWHArray<IServerUserItem *,IServerUserItem * const &>::SetAtGrow

; 108  : 	return nIndex;

  00025	8b 45 f8	 mov	 eax, DWORD PTR _nIndex$[ebp]

; 109  : }

  00028	5f		 pop	 edi
  00029	5e		 pop	 esi
  0002a	5b		 pop	 ebx
  0002b	8b e5		 mov	 esp, ebp
  0002d	5d		 pop	 ebp
  0002e	c2 04 00	 ret	 4
?Add@?$CWHArray@PAUIServerUserItem@@ABQAU1@@@QAEHABQAUIServerUserItem@@@Z ENDP ; CWHArray<IServerUserItem *,IServerUserItem * const &>::Add
_TEXT	ENDS
; Function compile flags: /Odtp /ZI
; File g:\网狐\happygamewh\服务端\系统模块\全局定义\array.h
;	COMDAT ?GetCount@?$CWHArray@PAUIServerUserItem@@ABQAU1@@@QBEHXZ
_TEXT	SEGMENT
_this$ = -4						; size = 4
?GetCount@?$CWHArray@PAUIServerUserItem@@ABQAU1@@@QBEHXZ PROC ; CWHArray<IServerUserItem *,IServerUserItem * const &>::GetCount, COMDAT
; _this$ = ecx

; 98   : {

  00000	55		 push	 ebp
  00001	8b ec		 mov	 ebp, esp
  00003	83 ec 44	 sub	 esp, 68			; 00000044H
  00006	53		 push	 ebx
  00007	56		 push	 esi
  00008	57		 push	 edi
  00009	89 4d fc	 mov	 DWORD PTR _this$[ebp], ecx

; 99   : 	return m_nElementCount;

  0000c	8b 45 fc	 mov	 eax, DWORD PTR _this$[ebp]
  0000f	8b 40 10	 mov	 eax, DWORD PTR [eax+16]

; 100  : }

  00012	5f		 pop	 edi
  00013	5e		 pop	 esi
  00014	5b		 pop	 ebx
  00015	8b e5		 mov	 esp, ebp
  00017	5d		 pop	 ebp
  00018	c3		 ret	 0
?GetCount@?$CWHArray@PAUIServerUserItem@@ABQAU1@@@QBEHXZ ENDP ; CWHArray<IServerUserItem *,IServerUserItem * const &>::GetCount
_TEXT	ENDS
; Function compile flags: /Odtp /ZI
; File g:\网狐\happygamewh\服务端\系统模块\全局定义\array.h
;	COMDAT ??1?$CWHArray@PAUIServerUserItem@@ABQAU1@@@UAE@XZ
_TEXT	SEGMENT
$T1 = -76						; size = 4
_i$2 = -8						; size = 4
_this$ = -4						; size = 4
??1?$CWHArray@PAUIServerUserItem@@ABQAU1@@@UAE@XZ PROC	; CWHArray<IServerUserItem *,IServerUserItem * const &>::~CWHArray<IServerUserItem *,IServerUserItem * const &>, COMDAT
; _this$ = ecx

; 143  : {

  00000	55		 push	 ebp
  00001	8b ec		 mov	 ebp, esp
  00003	83 ec 4c	 sub	 esp, 76			; 0000004cH
  00006	53		 push	 ebx
  00007	56		 push	 esi
  00008	57		 push	 edi
  00009	89 4d fc	 mov	 DWORD PTR _this$[ebp], ecx
  0000c	8b 45 fc	 mov	 eax, DWORD PTR _this$[ebp]
  0000f	c7 00 00 00 00
	00		 mov	 DWORD PTR [eax], OFFSET ??_7?$CWHArray@PAUIServerUserItem@@ABQAU1@@@6B@

; 144  : 	if (m_pData!=NULL)

  00015	8b 45 fc	 mov	 eax, DWORD PTR _this$[ebp]
  00018	83 78 04 00	 cmp	 DWORD PTR [eax+4], 0
  0001c	74 3e		 je	 SHORT $LN6@CWHArray

; 145  : 	{
; 146  : 		for (INT_PTR i=0;i<m_nElementCount;i++)	(m_pData+i)->~TYPE();

  0001e	c7 45 f8 00 00
	00 00		 mov	 DWORD PTR _i$2[ebp], 0
  00025	eb 09		 jmp	 SHORT $LN4@CWHArray
$LN2@CWHArray:
  00027	8b 45 f8	 mov	 eax, DWORD PTR _i$2[ebp]
  0002a	83 c0 01	 add	 eax, 1
  0002d	89 45 f8	 mov	 DWORD PTR _i$2[ebp], eax
$LN4@CWHArray:
  00030	8b 45 fc	 mov	 eax, DWORD PTR _this$[ebp]
  00033	8b 4d f8	 mov	 ecx, DWORD PTR _i$2[ebp]
  00036	3b 48 10	 cmp	 ecx, DWORD PTR [eax+16]
  00039	7d 02		 jge	 SHORT $LN3@CWHArray
  0003b	eb ea		 jmp	 SHORT $LN2@CWHArray
$LN3@CWHArray:

; 147  : 		delete [] (BYTE *)m_pData;

  0003d	8b 45 fc	 mov	 eax, DWORD PTR _this$[ebp]
  00040	8b 48 04	 mov	 ecx, DWORD PTR [eax+4]
  00043	89 4d b4	 mov	 DWORD PTR $T1[ebp], ecx
  00046	8b 55 b4	 mov	 edx, DWORD PTR $T1[ebp]
  00049	52		 push	 edx
  0004a	e8 00 00 00 00	 call	 ??_V@YAXPAX@Z		; operator delete[]
  0004f	83 c4 04	 add	 esp, 4

; 148  : 		m_pData=NULL;

  00052	8b 45 fc	 mov	 eax, DWORD PTR _this$[ebp]
  00055	c7 40 04 00 00
	00 00		 mov	 DWORD PTR [eax+4], 0
$LN6@CWHArray:

; 149  : 	}
; 150  : 
; 151  : 	return;
; 152  : }

  0005c	5f		 pop	 edi
  0005d	5e		 pop	 esi
  0005e	5b		 pop	 ebx
  0005f	8b e5		 mov	 esp, ebp
  00061	5d		 pop	 ebp
  00062	c3		 ret	 0
??1?$CWHArray@PAUIServerUserItem@@ABQAU1@@@UAE@XZ ENDP	; CWHArray<IServerUserItem *,IServerUserItem * const &>::~CWHArray<IServerUserItem *,IServerUserItem * const &>
_TEXT	ENDS
; Function compile flags: /Odtp /ZI
; File g:\网狐\happygamewh\服务端\系统模块\全局定义\array.h
;	COMDAT ??0?$CWHArray@PAUIServerUserItem@@ABQAU1@@@QAE@XZ
_TEXT	SEGMENT
_this$ = -4						; size = 4
??0?$CWHArray@PAUIServerUserItem@@ABQAU1@@@QAE@XZ PROC	; CWHArray<IServerUserItem *,IServerUserItem * const &>::CWHArray<IServerUserItem *,IServerUserItem * const &>, COMDAT
; _this$ = ecx

; 131  : {

  00000	55		 push	 ebp
  00001	8b ec		 mov	 ebp, esp
  00003	83 ec 44	 sub	 esp, 68			; 00000044H
  00006	53		 push	 ebx
  00007	56		 push	 esi
  00008	57		 push	 edi
  00009	89 4d fc	 mov	 DWORD PTR _this$[ebp], ecx
  0000c	8b 45 fc	 mov	 eax, DWORD PTR _this$[ebp]
  0000f	c7 00 00 00 00
	00		 mov	 DWORD PTR [eax], OFFSET ??_7?$CWHArray@PAUIServerUserItem@@ABQAU1@@@6B@

; 132  : 	m_pData=NULL;

  00015	8b 45 fc	 mov	 eax, DWORD PTR _this$[ebp]
  00018	c7 40 04 00 00
	00 00		 mov	 DWORD PTR [eax+4], 0

; 133  : 	m_nMaxCount=0;

  0001f	8b 45 fc	 mov	 eax, DWORD PTR _this$[ebp]
  00022	c7 40 08 00 00
	00 00		 mov	 DWORD PTR [eax+8], 0

; 134  : 	m_nGrowCount=0;

  00029	8b 45 fc	 mov	 eax, DWORD PTR _this$[ebp]
  0002c	c7 40 0c 00 00
	00 00		 mov	 DWORD PTR [eax+12], 0

; 135  : 	m_nElementCount=0;

  00033	8b 45 fc	 mov	 eax, DWORD PTR _this$[ebp]
  00036	c7 40 10 00 00
	00 00		 mov	 DWORD PTR [eax+16], 0

; 136  : 
; 137  : 	return;
; 138  : }

  0003d	8b 45 fc	 mov	 eax, DWORD PTR _this$[ebp]
  00040	5f		 pop	 edi
  00041	5e		 pop	 esi
  00042	5b		 pop	 ebx
  00043	8b e5		 mov	 esp, ebp
  00045	5d		 pop	 ebp
  00046	c3		 ret	 0
??0?$CWHArray@PAUIServerUserItem@@ABQAU1@@@QAE@XZ ENDP	; CWHArray<IServerUserItem *,IServerUserItem * const &>::CWHArray<IServerUserItem *,IServerUserItem * const &>
_TEXT	ENDS
; Function compile flags: /Odtp /ZI
;	COMDAT ??_G?$CMap@KKPAUIServerUserItem@@PAU1@@@UAEPAXI@Z
_TEXT	SEGMENT
_this$ = -4						; size = 4
___flags$ = 8						; size = 4
??_G?$CMap@KKPAUIServerUserItem@@PAU1@@@UAEPAXI@Z PROC	; CMap<unsigned long,unsigned long,IServerUserItem *,IServerUserItem *>::`scalar deleting destructor', COMDAT
; _this$ = ecx
  00000	55		 push	 ebp
  00001	8b ec		 mov	 ebp, esp
  00003	83 ec 44	 sub	 esp, 68			; 00000044H
  00006	53		 push	 ebx
  00007	56		 push	 esi
  00008	57		 push	 edi
  00009	89 4d fc	 mov	 DWORD PTR _this$[ebp], ecx
  0000c	8b 4d fc	 mov	 ecx, DWORD PTR _this$[ebp]
  0000f	e8 00 00 00 00	 call	 ??1?$CMap@KKPAUIServerUserItem@@PAU1@@@UAE@XZ ; CMap<unsigned long,unsigned long,IServerUserItem *,IServerUserItem *>::~CMap<unsigned long,unsigned long,IServerUserItem *,IServerUserItem *>
  00014	8b 45 08	 mov	 eax, DWORD PTR ___flags$[ebp]
  00017	83 e0 01	 and	 eax, 1
  0001a	74 21		 je	 SHORT $LN2@scalar
  0001c	8b 45 08	 mov	 eax, DWORD PTR ___flags$[ebp]
  0001f	83 e0 04	 and	 eax, 4
  00022	75 0b		 jne	 SHORT $LN3@scalar
  00024	8b 45 fc	 mov	 eax, DWORD PTR _this$[ebp]
  00027	50		 push	 eax
  00028	e8 00 00 00 00	 call	 ??3CObject@@SGXPAX@Z	; CObject::operator delete
  0002d	eb 0e		 jmp	 SHORT $LN2@scalar
$LN3@scalar:
  0002f	6a 1c		 push	 28			; 0000001cH
  00031	8b 45 fc	 mov	 eax, DWORD PTR _this$[ebp]
  00034	50		 push	 eax
  00035	e8 00 00 00 00	 call	 ?__global_delete@@YAXPAXI@Z ; __global_delete
  0003a	83 c4 08	 add	 esp, 8
$LN2@scalar:
  0003d	8b 45 fc	 mov	 eax, DWORD PTR _this$[ebp]
  00040	5f		 pop	 edi
  00041	5e		 pop	 esi
  00042	5b		 pop	 ebx
  00043	8b e5		 mov	 esp, ebp
  00045	5d		 pop	 ebp
  00046	c2 04 00	 ret	 4
??_G?$CMap@KKPAUIServerUserItem@@PAU1@@@UAEPAXI@Z ENDP	; CMap<unsigned long,unsigned long,IServerUserItem *,IServerUserItem *>::`scalar deleting destructor'
_TEXT	ENDS
; Function compile flags: /Odtp /ZI
; File c:\program files (x86)\microsoft visual studio\2017\community\vc\tools\msvc\14.16.27023\atlmfc\include\afxtempl.h
;	COMDAT ?AssertValid@?$CMap@KKPAUIServerUserItem@@PAU1@@@UBEXXZ
_TEXT	SEGMENT
_this$ = -4						; size = 4
?AssertValid@?$CMap@KKPAUIServerUserItem@@PAU1@@@UBEXXZ PROC ; CMap<unsigned long,unsigned long,IServerUserItem *,IServerUserItem *>::AssertValid, COMDAT
; _this$ = ecx

; 1820 : {

  00000	55		 push	 ebp
  00001	8b ec		 mov	 ebp, esp
  00003	83 ec 44	 sub	 esp, 68			; 00000044H
  00006	53		 push	 ebx
  00007	56		 push	 esi
  00008	57		 push	 edi
  00009	89 4d fc	 mov	 DWORD PTR _this$[ebp], ecx

; 1821 : 	CObject::AssertValid();

  0000c	8b 4d fc	 mov	 ecx, DWORD PTR _this$[ebp]
  0000f	e8 00 00 00 00	 call	 ?AssertValid@CObject@@UBEXXZ ; CObject::AssertValid

; 1822 : 
; 1823 : 	ASSERT(m_nHashTableSize > 0);

  00014	8b 45 fc	 mov	 eax, DWORD PTR _this$[ebp]
  00017	83 78 08 00	 cmp	 DWORD PTR [eax+8], 0
  0001b	77 14		 ja	 SHORT $LN3@AssertVali
  0001d	68 1f 07 00 00	 push	 1823			; 0000071fH
  00022	68 00 00 00 00	 push	 OFFSET ??_C@_0HC@HBCNBCLF@c?3?2program?5files?5?$CIx86?$CJ?2microsof@
  00027	e8 00 00 00 00	 call	 ?AfxAssertFailedLine@@YGHPBDH@Z ; AfxAssertFailedLine
  0002c	85 c0		 test	 eax, eax
  0002e	74 01		 je	 SHORT $LN3@AssertVali
  00030	cc		 int	 3
$LN3@AssertVali:

; 1824 : 	ASSERT(m_nCount == 0 || m_pHashTable != NULL);

  00031	8b 45 fc	 mov	 eax, DWORD PTR _this$[ebp]
  00034	83 78 0c 00	 cmp	 DWORD PTR [eax+12], 0
  00038	74 1d		 je	 SHORT $LN1@AssertVali
  0003a	8b 4d fc	 mov	 ecx, DWORD PTR _this$[ebp]
  0003d	83 79 04 00	 cmp	 DWORD PTR [ecx+4], 0
  00041	75 14		 jne	 SHORT $LN1@AssertVali
  00043	68 20 07 00 00	 push	 1824			; 00000720H
  00048	68 00 00 00 00	 push	 OFFSET ??_C@_0HC@HBCNBCLF@c?3?2program?5files?5?$CIx86?$CJ?2microsof@
  0004d	e8 00 00 00 00	 call	 ?AfxAssertFailedLine@@YGHPBDH@Z ; AfxAssertFailedLine
  00052	85 c0		 test	 eax, eax
  00054	74 01		 je	 SHORT $LN1@AssertVali
  00056	cc		 int	 3
$LN1@AssertVali:

; 1825 : 		// non-empty map should have hash table
; 1826 : }

  00057	5f		 pop	 edi
  00058	5e		 pop	 esi
  00059	5b		 pop	 ebx
  0005a	8b e5		 mov	 esp, ebp
  0005c	5d		 pop	 ebp
  0005d	c3		 ret	 0
?AssertValid@?$CMap@KKPAUIServerUserItem@@PAU1@@@UBEXXZ ENDP ; CMap<unsigned long,unsigned long,IServerUserItem *,IServerUserItem *>::AssertValid
_TEXT	ENDS
; Function compile flags: /Odtp /ZI
; File c:\program files (x86)\microsoft visual studio\2017\community\vc\tools\msvc\14.16.27023\atlmfc\include\afxtempl.h
;	COMDAT ?Dump@?$CMap@KKPAUIServerUserItem@@PAU1@@@UBEXAAVCDumpContext@@@Z
_TEXT	SEGMENT
_pos$1 = -16						; size = 4
_val$2 = -12						; size = 4
_key$3 = -8						; size = 4
_this$ = -4						; size = 4
_dc$ = 8						; size = 4
?Dump@?$CMap@KKPAUIServerUserItem@@PAU1@@@UBEXAAVCDumpContext@@@Z PROC ; CMap<unsigned long,unsigned long,IServerUserItem *,IServerUserItem *>::Dump, COMDAT
; _this$ = ecx

; 1794 : {

  00000	55		 push	 ebp
  00001	8b ec		 mov	 ebp, esp
  00003	83 ec 50	 sub	 esp, 80			; 00000050H
  00006	53		 push	 ebx
  00007	56		 push	 esi
  00008	57		 push	 edi
  00009	89 4d fc	 mov	 DWORD PTR _this$[ebp], ecx

; 1795 : 	CObject::Dump(dc);

  0000c	8b 45 08	 mov	 eax, DWORD PTR _dc$[ebp]
  0000f	50		 push	 eax
  00010	8b 4d fc	 mov	 ecx, DWORD PTR _this$[ebp]
  00013	e8 00 00 00 00	 call	 ?Dump@CObject@@UBEXAAVCDumpContext@@@Z ; CObject::Dump

; 1796 : 
; 1797 : 	dc << "with " << m_nCount << " elements";

  00018	68 00 00 00 00	 push	 OFFSET ??_C@_09HCLNAIDE@?5elements@
  0001d	8b 45 fc	 mov	 eax, DWORD PTR _this$[ebp]
  00020	8b 48 0c	 mov	 ecx, DWORD PTR [eax+12]
  00023	51		 push	 ecx
  00024	68 00 00 00 00	 push	 OFFSET ??_C@_05PLCFPPOI@with?5@
  00029	8b 4d 08	 mov	 ecx, DWORD PTR _dc$[ebp]
  0002c	e8 00 00 00 00	 call	 ??6CDumpContext@@QAEAAV0@PBD@Z ; CDumpContext::operator<<
  00031	8b c8		 mov	 ecx, eax
  00033	e8 00 00 00 00	 call	 ??6CDumpContext@@QAEAAV0@H@Z ; CDumpContext::operator<<
  00038	8b c8		 mov	 ecx, eax
  0003a	e8 00 00 00 00	 call	 ??6CDumpContext@@QAEAAV0@PBD@Z ; CDumpContext::operator<<

; 1798 : 	if (dc.GetDepth() > 0)

  0003f	8b 4d 08	 mov	 ecx, DWORD PTR _dc$[ebp]
  00042	e8 00 00 00 00	 call	 ?GetDepth@CDumpContext@@QBEHXZ ; CDumpContext::GetDepth
  00047	85 c0		 test	 eax, eax
  00049	7e 71		 jle	 SHORT $LN4@Dump

; 1799 : 	{
; 1800 : 		// Dump in format "[key] -> value"
; 1801 : 		KEY key[1];
; 1802 : 		VALUE val[1];
; 1803 : 
; 1804 : 		POSITION pos = GetStartPosition();

  0004b	8b 4d fc	 mov	 ecx, DWORD PTR _this$[ebp]
  0004e	e8 00 00 00 00	 call	 ?GetStartPosition@?$CMap@KKPAUIServerUserItem@@PAU1@@@QBEPAU__POSITION@@XZ ; CMap<unsigned long,unsigned long,IServerUserItem *,IServerUserItem *>::GetStartPosition
  00053	89 45 f0	 mov	 DWORD PTR _pos$1[ebp], eax
$LN2@Dump:

; 1805 : 		while (pos != NULL)

  00056	83 7d f0 00	 cmp	 DWORD PTR _pos$1[ebp], 0
  0005a	74 60		 je	 SHORT $LN4@Dump

; 1806 : 		{
; 1807 : 			GetNextAssoc(pos, key[0], val[0]);

  0005c	b8 04 00 00 00	 mov	 eax, 4
  00061	6b c8 00	 imul	 ecx, eax, 0
  00064	8d 54 0d f4	 lea	 edx, DWORD PTR _val$2[ebp+ecx]
  00068	52		 push	 edx
  00069	b8 04 00 00 00	 mov	 eax, 4
  0006e	6b c8 00	 imul	 ecx, eax, 0
  00071	8d 54 0d f8	 lea	 edx, DWORD PTR _key$3[ebp+ecx]
  00075	52		 push	 edx
  00076	8d 45 f0	 lea	 eax, DWORD PTR _pos$1[ebp]
  00079	50		 push	 eax
  0007a	8b 4d fc	 mov	 ecx, DWORD PTR _this$[ebp]
  0007d	e8 00 00 00 00	 call	 ?GetNextAssoc@?$CMap@KKPAUIServerUserItem@@PAU1@@@QBEXAAPAU__POSITION@@AAKAAPAUIServerUserItem@@@Z ; CMap<unsigned long,unsigned long,IServerUserItem *,IServerUserItem *>::GetNextAssoc

; 1808 : 			dc << "\n\t[";

  00082	68 00 00 00 00	 push	 OFFSET ??_C@_03OHJIHPJH@?6?7?$FL@
  00087	8b 4d 08	 mov	 ecx, DWORD PTR _dc$[ebp]
  0008a	e8 00 00 00 00	 call	 ??6CDumpContext@@QAEAAV0@PBD@Z ; CDumpContext::operator<<

; 1809 : 			DumpElements<KEY>(dc, key, 1);

  0008f	6a 01		 push	 1
  00091	8d 45 f8	 lea	 eax, DWORD PTR _key$3[ebp]
  00094	50		 push	 eax
  00095	8b 4d 08	 mov	 ecx, DWORD PTR _dc$[ebp]
  00098	51		 push	 ecx
  00099	e8 00 00 00 00	 call	 ??$DumpElements@K@@YGXAAVCDumpContext@@PBKH@Z ; DumpElements<unsigned long>

; 1810 : 			dc << "] = ";

  0009e	68 00 00 00 00	 push	 OFFSET ??_C@_04OAFLPOMH@?$FN?5?$DN?5@
  000a3	8b 4d 08	 mov	 ecx, DWORD PTR _dc$[ebp]
  000a6	e8 00 00 00 00	 call	 ??6CDumpContext@@QAEAAV0@PBD@Z ; CDumpContext::operator<<

; 1811 : 			DumpElements<VALUE>(dc, val, 1);

  000ab	6a 01		 push	 1
  000ad	8d 45 f4	 lea	 eax, DWORD PTR _val$2[ebp]
  000b0	50		 push	 eax
  000b1	8b 4d 08	 mov	 ecx, DWORD PTR _dc$[ebp]
  000b4	51		 push	 ecx
  000b5	e8 00 00 00 00	 call	 ??$DumpElements@PAUIServerUserItem@@@@YGXAAVCDumpContext@@PBQAUIServerUserItem@@H@Z ; DumpElements<IServerUserItem *>

; 1812 : 		}

  000ba	eb 9a		 jmp	 SHORT $LN2@Dump
$LN4@Dump:

; 1813 : 	}
; 1814 : 
; 1815 : 	dc << "\n";

  000bc	68 00 00 00 00	 push	 OFFSET ??_C@_01EEMJAFIK@?6@
  000c1	8b 4d 08	 mov	 ecx, DWORD PTR _dc$[ebp]
  000c4	e8 00 00 00 00	 call	 ??6CDumpContext@@QAEAAV0@PBD@Z ; CDumpContext::operator<<

; 1816 : }

  000c9	5f		 pop	 edi
  000ca	5e		 pop	 esi
  000cb	5b		 pop	 ebx
  000cc	8b e5		 mov	 esp, ebp
  000ce	5d		 pop	 ebp
  000cf	c2 04 00	 ret	 4
?Dump@?$CMap@KKPAUIServerUserItem@@PAU1@@@UBEXAAVCDumpContext@@@Z ENDP ; CMap<unsigned long,unsigned long,IServerUserItem *,IServerUserItem *>::Dump
_TEXT	ENDS
; Function compile flags: /Odtp /ZI
; File c:\program files (x86)\microsoft visual studio\2017\community\vc\tools\msvc\14.16.27023\atlmfc\include\afxtempl.h
;	COMDAT ?Serialize@?$CMap@KKPAUIServerUserItem@@PAU1@@@UAEXAAVCArchive@@@Z
_TEXT	SEGMENT
tv154 = -100						; size = 4
_newValue$1 = -32					; size = 4
_newKey$2 = -28						; size = 4
_nNewCount$3 = -24					; size = 4
_pValue$4 = -20						; size = 4
_pKey$5 = -16						; size = 4
_pAssoc$6 = -12						; size = 4
_nHash$7 = -8						; size = 4
_this$ = -4						; size = 4
_ar$ = 8						; size = 4
?Serialize@?$CMap@KKPAUIServerUserItem@@PAU1@@@UAEXAAVCArchive@@@Z PROC ; CMap<unsigned long,unsigned long,IServerUserItem *,IServerUserItem *>::Serialize, COMDAT
; _this$ = ecx

; 1743 : {

  00000	55		 push	 ebp
  00001	8b ec		 mov	 ebp, esp
  00003	83 ec 64	 sub	 esp, 100		; 00000064H
  00006	53		 push	 ebx
  00007	56		 push	 esi
  00008	57		 push	 edi
  00009	89 4d fc	 mov	 DWORD PTR _this$[ebp], ecx

; 1744 : 	ASSERT_VALID(this);

  0000c	68 d0 06 00 00	 push	 1744			; 000006d0H
  00011	68 00 00 00 00	 push	 OFFSET ??_C@_0HC@HBCNBCLF@c?3?2program?5files?5?$CIx86?$CJ?2microsof@
  00016	8b 45 fc	 mov	 eax, DWORD PTR _this$[ebp]
  00019	50		 push	 eax
  0001a	e8 00 00 00 00	 call	 ?AfxAssertValidObject@@YGXPBVCObject@@PBDH@Z ; AfxAssertValidObject

; 1745 : 
; 1746 : 	CObject::Serialize(ar);

  0001f	8b 45 08	 mov	 eax, DWORD PTR _ar$[ebp]
  00022	50		 push	 eax
  00023	8b 4d fc	 mov	 ecx, DWORD PTR _this$[ebp]
  00026	e8 00 00 00 00	 call	 ?Serialize@CObject@@UAEXAAVCArchive@@@Z ; CObject::Serialize

; 1747 : 
; 1748 : 	if (ar.IsStoring())

  0002b	8b 4d 08	 mov	 ecx, DWORD PTR _ar$[ebp]
  0002e	e8 00 00 00 00	 call	 ?IsStoring@CArchive@@QBEHXZ ; CArchive::IsStoring
  00033	85 c0		 test	 eax, eax
  00035	0f 84 b3 00 00
	00		 je	 $LN10@Serialize

; 1749 : 	{
; 1750 : 		ar.WriteCount(m_nCount);

  0003b	8b 45 fc	 mov	 eax, DWORD PTR _this$[ebp]
  0003e	8b 48 0c	 mov	 ecx, DWORD PTR [eax+12]
  00041	51		 push	 ecx
  00042	8b 4d 08	 mov	 ecx, DWORD PTR _ar$[ebp]
  00045	e8 00 00 00 00	 call	 ?WriteCount@CArchive@@QAEXK@Z ; CArchive::WriteCount

; 1751 : 		if (m_nCount == 0)

  0004a	8b 45 fc	 mov	 eax, DWORD PTR _this$[ebp]
  0004d	83 78 0c 00	 cmp	 DWORD PTR [eax+12], 0
  00051	75 05		 jne	 SHORT $LN12@Serialize

; 1752 : 			return;  // nothing more to do

  00053	e9 f8 00 00 00	 jmp	 $LN1@Serialize
$LN12@Serialize:

; 1753 : 
; 1754 : 		ASSERT(m_pHashTable != NULL);

  00058	8b 45 fc	 mov	 eax, DWORD PTR _this$[ebp]
  0005b	83 78 04 00	 cmp	 DWORD PTR [eax+4], 0
  0005f	75 14		 jne	 SHORT $LN15@Serialize
  00061	68 da 06 00 00	 push	 1754			; 000006daH
  00066	68 00 00 00 00	 push	 OFFSET ??_C@_0HC@HBCNBCLF@c?3?2program?5files?5?$CIx86?$CJ?2microsof@
  0006b	e8 00 00 00 00	 call	 ?AfxAssertFailedLine@@YGHPBDH@Z ; AfxAssertFailedLine
  00070	85 c0		 test	 eax, eax
  00072	74 01		 je	 SHORT $LN15@Serialize
  00074	cc		 int	 3
$LN15@Serialize:

; 1755 : 		if (m_pHashTable != NULL)

  00075	8b 45 fc	 mov	 eax, DWORD PTR _this$[ebp]
  00078	83 78 04 00	 cmp	 DWORD PTR [eax+4], 0
  0007c	74 6e		 je	 SHORT $LN13@Serialize

; 1756 : 		{
; 1757 : 			for (UINT nHash = 0; nHash < m_nHashTableSize; nHash++)

  0007e	c7 45 f8 00 00
	00 00		 mov	 DWORD PTR _nHash$7[ebp], 0
  00085	eb 09		 jmp	 SHORT $LN4@Serialize
$LN2@Serialize:
  00087	8b 45 f8	 mov	 eax, DWORD PTR _nHash$7[ebp]
  0008a	83 c0 01	 add	 eax, 1
  0008d	89 45 f8	 mov	 DWORD PTR _nHash$7[ebp], eax
$LN4@Serialize:
  00090	8b 45 fc	 mov	 eax, DWORD PTR _this$[ebp]
  00093	8b 4d f8	 mov	 ecx, DWORD PTR _nHash$7[ebp]
  00096	3b 48 08	 cmp	 ecx, DWORD PTR [eax+8]
  00099	73 51		 jae	 SHORT $LN13@Serialize

; 1758 : 			{
; 1759 : 				CAssoc* pAssoc;
; 1760 : 				for (pAssoc = m_pHashTable[nHash]; pAssoc != NULL; pAssoc = pAssoc->pNext)

  0009b	8b 45 fc	 mov	 eax, DWORD PTR _this$[ebp]
  0009e	8b 48 04	 mov	 ecx, DWORD PTR [eax+4]
  000a1	8b 55 f8	 mov	 edx, DWORD PTR _nHash$7[ebp]
  000a4	8b 04 91	 mov	 eax, DWORD PTR [ecx+edx*4]
  000a7	89 45 f4	 mov	 DWORD PTR _pAssoc$6[ebp], eax
  000aa	eb 09		 jmp	 SHORT $LN7@Serialize
$LN5@Serialize:
  000ac	8b 45 f4	 mov	 eax, DWORD PTR _pAssoc$6[ebp]
  000af	8b 48 08	 mov	 ecx, DWORD PTR [eax+8]
  000b2	89 4d f4	 mov	 DWORD PTR _pAssoc$6[ebp], ecx
$LN7@Serialize:
  000b5	83 7d f4 00	 cmp	 DWORD PTR _pAssoc$6[ebp], 0
  000b9	74 2f		 je	 SHORT $LN6@Serialize

; 1761 : 				{
; 1762 : 					KEY* pKey;
; 1763 : 					VALUE* pValue;
; 1764 : 					/*
; 1765 : 					* in some cases the & operator might be overloaded, and we cannot use it to
; 1766 : 					* obtain the address of a given object.  We then use the following trick to
; 1767 : 					* get the address
; 1768 : 					*/
; 1769 : 					pKey = reinterpret_cast< KEY* >( &reinterpret_cast< int& >( const_cast< KEY& > ( static_cast< const KEY& >( pAssoc->key ) ) ) );

  000bb	8b 45 f4	 mov	 eax, DWORD PTR _pAssoc$6[ebp]
  000be	89 45 f0	 mov	 DWORD PTR _pKey$5[ebp], eax

; 1770 : 					pValue = reinterpret_cast< VALUE* >( &reinterpret_cast< int& >( static_cast< VALUE& >( pAssoc->value ) ) );

  000c1	8b 45 f4	 mov	 eax, DWORD PTR _pAssoc$6[ebp]
  000c4	83 c0 04	 add	 eax, 4
  000c7	89 45 ec	 mov	 DWORD PTR _pValue$4[ebp], eax

; 1771 : 					SerializeElements<KEY>(ar, pKey, 1);

  000ca	6a 01		 push	 1
  000cc	8b 45 f0	 mov	 eax, DWORD PTR _pKey$5[ebp]
  000cf	50		 push	 eax
  000d0	8b 4d 08	 mov	 ecx, DWORD PTR _ar$[ebp]
  000d3	51		 push	 ecx
  000d4	e8 00 00 00 00	 call	 ??$SerializeElements@K@@YGXAAVCArchive@@PAKH@Z ; SerializeElements<unsigned long>

; 1772 : 					SerializeElements<VALUE>(ar, pValue, 1);

  000d9	6a 01		 push	 1
  000db	8b 45 ec	 mov	 eax, DWORD PTR _pValue$4[ebp]
  000de	50		 push	 eax
  000df	8b 4d 08	 mov	 ecx, DWORD PTR _ar$[ebp]
  000e2	51		 push	 ecx
  000e3	e8 00 00 00 00	 call	 ??$SerializeElements@PAUIServerUserItem@@@@YGXAAVCArchive@@PAPAUIServerUserItem@@H@Z ; SerializeElements<IServerUserItem *>

; 1773 : 				}

  000e8	eb c2		 jmp	 SHORT $LN5@Serialize
$LN6@Serialize:

; 1774 : 			}

  000ea	eb 9b		 jmp	 SHORT $LN2@Serialize
$LN13@Serialize:

; 1775 : 		}
; 1776 : 	}
; 1777 : 	else

  000ec	eb 62		 jmp	 SHORT $LN1@Serialize
$LN10@Serialize:

; 1778 : 	{
; 1779 : 		DWORD_PTR nNewCount = ar.ReadCount();

  000ee	8b 4d 08	 mov	 ecx, DWORD PTR _ar$[ebp]
  000f1	e8 00 00 00 00	 call	 ?ReadCount@CArchive@@QAEKXZ ; CArchive::ReadCount
  000f6	89 45 e8	 mov	 DWORD PTR _nNewCount$3[ebp], eax
$LN8@Serialize:

; 1780 : 		while (nNewCount--)

  000f9	8b 45 e8	 mov	 eax, DWORD PTR _nNewCount$3[ebp]
  000fc	89 45 9c	 mov	 DWORD PTR tv154[ebp], eax
  000ff	8b 4d e8	 mov	 ecx, DWORD PTR _nNewCount$3[ebp]
  00102	83 e9 01	 sub	 ecx, 1
  00105	89 4d e8	 mov	 DWORD PTR _nNewCount$3[ebp], ecx
  00108	83 7d 9c 00	 cmp	 DWORD PTR tv154[ebp], 0
  0010c	74 42		 je	 SHORT $LN1@Serialize

; 1781 : 		{
; 1782 : 			KEY newKey[1];
; 1783 : 			VALUE newValue[1];
; 1784 : 			SerializeElements<KEY>(ar, newKey, 1);

  0010e	6a 01		 push	 1
  00110	8d 45 e4	 lea	 eax, DWORD PTR _newKey$2[ebp]
  00113	50		 push	 eax
  00114	8b 4d 08	 mov	 ecx, DWORD PTR _ar$[ebp]
  00117	51		 push	 ecx
  00118	e8 00 00 00 00	 call	 ??$SerializeElements@K@@YGXAAVCArchive@@PAKH@Z ; SerializeElements<unsigned long>

; 1785 : 			SerializeElements<VALUE>(ar, newValue, 1);

  0011d	6a 01		 push	 1
  0011f	8d 45 e0	 lea	 eax, DWORD PTR _newValue$1[ebp]
  00122	50		 push	 eax
  00123	8b 4d 08	 mov	 ecx, DWORD PTR _ar$[ebp]
  00126	51		 push	 ecx
  00127	e8 00 00 00 00	 call	 ??$SerializeElements@PAUIServerUserItem@@@@YGXAAVCArchive@@PAPAUIServerUserItem@@H@Z ; SerializeElements<IServerUserItem *>

; 1786 : 			SetAt(newKey[0], newValue[0]);

  0012c	b8 04 00 00 00	 mov	 eax, 4
  00131	6b c8 00	 imul	 ecx, eax, 0
  00134	8b 54 0d e0	 mov	 edx, DWORD PTR _newValue$1[ebp+ecx]
  00138	52		 push	 edx
  00139	b8 04 00 00 00	 mov	 eax, 4
  0013e	6b c8 00	 imul	 ecx, eax, 0
  00141	8b 54 0d e4	 mov	 edx, DWORD PTR _newKey$2[ebp+ecx]
  00145	52		 push	 edx
  00146	8b 4d fc	 mov	 ecx, DWORD PTR _this$[ebp]
  00149	e8 00 00 00 00	 call	 ?SetAt@?$CMap@KKPAUIServerUserItem@@PAU1@@@QAEXKPAUIServerUserItem@@@Z ; CMap<unsigned long,unsigned long,IServerUserItem *,IServerUserItem *>::SetAt

; 1787 : 		}

  0014e	eb a9		 jmp	 SHORT $LN8@Serialize
$LN1@Serialize:

; 1788 : 	}
; 1789 : }

  00150	5f		 pop	 edi
  00151	5e		 pop	 esi
  00152	5b		 pop	 ebx
  00153	8b e5		 mov	 esp, ebp
  00155	5d		 pop	 ebp
  00156	c2 04 00	 ret	 4
?Serialize@?$CMap@KKPAUIServerUserItem@@PAU1@@@UAEXAAVCArchive@@@Z ENDP ; CMap<unsigned long,unsigned long,IServerUserItem *,IServerUserItem *>::Serialize
_TEXT	ENDS
; Function compile flags: /Odtp /ZI
; File c:\program files (x86)\microsoft visual studio\2017\community\vc\tools\msvc\14.16.27023\atlmfc\include\afxtempl.h
;	COMDAT ??1?$CMap@KKPAUIServerUserItem@@PAU1@@@UAE@XZ
_TEXT	SEGMENT
_this$ = -16						; size = 4
__$EHRec$ = -12						; size = 12
??1?$CMap@KKPAUIServerUserItem@@PAU1@@@UAE@XZ PROC	; CMap<unsigned long,unsigned long,IServerUserItem *,IServerUserItem *>::~CMap<unsigned long,unsigned long,IServerUserItem *,IServerUserItem *>, COMDAT
; _this$ = ecx

; 1472 : {

  00000	55		 push	 ebp
  00001	8b ec		 mov	 ebp, esp
  00003	6a ff		 push	 -1
  00005	68 00 00 00 00	 push	 __ehhandler$??1?$CMap@KKPAUIServerUserItem@@PAU1@@@UAE@XZ
  0000a	64 a1 00 00 00
	00		 mov	 eax, DWORD PTR fs:0
  00010	50		 push	 eax
  00011	83 ec 44	 sub	 esp, 68			; 00000044H
  00014	53		 push	 ebx
  00015	56		 push	 esi
  00016	57		 push	 edi
  00017	a1 00 00 00 00	 mov	 eax, DWORD PTR ___security_cookie
  0001c	33 c5		 xor	 eax, ebp
  0001e	50		 push	 eax
  0001f	8d 45 f4	 lea	 eax, DWORD PTR __$EHRec$[ebp]
  00022	64 a3 00 00 00
	00		 mov	 DWORD PTR fs:0, eax
  00028	89 4d f0	 mov	 DWORD PTR _this$[ebp], ecx
  0002b	8b 45 f0	 mov	 eax, DWORD PTR _this$[ebp]
  0002e	c7 00 00 00 00
	00		 mov	 DWORD PTR [eax], OFFSET ??_7?$CMap@KKPAUIServerUserItem@@PAU1@@@6B@

; 1473 : 	RemoveAll();

  00034	8b 4d f0	 mov	 ecx, DWORD PTR _this$[ebp]
  00037	e8 00 00 00 00	 call	 ?RemoveAll@?$CMap@KKPAUIServerUserItem@@PAU1@@@QAEXXZ ; CMap<unsigned long,unsigned long,IServerUserItem *,IServerUserItem *>::RemoveAll

; 1474 : 	ASSERT(m_nCount == 0);

  0003c	8b 45 f0	 mov	 eax, DWORD PTR _this$[ebp]
  0003f	83 78 0c 00	 cmp	 DWORD PTR [eax+12], 0
  00043	74 14		 je	 SHORT $LN1@CMap
  00045	68 c2 05 00 00	 push	 1474			; 000005c2H
  0004a	68 00 00 00 00	 push	 OFFSET ??_C@_0HC@HBCNBCLF@c?3?2program?5files?5?$CIx86?$CJ?2microsof@
  0004f	e8 00 00 00 00	 call	 ?AfxAssertFailedLine@@YGHPBDH@Z ; AfxAssertFailedLine
  00054	85 c0		 test	 eax, eax
  00056	74 01		 je	 SHORT $LN1@CMap
  00058	cc		 int	 3
$LN1@CMap:

; 1475 : }

  00059	8b 4d f0	 mov	 ecx, DWORD PTR _this$[ebp]
  0005c	e8 00 00 00 00	 call	 ??1CObject@@UAE@XZ	; CObject::~CObject
  00061	8b 4d f4	 mov	 ecx, DWORD PTR __$EHRec$[ebp]
  00064	64 89 0d 00 00
	00 00		 mov	 DWORD PTR fs:0, ecx
  0006b	59		 pop	 ecx
  0006c	5f		 pop	 edi
  0006d	5e		 pop	 esi
  0006e	5b		 pop	 ebx
  0006f	8b e5		 mov	 esp, ebp
  00071	5d		 pop	 ebp
  00072	c3		 ret	 0
_TEXT	ENDS
;	COMDAT text$x
text$x	SEGMENT
__ehhandler$??1?$CMap@KKPAUIServerUserItem@@PAU1@@@UAE@XZ:
  00000	8b 54 24 08	 mov	 edx, DWORD PTR [esp+8]
  00004	8d 42 0c	 lea	 eax, DWORD PTR [edx+12]
  00007	8b 4a ac	 mov	 ecx, DWORD PTR [edx-84]
  0000a	33 c8		 xor	 ecx, eax
  0000c	e8 00 00 00 00	 call	 @__security_check_cookie@4
  00011	b8 00 00 00 00	 mov	 eax, OFFSET __ehfuncinfo$??1?$CMap@KKPAUIServerUserItem@@PAU1@@@UAE@XZ
  00016	e9 00 00 00 00	 jmp	 ___CxxFrameHandler3
text$x	ENDS
??1?$CMap@KKPAUIServerUserItem@@PAU1@@@UAE@XZ ENDP	; CMap<unsigned long,unsigned long,IServerUserItem *,IServerUserItem *>::~CMap<unsigned long,unsigned long,IServerUserItem *,IServerUserItem *>
; Function compile flags: /Odtp /ZI
; File c:\program files (x86)\microsoft visual studio\2017\community\vc\tools\msvc\14.16.27023\atlmfc\include\afxtempl.h
;	COMDAT ?GetAssocAt@?$CMap@KKPAUIServerUserItem@@PAU1@@@IBEPAVCAssoc@1@KAAI0@Z
_TEXT	SEGMENT
_pAssoc$ = -8						; size = 4
_this$ = -4						; size = 4
_key$ = 8						; size = 4
_nHashBucket$ = 12					; size = 4
_nHashValue$ = 16					; size = 4
?GetAssocAt@?$CMap@KKPAUIServerUserItem@@PAU1@@@IBEPAVCAssoc@1@KAAI0@Z PROC ; CMap<unsigned long,unsigned long,IServerUserItem *,IServerUserItem *>::GetAssocAt, COMDAT
; _this$ = ecx

; 1532 : {

  00000	55		 push	 ebp
  00001	8b ec		 mov	 ebp, esp
  00003	83 ec 48	 sub	 esp, 72			; 00000048H
  00006	53		 push	 ebx
  00007	56		 push	 esi
  00008	57		 push	 edi
  00009	89 4d fc	 mov	 DWORD PTR _this$[ebp], ecx

; 1533 : 	nHashValue = HashKey<ARG_KEY>(key);

  0000c	8b 45 08	 mov	 eax, DWORD PTR _key$[ebp]
  0000f	50		 push	 eax
  00010	e8 00 00 00 00	 call	 ??$HashKey@K@@YGIK@Z	; HashKey<unsigned long>
  00015	8b 4d 10	 mov	 ecx, DWORD PTR _nHashValue$[ebp]
  00018	89 01		 mov	 DWORD PTR [ecx], eax

; 1534 : 	nHashBucket = nHashValue % m_nHashTableSize;

  0001a	8b 45 10	 mov	 eax, DWORD PTR _nHashValue$[ebp]
  0001d	8b 4d fc	 mov	 ecx, DWORD PTR _this$[ebp]
  00020	8b 00		 mov	 eax, DWORD PTR [eax]
  00022	33 d2		 xor	 edx, edx
  00024	f7 71 08	 div	 DWORD PTR [ecx+8]
  00027	8b 45 0c	 mov	 eax, DWORD PTR _nHashBucket$[ebp]
  0002a	89 10		 mov	 DWORD PTR [eax], edx

; 1535 : 
; 1536 : 	if (m_pHashTable == NULL)

  0002c	8b 45 fc	 mov	 eax, DWORD PTR _this$[ebp]
  0002f	83 78 04 00	 cmp	 DWORD PTR [eax+4], 0
  00033	75 04		 jne	 SHORT $LN5@GetAssocAt

; 1537 : 		return NULL;

  00035	33 c0		 xor	 eax, eax
  00037	eb 49		 jmp	 SHORT $LN1@GetAssocAt
$LN5@GetAssocAt:

; 1538 : 
; 1539 : 	// see if it exists
; 1540 : 	CAssoc* pAssoc;
; 1541 : 	for (pAssoc = m_pHashTable[nHashBucket]; pAssoc != NULL; pAssoc = pAssoc->pNext)

  00039	8b 45 0c	 mov	 eax, DWORD PTR _nHashBucket$[ebp]
  0003c	8b 08		 mov	 ecx, DWORD PTR [eax]
  0003e	8b 55 fc	 mov	 edx, DWORD PTR _this$[ebp]
  00041	8b 42 04	 mov	 eax, DWORD PTR [edx+4]
  00044	8b 0c 88	 mov	 ecx, DWORD PTR [eax+ecx*4]
  00047	89 4d f8	 mov	 DWORD PTR _pAssoc$[ebp], ecx
  0004a	eb 09		 jmp	 SHORT $LN4@GetAssocAt
$LN2@GetAssocAt:
  0004c	8b 45 f8	 mov	 eax, DWORD PTR _pAssoc$[ebp]
  0004f	8b 48 08	 mov	 ecx, DWORD PTR [eax+8]
  00052	89 4d f8	 mov	 DWORD PTR _pAssoc$[ebp], ecx
$LN4@GetAssocAt:
  00055	83 7d f8 00	 cmp	 DWORD PTR _pAssoc$[ebp], 0
  00059	74 25		 je	 SHORT $LN3@GetAssocAt

; 1542 : 	{
; 1543 : 		if (pAssoc->nHashValue == nHashValue && CompareElements(&pAssoc->key, &key))

  0005b	8b 45 f8	 mov	 eax, DWORD PTR _pAssoc$[ebp]
  0005e	8b 4d 10	 mov	 ecx, DWORD PTR _nHashValue$[ebp]
  00061	8b 50 0c	 mov	 edx, DWORD PTR [eax+12]
  00064	3b 11		 cmp	 edx, DWORD PTR [ecx]
  00066	75 16		 jne	 SHORT $LN6@GetAssocAt
  00068	8d 45 08	 lea	 eax, DWORD PTR _key$[ebp]
  0006b	50		 push	 eax
  0006c	8b 4d f8	 mov	 ecx, DWORD PTR _pAssoc$[ebp]
  0006f	51		 push	 ecx
  00070	e8 00 00 00 00	 call	 ??$CompareElements@KK@@YGHPBK0@Z ; CompareElements<unsigned long,unsigned long>
  00075	85 c0		 test	 eax, eax
  00077	74 05		 je	 SHORT $LN6@GetAssocAt

; 1544 : 			return pAssoc;

  00079	8b 45 f8	 mov	 eax, DWORD PTR _pAssoc$[ebp]
  0007c	eb 04		 jmp	 SHORT $LN1@GetAssocAt
$LN6@GetAssocAt:

; 1545 : 	}

  0007e	eb cc		 jmp	 SHORT $LN2@GetAssocAt
$LN3@GetAssocAt:

; 1546 : 	return NULL;

  00080	33 c0		 xor	 eax, eax
$LN1@GetAssocAt:

; 1547 : }

  00082	5f		 pop	 edi
  00083	5e		 pop	 esi
  00084	5b		 pop	 ebx
  00085	8b e5		 mov	 esp, ebp
  00087	5d		 pop	 ebp
  00088	c2 0c 00	 ret	 12			; 0000000cH
?GetAssocAt@?$CMap@KKPAUIServerUserItem@@PAU1@@@IBEPAVCAssoc@1@KAAI0@Z ENDP ; CMap<unsigned long,unsigned long,IServerUserItem *,IServerUserItem *>::GetAssocAt
_TEXT	ENDS
; Function compile flags: /Odtp /ZI
; File c:\program files (x86)\microsoft visual studio\2017\community\vc\tools\msvc\14.16.27023\atlmfc\include\afxtempl.h
;	COMDAT ?FreeAssoc@?$CMap@KKPAUIServerUserItem@@PAU1@@@IAEXPAVCAssoc@1@@Z
_TEXT	SEGMENT
_this$ = -4						; size = 4
_pAssoc$ = 8						; size = 4
?FreeAssoc@?$CMap@KKPAUIServerUserItem@@PAU1@@@IAEXPAVCAssoc@1@@Z PROC ; CMap<unsigned long,unsigned long,IServerUserItem *,IServerUserItem *>::FreeAssoc, COMDAT
; _this$ = ecx

; 1516 : {

  00000	55		 push	 ebp
  00001	8b ec		 mov	 ebp, esp
  00003	83 ec 44	 sub	 esp, 68			; 00000044H
  00006	53		 push	 ebx
  00007	56		 push	 esi
  00008	57		 push	 edi
  00009	89 4d fc	 mov	 DWORD PTR _this$[ebp], ecx

; 1517 : 	pAssoc->CAssoc::~CAssoc();
; 1518 : 	pAssoc->pNext = m_pFreeList;

  0000c	8b 45 08	 mov	 eax, DWORD PTR _pAssoc$[ebp]
  0000f	8b 4d fc	 mov	 ecx, DWORD PTR _this$[ebp]
  00012	8b 51 10	 mov	 edx, DWORD PTR [ecx+16]
  00015	89 50 08	 mov	 DWORD PTR [eax+8], edx

; 1519 : 	m_pFreeList = pAssoc;

  00018	8b 45 fc	 mov	 eax, DWORD PTR _this$[ebp]
  0001b	8b 4d 08	 mov	 ecx, DWORD PTR _pAssoc$[ebp]
  0001e	89 48 10	 mov	 DWORD PTR [eax+16], ecx

; 1520 : 	m_nCount--;

  00021	8b 45 fc	 mov	 eax, DWORD PTR _this$[ebp]
  00024	8b 48 0c	 mov	 ecx, DWORD PTR [eax+12]
  00027	83 e9 01	 sub	 ecx, 1
  0002a	8b 55 fc	 mov	 edx, DWORD PTR _this$[ebp]
  0002d	89 4a 0c	 mov	 DWORD PTR [edx+12], ecx

; 1521 : 	ASSERT(m_nCount >= 0);  // make sure we don't underflow

  00030	8b 45 fc	 mov	 eax, DWORD PTR _this$[ebp]
  00033	83 78 0c 00	 cmp	 DWORD PTR [eax+12], 0
  00037	7d 14		 jge	 SHORT $LN4@FreeAssoc
  00039	68 f1 05 00 00	 push	 1521			; 000005f1H
  0003e	68 00 00 00 00	 push	 OFFSET ??_C@_0HC@HBCNBCLF@c?3?2program?5files?5?$CIx86?$CJ?2microsof@
  00043	e8 00 00 00 00	 call	 ?AfxAssertFailedLine@@YGHPBDH@Z ; AfxAssertFailedLine
  00048	85 c0		 test	 eax, eax
  0004a	74 01		 je	 SHORT $LN4@FreeAssoc
  0004c	cc		 int	 3
$LN4@FreeAssoc:

; 1522 : 
; 1523 : 	// if no more elements, cleanup completely
; 1524 : 	if (m_nCount == 0)

  0004d	8b 45 fc	 mov	 eax, DWORD PTR _this$[ebp]
  00050	83 78 0c 00	 cmp	 DWORD PTR [eax+12], 0
  00054	75 08		 jne	 SHORT $LN1@FreeAssoc

; 1525 : 		RemoveAll();

  00056	8b 4d fc	 mov	 ecx, DWORD PTR _this$[ebp]
  00059	e8 00 00 00 00	 call	 ?RemoveAll@?$CMap@KKPAUIServerUserItem@@PAU1@@@QAEXXZ ; CMap<unsigned long,unsigned long,IServerUserItem *,IServerUserItem *>::RemoveAll
$LN1@FreeAssoc:

; 1526 : }

  0005e	5f		 pop	 edi
  0005f	5e		 pop	 esi
  00060	5b		 pop	 ebx
  00061	8b e5		 mov	 esp, ebp
  00063	5d		 pop	 ebp
  00064	c2 04 00	 ret	 4
?FreeAssoc@?$CMap@KKPAUIServerUserItem@@PAU1@@@IAEXPAVCAssoc@1@@Z ENDP ; CMap<unsigned long,unsigned long,IServerUserItem *,IServerUserItem *>::FreeAssoc
_TEXT	ENDS
; Function compile flags: /Odtp /ZI
; File c:\program files (x86)\microsoft visual studio\2017\community\vc\tools\msvc\14.16.27023\atlmfc\include\afxtempl.h
;	COMDAT ?NewAssoc@?$CMap@KKPAUIServerUserItem@@PAU1@@@IAEPAVCAssoc@1@K@Z
_TEXT	SEGMENT
tv88 = -100						; size = 4
$T1 = -96						; size = 4
_pTemp$ = -28						; size = 4
_pAssoc$ = -24						; size = 4
___afx_condVal$2 = -20					; size = 4
_i$3 = -16						; size = 4
_pAssoc$4 = -12						; size = 4
_newBlock$5 = -8					; size = 4
_this$ = -4						; size = 4
_key$ = 8						; size = 4
?NewAssoc@?$CMap@KKPAUIServerUserItem@@PAU1@@@IAEPAVCAssoc@1@K@Z PROC ; CMap<unsigned long,unsigned long,IServerUserItem *,IServerUserItem *>::NewAssoc, COMDAT
; _this$ = ecx

; 1480 : {

  00000	55		 push	 ebp
  00001	8b ec		 mov	 ebp, esp
  00003	83 ec 64	 sub	 esp, 100		; 00000064H
  00006	53		 push	 ebx
  00007	56		 push	 esi
  00008	57		 push	 edi
  00009	89 4d fc	 mov	 DWORD PTR _this$[ebp], ecx

; 1481 : 	if (m_pFreeList == NULL)

  0000c	8b 45 fc	 mov	 eax, DWORD PTR _this$[ebp]
  0000f	83 78 10 00	 cmp	 DWORD PTR [eax+16], 0
  00013	75 72		 jne	 SHORT $LN7@NewAssoc

; 1482 : 	{
; 1483 : 		// add another block
; 1484 : 		CPlex* newBlock = CPlex::Create(m_pBlocks, m_nBlockSize, sizeof(CMap::CAssoc));

  00015	6a 10		 push	 16			; 00000010H
  00017	8b 45 fc	 mov	 eax, DWORD PTR _this$[ebp]
  0001a	8b 48 18	 mov	 ecx, DWORD PTR [eax+24]
  0001d	51		 push	 ecx
  0001e	8b 55 fc	 mov	 edx, DWORD PTR _this$[ebp]
  00021	83 c2 14	 add	 edx, 20			; 00000014H
  00024	52		 push	 edx
  00025	e8 00 00 00 00	 call	 ?Create@CPlex@@SGPAU1@AAPAU1@II@Z ; CPlex::Create
  0002a	89 45 f8	 mov	 DWORD PTR _newBlock$5[ebp], eax

; 1485 : 		// chain them into free list
; 1486 : 		CMap::CAssoc* pAssoc = (CMap::CAssoc*) newBlock->data();

  0002d	8b 4d f8	 mov	 ecx, DWORD PTR _newBlock$5[ebp]
  00030	e8 00 00 00 00	 call	 ?data@CPlex@@QAEPAXXZ	; CPlex::data
  00035	89 45 f4	 mov	 DWORD PTR _pAssoc$4[ebp], eax

; 1487 : 		// free in reverse order to make it easier to debug
; 1488 : 		pAssoc += m_nBlockSize - 1;

  00038	8b 45 fc	 mov	 eax, DWORD PTR _this$[ebp]
  0003b	8b 48 18	 mov	 ecx, DWORD PTR [eax+24]
  0003e	83 e9 01	 sub	 ecx, 1
  00041	c1 e1 04	 shl	 ecx, 4
  00044	03 4d f4	 add	 ecx, DWORD PTR _pAssoc$4[ebp]
  00047	89 4d f4	 mov	 DWORD PTR _pAssoc$4[ebp], ecx

; 1489 : 		for (INT_PTR i = m_nBlockSize-1; i >= 0; i--, pAssoc--)

  0004a	8b 45 fc	 mov	 eax, DWORD PTR _this$[ebp]
  0004d	8b 48 18	 mov	 ecx, DWORD PTR [eax+24]
  00050	83 e9 01	 sub	 ecx, 1
  00053	89 4d f0	 mov	 DWORD PTR _i$3[ebp], ecx
  00056	eb 12		 jmp	 SHORT $LN4@NewAssoc
$LN2@NewAssoc:
  00058	8b 45 f0	 mov	 eax, DWORD PTR _i$3[ebp]
  0005b	83 e8 01	 sub	 eax, 1
  0005e	89 45 f0	 mov	 DWORD PTR _i$3[ebp], eax
  00061	8b 4d f4	 mov	 ecx, DWORD PTR _pAssoc$4[ebp]
  00064	83 e9 10	 sub	 ecx, 16			; 00000010H
  00067	89 4d f4	 mov	 DWORD PTR _pAssoc$4[ebp], ecx
$LN4@NewAssoc:
  0006a	83 7d f0 00	 cmp	 DWORD PTR _i$3[ebp], 0
  0006e	7c 17		 jl	 SHORT $LN7@NewAssoc

; 1490 : 		{
; 1491 : 			pAssoc->pNext = m_pFreeList;

  00070	8b 45 f4	 mov	 eax, DWORD PTR _pAssoc$4[ebp]
  00073	8b 4d fc	 mov	 ecx, DWORD PTR _this$[ebp]
  00076	8b 51 10	 mov	 edx, DWORD PTR [ecx+16]
  00079	89 50 08	 mov	 DWORD PTR [eax+8], edx

; 1492 : 			m_pFreeList = pAssoc;

  0007c	8b 45 fc	 mov	 eax, DWORD PTR _this$[ebp]
  0007f	8b 4d f4	 mov	 ecx, DWORD PTR _pAssoc$4[ebp]
  00082	89 48 10	 mov	 DWORD PTR [eax+16], ecx

; 1493 : 		}

  00085	eb d1		 jmp	 SHORT $LN2@NewAssoc
$LN7@NewAssoc:

; 1494 : 	}
; 1495 : 	ENSURE(m_pFreeList != NULL);  // we must have something

  00087	8b 45 fc	 mov	 eax, DWORD PTR _this$[ebp]
  0008a	83 78 10 00	 cmp	 DWORD PTR [eax+16], 0
  0008e	74 09		 je	 SHORT $LN11@NewAssoc
  00090	c7 45 9c 01 00
	00 00		 mov	 DWORD PTR tv88[ebp], 1
  00097	eb 07		 jmp	 SHORT $LN12@NewAssoc
$LN11@NewAssoc:
  00099	c7 45 9c 00 00
	00 00		 mov	 DWORD PTR tv88[ebp], 0
$LN12@NewAssoc:
  000a0	8b 4d 9c	 mov	 ecx, DWORD PTR tv88[ebp]
  000a3	89 4d ec	 mov	 DWORD PTR ___afx_condVal$2[ebp], ecx
  000a6	83 7d ec 00	 cmp	 DWORD PTR ___afx_condVal$2[ebp], 0
  000aa	75 14		 jne	 SHORT $LN13@NewAssoc
  000ac	68 d7 05 00 00	 push	 1495			; 000005d7H
  000b1	68 00 00 00 00	 push	 OFFSET ??_C@_0HC@HBCNBCLF@c?3?2program?5files?5?$CIx86?$CJ?2microsof@
  000b6	e8 00 00 00 00	 call	 ?AfxAssertFailedLine@@YGHPBDH@Z ; AfxAssertFailedLine
  000bb	85 c0		 test	 eax, eax
  000bd	74 01		 je	 SHORT $LN13@NewAssoc
  000bf	cc		 int	 3
$LN13@NewAssoc:
  000c0	83 7d ec 00	 cmp	 DWORD PTR ___afx_condVal$2[ebp], 0
  000c4	75 05		 jne	 SHORT $LN5@NewAssoc
  000c6	e8 00 00 00 00	 call	 ?AfxThrowInvalidArgException@@YGXXZ ; AfxThrowInvalidArgException
$LN5@NewAssoc:
  000cb	33 c0		 xor	 eax, eax
  000cd	75 b8		 jne	 SHORT $LN7@NewAssoc

; 1496 : 
; 1497 : 	CMap::CAssoc* pAssoc = m_pFreeList;

  000cf	8b 45 fc	 mov	 eax, DWORD PTR _this$[ebp]
  000d2	8b 48 10	 mov	 ecx, DWORD PTR [eax+16]
  000d5	89 4d e8	 mov	 DWORD PTR _pAssoc$[ebp], ecx

; 1498 : 
; 1499 : 	// zero the memory
; 1500 : 	CMap::CAssoc* pTemp = pAssoc->pNext;

  000d8	8b 45 e8	 mov	 eax, DWORD PTR _pAssoc$[ebp]
  000db	8b 48 08	 mov	 ecx, DWORD PTR [eax+8]
  000de	89 4d e4	 mov	 DWORD PTR _pTemp$[ebp], ecx

; 1501 : 	memset( pAssoc, 0, sizeof(CMap::CAssoc) );

  000e1	6a 10		 push	 16			; 00000010H
  000e3	6a 00		 push	 0
  000e5	8b 45 e8	 mov	 eax, DWORD PTR _pAssoc$[ebp]
  000e8	50		 push	 eax
  000e9	e8 00 00 00 00	 call	 _memset
  000ee	83 c4 0c	 add	 esp, 12			; 0000000cH

; 1502 : 	pAssoc->pNext = pTemp;

  000f1	8b 45 e8	 mov	 eax, DWORD PTR _pAssoc$[ebp]
  000f4	8b 4d e4	 mov	 ecx, DWORD PTR _pTemp$[ebp]
  000f7	89 48 08	 mov	 DWORD PTR [eax+8], ecx

; 1503 : 
; 1504 : 	m_pFreeList = m_pFreeList->pNext;

  000fa	8b 45 fc	 mov	 eax, DWORD PTR _this$[ebp]
  000fd	8b 48 10	 mov	 ecx, DWORD PTR [eax+16]
  00100	8b 55 fc	 mov	 edx, DWORD PTR _this$[ebp]
  00103	8b 41 08	 mov	 eax, DWORD PTR [ecx+8]
  00106	89 42 10	 mov	 DWORD PTR [edx+16], eax

; 1505 : 	m_nCount++;

  00109	8b 45 fc	 mov	 eax, DWORD PTR _this$[ebp]
  0010c	8b 48 0c	 mov	 ecx, DWORD PTR [eax+12]
  0010f	83 c1 01	 add	 ecx, 1
  00112	8b 55 fc	 mov	 edx, DWORD PTR _this$[ebp]
  00115	89 4a 0c	 mov	 DWORD PTR [edx+12], ecx

; 1506 : 	ASSERT(m_nCount > 0);  // make sure we don't overflow

  00118	8b 45 fc	 mov	 eax, DWORD PTR _this$[ebp]
  0011b	83 78 0c 00	 cmp	 DWORD PTR [eax+12], 0
  0011f	7f 14		 jg	 SHORT $LN14@NewAssoc
  00121	68 e2 05 00 00	 push	 1506			; 000005e2H
  00126	68 00 00 00 00	 push	 OFFSET ??_C@_0HC@HBCNBCLF@c?3?2program?5files?5?$CIx86?$CJ?2microsof@
  0012b	e8 00 00 00 00	 call	 ?AfxAssertFailedLine@@YGHPBDH@Z ; AfxAssertFailedLine
  00130	85 c0		 test	 eax, eax
  00132	74 01		 je	 SHORT $LN14@NewAssoc
  00134	cc		 int	 3
$LN14@NewAssoc:

; 1507 : #pragma push_macro("new")
; 1508 : #undef new
; 1509 : 	::new(pAssoc) CMap::CAssoc(key);

  00135	8b 45 e8	 mov	 eax, DWORD PTR _pAssoc$[ebp]
  00138	50		 push	 eax
  00139	6a 10		 push	 16			; 00000010H
  0013b	e8 00 00 00 00	 call	 ??2@YAPAXIPAX@Z		; operator new
  00140	83 c4 08	 add	 esp, 8
  00143	89 45 a0	 mov	 DWORD PTR $T1[ebp], eax
  00146	8b 4d 08	 mov	 ecx, DWORD PTR _key$[ebp]
  00149	51		 push	 ecx
  0014a	8b 4d a0	 mov	 ecx, DWORD PTR $T1[ebp]
  0014d	e8 00 00 00 00	 call	 ??0CAssoc@?$CMap@KKPAUIServerUserItem@@PAU1@@@QAE@K@Z ; CMap<unsigned long,unsigned long,IServerUserItem *,IServerUserItem *>::CAssoc::CAssoc

; 1510 : #pragma pop_macro("new")
; 1511 : 	return pAssoc;

  00152	8b 45 e8	 mov	 eax, DWORD PTR _pAssoc$[ebp]
$LN10@NewAssoc:

; 1512 : }

  00155	5f		 pop	 edi
  00156	5e		 pop	 esi
  00157	5b		 pop	 ebx
  00158	8b e5		 mov	 esp, ebp
  0015a	5d		 pop	 ebp
  0015b	c2 04 00	 ret	 4
?NewAssoc@?$CMap@KKPAUIServerUserItem@@PAU1@@@IAEPAVCAssoc@1@K@Z ENDP ; CMap<unsigned long,unsigned long,IServerUserItem *,IServerUserItem *>::NewAssoc
_TEXT	ENDS
; Function compile flags: /Odtp /ZI
; File c:\program files (x86)\microsoft visual studio\2017\community\vc\tools\msvc\14.16.27023\atlmfc\include\afxtempl.h
;	COMDAT ?InitHashTable@?$CMap@KKPAUIServerUserItem@@PAU1@@@QAEXIH@Z
_TEXT	SEGMENT
tv137 = -84						; size = 4
$T1 = -80						; size = 4
$T2 = -76						; size = 4
___afx_condVal$3 = -8					; size = 4
_this$ = -4						; size = 4
_nHashSize$ = 8						; size = 4
_bAllocNow$ = 12					; size = 4
?InitHashTable@?$CMap@KKPAUIServerUserItem@@PAU1@@@QAEXIH@Z PROC ; CMap<unsigned long,unsigned long,IServerUserItem *,IServerUserItem *>::InitHashTable, COMDAT
; _this$ = ecx

; 1420 : {

  00000	55		 push	 ebp
  00001	8b ec		 mov	 ebp, esp
  00003	83 ec 54	 sub	 esp, 84			; 00000054H
  00006	53		 push	 ebx
  00007	56		 push	 esi
  00008	57		 push	 edi
  00009	89 4d fc	 mov	 DWORD PTR _this$[ebp], ecx

; 1421 : 	ASSERT_VALID(this);

  0000c	68 8d 05 00 00	 push	 1421			; 0000058dH
  00011	68 00 00 00 00	 push	 OFFSET ??_C@_0HC@HBCNBCLF@c?3?2program?5files?5?$CIx86?$CJ?2microsof@
  00016	8b 45 fc	 mov	 eax, DWORD PTR _this$[ebp]
  00019	50		 push	 eax
  0001a	e8 00 00 00 00	 call	 ?AfxAssertValidObject@@YGXPBVCObject@@PBDH@Z ; AfxAssertValidObject

; 1422 : 	ASSERT(m_nCount == 0);

  0001f	8b 45 fc	 mov	 eax, DWORD PTR _this$[ebp]
  00022	83 78 0c 00	 cmp	 DWORD PTR [eax+12], 0
  00026	74 14		 je	 SHORT $LN9@InitHashTa
  00028	68 8e 05 00 00	 push	 1422			; 0000058eH
  0002d	68 00 00 00 00	 push	 OFFSET ??_C@_0HC@HBCNBCLF@c?3?2program?5files?5?$CIx86?$CJ?2microsof@
  00032	e8 00 00 00 00	 call	 ?AfxAssertFailedLine@@YGHPBDH@Z ; AfxAssertFailedLine
  00037	85 c0		 test	 eax, eax
  00039	74 01		 je	 SHORT $LN9@InitHashTa
  0003b	cc		 int	 3
$LN9@InitHashTa:

; 1423 : 	ASSERT(nHashSize > 0);

  0003c	83 7d 08 00	 cmp	 DWORD PTR _nHashSize$[ebp], 0
  00040	77 14		 ja	 SHORT $LN10@InitHashTa
  00042	68 8f 05 00 00	 push	 1423			; 0000058fH
  00047	68 00 00 00 00	 push	 OFFSET ??_C@_0HC@HBCNBCLF@c?3?2program?5files?5?$CIx86?$CJ?2microsof@
  0004c	e8 00 00 00 00	 call	 ?AfxAssertFailedLine@@YGHPBDH@Z ; AfxAssertFailedLine
  00051	85 c0		 test	 eax, eax
  00053	74 01		 je	 SHORT $LN10@InitHashTa
  00055	cc		 int	 3
$LN10@InitHashTa:

; 1424 : 
; 1425 : 	if (m_pHashTable != NULL)

  00056	8b 45 fc	 mov	 eax, DWORD PTR _this$[ebp]
  00059	83 78 04 00	 cmp	 DWORD PTR [eax+4], 0
  0005d	74 1f		 je	 SHORT $LN5@InitHashTa

; 1426 : 	{
; 1427 : 		// free hash table
; 1428 : 		delete[] m_pHashTable;

  0005f	8b 45 fc	 mov	 eax, DWORD PTR _this$[ebp]
  00062	8b 48 04	 mov	 ecx, DWORD PTR [eax+4]
  00065	89 4d b4	 mov	 DWORD PTR $T2[ebp], ecx
  00068	8b 55 b4	 mov	 edx, DWORD PTR $T2[ebp]
  0006b	52		 push	 edx
  0006c	e8 00 00 00 00	 call	 ??_V@YAXPAX@Z		; operator delete[]
  00071	83 c4 04	 add	 esp, 4

; 1429 : 		m_pHashTable = NULL;

  00074	8b 45 fc	 mov	 eax, DWORD PTR _this$[ebp]
  00077	c7 40 04 00 00
	00 00		 mov	 DWORD PTR [eax+4], 0
$LN5@InitHashTa:

; 1430 : 	}
; 1431 : 
; 1432 : 	if (bAllocNow)

  0007e	83 7d 0c 00	 cmp	 DWORD PTR _bAllocNow$[ebp], 0
  00082	0f 84 92 00 00
	00		 je	 $LN6@InitHashTa

; 1433 : 	{
; 1434 : 		m_pHashTable = new CAssoc* [nHashSize];

  00088	68 9a 05 00 00	 push	 1434			; 0000059aH
  0008d	68 00 00 00 00	 push	 OFFSET ??_C@_0HC@HBCNBCLF@c?3?2program?5files?5?$CIx86?$CJ?2microsof@
  00092	33 c9		 xor	 ecx, ecx
  00094	8b 45 08	 mov	 eax, DWORD PTR _nHashSize$[ebp]
  00097	ba 04 00 00 00	 mov	 edx, 4
  0009c	f7 e2		 mul	 edx
  0009e	0f 90 c1	 seto	 cl
  000a1	f7 d9		 neg	 ecx
  000a3	0b c8		 or	 ecx, eax
  000a5	51		 push	 ecx
  000a6	e8 00 00 00 00	 call	 ??_U@YAPAXIPBDH@Z	; operator new[]
  000ab	83 c4 0c	 add	 esp, 12			; 0000000cH
  000ae	89 45 b0	 mov	 DWORD PTR $T1[ebp], eax
  000b1	8b 45 fc	 mov	 eax, DWORD PTR _this$[ebp]
  000b4	8b 4d b0	 mov	 ecx, DWORD PTR $T1[ebp]
  000b7	89 48 04	 mov	 DWORD PTR [eax+4], ecx
$LN4@InitHashTa:

; 1435 : 		ENSURE(m_pHashTable != NULL);

  000ba	8b 45 fc	 mov	 eax, DWORD PTR _this$[ebp]
  000bd	83 78 04 00	 cmp	 DWORD PTR [eax+4], 0
  000c1	74 09		 je	 SHORT $LN11@InitHashTa
  000c3	c7 45 ac 01 00
	00 00		 mov	 DWORD PTR tv137[ebp], 1
  000ca	eb 07		 jmp	 SHORT $LN12@InitHashTa
$LN11@InitHashTa:
  000cc	c7 45 ac 00 00
	00 00		 mov	 DWORD PTR tv137[ebp], 0
$LN12@InitHashTa:
  000d3	8b 4d ac	 mov	 ecx, DWORD PTR tv137[ebp]
  000d6	89 4d f8	 mov	 DWORD PTR ___afx_condVal$3[ebp], ecx
  000d9	83 7d f8 00	 cmp	 DWORD PTR ___afx_condVal$3[ebp], 0
  000dd	75 14		 jne	 SHORT $LN13@InitHashTa
  000df	68 9b 05 00 00	 push	 1435			; 0000059bH
  000e4	68 00 00 00 00	 push	 OFFSET ??_C@_0HC@HBCNBCLF@c?3?2program?5files?5?$CIx86?$CJ?2microsof@
  000e9	e8 00 00 00 00	 call	 ?AfxAssertFailedLine@@YGHPBDH@Z ; AfxAssertFailedLine
  000ee	85 c0		 test	 eax, eax
  000f0	74 01		 je	 SHORT $LN13@InitHashTa
  000f2	cc		 int	 3
$LN13@InitHashTa:
  000f3	83 7d f8 00	 cmp	 DWORD PTR ___afx_condVal$3[ebp], 0
  000f7	75 05		 jne	 SHORT $LN2@InitHashTa
  000f9	e8 00 00 00 00	 call	 ?AfxThrowInvalidArgException@@YGXXZ ; AfxThrowInvalidArgException
$LN2@InitHashTa:
  000fe	33 c0		 xor	 eax, eax
  00100	75 b8		 jne	 SHORT $LN4@InitHashTa

; 1436 : 		memset(m_pHashTable, 0, sizeof(CAssoc*) * nHashSize);

  00102	8b 45 08	 mov	 eax, DWORD PTR _nHashSize$[ebp]
  00105	c1 e0 02	 shl	 eax, 2
  00108	50		 push	 eax
  00109	6a 00		 push	 0
  0010b	8b 4d fc	 mov	 ecx, DWORD PTR _this$[ebp]
  0010e	8b 51 04	 mov	 edx, DWORD PTR [ecx+4]
  00111	52		 push	 edx
  00112	e8 00 00 00 00	 call	 _memset
  00117	83 c4 0c	 add	 esp, 12			; 0000000cH
$LN6@InitHashTa:

; 1437 : 	}
; 1438 : 	m_nHashTableSize = nHashSize;

  0011a	8b 45 fc	 mov	 eax, DWORD PTR _this$[ebp]
  0011d	8b 4d 08	 mov	 ecx, DWORD PTR _nHashSize$[ebp]
  00120	89 48 08	 mov	 DWORD PTR [eax+8], ecx
$LN8@InitHashTa:

; 1439 : }

  00123	5f		 pop	 edi
  00124	5e		 pop	 esi
  00125	5b		 pop	 ebx
  00126	8b e5		 mov	 esp, ebp
  00128	5d		 pop	 ebp
  00129	c2 08 00	 ret	 8
?InitHashTable@?$CMap@KKPAUIServerUserItem@@PAU1@@@QAEXIH@Z ENDP ; CMap<unsigned long,unsigned long,IServerUserItem *,IServerUserItem *>::InitHashTable
_TEXT	ENDS
; Function compile flags: /Odtp /ZI
; File c:\program files (x86)\microsoft visual studio\2017\community\vc\tools\msvc\14.16.27023\atlmfc\include\afxtempl.h
;	COMDAT ?GetNextAssoc@?$CMap@KKPAUIServerUserItem@@PAU1@@@QBEXAAPAU__POSITION@@AAKAAPAUIServerUserItem@@@Z
_TEXT	SEGMENT
tv133 = -100						; size = 4
tv83 = -100						; size = 4
tv73 = -100						; size = 4
_nBucket$1 = -32					; size = 4
_pAssocNext$ = -28					; size = 4
___afx_condVal$2 = -24					; size = 4
_nBucket$3 = -20					; size = 4
___afx_condVal$4 = -16					; size = 4
_pAssocRet$ = -12					; size = 4
___afx_condVal$5 = -8					; size = 4
_this$ = -4						; size = 4
_rNextPosition$ = 8					; size = 4
_rKey$ = 12						; size = 4
_rValue$ = 16						; size = 4
?GetNextAssoc@?$CMap@KKPAUIServerUserItem@@PAU1@@@QBEXAAPAU__POSITION@@AAKAAPAUIServerUserItem@@@Z PROC ; CMap<unsigned long,unsigned long,IServerUserItem *,IServerUserItem *>::GetNextAssoc, COMDAT
; _this$ = ecx

; 1640 : {

  00000	55		 push	 ebp
  00001	8b ec		 mov	 ebp, esp
  00003	83 ec 64	 sub	 esp, 100		; 00000064H
  00006	53		 push	 ebx
  00007	56		 push	 esi
  00008	57		 push	 edi
  00009	89 4d fc	 mov	 DWORD PTR _this$[ebp], ecx

; 1641 : 	ASSERT_VALID(this);

  0000c	68 69 06 00 00	 push	 1641			; 00000669H
  00011	68 00 00 00 00	 push	 OFFSET ??_C@_0HC@HBCNBCLF@c?3?2program?5files?5?$CIx86?$CJ?2microsof@
  00016	8b 45 fc	 mov	 eax, DWORD PTR _this$[ebp]
  00019	50		 push	 eax
  0001a	e8 00 00 00 00	 call	 ?AfxAssertValidObject@@YGXPBVCObject@@PBDH@Z ; AfxAssertValidObject
$LN4@GetNextAss:

; 1642 : 	ENSURE(m_pHashTable != NULL);  // never call on empty map

  0001f	8b 45 fc	 mov	 eax, DWORD PTR _this$[ebp]
  00022	83 78 04 00	 cmp	 DWORD PTR [eax+4], 0
  00026	74 09		 je	 SHORT $LN25@GetNextAss
  00028	c7 45 9c 01 00
	00 00		 mov	 DWORD PTR tv73[ebp], 1
  0002f	eb 07		 jmp	 SHORT $LN26@GetNextAss
$LN25@GetNextAss:
  00031	c7 45 9c 00 00
	00 00		 mov	 DWORD PTR tv73[ebp], 0
$LN26@GetNextAss:
  00038	8b 4d 9c	 mov	 ecx, DWORD PTR tv73[ebp]
  0003b	89 4d f8	 mov	 DWORD PTR ___afx_condVal$5[ebp], ecx
  0003e	83 7d f8 00	 cmp	 DWORD PTR ___afx_condVal$5[ebp], 0
  00042	75 14		 jne	 SHORT $LN27@GetNextAss
  00044	68 6a 06 00 00	 push	 1642			; 0000066aH
  00049	68 00 00 00 00	 push	 OFFSET ??_C@_0HC@HBCNBCLF@c?3?2program?5files?5?$CIx86?$CJ?2microsof@
  0004e	e8 00 00 00 00	 call	 ?AfxAssertFailedLine@@YGHPBDH@Z ; AfxAssertFailedLine
  00053	85 c0		 test	 eax, eax
  00055	74 01		 je	 SHORT $LN27@GetNextAss
  00057	cc		 int	 3
$LN27@GetNextAss:
  00058	83 7d f8 00	 cmp	 DWORD PTR ___afx_condVal$5[ebp], 0
  0005c	75 05		 jne	 SHORT $LN2@GetNextAss
  0005e	e8 00 00 00 00	 call	 ?AfxThrowInvalidArgException@@YGXXZ ; AfxThrowInvalidArgException
$LN2@GetNextAss:
  00063	33 c0		 xor	 eax, eax
  00065	75 b8		 jne	 SHORT $LN4@GetNextAss

; 1643 : 
; 1644 : 	CAssoc* pAssocRet = (CAssoc*)rNextPosition;

  00067	8b 45 08	 mov	 eax, DWORD PTR _rNextPosition$[ebp]
  0006a	8b 08		 mov	 ecx, DWORD PTR [eax]
  0006c	89 4d f4	 mov	 DWORD PTR _pAssocRet$[ebp], ecx
$LN7@GetNextAss:

; 1645 : 	ENSURE(pAssocRet != NULL);

  0006f	83 7d f4 00	 cmp	 DWORD PTR _pAssocRet$[ebp], 0
  00073	74 09		 je	 SHORT $LN28@GetNextAss
  00075	c7 45 9c 01 00
	00 00		 mov	 DWORD PTR tv83[ebp], 1
  0007c	eb 07		 jmp	 SHORT $LN29@GetNextAss
$LN28@GetNextAss:
  0007e	c7 45 9c 00 00
	00 00		 mov	 DWORD PTR tv83[ebp], 0
$LN29@GetNextAss:
  00085	8b 45 9c	 mov	 eax, DWORD PTR tv83[ebp]
  00088	89 45 f0	 mov	 DWORD PTR ___afx_condVal$4[ebp], eax
  0008b	83 7d f0 00	 cmp	 DWORD PTR ___afx_condVal$4[ebp], 0
  0008f	75 14		 jne	 SHORT $LN30@GetNextAss
  00091	68 6d 06 00 00	 push	 1645			; 0000066dH
  00096	68 00 00 00 00	 push	 OFFSET ??_C@_0HC@HBCNBCLF@c?3?2program?5files?5?$CIx86?$CJ?2microsof@
  0009b	e8 00 00 00 00	 call	 ?AfxAssertFailedLine@@YGHPBDH@Z ; AfxAssertFailedLine
  000a0	85 c0		 test	 eax, eax
  000a2	74 01		 je	 SHORT $LN30@GetNextAss
  000a4	cc		 int	 3
$LN30@GetNextAss:
  000a5	83 7d f0 00	 cmp	 DWORD PTR ___afx_condVal$4[ebp], 0
  000a9	75 05		 jne	 SHORT $LN5@GetNextAss
  000ab	e8 00 00 00 00	 call	 ?AfxThrowInvalidArgException@@YGXXZ ; AfxThrowInvalidArgException
$LN5@GetNextAss:
  000b0	33 c0		 xor	 eax, eax
  000b2	75 bb		 jne	 SHORT $LN7@GetNextAss

; 1646 : 
; 1647 : 	if (pAssocRet == (CAssoc*) BEFORE_START_POSITION)

  000b4	83 7d f4 ff	 cmp	 DWORD PTR _pAssocRet$[ebp], -1
  000b8	75 7b		 jne	 SHORT $LN19@GetNextAss

; 1648 : 	{
; 1649 : 		// find the first association
; 1650 : 		for (UINT nBucket = 0; nBucket < m_nHashTableSize; nBucket++)

  000ba	c7 45 ec 00 00
	00 00		 mov	 DWORD PTR _nBucket$3[ebp], 0
  000c1	eb 09		 jmp	 SHORT $LN10@GetNextAss
$LN8@GetNextAss:
  000c3	8b 45 ec	 mov	 eax, DWORD PTR _nBucket$3[ebp]
  000c6	83 c0 01	 add	 eax, 1
  000c9	89 45 ec	 mov	 DWORD PTR _nBucket$3[ebp], eax
$LN10@GetNextAss:
  000cc	8b 45 fc	 mov	 eax, DWORD PTR _this$[ebp]
  000cf	8b 4d ec	 mov	 ecx, DWORD PTR _nBucket$3[ebp]
  000d2	3b 48 08	 cmp	 ecx, DWORD PTR [eax+8]
  000d5	73 19		 jae	 SHORT $LN13@GetNextAss

; 1651 : 		{
; 1652 : 			if ((pAssocRet = m_pHashTable[nBucket]) != NULL)

  000d7	8b 45 fc	 mov	 eax, DWORD PTR _this$[ebp]
  000da	8b 48 04	 mov	 ecx, DWORD PTR [eax+4]
  000dd	8b 55 ec	 mov	 edx, DWORD PTR _nBucket$3[ebp]
  000e0	8b 04 91	 mov	 eax, DWORD PTR [ecx+edx*4]
  000e3	89 45 f4	 mov	 DWORD PTR _pAssocRet$[ebp], eax
  000e6	83 7d f4 00	 cmp	 DWORD PTR _pAssocRet$[ebp], 0
  000ea	74 02		 je	 SHORT $LN20@GetNextAss

; 1653 : 			{
; 1654 : 				break;

  000ec	eb 02		 jmp	 SHORT $LN13@GetNextAss
$LN20@GetNextAss:

; 1655 : 			}
; 1656 : 		}

  000ee	eb d3		 jmp	 SHORT $LN8@GetNextAss
$LN13@GetNextAss:

; 1657 : 		ENSURE(pAssocRet != NULL);  // must find something

  000f0	83 7d f4 00	 cmp	 DWORD PTR _pAssocRet$[ebp], 0
  000f4	74 09		 je	 SHORT $LN31@GetNextAss
  000f6	c7 45 9c 01 00
	00 00		 mov	 DWORD PTR tv133[ebp], 1
  000fd	eb 07		 jmp	 SHORT $LN32@GetNextAss
$LN31@GetNextAss:
  000ff	c7 45 9c 00 00
	00 00		 mov	 DWORD PTR tv133[ebp], 0
$LN32@GetNextAss:
  00106	8b 45 9c	 mov	 eax, DWORD PTR tv133[ebp]
  00109	89 45 e8	 mov	 DWORD PTR ___afx_condVal$2[ebp], eax
  0010c	83 7d e8 00	 cmp	 DWORD PTR ___afx_condVal$2[ebp], 0
  00110	75 14		 jne	 SHORT $LN33@GetNextAss
  00112	68 79 06 00 00	 push	 1657			; 00000679H
  00117	68 00 00 00 00	 push	 OFFSET ??_C@_0HC@HBCNBCLF@c?3?2program?5files?5?$CIx86?$CJ?2microsof@
  0011c	e8 00 00 00 00	 call	 ?AfxAssertFailedLine@@YGHPBDH@Z ; AfxAssertFailedLine
  00121	85 c0		 test	 eax, eax
  00123	74 01		 je	 SHORT $LN33@GetNextAss
  00125	cc		 int	 3
$LN33@GetNextAss:
  00126	83 7d e8 00	 cmp	 DWORD PTR ___afx_condVal$2[ebp], 0
  0012a	75 05		 jne	 SHORT $LN11@GetNextAss
  0012c	e8 00 00 00 00	 call	 ?AfxThrowInvalidArgException@@YGXXZ ; AfxThrowInvalidArgException
$LN11@GetNextAss:
  00131	33 c0		 xor	 eax, eax
  00133	75 bb		 jne	 SHORT $LN13@GetNextAss
$LN19@GetNextAss:

; 1658 : 	}
; 1659 : 
; 1660 : 	// find next association
; 1661 : 	ASSERT(AfxIsValidAddress(pAssocRet, sizeof(CAssoc)));

  00135	6a 01		 push	 1
  00137	6a 10		 push	 16			; 00000010H
  00139	8b 45 f4	 mov	 eax, DWORD PTR _pAssocRet$[ebp]
  0013c	50		 push	 eax
  0013d	e8 00 00 00 00	 call	 ?AfxIsValidAddress@@YGHPBXIH@Z ; AfxIsValidAddress
  00142	85 c0		 test	 eax, eax
  00144	75 14		 jne	 SHORT $LN34@GetNextAss
  00146	68 7d 06 00 00	 push	 1661			; 0000067dH
  0014b	68 00 00 00 00	 push	 OFFSET ??_C@_0HC@HBCNBCLF@c?3?2program?5files?5?$CIx86?$CJ?2microsof@
  00150	e8 00 00 00 00	 call	 ?AfxAssertFailedLine@@YGHPBDH@Z ; AfxAssertFailedLine
  00155	85 c0		 test	 eax, eax
  00157	74 01		 je	 SHORT $LN34@GetNextAss
  00159	cc		 int	 3
$LN34@GetNextAss:

; 1662 : 	CAssoc* pAssocNext;
; 1663 : 	if ((pAssocNext = pAssocRet->pNext) == NULL)

  0015a	8b 45 f4	 mov	 eax, DWORD PTR _pAssocRet$[ebp]
  0015d	8b 48 08	 mov	 ecx, DWORD PTR [eax+8]
  00160	89 4d e4	 mov	 DWORD PTR _pAssocNext$[ebp], ecx
  00163	83 7d e4 00	 cmp	 DWORD PTR _pAssocNext$[ebp], 0
  00167	75 43		 jne	 SHORT $LN22@GetNextAss

; 1664 : 	{
; 1665 : 		// go to next bucket
; 1666 : 		for (UINT nBucket = (pAssocRet->nHashValue % m_nHashTableSize) + 1;

  00169	8b 45 f4	 mov	 eax, DWORD PTR _pAssocRet$[ebp]
  0016c	8b 4d fc	 mov	 ecx, DWORD PTR _this$[ebp]
  0016f	8b 40 0c	 mov	 eax, DWORD PTR [eax+12]
  00172	33 d2		 xor	 edx, edx
  00174	f7 71 08	 div	 DWORD PTR [ecx+8]
  00177	83 c2 01	 add	 edx, 1
  0017a	89 55 e0	 mov	 DWORD PTR _nBucket$1[ebp], edx
  0017d	eb 09		 jmp	 SHORT $LN16@GetNextAss
$LN14@GetNextAss:

; 1667 : 		  nBucket < m_nHashTableSize; nBucket++)

  0017f	8b 45 e0	 mov	 eax, DWORD PTR _nBucket$1[ebp]
  00182	83 c0 01	 add	 eax, 1
  00185	89 45 e0	 mov	 DWORD PTR _nBucket$1[ebp], eax
$LN16@GetNextAss:
  00188	8b 45 fc	 mov	 eax, DWORD PTR _this$[ebp]
  0018b	8b 4d e0	 mov	 ecx, DWORD PTR _nBucket$1[ebp]
  0018e	3b 48 08	 cmp	 ecx, DWORD PTR [eax+8]
  00191	73 19		 jae	 SHORT $LN22@GetNextAss

; 1668 : 			if ((pAssocNext = m_pHashTable[nBucket]) != NULL)

  00193	8b 45 fc	 mov	 eax, DWORD PTR _this$[ebp]
  00196	8b 48 04	 mov	 ecx, DWORD PTR [eax+4]
  00199	8b 55 e0	 mov	 edx, DWORD PTR _nBucket$1[ebp]
  0019c	8b 04 91	 mov	 eax, DWORD PTR [ecx+edx*4]
  0019f	89 45 e4	 mov	 DWORD PTR _pAssocNext$[ebp], eax
  001a2	83 7d e4 00	 cmp	 DWORD PTR _pAssocNext$[ebp], 0
  001a6	74 02		 je	 SHORT $LN23@GetNextAss

; 1669 : 				break;

  001a8	eb 02		 jmp	 SHORT $LN22@GetNextAss
$LN23@GetNextAss:

; 1670 : 	}

  001aa	eb d3		 jmp	 SHORT $LN14@GetNextAss
$LN22@GetNextAss:

; 1671 : 
; 1672 : 	rNextPosition = (POSITION) pAssocNext;

  001ac	8b 45 08	 mov	 eax, DWORD PTR _rNextPosition$[ebp]
  001af	8b 4d e4	 mov	 ecx, DWORD PTR _pAssocNext$[ebp]
  001b2	89 08		 mov	 DWORD PTR [eax], ecx

; 1673 : 
; 1674 : 	// fill in return data
; 1675 : 	rKey = pAssocRet->key;

  001b4	8b 45 0c	 mov	 eax, DWORD PTR _rKey$[ebp]
  001b7	8b 4d f4	 mov	 ecx, DWORD PTR _pAssocRet$[ebp]
  001ba	8b 11		 mov	 edx, DWORD PTR [ecx]
  001bc	89 10		 mov	 DWORD PTR [eax], edx

; 1676 : 	rValue = pAssocRet->value;

  001be	8b 45 10	 mov	 eax, DWORD PTR _rValue$[ebp]
  001c1	8b 4d f4	 mov	 ecx, DWORD PTR _pAssocRet$[ebp]
  001c4	8b 51 04	 mov	 edx, DWORD PTR [ecx+4]
  001c7	89 10		 mov	 DWORD PTR [eax], edx
$LN24@GetNextAss:

; 1677 : }

  001c9	5f		 pop	 edi
  001ca	5e		 pop	 esi
  001cb	5b		 pop	 ebx
  001cc	8b e5		 mov	 esp, ebp
  001ce	5d		 pop	 ebp
  001cf	c2 0c 00	 ret	 12			; 0000000cH
?GetNextAssoc@?$CMap@KKPAUIServerUserItem@@PAU1@@@QBEXAAPAU__POSITION@@AAKAAPAUIServerUserItem@@@Z ENDP ; CMap<unsigned long,unsigned long,IServerUserItem *,IServerUserItem *>::GetNextAssoc
_TEXT	ENDS
; Function compile flags: /Odtp /ZI
; File c:\program files (x86)\microsoft visual studio\2017\community\vc\tools\msvc\14.16.27023\atlmfc\include\afxtempl.h
;	COMDAT ?GetStartPosition@?$CMap@KKPAUIServerUserItem@@PAU1@@@QBEPAU__POSITION@@XZ
_TEXT	SEGMENT
tv66 = -72						; size = 4
_this$ = -4						; size = 4
?GetStartPosition@?$CMap@KKPAUIServerUserItem@@PAU1@@@QBEPAU__POSITION@@XZ PROC ; CMap<unsigned long,unsigned long,IServerUserItem *,IServerUserItem *>::GetStartPosition, COMDAT
; _this$ = ecx

; 1354 : 	{ return (m_nCount == 0) ? NULL : BEFORE_START_POSITION; }

  00000	55		 push	 ebp
  00001	8b ec		 mov	 ebp, esp
  00003	83 ec 48	 sub	 esp, 72			; 00000048H
  00006	53		 push	 ebx
  00007	56		 push	 esi
  00008	57		 push	 edi
  00009	89 4d fc	 mov	 DWORD PTR _this$[ebp], ecx
  0000c	8b 45 fc	 mov	 eax, DWORD PTR _this$[ebp]
  0000f	83 78 0c 00	 cmp	 DWORD PTR [eax+12], 0
  00013	75 09		 jne	 SHORT $LN3@GetStartPo
  00015	c7 45 b8 00 00
	00 00		 mov	 DWORD PTR tv66[ebp], 0
  0001c	eb 07		 jmp	 SHORT $LN4@GetStartPo
$LN3@GetStartPo:
  0001e	c7 45 b8 ff ff
	ff ff		 mov	 DWORD PTR tv66[ebp], -1
$LN4@GetStartPo:
  00025	8b 45 b8	 mov	 eax, DWORD PTR tv66[ebp]
  00028	5f		 pop	 edi
  00029	5e		 pop	 esi
  0002a	5b		 pop	 ebx
  0002b	8b e5		 mov	 esp, ebp
  0002d	5d		 pop	 ebp
  0002e	c3		 ret	 0
?GetStartPosition@?$CMap@KKPAUIServerUserItem@@PAU1@@@QBEPAU__POSITION@@XZ ENDP ; CMap<unsigned long,unsigned long,IServerUserItem *,IServerUserItem *>::GetStartPosition
_TEXT	ENDS
; Function compile flags: /Odtp /ZI
; File c:\program files (x86)\microsoft visual studio\2017\community\vc\tools\msvc\14.16.27023\atlmfc\include\afxtempl.h
;	COMDAT ?RemoveAll@?$CMap@KKPAUIServerUserItem@@PAU1@@@QAEXXZ
_TEXT	SEGMENT
$T1 = -80						; size = 4
_pAssoc$2 = -12						; size = 4
_nHash$3 = -8						; size = 4
_this$ = -4						; size = 4
?RemoveAll@?$CMap@KKPAUIServerUserItem@@PAU1@@@QAEXXZ PROC ; CMap<unsigned long,unsigned long,IServerUserItem *,IServerUserItem *>::RemoveAll, COMDAT
; _this$ = ecx

; 1443 : {

  00000	55		 push	 ebp
  00001	8b ec		 mov	 ebp, esp
  00003	83 ec 50	 sub	 esp, 80			; 00000050H
  00006	53		 push	 ebx
  00007	56		 push	 esi
  00008	57		 push	 edi
  00009	89 4d fc	 mov	 DWORD PTR _this$[ebp], ecx

; 1444 : 	ASSERT_VALID(this);

  0000c	68 a4 05 00 00	 push	 1444			; 000005a4H
  00011	68 00 00 00 00	 push	 OFFSET ??_C@_0HC@HBCNBCLF@c?3?2program?5files?5?$CIx86?$CJ?2microsof@
  00016	8b 45 fc	 mov	 eax, DWORD PTR _this$[ebp]
  00019	50		 push	 eax
  0001a	e8 00 00 00 00	 call	 ?AfxAssertValidObject@@YGXPBVCObject@@PBDH@Z ; AfxAssertValidObject

; 1445 : 
; 1446 : 	if (m_pHashTable != NULL)

  0001f	8b 45 fc	 mov	 eax, DWORD PTR _this$[ebp]
  00022	83 78 04 00	 cmp	 DWORD PTR [eax+4], 0
  00026	74 60		 je	 SHORT $LN8@RemoveAll

; 1447 : 	{
; 1448 : 		// destroy elements (values and keys)
; 1449 : 		for (UINT nHash = 0; nHash < m_nHashTableSize; nHash++)

  00028	c7 45 f8 00 00
	00 00		 mov	 DWORD PTR _nHash$3[ebp], 0
  0002f	eb 09		 jmp	 SHORT $LN4@RemoveAll
$LN2@RemoveAll:
  00031	8b 45 f8	 mov	 eax, DWORD PTR _nHash$3[ebp]
  00034	83 c0 01	 add	 eax, 1
  00037	89 45 f8	 mov	 DWORD PTR _nHash$3[ebp], eax
$LN4@RemoveAll:
  0003a	8b 45 fc	 mov	 eax, DWORD PTR _this$[ebp]
  0003d	8b 4d f8	 mov	 ecx, DWORD PTR _nHash$3[ebp]
  00040	3b 48 08	 cmp	 ecx, DWORD PTR [eax+8]
  00043	73 24		 jae	 SHORT $LN3@RemoveAll

; 1450 : 		{
; 1451 : 			CAssoc* pAssoc;
; 1452 : 			for (pAssoc = m_pHashTable[nHash]; pAssoc != NULL;

  00045	8b 45 fc	 mov	 eax, DWORD PTR _this$[ebp]
  00048	8b 48 04	 mov	 ecx, DWORD PTR [eax+4]
  0004b	8b 55 f8	 mov	 edx, DWORD PTR _nHash$3[ebp]
  0004e	8b 04 91	 mov	 eax, DWORD PTR [ecx+edx*4]
  00051	89 45 f4	 mov	 DWORD PTR _pAssoc$2[ebp], eax
  00054	eb 09		 jmp	 SHORT $LN7@RemoveAll
$LN5@RemoveAll:

; 1453 : 			  pAssoc = pAssoc->pNext)

  00056	8b 45 f4	 mov	 eax, DWORD PTR _pAssoc$2[ebp]
  00059	8b 48 08	 mov	 ecx, DWORD PTR [eax+8]
  0005c	89 4d f4	 mov	 DWORD PTR _pAssoc$2[ebp], ecx
$LN7@RemoveAll:

; 1450 : 		{
; 1451 : 			CAssoc* pAssoc;
; 1452 : 			for (pAssoc = m_pHashTable[nHash]; pAssoc != NULL;

  0005f	83 7d f4 00	 cmp	 DWORD PTR _pAssoc$2[ebp], 0
  00063	74 02		 je	 SHORT $LN6@RemoveAll

; 1454 : 			{
; 1455 : 				pAssoc->CAssoc::~CAssoc();
; 1456 : 			}

  00065	eb ef		 jmp	 SHORT $LN5@RemoveAll
$LN6@RemoveAll:

; 1457 : 		}

  00067	eb c8		 jmp	 SHORT $LN2@RemoveAll
$LN3@RemoveAll:

; 1458 : 
; 1459 : 		// free hash table
; 1460 : 		delete[] m_pHashTable;

  00069	8b 45 fc	 mov	 eax, DWORD PTR _this$[ebp]
  0006c	8b 48 04	 mov	 ecx, DWORD PTR [eax+4]
  0006f	89 4d b0	 mov	 DWORD PTR $T1[ebp], ecx
  00072	8b 55 b0	 mov	 edx, DWORD PTR $T1[ebp]
  00075	52		 push	 edx
  00076	e8 00 00 00 00	 call	 ??_V@YAXPAX@Z		; operator delete[]
  0007b	83 c4 04	 add	 esp, 4

; 1461 : 		m_pHashTable = NULL;

  0007e	8b 45 fc	 mov	 eax, DWORD PTR _this$[ebp]
  00081	c7 40 04 00 00
	00 00		 mov	 DWORD PTR [eax+4], 0
$LN8@RemoveAll:

; 1462 : 	}
; 1463 : 
; 1464 : 	m_nCount = 0;

  00088	8b 45 fc	 mov	 eax, DWORD PTR _this$[ebp]
  0008b	c7 40 0c 00 00
	00 00		 mov	 DWORD PTR [eax+12], 0

; 1465 : 	m_pFreeList = NULL;

  00092	8b 45 fc	 mov	 eax, DWORD PTR _this$[ebp]
  00095	c7 40 10 00 00
	00 00		 mov	 DWORD PTR [eax+16], 0

; 1466 : 	m_pBlocks->FreeDataChain();

  0009c	8b 45 fc	 mov	 eax, DWORD PTR _this$[ebp]
  0009f	8b 48 14	 mov	 ecx, DWORD PTR [eax+20]
  000a2	e8 00 00 00 00	 call	 ?FreeDataChain@CPlex@@QAEXXZ ; CPlex::FreeDataChain

; 1467 : 	m_pBlocks = NULL;

  000a7	8b 45 fc	 mov	 eax, DWORD PTR _this$[ebp]
  000aa	c7 40 14 00 00
	00 00		 mov	 DWORD PTR [eax+20], 0

; 1468 : }

  000b1	5f		 pop	 edi
  000b2	5e		 pop	 esi
  000b3	5b		 pop	 ebx
  000b4	8b e5		 mov	 esp, ebp
  000b6	5d		 pop	 ebp
  000b7	c3		 ret	 0
?RemoveAll@?$CMap@KKPAUIServerUserItem@@PAU1@@@QAEXXZ ENDP ; CMap<unsigned long,unsigned long,IServerUserItem *,IServerUserItem *>::RemoveAll
_TEXT	ENDS
; Function compile flags: /Odtp /ZI
; File c:\program files (x86)\microsoft visual studio\2017\community\vc\tools\msvc\14.16.27023\atlmfc\include\afxtempl.h
;	COMDAT ?RemoveKey@?$CMap@KKPAUIServerUserItem@@PAU1@@@QAEHK@Z
_TEXT	SEGMENT
_pAssoc$ = -16						; size = 4
_ppAssocPrev$ = -12					; size = 4
_nHashValue$ = -8					; size = 4
_this$ = -4						; size = 4
_key$ = 8						; size = 4
?RemoveKey@?$CMap@KKPAUIServerUserItem@@PAU1@@@QAEHK@Z PROC ; CMap<unsigned long,unsigned long,IServerUserItem *,IServerUserItem *>::RemoveKey, COMDAT
; _this$ = ecx

; 1611 : {

  00000	55		 push	 ebp
  00001	8b ec		 mov	 ebp, esp
  00003	83 ec 50	 sub	 esp, 80			; 00000050H
  00006	53		 push	 ebx
  00007	56		 push	 esi
  00008	57		 push	 edi
  00009	89 4d fc	 mov	 DWORD PTR _this$[ebp], ecx

; 1612 : 	ASSERT_VALID(this);

  0000c	68 4c 06 00 00	 push	 1612			; 0000064cH
  00011	68 00 00 00 00	 push	 OFFSET ??_C@_0HC@HBCNBCLF@c?3?2program?5files?5?$CIx86?$CJ?2microsof@
  00016	8b 45 fc	 mov	 eax, DWORD PTR _this$[ebp]
  00019	50		 push	 eax
  0001a	e8 00 00 00 00	 call	 ?AfxAssertValidObject@@YGXPBVCObject@@PBDH@Z ; AfxAssertValidObject

; 1613 : 
; 1614 : 	if (m_pHashTable == NULL)

  0001f	8b 45 fc	 mov	 eax, DWORD PTR _this$[ebp]
  00022	83 78 04 00	 cmp	 DWORD PTR [eax+4], 0
  00026	75 07		 jne	 SHORT $LN5@RemoveKey

; 1615 : 		return FALSE;  // nothing in the table

  00028	33 c0		 xor	 eax, eax
  0002a	e9 83 00 00 00	 jmp	 $LN1@RemoveKey
$LN5@RemoveKey:

; 1616 : 
; 1617 : 	UINT nHashValue;
; 1618 : 	CAssoc** ppAssocPrev;
; 1619 : 	nHashValue = HashKey<ARG_KEY>(key);

  0002f	8b 45 08	 mov	 eax, DWORD PTR _key$[ebp]
  00032	50		 push	 eax
  00033	e8 00 00 00 00	 call	 ??$HashKey@K@@YGIK@Z	; HashKey<unsigned long>
  00038	89 45 f8	 mov	 DWORD PTR _nHashValue$[ebp], eax

; 1620 : 	ppAssocPrev = &m_pHashTable[nHashValue%m_nHashTableSize];

  0003b	8b 4d fc	 mov	 ecx, DWORD PTR _this$[ebp]
  0003e	8b 45 f8	 mov	 eax, DWORD PTR _nHashValue$[ebp]
  00041	33 d2		 xor	 edx, edx
  00043	f7 71 08	 div	 DWORD PTR [ecx+8]
  00046	8b 45 fc	 mov	 eax, DWORD PTR _this$[ebp]
  00049	8b 48 04	 mov	 ecx, DWORD PTR [eax+4]
  0004c	8d 14 91	 lea	 edx, DWORD PTR [ecx+edx*4]
  0004f	89 55 f4	 mov	 DWORD PTR _ppAssocPrev$[ebp], edx

; 1621 : 
; 1622 : 	CAssoc* pAssoc;
; 1623 : 	for (pAssoc = *ppAssocPrev; pAssoc != NULL; pAssoc = pAssoc->pNext)

  00052	8b 45 f4	 mov	 eax, DWORD PTR _ppAssocPrev$[ebp]
  00055	8b 08		 mov	 ecx, DWORD PTR [eax]
  00057	89 4d f0	 mov	 DWORD PTR _pAssoc$[ebp], ecx
  0005a	eb 09		 jmp	 SHORT $LN4@RemoveKey
$LN2@RemoveKey:
  0005c	8b 45 f0	 mov	 eax, DWORD PTR _pAssoc$[ebp]
  0005f	8b 48 08	 mov	 ecx, DWORD PTR [eax+8]
  00062	89 4d f0	 mov	 DWORD PTR _pAssoc$[ebp], ecx
$LN4@RemoveKey:
  00065	83 7d f0 00	 cmp	 DWORD PTR _pAssoc$[ebp], 0
  00069	74 45		 je	 SHORT $LN3@RemoveKey

; 1624 : 	{
; 1625 : 		if ((pAssoc->nHashValue == nHashValue) && CompareElements(&pAssoc->key, &key))

  0006b	8b 45 f0	 mov	 eax, DWORD PTR _pAssoc$[ebp]
  0006e	8b 48 0c	 mov	 ecx, DWORD PTR [eax+12]
  00071	3b 4d f8	 cmp	 ecx, DWORD PTR _nHashValue$[ebp]
  00074	75 2f		 jne	 SHORT $LN6@RemoveKey
  00076	8d 45 08	 lea	 eax, DWORD PTR _key$[ebp]
  00079	50		 push	 eax
  0007a	8b 4d f0	 mov	 ecx, DWORD PTR _pAssoc$[ebp]
  0007d	51		 push	 ecx
  0007e	e8 00 00 00 00	 call	 ??$CompareElements@KK@@YGHPBK0@Z ; CompareElements<unsigned long,unsigned long>
  00083	85 c0		 test	 eax, eax
  00085	74 1e		 je	 SHORT $LN6@RemoveKey

; 1626 : 		{
; 1627 : 			// remove it
; 1628 : 			*ppAssocPrev = pAssoc->pNext;  // remove from list

  00087	8b 45 f4	 mov	 eax, DWORD PTR _ppAssocPrev$[ebp]
  0008a	8b 4d f0	 mov	 ecx, DWORD PTR _pAssoc$[ebp]
  0008d	8b 51 08	 mov	 edx, DWORD PTR [ecx+8]
  00090	89 10		 mov	 DWORD PTR [eax], edx

; 1629 : 			FreeAssoc(pAssoc);

  00092	8b 45 f0	 mov	 eax, DWORD PTR _pAssoc$[ebp]
  00095	50		 push	 eax
  00096	8b 4d fc	 mov	 ecx, DWORD PTR _this$[ebp]
  00099	e8 00 00 00 00	 call	 ?FreeAssoc@?$CMap@KKPAUIServerUserItem@@PAU1@@@IAEXPAVCAssoc@1@@Z ; CMap<unsigned long,unsigned long,IServerUserItem *,IServerUserItem *>::FreeAssoc

; 1630 : 			return TRUE;

  0009e	b8 01 00 00 00	 mov	 eax, 1
  000a3	eb 0d		 jmp	 SHORT $LN1@RemoveKey
$LN6@RemoveKey:

; 1631 : 		}
; 1632 : 		ppAssocPrev = &pAssoc->pNext;

  000a5	8b 45 f0	 mov	 eax, DWORD PTR _pAssoc$[ebp]
  000a8	83 c0 08	 add	 eax, 8
  000ab	89 45 f4	 mov	 DWORD PTR _ppAssocPrev$[ebp], eax

; 1633 : 	}

  000ae	eb ac		 jmp	 SHORT $LN2@RemoveKey
$LN3@RemoveKey:

; 1634 : 	return FALSE;  // not found

  000b0	33 c0		 xor	 eax, eax
$LN1@RemoveKey:

; 1635 : }

  000b2	5f		 pop	 edi
  000b3	5e		 pop	 esi
  000b4	5b		 pop	 ebx
  000b5	8b e5		 mov	 esp, ebp
  000b7	5d		 pop	 ebp
  000b8	c2 04 00	 ret	 4
?RemoveKey@?$CMap@KKPAUIServerUserItem@@PAU1@@@QAEHK@Z ENDP ; CMap<unsigned long,unsigned long,IServerUserItem *,IServerUserItem *>::RemoveKey
_TEXT	ENDS
; Function compile flags: /Odtp /ZI
; File c:\program files (x86)\microsoft visual studio\2017\community\vc\tools\msvc\14.16.27023\atlmfc\include\afxtempl.h
;	COMDAT ?SetAt@?$CMap@KKPAUIServerUserItem@@PAU1@@@QAEXKPAUIServerUserItem@@@Z
_TEXT	SEGMENT
_this$ = -4						; size = 4
_key$ = 8						; size = 4
_newValue$ = 12						; size = 4
?SetAt@?$CMap@KKPAUIServerUserItem@@PAU1@@@QAEXKPAUIServerUserItem@@@Z PROC ; CMap<unsigned long,unsigned long,IServerUserItem *,IServerUserItem *>::SetAt, COMDAT
; _this$ = ecx

; 1350 : 	{ (*this)[key] = newValue; }

  00000	55		 push	 ebp
  00001	8b ec		 mov	 ebp, esp
  00003	83 ec 44	 sub	 esp, 68			; 00000044H
  00006	53		 push	 ebx
  00007	56		 push	 esi
  00008	57		 push	 edi
  00009	89 4d fc	 mov	 DWORD PTR _this$[ebp], ecx
  0000c	8b 45 08	 mov	 eax, DWORD PTR _key$[ebp]
  0000f	50		 push	 eax
  00010	8b 4d fc	 mov	 ecx, DWORD PTR _this$[ebp]
  00013	e8 00 00 00 00	 call	 ??A?$CMap@KKPAUIServerUserItem@@PAU1@@@QAEAAPAUIServerUserItem@@K@Z ; CMap<unsigned long,unsigned long,IServerUserItem *,IServerUserItem *>::operator[]
  00018	8b 4d 0c	 mov	 ecx, DWORD PTR _newValue$[ebp]
  0001b	89 08		 mov	 DWORD PTR [eax], ecx
  0001d	5f		 pop	 edi
  0001e	5e		 pop	 esi
  0001f	5b		 pop	 ebx
  00020	8b e5		 mov	 esp, ebp
  00022	5d		 pop	 ebp
  00023	c2 08 00	 ret	 8
?SetAt@?$CMap@KKPAUIServerUserItem@@PAU1@@@QAEXKPAUIServerUserItem@@@Z ENDP ; CMap<unsigned long,unsigned long,IServerUserItem *,IServerUserItem *>::SetAt
_TEXT	ENDS
; Function compile flags: /Odtp /ZI
; File c:\program files (x86)\microsoft visual studio\2017\community\vc\tools\msvc\14.16.27023\atlmfc\include\afxtempl.h
;	COMDAT ??A?$CMap@KKPAUIServerUserItem@@PAU1@@@QAEAAPAUIServerUserItem@@K@Z
_TEXT	SEGMENT
tv85 = -88						; size = 4
___afx_condVal$1 = -20					; size = 4
_pAssoc$ = -16						; size = 4
_nHashValue$ = -12					; size = 4
_nHashBucket$ = -8					; size = 4
_this$ = -4						; size = 4
_key$ = 8						; size = 4
??A?$CMap@KKPAUIServerUserItem@@PAU1@@@QAEAAPAUIServerUserItem@@K@Z PROC ; CMap<unsigned long,unsigned long,IServerUserItem *,IServerUserItem *>::operator[], COMDAT
; _this$ = ecx

; 1585 : {

  00000	55		 push	 ebp
  00001	8b ec		 mov	 ebp, esp
  00003	83 ec 58	 sub	 esp, 88			; 00000058H
  00006	53		 push	 ebx
  00007	56		 push	 esi
  00008	57		 push	 edi
  00009	89 4d fc	 mov	 DWORD PTR _this$[ebp], ecx

; 1586 : 	ASSERT_VALID(this);

  0000c	68 32 06 00 00	 push	 1586			; 00000632H
  00011	68 00 00 00 00	 push	 OFFSET ??_C@_0HC@HBCNBCLF@c?3?2program?5files?5?$CIx86?$CJ?2microsof@
  00016	8b 45 fc	 mov	 eax, DWORD PTR _this$[ebp]
  00019	50		 push	 eax
  0001a	e8 00 00 00 00	 call	 ?AfxAssertValidObject@@YGXPBVCObject@@PBDH@Z ; AfxAssertValidObject

; 1587 : 
; 1588 : 	UINT nHashBucket, nHashValue;
; 1589 : 	CAssoc* pAssoc;
; 1590 : 	if ((pAssoc = GetAssocAt(key, nHashBucket, nHashValue)) == NULL)

  0001f	8d 45 f4	 lea	 eax, DWORD PTR _nHashValue$[ebp]
  00022	50		 push	 eax
  00023	8d 4d f8	 lea	 ecx, DWORD PTR _nHashBucket$[ebp]
  00026	51		 push	 ecx
  00027	8b 55 08	 mov	 edx, DWORD PTR _key$[ebp]
  0002a	52		 push	 edx
  0002b	8b 4d fc	 mov	 ecx, DWORD PTR _this$[ebp]
  0002e	e8 00 00 00 00	 call	 ?GetAssocAt@?$CMap@KKPAUIServerUserItem@@PAU1@@@IBEPAVCAssoc@1@KAAI0@Z ; CMap<unsigned long,unsigned long,IServerUserItem *,IServerUserItem *>::GetAssocAt
  00033	89 45 f0	 mov	 DWORD PTR _pAssoc$[ebp], eax
  00036	83 7d f0 00	 cmp	 DWORD PTR _pAssoc$[ebp], 0
  0003a	0f 85 9b 00 00
	00		 jne	 $LN5@operator

; 1591 : 	{
; 1592 : 		if (m_pHashTable == NULL)

  00040	8b 45 fc	 mov	 eax, DWORD PTR _this$[ebp]
  00043	83 78 04 00	 cmp	 DWORD PTR [eax+4], 0
  00047	75 11		 jne	 SHORT $LN4@operator

; 1593 : 			InitHashTable(m_nHashTableSize);

  00049	6a 01		 push	 1
  0004b	8b 45 fc	 mov	 eax, DWORD PTR _this$[ebp]
  0004e	8b 48 08	 mov	 ecx, DWORD PTR [eax+8]
  00051	51		 push	 ecx
  00052	8b 4d fc	 mov	 ecx, DWORD PTR _this$[ebp]
  00055	e8 00 00 00 00	 call	 ?InitHashTable@?$CMap@KKPAUIServerUserItem@@PAU1@@@QAEXIH@Z ; CMap<unsigned long,unsigned long,IServerUserItem *,IServerUserItem *>::InitHashTable
$LN4@operator:

; 1594 : 
; 1595 : 		ENSURE(m_pHashTable);

  0005a	8b 45 fc	 mov	 eax, DWORD PTR _this$[ebp]
  0005d	83 78 04 00	 cmp	 DWORD PTR [eax+4], 0
  00061	74 09		 je	 SHORT $LN9@operator
  00063	c7 45 a8 01 00
	00 00		 mov	 DWORD PTR tv85[ebp], 1
  0006a	eb 07		 jmp	 SHORT $LN10@operator
$LN9@operator:
  0006c	c7 45 a8 00 00
	00 00		 mov	 DWORD PTR tv85[ebp], 0
$LN10@operator:
  00073	8b 4d a8	 mov	 ecx, DWORD PTR tv85[ebp]
  00076	89 4d ec	 mov	 DWORD PTR ___afx_condVal$1[ebp], ecx
  00079	83 7d ec 00	 cmp	 DWORD PTR ___afx_condVal$1[ebp], 0
  0007d	75 14		 jne	 SHORT $LN11@operator
  0007f	68 3b 06 00 00	 push	 1595			; 0000063bH
  00084	68 00 00 00 00	 push	 OFFSET ??_C@_0HC@HBCNBCLF@c?3?2program?5files?5?$CIx86?$CJ?2microsof@
  00089	e8 00 00 00 00	 call	 ?AfxAssertFailedLine@@YGHPBDH@Z ; AfxAssertFailedLine
  0008e	85 c0		 test	 eax, eax
  00090	74 01		 je	 SHORT $LN11@operator
  00092	cc		 int	 3
$LN11@operator:
  00093	83 7d ec 00	 cmp	 DWORD PTR ___afx_condVal$1[ebp], 0
  00097	75 05		 jne	 SHORT $LN2@operator
  00099	e8 00 00 00 00	 call	 ?AfxThrowInvalidArgException@@YGXXZ ; AfxThrowInvalidArgException
$LN2@operator:
  0009e	33 c0		 xor	 eax, eax
  000a0	75 b8		 jne	 SHORT $LN4@operator

; 1596 : 		// it doesn't exist, add a new Association
; 1597 : 		pAssoc = NewAssoc(key);

  000a2	8b 45 08	 mov	 eax, DWORD PTR _key$[ebp]
  000a5	50		 push	 eax
  000a6	8b 4d fc	 mov	 ecx, DWORD PTR _this$[ebp]
  000a9	e8 00 00 00 00	 call	 ?NewAssoc@?$CMap@KKPAUIServerUserItem@@PAU1@@@IAEPAVCAssoc@1@K@Z ; CMap<unsigned long,unsigned long,IServerUserItem *,IServerUserItem *>::NewAssoc
  000ae	89 45 f0	 mov	 DWORD PTR _pAssoc$[ebp], eax

; 1598 : 		pAssoc->nHashValue = nHashValue;

  000b1	8b 45 f0	 mov	 eax, DWORD PTR _pAssoc$[ebp]
  000b4	8b 4d f4	 mov	 ecx, DWORD PTR _nHashValue$[ebp]
  000b7	89 48 0c	 mov	 DWORD PTR [eax+12], ecx

; 1599 : 		//'pAssoc->value' is a constructed object, nothing more
; 1600 : 
; 1601 : 		// put into hash table
; 1602 : 		pAssoc->pNext = m_pHashTable[nHashBucket];

  000ba	8b 45 fc	 mov	 eax, DWORD PTR _this$[ebp]
  000bd	8b 48 04	 mov	 ecx, DWORD PTR [eax+4]
  000c0	8b 55 f0	 mov	 edx, DWORD PTR _pAssoc$[ebp]
  000c3	8b 45 f8	 mov	 eax, DWORD PTR _nHashBucket$[ebp]
  000c6	8b 0c 81	 mov	 ecx, DWORD PTR [ecx+eax*4]
  000c9	89 4a 08	 mov	 DWORD PTR [edx+8], ecx

; 1603 : 		m_pHashTable[nHashBucket] = pAssoc;

  000cc	8b 45 fc	 mov	 eax, DWORD PTR _this$[ebp]
  000cf	8b 48 04	 mov	 ecx, DWORD PTR [eax+4]
  000d2	8b 55 f8	 mov	 edx, DWORD PTR _nHashBucket$[ebp]
  000d5	8b 45 f0	 mov	 eax, DWORD PTR _pAssoc$[ebp]
  000d8	89 04 91	 mov	 DWORD PTR [ecx+edx*4], eax
$LN5@operator:

; 1604 : 	}
; 1605 : 	return pAssoc->value;  // return new reference

  000db	8b 45 f0	 mov	 eax, DWORD PTR _pAssoc$[ebp]
  000de	83 c0 04	 add	 eax, 4
$LN8@operator:

; 1606 : }

  000e1	5f		 pop	 edi
  000e2	5e		 pop	 esi
  000e3	5b		 pop	 ebx
  000e4	8b e5		 mov	 esp, ebp
  000e6	5d		 pop	 ebp
  000e7	c2 04 00	 ret	 4
??A?$CMap@KKPAUIServerUserItem@@PAU1@@@QAEAAPAUIServerUserItem@@K@Z ENDP ; CMap<unsigned long,unsigned long,IServerUserItem *,IServerUserItem *>::operator[]
_TEXT	ENDS
; Function compile flags: /Odtp /ZI
; File c:\program files (x86)\microsoft visual studio\2017\community\vc\tools\msvc\14.16.27023\atlmfc\include\afxtempl.h
;	COMDAT ?Lookup@?$CMap@KKPAUIServerUserItem@@PAU1@@@QBEHKAAPAUIServerUserItem@@@Z
_TEXT	SEGMENT
_pAssoc$ = -16						; size = 4
_nHashValue$ = -12					; size = 4
_nHashBucket$ = -8					; size = 4
_this$ = -4						; size = 4
_key$ = 8						; size = 4
_rValue$ = 12						; size = 4
?Lookup@?$CMap@KKPAUIServerUserItem@@PAU1@@@QBEHKAAPAUIServerUserItem@@@Z PROC ; CMap<unsigned long,unsigned long,IServerUserItem *,IServerUserItem *>::Lookup, COMDAT
; _this$ = ecx

; 1551 : {

  00000	55		 push	 ebp
  00001	8b ec		 mov	 ebp, esp
  00003	83 ec 50	 sub	 esp, 80			; 00000050H
  00006	53		 push	 ebx
  00007	56		 push	 esi
  00008	57		 push	 edi
  00009	89 4d fc	 mov	 DWORD PTR _this$[ebp], ecx

; 1552 : 	ASSERT_VALID(this);

  0000c	68 10 06 00 00	 push	 1552			; 00000610H
  00011	68 00 00 00 00	 push	 OFFSET ??_C@_0HC@HBCNBCLF@c?3?2program?5files?5?$CIx86?$CJ?2microsof@
  00016	8b 45 fc	 mov	 eax, DWORD PTR _this$[ebp]
  00019	50		 push	 eax
  0001a	e8 00 00 00 00	 call	 ?AfxAssertValidObject@@YGXPBVCObject@@PBDH@Z ; AfxAssertValidObject

; 1553 : 
; 1554 : 	UINT nHashBucket, nHashValue;
; 1555 : 	CAssoc* pAssoc = GetAssocAt(key, nHashBucket, nHashValue);

  0001f	8d 45 f4	 lea	 eax, DWORD PTR _nHashValue$[ebp]
  00022	50		 push	 eax
  00023	8d 4d f8	 lea	 ecx, DWORD PTR _nHashBucket$[ebp]
  00026	51		 push	 ecx
  00027	8b 55 08	 mov	 edx, DWORD PTR _key$[ebp]
  0002a	52		 push	 edx
  0002b	8b 4d fc	 mov	 ecx, DWORD PTR _this$[ebp]
  0002e	e8 00 00 00 00	 call	 ?GetAssocAt@?$CMap@KKPAUIServerUserItem@@PAU1@@@IBEPAVCAssoc@1@KAAI0@Z ; CMap<unsigned long,unsigned long,IServerUserItem *,IServerUserItem *>::GetAssocAt
  00033	89 45 f0	 mov	 DWORD PTR _pAssoc$[ebp], eax

; 1556 : 	if (pAssoc == NULL)

  00036	83 7d f0 00	 cmp	 DWORD PTR _pAssoc$[ebp], 0
  0003a	75 04		 jne	 SHORT $LN2@Lookup

; 1557 : 		return FALSE;  // not in map

  0003c	33 c0		 xor	 eax, eax
  0003e	eb 10		 jmp	 SHORT $LN1@Lookup
$LN2@Lookup:

; 1558 : 
; 1559 : 	rValue = pAssoc->value;

  00040	8b 45 0c	 mov	 eax, DWORD PTR _rValue$[ebp]
  00043	8b 4d f0	 mov	 ecx, DWORD PTR _pAssoc$[ebp]
  00046	8b 51 04	 mov	 edx, DWORD PTR [ecx+4]
  00049	89 10		 mov	 DWORD PTR [eax], edx

; 1560 : 	return TRUE;

  0004b	b8 01 00 00 00	 mov	 eax, 1
$LN1@Lookup:

; 1561 : }

  00050	5f		 pop	 edi
  00051	5e		 pop	 esi
  00052	5b		 pop	 ebx
  00053	8b e5		 mov	 esp, ebp
  00055	5d		 pop	 ebp
  00056	c2 08 00	 ret	 8
?Lookup@?$CMap@KKPAUIServerUserItem@@PAU1@@@QBEHKAAPAUIServerUserItem@@@Z ENDP ; CMap<unsigned long,unsigned long,IServerUserItem *,IServerUserItem *>::Lookup
_TEXT	ENDS
; Function compile flags: /Odtp /ZI
; File c:\program files (x86)\microsoft visual studio\2017\community\vc\tools\msvc\14.16.27023\atlmfc\include\afxtempl.h
;	COMDAT ?GetCount@?$CMap@KKPAUIServerUserItem@@PAU1@@@QBEHXZ
_TEXT	SEGMENT
_this$ = -4						; size = 4
?GetCount@?$CMap@KKPAUIServerUserItem@@PAU1@@@QBEHXZ PROC ; CMap<unsigned long,unsigned long,IServerUserItem *,IServerUserItem *>::GetCount, COMDAT
; _this$ = ecx

; 1338 : 	{ return m_nCount; }

  00000	55		 push	 ebp
  00001	8b ec		 mov	 ebp, esp
  00003	83 ec 44	 sub	 esp, 68			; 00000044H
  00006	53		 push	 ebx
  00007	56		 push	 esi
  00008	57		 push	 edi
  00009	89 4d fc	 mov	 DWORD PTR _this$[ebp], ecx
  0000c	8b 45 fc	 mov	 eax, DWORD PTR _this$[ebp]
  0000f	8b 40 0c	 mov	 eax, DWORD PTR [eax+12]
  00012	5f		 pop	 edi
  00013	5e		 pop	 esi
  00014	5b		 pop	 ebx
  00015	8b e5		 mov	 esp, ebp
  00017	5d		 pop	 ebp
  00018	c3		 ret	 0
?GetCount@?$CMap@KKPAUIServerUserItem@@PAU1@@@QBEHXZ ENDP ; CMap<unsigned long,unsigned long,IServerUserItem *,IServerUserItem *>::GetCount
_TEXT	ENDS
; Function compile flags: /Odtp /ZI
; File c:\program files (x86)\microsoft visual studio\2017\community\vc\tools\msvc\14.16.27023\atlmfc\include\afxtempl.h
;	COMDAT ??0?$CMap@KKPAUIServerUserItem@@PAU1@@@QAE@H@Z
_TEXT	SEGMENT
_this$ = -16						; size = 4
__$EHRec$ = -12						; size = 12
_nBlockSize$ = 8					; size = 4
??0?$CMap@KKPAUIServerUserItem@@PAU1@@@QAE@H@Z PROC	; CMap<unsigned long,unsigned long,IServerUserItem *,IServerUserItem *>::CMap<unsigned long,unsigned long,IServerUserItem *,IServerUserItem *>, COMDAT
; _this$ = ecx

; 1403 : {

  00000	55		 push	 ebp
  00001	8b ec		 mov	 ebp, esp
  00003	6a ff		 push	 -1
  00005	68 00 00 00 00	 push	 __ehhandler$??0?$CMap@KKPAUIServerUserItem@@PAU1@@@QAE@H@Z
  0000a	64 a1 00 00 00
	00		 mov	 eax, DWORD PTR fs:0
  00010	50		 push	 eax
  00011	83 ec 44	 sub	 esp, 68			; 00000044H
  00014	53		 push	 ebx
  00015	56		 push	 esi
  00016	57		 push	 edi
  00017	a1 00 00 00 00	 mov	 eax, DWORD PTR ___security_cookie
  0001c	33 c5		 xor	 eax, ebp
  0001e	50		 push	 eax
  0001f	8d 45 f4	 lea	 eax, DWORD PTR __$EHRec$[ebp]
  00022	64 a3 00 00 00
	00		 mov	 DWORD PTR fs:0, eax
  00028	89 4d f0	 mov	 DWORD PTR _this$[ebp], ecx
  0002b	8b 4d f0	 mov	 ecx, DWORD PTR _this$[ebp]
  0002e	e8 00 00 00 00	 call	 ??0CObject@@IAE@XZ	; CObject::CObject
  00033	c7 45 fc 00 00
	00 00		 mov	 DWORD PTR __$EHRec$[ebp+8], 0
  0003a	8b 45 f0	 mov	 eax, DWORD PTR _this$[ebp]
  0003d	c7 00 00 00 00
	00		 mov	 DWORD PTR [eax], OFFSET ??_7?$CMap@KKPAUIServerUserItem@@PAU1@@@6B@

; 1404 : 	ASSERT(nBlockSize > 0);

  00043	83 7d 08 00	 cmp	 DWORD PTR _nBlockSize$[ebp], 0
  00047	7f 14		 jg	 SHORT $LN3@CMap
  00049	68 7c 05 00 00	 push	 1404			; 0000057cH
  0004e	68 00 00 00 00	 push	 OFFSET ??_C@_0HC@HBCNBCLF@c?3?2program?5files?5?$CIx86?$CJ?2microsof@
  00053	e8 00 00 00 00	 call	 ?AfxAssertFailedLine@@YGHPBDH@Z ; AfxAssertFailedLine
  00058	85 c0		 test	 eax, eax
  0005a	74 01		 je	 SHORT $LN3@CMap
  0005c	cc		 int	 3
$LN3@CMap:

; 1405 : 
; 1406 : 	m_pHashTable = NULL;

  0005d	8b 45 f0	 mov	 eax, DWORD PTR _this$[ebp]
  00060	c7 40 04 00 00
	00 00		 mov	 DWORD PTR [eax+4], 0

; 1407 : 	m_nHashTableSize = 17;  // default size

  00067	8b 45 f0	 mov	 eax, DWORD PTR _this$[ebp]
  0006a	c7 40 08 11 00
	00 00		 mov	 DWORD PTR [eax+8], 17	; 00000011H

; 1408 : 	m_nCount = 0;

  00071	8b 45 f0	 mov	 eax, DWORD PTR _this$[ebp]
  00074	c7 40 0c 00 00
	00 00		 mov	 DWORD PTR [eax+12], 0

; 1409 : 	m_pFreeList = NULL;

  0007b	8b 45 f0	 mov	 eax, DWORD PTR _this$[ebp]
  0007e	c7 40 10 00 00
	00 00		 mov	 DWORD PTR [eax+16], 0

; 1410 : 	m_pBlocks = NULL;

  00085	8b 45 f0	 mov	 eax, DWORD PTR _this$[ebp]
  00088	c7 40 14 00 00
	00 00		 mov	 DWORD PTR [eax+20], 0

; 1411 : 	m_nBlockSize = nBlockSize;

  0008f	8b 45 f0	 mov	 eax, DWORD PTR _this$[ebp]
  00092	8b 4d 08	 mov	 ecx, DWORD PTR _nBlockSize$[ebp]
  00095	89 48 18	 mov	 DWORD PTR [eax+24], ecx

; 1412 : }

  00098	c7 45 fc ff ff
	ff ff		 mov	 DWORD PTR __$EHRec$[ebp+8], -1
  0009f	8b 45 f0	 mov	 eax, DWORD PTR _this$[ebp]
  000a2	8b 4d f4	 mov	 ecx, DWORD PTR __$EHRec$[ebp]
  000a5	64 89 0d 00 00
	00 00		 mov	 DWORD PTR fs:0, ecx
  000ac	59		 pop	 ecx
  000ad	5f		 pop	 edi
  000ae	5e		 pop	 esi
  000af	5b		 pop	 ebx
  000b0	8b e5		 mov	 esp, ebp
  000b2	5d		 pop	 ebp
  000b3	c2 04 00	 ret	 4
_TEXT	ENDS
;	COMDAT text$x
text$x	SEGMENT
__unwindfunclet$??0?$CMap@KKPAUIServerUserItem@@PAU1@@@QAE@H@Z$0:
  00000	8b 4d f0	 mov	 ecx, DWORD PTR _this$[ebp]
  00003	e9 00 00 00 00	 jmp	 ??1CObject@@UAE@XZ	; CObject::~CObject
__ehhandler$??0?$CMap@KKPAUIServerUserItem@@PAU1@@@QAE@H@Z:
  00008	8b 54 24 08	 mov	 edx, DWORD PTR [esp+8]
  0000c	8d 42 0c	 lea	 eax, DWORD PTR [edx+12]
  0000f	8b 4a ac	 mov	 ecx, DWORD PTR [edx-84]
  00012	33 c8		 xor	 ecx, eax
  00014	e8 00 00 00 00	 call	 @__security_check_cookie@4
  00019	b8 00 00 00 00	 mov	 eax, OFFSET __ehfuncinfo$??0?$CMap@KKPAUIServerUserItem@@PAU1@@@QAE@H@Z
  0001e	e9 00 00 00 00	 jmp	 ___CxxFrameHandler3
text$x	ENDS
??0?$CMap@KKPAUIServerUserItem@@PAU1@@@QAE@H@Z ENDP	; CMap<unsigned long,unsigned long,IServerUserItem *,IServerUserItem *>::CMap<unsigned long,unsigned long,IServerUserItem *,IServerUserItem *>
; Function compile flags: /Odtp /ZI
;	COMDAT ??0IMatchEventSink@@QAE@XZ
_TEXT	SEGMENT
_this$ = -4						; size = 4
??0IMatchEventSink@@QAE@XZ PROC				; IMatchEventSink::IMatchEventSink, COMDAT
; _this$ = ecx
  00000	55		 push	 ebp
  00001	8b ec		 mov	 ebp, esp
  00003	83 ec 44	 sub	 esp, 68			; 00000044H
  00006	53		 push	 ebx
  00007	56		 push	 esi
  00008	57		 push	 edi
  00009	89 4d fc	 mov	 DWORD PTR _this$[ebp], ecx
  0000c	8b 4d fc	 mov	 ecx, DWORD PTR _this$[ebp]
  0000f	e8 00 00 00 00	 call	 ??0IUnknownEx@@QAE@XZ
  00014	8b 45 fc	 mov	 eax, DWORD PTR _this$[ebp]
  00017	c7 00 00 00 00
	00		 mov	 DWORD PTR [eax], OFFSET ??_7IMatchEventSink@@6B@
  0001d	8b 45 fc	 mov	 eax, DWORD PTR _this$[ebp]
  00020	5f		 pop	 edi
  00021	5e		 pop	 esi
  00022	5b		 pop	 ebx
  00023	8b e5		 mov	 esp, ebp
  00025	5d		 pop	 ebp
  00026	c3		 ret	 0
??0IMatchEventSink@@QAE@XZ ENDP				; IMatchEventSink::IMatchEventSink
_TEXT	ENDS
; Function compile flags: /Odtp /ZI
; File c:\program files (x86)\microsoft visual studio\2017\community\vc\tools\msvc\14.16.27023\atlmfc\include\afxtempl.h
;	COMDAT ??$CompareElements@KK@@YGHPBK0@Z
_TEXT	SEGMENT
tv128 = -72						; size = 4
tv66 = -72						; size = 4
___afx_condVal$1 = -4					; size = 4
_pElement1$ = 8						; size = 4
_pElement2$ = 12					; size = 4
??$CompareElements@KK@@YGHPBK0@Z PROC			; CompareElements<unsigned long,unsigned long>, COMDAT

; 151  : {

  00000	55		 push	 ebp
  00001	8b ec		 mov	 ebp, esp
  00003	83 ec 48	 sub	 esp, 72			; 00000048H
  00006	53		 push	 ebx
  00007	56		 push	 esi
  00008	57		 push	 edi
$LN4@CompareEle:

; 152  : 	ENSURE(pElement1 != NULL && pElement2 != NULL);

  00009	83 7d 08 00	 cmp	 DWORD PTR _pElement1$[ebp], 0
  0000d	74 0f		 je	 SHORT $LN7@CompareEle
  0000f	83 7d 0c 00	 cmp	 DWORD PTR _pElement2$[ebp], 0
  00013	74 09		 je	 SHORT $LN7@CompareEle
  00015	c7 45 b8 01 00
	00 00		 mov	 DWORD PTR tv66[ebp], 1
  0001c	eb 07		 jmp	 SHORT $LN8@CompareEle
$LN7@CompareEle:
  0001e	c7 45 b8 00 00
	00 00		 mov	 DWORD PTR tv66[ebp], 0
$LN8@CompareEle:
  00025	8b 45 b8	 mov	 eax, DWORD PTR tv66[ebp]
  00028	89 45 fc	 mov	 DWORD PTR ___afx_condVal$1[ebp], eax
  0002b	83 7d fc 00	 cmp	 DWORD PTR ___afx_condVal$1[ebp], 0
  0002f	75 14		 jne	 SHORT $LN9@CompareEle
  00031	68 98 00 00 00	 push	 152			; 00000098H
  00036	68 00 00 00 00	 push	 OFFSET ??_C@_0HC@HBCNBCLF@c?3?2program?5files?5?$CIx86?$CJ?2microsof@
  0003b	e8 00 00 00 00	 call	 ?AfxAssertFailedLine@@YGHPBDH@Z ; AfxAssertFailedLine
  00040	85 c0		 test	 eax, eax
  00042	74 01		 je	 SHORT $LN9@CompareEle
  00044	cc		 int	 3
$LN9@CompareEle:
  00045	83 7d fc 00	 cmp	 DWORD PTR ___afx_condVal$1[ebp], 0
  00049	75 05		 jne	 SHORT $LN2@CompareEle
  0004b	e8 00 00 00 00	 call	 ?AfxThrowInvalidArgException@@YGXXZ ; AfxThrowInvalidArgException
$LN2@CompareEle:
  00050	33 c0		 xor	 eax, eax
  00052	75 b5		 jne	 SHORT $LN4@CompareEle

; 153  : 	ASSERT(AfxIsValidAddress(pElement1, sizeof(TYPE), FALSE));

  00054	6a 00		 push	 0
  00056	6a 04		 push	 4
  00058	8b 45 08	 mov	 eax, DWORD PTR _pElement1$[ebp]
  0005b	50		 push	 eax
  0005c	e8 00 00 00 00	 call	 ?AfxIsValidAddress@@YGHPBXIH@Z ; AfxIsValidAddress
  00061	85 c0		 test	 eax, eax
  00063	75 14		 jne	 SHORT $LN10@CompareEle
  00065	68 99 00 00 00	 push	 153			; 00000099H
  0006a	68 00 00 00 00	 push	 OFFSET ??_C@_0HC@HBCNBCLF@c?3?2program?5files?5?$CIx86?$CJ?2microsof@
  0006f	e8 00 00 00 00	 call	 ?AfxAssertFailedLine@@YGHPBDH@Z ; AfxAssertFailedLine
  00074	85 c0		 test	 eax, eax
  00076	74 01		 je	 SHORT $LN10@CompareEle
  00078	cc		 int	 3
$LN10@CompareEle:

; 154  : 	ASSERT(AfxIsValidAddress(pElement2, sizeof(ARG_TYPE), FALSE));

  00079	6a 00		 push	 0
  0007b	6a 04		 push	 4
  0007d	8b 45 0c	 mov	 eax, DWORD PTR _pElement2$[ebp]
  00080	50		 push	 eax
  00081	e8 00 00 00 00	 call	 ?AfxIsValidAddress@@YGHPBXIH@Z ; AfxIsValidAddress
  00086	85 c0		 test	 eax, eax
  00088	75 14		 jne	 SHORT $LN11@CompareEle
  0008a	68 9a 00 00 00	 push	 154			; 0000009aH
  0008f	68 00 00 00 00	 push	 OFFSET ??_C@_0HC@HBCNBCLF@c?3?2program?5files?5?$CIx86?$CJ?2microsof@
  00094	e8 00 00 00 00	 call	 ?AfxAssertFailedLine@@YGHPBDH@Z ; AfxAssertFailedLine
  00099	85 c0		 test	 eax, eax
  0009b	74 01		 je	 SHORT $LN11@CompareEle
  0009d	cc		 int	 3
$LN11@CompareEle:

; 155  : 
; 156  : 	return *pElement1 == *pElement2;

  0009e	8b 45 08	 mov	 eax, DWORD PTR _pElement1$[ebp]
  000a1	8b 4d 0c	 mov	 ecx, DWORD PTR _pElement2$[ebp]
  000a4	8b 10		 mov	 edx, DWORD PTR [eax]
  000a6	3b 11		 cmp	 edx, DWORD PTR [ecx]
  000a8	75 09		 jne	 SHORT $LN12@CompareEle
  000aa	c7 45 b8 01 00
	00 00		 mov	 DWORD PTR tv128[ebp], 1
  000b1	eb 07		 jmp	 SHORT $LN13@CompareEle
$LN12@CompareEle:
  000b3	c7 45 b8 00 00
	00 00		 mov	 DWORD PTR tv128[ebp], 0
$LN13@CompareEle:
  000ba	8b 45 b8	 mov	 eax, DWORD PTR tv128[ebp]
$LN6@CompareEle:

; 157  : }

  000bd	5f		 pop	 edi
  000be	5e		 pop	 esi
  000bf	5b		 pop	 ebx
  000c0	8b e5		 mov	 esp, ebp
  000c2	5d		 pop	 ebp
  000c3	c2 08 00	 ret	 8
??$CompareElements@KK@@YGHPBK0@Z ENDP			; CompareElements<unsigned long,unsigned long>
_TEXT	ENDS
; Function compile flags: /Odtp /ZI
; File c:\program files (x86)\microsoft visual studio\2017\community\vc\tools\msvc\14.16.27023\atlmfc\include\afxtempl.h
;	COMDAT ??$DumpElements@K@@YGXAAVCDumpContext@@PBKH@Z
_TEXT	SEGMENT
tv66 = -72						; size = 4
___afx_condVal$1 = -4					; size = 4
_dc$ = 8						; size = 4
_pElements$ = 12					; size = 4
_nCount$ = 16						; size = 4
??$DumpElements@K@@YGXAAVCDumpContext@@PBKH@Z PROC	; DumpElements<unsigned long>, COMDAT

; 137  : {

  00000	55		 push	 ebp
  00001	8b ec		 mov	 ebp, esp
  00003	83 ec 48	 sub	 esp, 72			; 00000048H
  00006	53		 push	 ebx
  00007	56		 push	 esi
  00008	57		 push	 edi
$LN4@DumpElemen:

; 138  : 	ENSURE(nCount == 0 || pElements != NULL);

  00009	83 7d 10 00	 cmp	 DWORD PTR _nCount$[ebp], 0
  0000d	74 0f		 je	 SHORT $LN7@DumpElemen
  0000f	83 7d 0c 00	 cmp	 DWORD PTR _pElements$[ebp], 0
  00013	75 09		 jne	 SHORT $LN7@DumpElemen
  00015	c7 45 b8 00 00
	00 00		 mov	 DWORD PTR tv66[ebp], 0
  0001c	eb 07		 jmp	 SHORT $LN8@DumpElemen
$LN7@DumpElemen:
  0001e	c7 45 b8 01 00
	00 00		 mov	 DWORD PTR tv66[ebp], 1
$LN8@DumpElemen:
  00025	8b 45 b8	 mov	 eax, DWORD PTR tv66[ebp]
  00028	89 45 fc	 mov	 DWORD PTR ___afx_condVal$1[ebp], eax
  0002b	83 7d fc 00	 cmp	 DWORD PTR ___afx_condVal$1[ebp], 0
  0002f	75 14		 jne	 SHORT $LN9@DumpElemen
  00031	68 8a 00 00 00	 push	 138			; 0000008aH
  00036	68 00 00 00 00	 push	 OFFSET ??_C@_0HC@HBCNBCLF@c?3?2program?5files?5?$CIx86?$CJ?2microsof@
  0003b	e8 00 00 00 00	 call	 ?AfxAssertFailedLine@@YGHPBDH@Z ; AfxAssertFailedLine
  00040	85 c0		 test	 eax, eax
  00042	74 01		 je	 SHORT $LN9@DumpElemen
  00044	cc		 int	 3
$LN9@DumpElemen:
  00045	83 7d fc 00	 cmp	 DWORD PTR ___afx_condVal$1[ebp], 0
  00049	75 05		 jne	 SHORT $LN2@DumpElemen
  0004b	e8 00 00 00 00	 call	 ?AfxThrowInvalidArgException@@YGXXZ ; AfxThrowInvalidArgException
$LN2@DumpElemen:
  00050	33 c0		 xor	 eax, eax
  00052	75 b5		 jne	 SHORT $LN4@DumpElemen

; 139  : 	ASSERT(nCount == 0 ||

  00054	83 7d 10 00	 cmp	 DWORD PTR _nCount$[ebp], 0
  00058	74 2a		 je	 SHORT $LN6@DumpElemen
  0005a	6a 00		 push	 0
  0005c	8b 45 10	 mov	 eax, DWORD PTR _nCount$[ebp]
  0005f	c1 e0 02	 shl	 eax, 2
  00062	50		 push	 eax
  00063	8b 4d 0c	 mov	 ecx, DWORD PTR _pElements$[ebp]
  00066	51		 push	 ecx
  00067	e8 00 00 00 00	 call	 ?AfxIsValidAddress@@YGHPBXIH@Z ; AfxIsValidAddress
  0006c	85 c0		 test	 eax, eax
  0006e	75 14		 jne	 SHORT $LN6@DumpElemen
  00070	68 8c 00 00 00	 push	 140			; 0000008cH
  00075	68 00 00 00 00	 push	 OFFSET ??_C@_0HC@HBCNBCLF@c?3?2program?5files?5?$CIx86?$CJ?2microsof@
  0007a	e8 00 00 00 00	 call	 ?AfxAssertFailedLine@@YGHPBDH@Z ; AfxAssertFailedLine
  0007f	85 c0		 test	 eax, eax
  00081	74 01		 je	 SHORT $LN6@DumpElemen
  00083	cc		 int	 3
$LN6@DumpElemen:

; 140  : 		AfxIsValidAddress(pElements, (size_t)nCount * sizeof(TYPE), FALSE));
; 141  : 	(dc); // not used
; 142  : 	(pElements);  // not used
; 143  : 	(nCount); // not used
; 144  : 
; 145  : 	// default does nothing
; 146  : }

  00084	5f		 pop	 edi
  00085	5e		 pop	 esi
  00086	5b		 pop	 ebx
  00087	8b e5		 mov	 esp, ebp
  00089	5d		 pop	 ebp
  0008a	c2 0c 00	 ret	 12			; 0000000cH
??$DumpElements@K@@YGXAAVCDumpContext@@PBKH@Z ENDP	; DumpElements<unsigned long>
_TEXT	ENDS
; Function compile flags: /Odtp /ZI
; File c:\program files (x86)\microsoft visual studio\2017\community\vc\tools\msvc\14.16.27023\atlmfc\include\afxtempl.h
;	COMDAT ??$SerializeElements@K@@YGXAAVCArchive@@PAKH@Z
_TEXT	SEGMENT
tv134 = -96						; size = 4
tv92 = -96						; size = 4
tv66 = -96						; size = 4
_nElementsToRead$1 = -28				; size = 4
_nElementsLeft$2 = -24					; size = 4
_pData$3 = -20						; size = 4
_nElementsToWrite$4 = -16				; size = 4
_nElementsLeft$5 = -12					; size = 4
_pData$6 = -8						; size = 4
___afx_condVal$7 = -4					; size = 4
_ar$ = 8						; size = 4
_pElements$ = 12					; size = 4
_nCount$ = 16						; size = 4
??$SerializeElements@K@@YGXAAVCArchive@@PAKH@Z PROC	; SerializeElements<unsigned long>, COMDAT

; 67   : {

  00000	55		 push	 ebp
  00001	8b ec		 mov	 ebp, esp
  00003	83 ec 60	 sub	 esp, 96			; 00000060H
  00006	53		 push	 ebx
  00007	56		 push	 esi
  00008	57		 push	 edi
$LN4@SerializeE:

; 68   : 	ENSURE(nCount == 0 || pElements != NULL);

  00009	83 7d 10 00	 cmp	 DWORD PTR _nCount$[ebp], 0
  0000d	74 0f		 je	 SHORT $LN13@SerializeE
  0000f	83 7d 0c 00	 cmp	 DWORD PTR _pElements$[ebp], 0
  00013	75 09		 jne	 SHORT $LN13@SerializeE
  00015	c7 45 a0 00 00
	00 00		 mov	 DWORD PTR tv66[ebp], 0
  0001c	eb 07		 jmp	 SHORT $LN14@SerializeE
$LN13@SerializeE:
  0001e	c7 45 a0 01 00
	00 00		 mov	 DWORD PTR tv66[ebp], 1
$LN14@SerializeE:
  00025	8b 45 a0	 mov	 eax, DWORD PTR tv66[ebp]
  00028	89 45 fc	 mov	 DWORD PTR ___afx_condVal$7[ebp], eax
  0002b	83 7d fc 00	 cmp	 DWORD PTR ___afx_condVal$7[ebp], 0
  0002f	75 11		 jne	 SHORT $LN15@SerializeE
  00031	6a 44		 push	 68			; 00000044H
  00033	68 00 00 00 00	 push	 OFFSET ??_C@_0HC@HBCNBCLF@c?3?2program?5files?5?$CIx86?$CJ?2microsof@
  00038	e8 00 00 00 00	 call	 ?AfxAssertFailedLine@@YGHPBDH@Z ; AfxAssertFailedLine
  0003d	85 c0		 test	 eax, eax
  0003f	74 01		 je	 SHORT $LN15@SerializeE
  00041	cc		 int	 3
$LN15@SerializeE:
  00042	83 7d fc 00	 cmp	 DWORD PTR ___afx_condVal$7[ebp], 0
  00046	75 05		 jne	 SHORT $LN2@SerializeE
  00048	e8 00 00 00 00	 call	 ?AfxThrowInvalidArgException@@YGXXZ ; AfxThrowInvalidArgException
$LN2@SerializeE:
  0004d	33 c0		 xor	 eax, eax
  0004f	75 b8		 jne	 SHORT $LN4@SerializeE

; 69   : 	ASSERT(nCount == 0 ||

  00051	83 7d 10 00	 cmp	 DWORD PTR _nCount$[ebp], 0
  00055	74 27		 je	 SHORT $LN16@SerializeE
  00057	6a 01		 push	 1
  00059	8b 45 10	 mov	 eax, DWORD PTR _nCount$[ebp]
  0005c	c1 e0 02	 shl	 eax, 2
  0005f	50		 push	 eax
  00060	8b 4d 0c	 mov	 ecx, DWORD PTR _pElements$[ebp]
  00063	51		 push	 ecx
  00064	e8 00 00 00 00	 call	 ?AfxIsValidAddress@@YGHPBXIH@Z ; AfxIsValidAddress
  00069	85 c0		 test	 eax, eax
  0006b	75 11		 jne	 SHORT $LN16@SerializeE
  0006d	6a 46		 push	 70			; 00000046H
  0006f	68 00 00 00 00	 push	 OFFSET ??_C@_0HC@HBCNBCLF@c?3?2program?5files?5?$CIx86?$CJ?2microsof@
  00074	e8 00 00 00 00	 call	 ?AfxAssertFailedLine@@YGHPBDH@Z ; AfxAssertFailedLine
  00079	85 c0		 test	 eax, eax
  0007b	74 01		 je	 SHORT $LN16@SerializeE
  0007d	cc		 int	 3
$LN16@SerializeE:

; 70   : 		AfxIsValidAddress(pElements, (size_t)nCount * sizeof(TYPE)));
; 71   : 
; 72   : 	// default is bit-wise read/write
; 73   : 	if (ar.IsStoring())

  0007e	8b 4d 08	 mov	 ecx, DWORD PTR _ar$[ebp]
  00081	e8 00 00 00 00	 call	 ?IsStoring@CArchive@@QBEHXZ ; CArchive::IsStoring
  00086	85 c0		 test	 eax, eax
  00088	74 5c		 je	 SHORT $LN10@SerializeE

; 74   : 	{
; 75   : 		TYPE* pData;
; 76   : 		UINT_PTR nElementsLeft;
; 77   : 
; 78   : 		nElementsLeft = nCount;

  0008a	8b 45 10	 mov	 eax, DWORD PTR _nCount$[ebp]
  0008d	89 45 f4	 mov	 DWORD PTR _nElementsLeft$5[ebp], eax

; 79   : 		pData = pElements;

  00090	8b 45 0c	 mov	 eax, DWORD PTR _pElements$[ebp]
  00093	89 45 f8	 mov	 DWORD PTR _pData$6[ebp], eax
$LN5@SerializeE:

; 80   : 		while( nElementsLeft > 0 )

  00096	83 7d f4 00	 cmp	 DWORD PTR _nElementsLeft$5[ebp], 0
  0009a	76 48		 jbe	 SHORT $LN6@SerializeE

; 81   : 		{
; 82   : 			UINT nElementsToWrite;
; 83   : 
; 84   : 			nElementsToWrite = UINT(__min(nElementsLeft, INT_MAX/sizeof(TYPE)));

  0009c	81 7d f4 ff ff
	ff 1f		 cmp	 DWORD PTR _nElementsLeft$5[ebp], 536870911 ; 1fffffffH
  000a3	73 08		 jae	 SHORT $LN17@SerializeE
  000a5	8b 45 f4	 mov	 eax, DWORD PTR _nElementsLeft$5[ebp]
  000a8	89 45 a0	 mov	 DWORD PTR tv92[ebp], eax
  000ab	eb 07		 jmp	 SHORT $LN18@SerializeE
$LN17@SerializeE:
  000ad	c7 45 a0 ff ff
	ff 1f		 mov	 DWORD PTR tv92[ebp], 536870911 ; 1fffffffH
$LN18@SerializeE:
  000b4	8b 4d a0	 mov	 ecx, DWORD PTR tv92[ebp]
  000b7	89 4d f0	 mov	 DWORD PTR _nElementsToWrite$4[ebp], ecx

; 85   : 			ar.Write(pData, nElementsToWrite*sizeof(TYPE));

  000ba	8b 45 f0	 mov	 eax, DWORD PTR _nElementsToWrite$4[ebp]
  000bd	c1 e0 02	 shl	 eax, 2
  000c0	50		 push	 eax
  000c1	8b 4d f8	 mov	 ecx, DWORD PTR _pData$6[ebp]
  000c4	51		 push	 ecx
  000c5	8b 4d 08	 mov	 ecx, DWORD PTR _ar$[ebp]
  000c8	e8 00 00 00 00	 call	 ?Write@CArchive@@QAEXPBXI@Z ; CArchive::Write

; 86   : 			nElementsLeft -= nElementsToWrite;

  000cd	8b 45 f4	 mov	 eax, DWORD PTR _nElementsLeft$5[ebp]
  000d0	2b 45 f0	 sub	 eax, DWORD PTR _nElementsToWrite$4[ebp]
  000d3	89 45 f4	 mov	 DWORD PTR _nElementsLeft$5[ebp], eax

; 87   : 			pData += nElementsToWrite;

  000d6	8b 45 f0	 mov	 eax, DWORD PTR _nElementsToWrite$4[ebp]
  000d9	8b 4d f8	 mov	 ecx, DWORD PTR _pData$6[ebp]
  000dc	8d 14 81	 lea	 edx, DWORD PTR [ecx+eax*4]
  000df	89 55 f8	 mov	 DWORD PTR _pData$6[ebp], edx

; 88   : 		}

  000e2	eb b2		 jmp	 SHORT $LN5@SerializeE
$LN6@SerializeE:

; 89   : 	}
; 90   : 	else

  000e4	eb 5a		 jmp	 SHORT $LN12@SerializeE
$LN10@SerializeE:

; 91   : 	{
; 92   : 		TYPE* pData;
; 93   : 		UINT_PTR nElementsLeft;
; 94   : 
; 95   : 		nElementsLeft = nCount;

  000e6	8b 45 10	 mov	 eax, DWORD PTR _nCount$[ebp]
  000e9	89 45 e8	 mov	 DWORD PTR _nElementsLeft$2[ebp], eax

; 96   : 		pData = pElements;

  000ec	8b 45 0c	 mov	 eax, DWORD PTR _pElements$[ebp]
  000ef	89 45 ec	 mov	 DWORD PTR _pData$3[ebp], eax
$LN7@SerializeE:

; 97   : 		while( nElementsLeft > 0 )

  000f2	83 7d e8 00	 cmp	 DWORD PTR _nElementsLeft$2[ebp], 0
  000f6	76 48		 jbe	 SHORT $LN12@SerializeE

; 98   : 		{
; 99   : 			UINT nElementsToRead;
; 100  : 
; 101  : 			nElementsToRead = UINT(__min(nElementsLeft, INT_MAX/sizeof(TYPE)));

  000f8	81 7d e8 ff ff
	ff 1f		 cmp	 DWORD PTR _nElementsLeft$2[ebp], 536870911 ; 1fffffffH
  000ff	73 08		 jae	 SHORT $LN19@SerializeE
  00101	8b 45 e8	 mov	 eax, DWORD PTR _nElementsLeft$2[ebp]
  00104	89 45 a0	 mov	 DWORD PTR tv134[ebp], eax
  00107	eb 07		 jmp	 SHORT $LN20@SerializeE
$LN19@SerializeE:
  00109	c7 45 a0 ff ff
	ff 1f		 mov	 DWORD PTR tv134[ebp], 536870911 ; 1fffffffH
$LN20@SerializeE:
  00110	8b 4d a0	 mov	 ecx, DWORD PTR tv134[ebp]
  00113	89 4d e4	 mov	 DWORD PTR _nElementsToRead$1[ebp], ecx

; 102  : 			ar.EnsureRead(pData, nElementsToRead*sizeof(TYPE));

  00116	8b 45 e4	 mov	 eax, DWORD PTR _nElementsToRead$1[ebp]
  00119	c1 e0 02	 shl	 eax, 2
  0011c	50		 push	 eax
  0011d	8b 4d ec	 mov	 ecx, DWORD PTR _pData$3[ebp]
  00120	51		 push	 ecx
  00121	8b 4d 08	 mov	 ecx, DWORD PTR _ar$[ebp]
  00124	e8 00 00 00 00	 call	 ?EnsureRead@CArchive@@QAEXPAXI@Z ; CArchive::EnsureRead

; 103  : 			nElementsLeft -= nElementsToRead;

  00129	8b 45 e8	 mov	 eax, DWORD PTR _nElementsLeft$2[ebp]
  0012c	2b 45 e4	 sub	 eax, DWORD PTR _nElementsToRead$1[ebp]
  0012f	89 45 e8	 mov	 DWORD PTR _nElementsLeft$2[ebp], eax

; 104  : 			pData += nElementsToRead;

  00132	8b 45 e4	 mov	 eax, DWORD PTR _nElementsToRead$1[ebp]
  00135	8b 4d ec	 mov	 ecx, DWORD PTR _pData$3[ebp]
  00138	8d 14 81	 lea	 edx, DWORD PTR [ecx+eax*4]
  0013b	89 55 ec	 mov	 DWORD PTR _pData$3[ebp], edx

; 105  : 		}

  0013e	eb b2		 jmp	 SHORT $LN7@SerializeE
$LN12@SerializeE:

; 106  : 	}
; 107  : }

  00140	5f		 pop	 edi
  00141	5e		 pop	 esi
  00142	5b		 pop	 ebx
  00143	8b e5		 mov	 esp, ebp
  00145	5d		 pop	 ebp
  00146	c2 0c 00	 ret	 12			; 0000000cH
??$SerializeElements@K@@YGXAAVCArchive@@PAKH@Z ENDP	; SerializeElements<unsigned long>
_TEXT	ENDS
; Function compile flags: /Odtp /ZI
; File g:\网狐\happygamewh\服务端\系统模块\全局定义\module.h
;	COMDAT ?InterfaceVersionCompare@@YA_NKK@Z
_TEXT	SEGMENT
_dwQueryVer$ = 8					; size = 4
_dwInterfaceVer$ = 12					; size = 4
?InterfaceVersionCompare@@YA_NKK@Z PROC			; InterfaceVersionCompare, COMDAT

; 68   : {

  00000	55		 push	 ebp
  00001	8b ec		 mov	 ebp, esp
  00003	83 ec 40	 sub	 esp, 64			; 00000040H
  00006	53		 push	 ebx
  00007	56		 push	 esi
  00008	57		 push	 edi

; 69   : 	if (GetSubVer(dwQueryVer)>GetSubVer(dwInterfaceVer)) return false;

  00009	8b 45 08	 mov	 eax, DWORD PTR _dwQueryVer$[ebp]
  0000c	50		 push	 eax
  0000d	e8 00 00 00 00	 call	 ?GetSubVer@@YAEK@Z	; GetSubVer
  00012	83 c4 04	 add	 esp, 4
  00015	0f b6 f0	 movzx	 esi, al
  00018	8b 4d 0c	 mov	 ecx, DWORD PTR _dwInterfaceVer$[ebp]
  0001b	51		 push	 ecx
  0001c	e8 00 00 00 00	 call	 ?GetSubVer@@YAEK@Z	; GetSubVer
  00021	83 c4 04	 add	 esp, 4
  00024	0f b6 d0	 movzx	 edx, al
  00027	3b f2		 cmp	 esi, edx
  00029	7e 04		 jle	 SHORT $LN2@InterfaceV
  0002b	32 c0		 xor	 al, al
  0002d	eb 74		 jmp	 SHORT $LN1@InterfaceV
$LN2@InterfaceV:

; 70   : 	if (GetMainVer(dwQueryVer)!=GetMainVer(dwInterfaceVer)) return false;

  0002f	8b 45 08	 mov	 eax, DWORD PTR _dwQueryVer$[ebp]
  00032	50		 push	 eax
  00033	e8 00 00 00 00	 call	 ?GetMainVer@@YAEK@Z	; GetMainVer
  00038	83 c4 04	 add	 esp, 4
  0003b	0f b6 f0	 movzx	 esi, al
  0003e	8b 4d 0c	 mov	 ecx, DWORD PTR _dwInterfaceVer$[ebp]
  00041	51		 push	 ecx
  00042	e8 00 00 00 00	 call	 ?GetMainVer@@YAEK@Z	; GetMainVer
  00047	83 c4 04	 add	 esp, 4
  0004a	0f b6 d0	 movzx	 edx, al
  0004d	3b f2		 cmp	 esi, edx
  0004f	74 04		 je	 SHORT $LN3@InterfaceV
  00051	32 c0		 xor	 al, al
  00053	eb 4e		 jmp	 SHORT $LN1@InterfaceV
$LN3@InterfaceV:

; 71   : 	if (GetBuildVer(dwQueryVer)!=GetBuildVer(dwInterfaceVer)) return false;

  00055	8b 45 08	 mov	 eax, DWORD PTR _dwQueryVer$[ebp]
  00058	50		 push	 eax
  00059	e8 00 00 00 00	 call	 ?GetBuildVer@@YAEK@Z	; GetBuildVer
  0005e	83 c4 04	 add	 esp, 4
  00061	0f b6 f0	 movzx	 esi, al
  00064	8b 4d 0c	 mov	 ecx, DWORD PTR _dwInterfaceVer$[ebp]
  00067	51		 push	 ecx
  00068	e8 00 00 00 00	 call	 ?GetBuildVer@@YAEK@Z	; GetBuildVer
  0006d	83 c4 04	 add	 esp, 4
  00070	0f b6 d0	 movzx	 edx, al
  00073	3b f2		 cmp	 esi, edx
  00075	74 04		 je	 SHORT $LN4@InterfaceV
  00077	32 c0		 xor	 al, al
  00079	eb 28		 jmp	 SHORT $LN1@InterfaceV
$LN4@InterfaceV:

; 72   : 	if (GetProductVer(dwQueryVer)!=GetProductVer(dwInterfaceVer)) return false;

  0007b	8b 45 08	 mov	 eax, DWORD PTR _dwQueryVer$[ebp]
  0007e	50		 push	 eax
  0007f	e8 00 00 00 00	 call	 ?GetProductVer@@YAEK@Z	; GetProductVer
  00084	83 c4 04	 add	 esp, 4
  00087	0f b6 f0	 movzx	 esi, al
  0008a	8b 4d 0c	 mov	 ecx, DWORD PTR _dwInterfaceVer$[ebp]
  0008d	51		 push	 ecx
  0008e	e8 00 00 00 00	 call	 ?GetProductVer@@YAEK@Z	; GetProductVer
  00093	83 c4 04	 add	 esp, 4
  00096	0f b6 d0	 movzx	 edx, al
  00099	3b f2		 cmp	 esi, edx
  0009b	74 04		 je	 SHORT $LN5@InterfaceV
  0009d	32 c0		 xor	 al, al
  0009f	eb 02		 jmp	 SHORT $LN1@InterfaceV
$LN5@InterfaceV:

; 73   : 	return true;

  000a1	b0 01		 mov	 al, 1
$LN1@InterfaceV:

; 74   : };

  000a3	5f		 pop	 edi
  000a4	5e		 pop	 esi
  000a5	5b		 pop	 ebx
  000a6	8b e5		 mov	 esp, ebp
  000a8	5d		 pop	 ebp
  000a9	c3		 ret	 0
?InterfaceVersionCompare@@YA_NKK@Z ENDP			; InterfaceVersionCompare
_TEXT	ENDS
; Function compile flags: /Odtp /ZI
; File g:\网狐\happygamewh\服务端\系统模块\全局定义\module.h
;	COMDAT ?GetBuildVer@@YAEK@Z
_TEXT	SEGMENT
_dwVersion$ = 8						; size = 4
?GetBuildVer@@YAEK@Z PROC				; GetBuildVer, COMDAT

; 62   : {

  00000	55		 push	 ebp
  00001	8b ec		 mov	 ebp, esp
  00003	83 ec 40	 sub	 esp, 64			; 00000040H
  00006	53		 push	 ebx
  00007	56		 push	 esi
  00008	57		 push	 edi

; 63   : 	return ((BYTE *)&dwVersion)[0];

  00009	b8 01 00 00 00	 mov	 eax, 1
  0000e	6b c8 00	 imul	 ecx, eax, 0
  00011	8a 44 0d 08	 mov	 al, BYTE PTR _dwVersion$[ebp+ecx]

; 64   : }

  00015	5f		 pop	 edi
  00016	5e		 pop	 esi
  00017	5b		 pop	 ebx
  00018	8b e5		 mov	 esp, ebp
  0001a	5d		 pop	 ebp
  0001b	c3		 ret	 0
?GetBuildVer@@YAEK@Z ENDP				; GetBuildVer
_TEXT	ENDS
; Function compile flags: /Odtp /ZI
; File g:\网狐\happygamewh\服务端\系统模块\全局定义\module.h
;	COMDAT ?GetSubVer@@YAEK@Z
_TEXT	SEGMENT
_dwVersion$ = 8						; size = 4
?GetSubVer@@YAEK@Z PROC					; GetSubVer, COMDAT

; 56   : {

  00000	55		 push	 ebp
  00001	8b ec		 mov	 ebp, esp
  00003	83 ec 40	 sub	 esp, 64			; 00000040H
  00006	53		 push	 ebx
  00007	56		 push	 esi
  00008	57		 push	 edi

; 57   : 	return ((BYTE *)&dwVersion)[1];

  00009	b8 01 00 00 00	 mov	 eax, 1
  0000e	c1 e0 00	 shl	 eax, 0
  00011	8a 44 05 08	 mov	 al, BYTE PTR _dwVersion$[ebp+eax]

; 58   : }

  00015	5f		 pop	 edi
  00016	5e		 pop	 esi
  00017	5b		 pop	 ebx
  00018	8b e5		 mov	 esp, ebp
  0001a	5d		 pop	 ebp
  0001b	c3		 ret	 0
?GetSubVer@@YAEK@Z ENDP					; GetSubVer
_TEXT	ENDS
; Function compile flags: /Odtp /ZI
; File g:\网狐\happygamewh\服务端\系统模块\全局定义\module.h
;	COMDAT ?GetMainVer@@YAEK@Z
_TEXT	SEGMENT
_dwVersion$ = 8						; size = 4
?GetMainVer@@YAEK@Z PROC				; GetMainVer, COMDAT

; 50   : {

  00000	55		 push	 ebp
  00001	8b ec		 mov	 ebp, esp
  00003	83 ec 40	 sub	 esp, 64			; 00000040H
  00006	53		 push	 ebx
  00007	56		 push	 esi
  00008	57		 push	 edi

; 51   : 	return ((BYTE *)&dwVersion)[2];

  00009	b8 01 00 00 00	 mov	 eax, 1
  0000e	d1 e0		 shl	 eax, 1
  00010	8a 44 05 08	 mov	 al, BYTE PTR _dwVersion$[ebp+eax]

; 52   : }

  00014	5f		 pop	 edi
  00015	5e		 pop	 esi
  00016	5b		 pop	 ebx
  00017	8b e5		 mov	 esp, ebp
  00019	5d		 pop	 ebp
  0001a	c3		 ret	 0
?GetMainVer@@YAEK@Z ENDP				; GetMainVer
_TEXT	ENDS
; Function compile flags: /Odtp /ZI
; File g:\网狐\happygamewh\服务端\系统模块\全局定义\module.h
;	COMDAT ?GetProductVer@@YAEK@Z
_TEXT	SEGMENT
_dwVersion$ = 8						; size = 4
?GetProductVer@@YAEK@Z PROC				; GetProductVer, COMDAT

; 44   : {

  00000	55		 push	 ebp
  00001	8b ec		 mov	 ebp, esp
  00003	83 ec 40	 sub	 esp, 64			; 00000040H
  00006	53		 push	 ebx
  00007	56		 push	 esi
  00008	57		 push	 edi

; 45   : 	return ((BYTE *)&dwVersion)[3];

  00009	b8 01 00 00 00	 mov	 eax, 1
  0000e	6b c8 03	 imul	 ecx, eax, 3
  00011	8a 44 0d 08	 mov	 al, BYTE PTR _dwVersion$[ebp+ecx]

; 46   : }

  00015	5f		 pop	 edi
  00016	5e		 pop	 esi
  00017	5b		 pop	 ebx
  00018	8b e5		 mov	 esp, ebp
  0001a	5d		 pop	 ebp
  0001b	c3		 ret	 0
?GetProductVer@@YAEK@Z ENDP				; GetProductVer
_TEXT	ENDS
; Function compile flags: /Odtp /ZI
;	COMDAT ??0IUnknownEx@@QAE@XZ
_TEXT	SEGMENT
_this$ = -4						; size = 4
??0IUnknownEx@@QAE@XZ PROC				; IUnknownEx::IUnknownEx, COMDAT
; _this$ = ecx
  00000	55		 push	 ebp
  00001	8b ec		 mov	 ebp, esp
  00003	83 ec 44	 sub	 esp, 68			; 00000044H
  00006	53		 push	 ebx
  00007	56		 push	 esi
  00008	57		 push	 edi
  00009	89 4d fc	 mov	 DWORD PTR _this$[ebp], ecx
  0000c	8b 45 fc	 mov	 eax, DWORD PTR _this$[ebp]
  0000f	c7 00 00 00 00
	00		 mov	 DWORD PTR [eax], OFFSET ??_7IUnknownEx@@6B@
  00015	8b 45 fc	 mov	 eax, DWORD PTR _this$[ebp]
  00018	5f		 pop	 edi
  00019	5e		 pop	 esi
  0001a	5b		 pop	 ebx
  0001b	8b e5		 mov	 esp, ebp
  0001d	5d		 pop	 ebp
  0001e	c3		 ret	 0
??0IUnknownEx@@QAE@XZ ENDP				; IUnknownEx::IUnknownEx
_TEXT	ENDS
; Function compile flags: /Odtp /ZI
; File c:\program files (x86)\microsoft visual studio\2017\community\vc\tools\msvc\14.16.27023\atlmfc\include\afxtempl.h
;	COMDAT ??$HashKey@K@@YGIK@Z
_TEXT	SEGMENT
$T1 = -80						; size = 8
_HashVal$ = -8						; size = 8
_key$ = 8						; size = 4
??$HashKey@K@@YGIK@Z PROC				; HashKey<unsigned long>, COMDAT

; 161  : {

  00000	55		 push	 ebp
  00001	8b ec		 mov	 ebp, esp
  00003	83 ec 50	 sub	 esp, 80			; 00000050H
  00006	53		 push	 ebx
  00007	56		 push	 esi
  00008	57		 push	 edi

; 162  : 	// (algorithm copied from STL hash in xfunctional)
; 163  : #pragma warning(suppress: 4302) // 'type cast' : truncation
; 164  : #pragma warning(suppress: 4311) // pointer truncation
; 165  : 	ldiv_t HashVal = ldiv((long)(ARG_KEY)key, 127773);

  00009	68 1d f3 01 00	 push	 127773			; 0001f31dH
  0000e	8b 45 08	 mov	 eax, DWORD PTR _key$[ebp]
  00011	50		 push	 eax
  00012	ff 15 00 00 00
	00		 call	 DWORD PTR __imp__ldiv
  00018	83 c4 08	 add	 esp, 8
  0001b	89 45 b0	 mov	 DWORD PTR $T1[ebp], eax
  0001e	89 55 b4	 mov	 DWORD PTR $T1[ebp+4], edx
  00021	8b 4d b0	 mov	 ecx, DWORD PTR $T1[ebp]
  00024	89 4d f8	 mov	 DWORD PTR _HashVal$[ebp], ecx
  00027	8b 55 b4	 mov	 edx, DWORD PTR $T1[ebp+4]
  0002a	89 55 fc	 mov	 DWORD PTR _HashVal$[ebp+4], edx

; 166  : 	HashVal.rem = 16807 * HashVal.rem - 2836 * HashVal.quot;

  0002d	69 45 fc a7 41
	00 00		 imul	 eax, DWORD PTR _HashVal$[ebp+4], 16807
  00034	69 4d f8 14 0b
	00 00		 imul	 ecx, DWORD PTR _HashVal$[ebp], 2836
  0003b	2b c1		 sub	 eax, ecx
  0003d	89 45 fc	 mov	 DWORD PTR _HashVal$[ebp+4], eax

; 167  : 	if (HashVal.rem < 0)

  00040	79 0b		 jns	 SHORT $LN2@HashKey

; 168  : 		HashVal.rem += 2147483647;

  00042	8b 45 fc	 mov	 eax, DWORD PTR _HashVal$[ebp+4]
  00045	05 ff ff ff 7f	 add	 eax, 2147483647		; 7fffffffH
  0004a	89 45 fc	 mov	 DWORD PTR _HashVal$[ebp+4], eax
$LN2@HashKey:

; 169  : 	return ((UINT)HashVal.rem);

  0004d	8b 45 fc	 mov	 eax, DWORD PTR _HashVal$[ebp+4]

; 170  : }

  00050	5f		 pop	 edi
  00051	5e		 pop	 esi
  00052	5b		 pop	 ebx
  00053	8b e5		 mov	 esp, ebp
  00055	5d		 pop	 ebp
  00056	c2 04 00	 ret	 4
??$HashKey@K@@YGIK@Z ENDP				; HashKey<unsigned long>
_TEXT	ENDS
; Function compile flags: /Odtp /ZI
; File c:\program files (x86)\microsoft visual studio\2017\community\vc\tools\msvc\14.16.27023\atlmfc\include\afxplex_.h
;	COMDAT ?data@CPlex@@QAEPAXXZ
_TEXT	SEGMENT
_this$ = -4						; size = 4
?data@CPlex@@QAEPAXXZ PROC				; CPlex::data, COMDAT
; _this$ = ecx

; 35   : 	void* data() { return this+1; }

  00000	55		 push	 ebp
  00001	8b ec		 mov	 ebp, esp
  00003	83 ec 44	 sub	 esp, 68			; 00000044H
  00006	53		 push	 ebx
  00007	56		 push	 esi
  00008	57		 push	 edi
  00009	89 4d fc	 mov	 DWORD PTR _this$[ebp], ecx
  0000c	8b 45 fc	 mov	 eax, DWORD PTR _this$[ebp]
  0000f	83 c0 08	 add	 eax, 8
  00012	5f		 pop	 edi
  00013	5e		 pop	 esi
  00014	5b		 pop	 ebx
  00015	8b e5		 mov	 esp, ebp
  00017	5d		 pop	 ebp
  00018	c3		 ret	 0
?data@CPlex@@QAEPAXXZ ENDP				; CPlex::data
_TEXT	ENDS
; Function compile flags: /Odtp /ZI
; File c:\program files (x86)\microsoft visual studio\2017\community\vc\tools\msvc\14.16.27023\atlmfc\include\atltime.h
;	COMDAT ?GetAsSystemTime@CTime@ATL@@QBE_NAAU_SYSTEMTIME@@@Z
_TEXT	SEGMENT
_ptm$ = -48						; size = 4
_ttm$ = -44						; size = 36
_this$ = -8						; size = 4
__$ArrayPad$ = -4					; size = 4
_timeDest$ = 8						; size = 4
?GetAsSystemTime@CTime@ATL@@QBE_NAAU_SYSTEMTIME@@@Z PROC ; ATL::CTime::GetAsSystemTime, COMDAT
; _this$ = ecx

; 629  : {

  00000	55		 push	 ebp
  00001	8b ec		 mov	 ebp, esp
  00003	83 ec 70	 sub	 esp, 112		; 00000070H
  00006	a1 00 00 00 00	 mov	 eax, DWORD PTR ___security_cookie
  0000b	33 c5		 xor	 eax, ebp
  0000d	89 45 fc	 mov	 DWORD PTR __$ArrayPad$[ebp], eax
  00010	53		 push	 ebx
  00011	56		 push	 esi
  00012	57		 push	 edi
  00013	89 4d f8	 mov	 DWORD PTR _this$[ebp], ecx

; 630  : 	struct tm ttm;
; 631  : 	struct tm* ptm;
; 632  : 
; 633  : 	ptm = GetLocalTm(&ttm);

  00016	8d 45 d4	 lea	 eax, DWORD PTR _ttm$[ebp]
  00019	50		 push	 eax
  0001a	8b 4d f8	 mov	 ecx, DWORD PTR _this$[ebp]
  0001d	e8 00 00 00 00	 call	 ?GetLocalTm@CTime@ATL@@QBEPAUtm@@PAU3@@Z ; ATL::CTime::GetLocalTm
  00022	89 45 d0	 mov	 DWORD PTR _ptm$[ebp], eax

; 634  : 	if(!ptm)

  00025	83 7d d0 00	 cmp	 DWORD PTR _ptm$[ebp], 0
  00029	75 04		 jne	 SHORT $LN2@GetAsSyste

; 635  : 	{
; 636  : 		return false;

  0002b	32 c0		 xor	 al, al
  0002d	eb 72		 jmp	 SHORT $LN1@GetAsSyste
$LN2@GetAsSyste:

; 637  : 	}
; 638  : 
; 639  : 	timeDest.wYear = (WORD) (1900 + ptm->tm_year);

  0002f	8b 45 d0	 mov	 eax, DWORD PTR _ptm$[ebp]
  00032	8b 48 14	 mov	 ecx, DWORD PTR [eax+20]
  00035	81 c1 6c 07 00
	00		 add	 ecx, 1900		; 0000076cH
  0003b	8b 55 08	 mov	 edx, DWORD PTR _timeDest$[ebp]
  0003e	66 89 0a	 mov	 WORD PTR [edx], cx

; 640  : 	timeDest.wMonth = (WORD) (1 + ptm->tm_mon);

  00041	8b 45 d0	 mov	 eax, DWORD PTR _ptm$[ebp]
  00044	8b 48 10	 mov	 ecx, DWORD PTR [eax+16]
  00047	83 c1 01	 add	 ecx, 1
  0004a	8b 55 08	 mov	 edx, DWORD PTR _timeDest$[ebp]
  0004d	66 89 4a 02	 mov	 WORD PTR [edx+2], cx

; 641  : 	timeDest.wDayOfWeek = (WORD) ptm->tm_wday;

  00051	8b 45 08	 mov	 eax, DWORD PTR _timeDest$[ebp]
  00054	8b 4d d0	 mov	 ecx, DWORD PTR _ptm$[ebp]
  00057	66 8b 51 18	 mov	 dx, WORD PTR [ecx+24]
  0005b	66 89 50 04	 mov	 WORD PTR [eax+4], dx

; 642  : 	timeDest.wDay = (WORD) ptm->tm_mday;

  0005f	8b 45 08	 mov	 eax, DWORD PTR _timeDest$[ebp]
  00062	8b 4d d0	 mov	 ecx, DWORD PTR _ptm$[ebp]
  00065	66 8b 51 0c	 mov	 dx, WORD PTR [ecx+12]
  00069	66 89 50 06	 mov	 WORD PTR [eax+6], dx

; 643  : 	timeDest.wHour = (WORD) ptm->tm_hour;

  0006d	8b 45 08	 mov	 eax, DWORD PTR _timeDest$[ebp]
  00070	8b 4d d0	 mov	 ecx, DWORD PTR _ptm$[ebp]
  00073	66 8b 51 08	 mov	 dx, WORD PTR [ecx+8]
  00077	66 89 50 08	 mov	 WORD PTR [eax+8], dx

; 644  : 	timeDest.wMinute = (WORD) ptm->tm_min;

  0007b	8b 45 08	 mov	 eax, DWORD PTR _timeDest$[ebp]
  0007e	8b 4d d0	 mov	 ecx, DWORD PTR _ptm$[ebp]
  00081	66 8b 51 04	 mov	 dx, WORD PTR [ecx+4]
  00085	66 89 50 0a	 mov	 WORD PTR [eax+10], dx

; 645  : 	timeDest.wSecond = (WORD) ptm->tm_sec;

  00089	8b 45 08	 mov	 eax, DWORD PTR _timeDest$[ebp]
  0008c	8b 4d d0	 mov	 ecx, DWORD PTR _ptm$[ebp]
  0008f	66 8b 11	 mov	 dx, WORD PTR [ecx]
  00092	66 89 50 0c	 mov	 WORD PTR [eax+12], dx

; 646  : 	timeDest.wMilliseconds = 0;

  00096	33 c0		 xor	 eax, eax
  00098	8b 4d 08	 mov	 ecx, DWORD PTR _timeDest$[ebp]
  0009b	66 89 41 0e	 mov	 WORD PTR [ecx+14], ax

; 647  : 
; 648  : 	return true;

  0009f	b0 01		 mov	 al, 1
$LN1@GetAsSyste:

; 649  : }

  000a1	5f		 pop	 edi
  000a2	5e		 pop	 esi
  000a3	5b		 pop	 ebx
  000a4	8b 4d fc	 mov	 ecx, DWORD PTR __$ArrayPad$[ebp]
  000a7	33 cd		 xor	 ecx, ebp
  000a9	e8 00 00 00 00	 call	 @__security_check_cookie@4
  000ae	8b e5		 mov	 esp, ebp
  000b0	5d		 pop	 ebp
  000b1	c2 04 00	 ret	 4
?GetAsSystemTime@CTime@ATL@@QBE_NAAU_SYSTEMTIME@@@Z ENDP ; ATL::CTime::GetAsSystemTime
_TEXT	ENDS
; Function compile flags: /Odtp /ZI
; File c:\program files (x86)\microsoft visual studio\2017\community\vc\tools\msvc\14.16.27023\atlmfc\include\atltime.h
;	COMDAT ?GetLocalTm@CTime@ATL@@QBEPAUtm@@PAU3@@Z
_TEXT	SEGMENT
tv65 = -120						; size = 4
_err$1 = -52						; size = 4
_ptmTemp$2 = -48					; size = 36
___atl_condVal$3 = -12					; size = 4
_this$ = -8						; size = 4
__$ArrayPad$ = -4					; size = 4
_ptm$ = 8						; size = 4
?GetLocalTm@CTime@ATL@@QBEPAUtm@@PAU3@@Z PROC		; ATL::CTime::GetLocalTm, COMDAT
; _this$ = ecx

; 607  : {

  00000	55		 push	 ebp
  00001	8b ec		 mov	 ebp, esp
  00003	83 ec 78	 sub	 esp, 120		; 00000078H
  00006	a1 00 00 00 00	 mov	 eax, DWORD PTR ___security_cookie
  0000b	33 c5		 xor	 eax, ebp
  0000d	89 45 fc	 mov	 DWORD PTR __$ArrayPad$[ebp], eax
  00010	53		 push	 ebx
  00011	56		 push	 esi
  00012	57		 push	 edi
  00013	89 4d f8	 mov	 DWORD PTR _this$[ebp], ecx
$LN4@GetLocalTm:

; 608  : 	// Ensure ptm is valid
; 609  : 	ATLENSURE( ptm != NULL );

  00016	83 7d 08 00	 cmp	 DWORD PTR _ptm$[ebp], 0
  0001a	74 09		 je	 SHORT $LN12@GetLocalTm
  0001c	c7 45 88 01 00
	00 00		 mov	 DWORD PTR tv65[ebp], 1
  00023	eb 07		 jmp	 SHORT $LN13@GetLocalTm
$LN12@GetLocalTm:
  00025	c7 45 88 00 00
	00 00		 mov	 DWORD PTR tv65[ebp], 0
$LN13@GetLocalTm:
  0002c	8b 45 88	 mov	 eax, DWORD PTR tv65[ebp]
  0002f	89 45 f4	 mov	 DWORD PTR ___atl_condVal$3[ebp], eax
$LN7@GetLocalTm:
  00032	83 7d f4 00	 cmp	 DWORD PTR ___atl_condVal$3[ebp], 0
  00036	75 2b		 jne	 SHORT $LN5@GetLocalTm
  00038	68 00 00 00 00	 push	 OFFSET ??_C@_1BM@GBBOFEAE@?$AA_?$AA_?$AAa?$AAt?$AAl?$AA_?$AAc?$AAo?$AAn?$AAd?$AAV?$AAa?$AAl@
  0003d	68 00 00 00 00	 push	 OFFSET ??_C@_17CNPHIMPH@?$AA?$CF?$AAl?$AAs@
  00042	6a 00		 push	 0
  00044	a1 00 00 00 00	 mov	 eax, DWORD PTR ?__LINE__Var@?0??GetLocalTm@CTime@ATL@@QBEPAUtm@@PAU4@@Z@4JA
  00049	83 c0 02	 add	 eax, 2
  0004c	50		 push	 eax
  0004d	68 00 00 00 00	 push	 OFFSET ??_C@_1OC@IALJLBM@?$AAc?$AA?3?$AA?2?$AAp?$AAr?$AAo?$AAg?$AAr?$AAa?$AAm?$AA?5?$AAf?$AAi?$AAl?$AAe@
  00052	6a 02		 push	 2
  00054	ff 15 00 00 00
	00		 call	 DWORD PTR __imp___CrtDbgReportW
  0005a	83 c4 18	 add	 esp, 24			; 00000018H
  0005d	83 f8 01	 cmp	 eax, 1
  00060	75 01		 jne	 SHORT $LN5@GetLocalTm
  00062	cc		 int	 3
$LN5@GetLocalTm:
  00063	33 c0		 xor	 eax, eax
  00065	75 cb		 jne	 SHORT $LN7@GetLocalTm
  00067	83 7d f4 00	 cmp	 DWORD PTR ___atl_condVal$3[ebp], 0
  0006b	75 0a		 jne	 SHORT $LN2@GetLocalTm
  0006d	68 05 40 00 80	 push	 -2147467259		; 80004005H
  00072	e8 00 00 00 00	 call	 ?AtlThrowImpl@ATL@@YGXJ@Z ; ATL::AtlThrowImpl
$LN2@GetLocalTm:
  00077	33 c0		 xor	 eax, eax
  00079	75 9b		 jne	 SHORT $LN4@GetLocalTm

; 610  : 
; 611  : 	if (ptm != NULL)

  0007b	83 7d 08 00	 cmp	 DWORD PTR _ptm$[ebp], 0
  0007f	74 30		 je	 SHORT $LN9@GetLocalTm

; 612  : 	{
; 613  : 		struct tm ptmTemp;
; 614  : 		errno_t err = _localtime64_s(&ptmTemp, &m_time);

  00081	8b 45 f8	 mov	 eax, DWORD PTR _this$[ebp]
  00084	50		 push	 eax
  00085	8d 4d d0	 lea	 ecx, DWORD PTR _ptmTemp$2[ebp]
  00088	51		 push	 ecx
  00089	ff 15 00 00 00
	00		 call	 DWORD PTR __imp___localtime64_s
  0008f	83 c4 08	 add	 esp, 8
  00092	89 45 cc	 mov	 DWORD PTR _err$1[ebp], eax

; 615  : 
; 616  : 		if (err != 0)

  00095	83 7d cc 00	 cmp	 DWORD PTR _err$1[ebp], 0
  00099	74 04		 je	 SHORT $LN10@GetLocalTm

; 617  : 		{
; 618  : 			return NULL;    // indicates that m_time was not initialized!

  0009b	33 c0		 xor	 eax, eax
  0009d	eb 14		 jmp	 SHORT $LN11@GetLocalTm
$LN10@GetLocalTm:

; 619  : 		}
; 620  : 
; 621  : 		*ptm = ptmTemp;

  0009f	b9 09 00 00 00	 mov	 ecx, 9
  000a4	8d 75 d0	 lea	 esi, DWORD PTR _ptmTemp$2[ebp]
  000a7	8b 7d 08	 mov	 edi, DWORD PTR _ptm$[ebp]
  000aa	f3 a5		 rep movsd

; 622  : 		return ptm;

  000ac	8b 45 08	 mov	 eax, DWORD PTR _ptm$[ebp]
  000af	eb 02		 jmp	 SHORT $LN11@GetLocalTm
$LN9@GetLocalTm:

; 623  : 	}
; 624  : 
; 625  : 	return NULL;

  000b1	33 c0		 xor	 eax, eax
$LN11@GetLocalTm:

; 626  : }

  000b3	5f		 pop	 edi
  000b4	5e		 pop	 esi
  000b5	5b		 pop	 ebx
  000b6	8b 4d fc	 mov	 ecx, DWORD PTR __$ArrayPad$[ebp]
  000b9	33 cd		 xor	 ecx, ebp
  000bb	e8 00 00 00 00	 call	 @__security_check_cookie@4
  000c0	8b e5		 mov	 esp, ebp
  000c2	5d		 pop	 ebp
  000c3	c2 04 00	 ret	 4
?GetLocalTm@CTime@ATL@@QBEPAUtm@@PAU3@@Z ENDP		; ATL::CTime::GetLocalTm
_TEXT	ENDS
; Function compile flags: /Odtp /ZI
; File c:\program files (x86)\microsoft visual studio\2017\community\vc\tools\msvc\14.16.27023\atlmfc\include\atltime.h
;	COMDAT ??0CTime@ATL@@QAE@_J@Z
_TEXT	SEGMENT
_this$ = -4						; size = 4
_time$ = 8						; size = 8
??0CTime@ATL@@QAE@_J@Z PROC				; ATL::CTime::CTime, COMDAT
; _this$ = ecx

; 418  : {

  00000	55		 push	 ebp
  00001	8b ec		 mov	 ebp, esp
  00003	83 ec 44	 sub	 esp, 68			; 00000044H
  00006	53		 push	 ebx
  00007	56		 push	 esi
  00008	57		 push	 edi
  00009	89 4d fc	 mov	 DWORD PTR _this$[ebp], ecx

; 417  : 	m_time( time )

  0000c	8b 45 fc	 mov	 eax, DWORD PTR _this$[ebp]
  0000f	8b 4d 08	 mov	 ecx, DWORD PTR _time$[ebp]
  00012	89 08		 mov	 DWORD PTR [eax], ecx
  00014	8b 55 0c	 mov	 edx, DWORD PTR _time$[ebp+4]
  00017	89 50 04	 mov	 DWORD PTR [eax+4], edx

; 419  : }

  0001a	8b 45 fc	 mov	 eax, DWORD PTR _this$[ebp]
  0001d	5f		 pop	 edi
  0001e	5e		 pop	 esi
  0001f	5b		 pop	 ebx
  00020	8b e5		 mov	 esp, ebp
  00022	5d		 pop	 ebp
  00023	c2 08 00	 ret	 8
??0CTime@ATL@@QAE@_J@Z ENDP				; ATL::CTime::CTime
_TEXT	ENDS
; Function compile flags: /Odtp /ZI
; File c:\program files (x86)\microsoft visual studio\2017\community\vc\tools\msvc\14.16.27023\atlmfc\include\atltime.h
;	COMDAT ?GetTickCount@CTime@ATL@@SG?AV12@XZ
_TEXT	SEGMENT
___$ReturnUdt$ = 8					; size = 4
?GetTickCount@CTime@ATL@@SG?AV12@XZ PROC		; ATL::CTime::GetTickCount, COMDAT

; 373  : {

  00000	55		 push	 ebp
  00001	8b ec		 mov	 ebp, esp
  00003	83 ec 40	 sub	 esp, 64			; 00000040H
  00006	53		 push	 ebx
  00007	56		 push	 esi
  00008	57		 push	 edi

; 374  : 	return( CTime( ::_time64( NULL ) ) );

  00009	6a 00		 push	 0
  0000b	ff 15 00 00 00
	00		 call	 DWORD PTR __imp___time64
  00011	83 c4 04	 add	 esp, 4
  00014	52		 push	 edx
  00015	50		 push	 eax
  00016	8b 4d 08	 mov	 ecx, DWORD PTR ___$ReturnUdt$[ebp]
  00019	e8 00 00 00 00	 call	 ??0CTime@ATL@@QAE@_J@Z	; ATL::CTime::CTime
  0001e	8b 45 08	 mov	 eax, DWORD PTR ___$ReturnUdt$[ebp]

; 375  : }

  00021	5f		 pop	 edi
  00022	5e		 pop	 esi
  00023	5b		 pop	 ebx
  00024	8b e5		 mov	 esp, ebp
  00026	5d		 pop	 ebp
  00027	c2 04 00	 ret	 4
?GetTickCount@CTime@ATL@@SG?AV12@XZ ENDP		; ATL::CTime::GetTickCount
_TEXT	ENDS
; Function compile flags: /Odtp /ZI
; File c:\program files (x86)\microsoft visual studio\2017\community\vc\tools\msvc\14.16.27023\atlmfc\include\atltrace.h
;	COMDAT ??RCTraceFileAndLineInfo@ATL@@QBAXHIPBDZZ
_TEXT	SEGMENT
_ptr$ = -20						; size = 4
_ple$ = -16						; size = 4
__$EHRec$ = -12						; size = 12
_this$ = 8						; size = 4
_dwCategory$ = 12					; size = 4
_nLevel$ = 16						; size = 4
_pszFmt$ = 20						; size = 4
??RCTraceFileAndLineInfo@ATL@@QBAXHIPBDZZ PROC		; ATL::CTraceFileAndLineInfo::operator(), COMDAT

; 421  : 	{

  00000	55		 push	 ebp
  00001	8b ec		 mov	 ebp, esp
  00003	6a ff		 push	 -1
  00005	68 00 00 00 00	 push	 __ehhandler$??RCTraceFileAndLineInfo@ATL@@QBAXHIPBDZZ
  0000a	64 a1 00 00 00
	00		 mov	 eax, DWORD PTR fs:0
  00010	50		 push	 eax
  00011	83 ec 4c	 sub	 esp, 76			; 0000004cH
  00014	53		 push	 ebx
  00015	56		 push	 esi
  00016	57		 push	 edi
  00017	a1 00 00 00 00	 mov	 eax, DWORD PTR ___security_cookie
  0001c	33 c5		 xor	 eax, ebp
  0001e	50		 push	 eax
  0001f	8d 45 f4	 lea	 eax, DWORD PTR __$EHRec$[ebp]
  00022	64 a3 00 00 00
	00		 mov	 DWORD PTR fs:0, eax

; 422  : 		CPreserveLastError ple;

  00028	8d 4d f0	 lea	 ecx, DWORD PTR _ple$[ebp]
  0002b	e8 00 00 00 00	 call	 ??0CPreserveLastError@ATL@@QAE@XZ ; ATL::CPreserveLastError::CPreserveLastError
  00030	c7 45 fc 00 00
	00 00		 mov	 DWORD PTR __$EHRec$[ebp+8], 0

; 423  : 		va_list ptr; va_start(ptr, pszFmt);

  00037	8d 45 18	 lea	 eax, DWORD PTR _pszFmt$[ebp+4]
  0003a	89 45 ec	 mov	 DWORD PTR _ptr$[ebp], eax

; 424  : 		ATL::CTrace::TraceV(m_pszFileName, m_nLineNo, dwCategory, nLevel, pszFmt, ptr);

  0003d	8b 45 ec	 mov	 eax, DWORD PTR _ptr$[ebp]
  00040	50		 push	 eax
  00041	8b 4d 14	 mov	 ecx, DWORD PTR _pszFmt$[ebp]
  00044	51		 push	 ecx
  00045	8b 55 10	 mov	 edx, DWORD PTR _nLevel$[ebp]
  00048	52		 push	 edx
  00049	8b 45 0c	 mov	 eax, DWORD PTR _dwCategory$[ebp]
  0004c	50		 push	 eax
  0004d	8b 4d 08	 mov	 ecx, DWORD PTR _this$[ebp]
  00050	8b 51 04	 mov	 edx, DWORD PTR [ecx+4]
  00053	52		 push	 edx
  00054	8b 45 08	 mov	 eax, DWORD PTR _this$[ebp]
  00057	8b 08		 mov	 ecx, DWORD PTR [eax]
  00059	51		 push	 ecx
  0005a	e8 00 00 00 00	 call	 ?TraceV@CTrace@ATL@@SAXPBDHII0PAD@Z ; ATL::CTrace::TraceV
  0005f	83 c4 18	 add	 esp, 24			; 00000018H

; 425  : 		va_end(ptr);

  00062	c7 45 ec 00 00
	00 00		 mov	 DWORD PTR _ptr$[ebp], 0

; 426  : 	}

  00069	c7 45 fc ff ff
	ff ff		 mov	 DWORD PTR __$EHRec$[ebp+8], -1
  00070	8d 4d f0	 lea	 ecx, DWORD PTR _ple$[ebp]
  00073	e8 00 00 00 00	 call	 ??1CPreserveLastError@ATL@@QAE@XZ ; ATL::CPreserveLastError::~CPreserveLastError
  00078	8b 4d f4	 mov	 ecx, DWORD PTR __$EHRec$[ebp]
  0007b	64 89 0d 00 00
	00 00		 mov	 DWORD PTR fs:0, ecx
  00082	59		 pop	 ecx
  00083	5f		 pop	 edi
  00084	5e		 pop	 esi
  00085	5b		 pop	 ebx
  00086	8b e5		 mov	 esp, ebp
  00088	5d		 pop	 ebp
  00089	c3		 ret	 0
_TEXT	ENDS
;	COMDAT text$x
text$x	SEGMENT
__unwindfunclet$??RCTraceFileAndLineInfo@ATL@@QBAXHIPBDZZ$0:
  00000	8d 4d f0	 lea	 ecx, DWORD PTR _ple$[ebp]
  00003	e9 00 00 00 00	 jmp	 ??1CPreserveLastError@ATL@@QAE@XZ ; ATL::CPreserveLastError::~CPreserveLastError
__ehhandler$??RCTraceFileAndLineInfo@ATL@@QBAXHIPBDZZ:
  00008	8b 54 24 08	 mov	 edx, DWORD PTR [esp+8]
  0000c	8d 42 0c	 lea	 eax, DWORD PTR [edx+12]
  0000f	8b 4a a4	 mov	 ecx, DWORD PTR [edx-92]
  00012	33 c8		 xor	 ecx, eax
  00014	e8 00 00 00 00	 call	 @__security_check_cookie@4
  00019	b8 00 00 00 00	 mov	 eax, OFFSET __ehfuncinfo$??RCTraceFileAndLineInfo@ATL@@QBAXHIPBDZZ
  0001e	e9 00 00 00 00	 jmp	 ___CxxFrameHandler3
text$x	ENDS
??RCTraceFileAndLineInfo@ATL@@QBAXHIPBDZZ ENDP		; ATL::CTraceFileAndLineInfo::operator()
; Function compile flags: /Odtp /ZI
; File c:\program files (x86)\microsoft visual studio\2017\community\vc\tools\msvc\14.16.27023\atlmfc\include\atltrace.h
;	COMDAT ??0CTraceFileAndLineInfo@ATL@@QAE@PBDH@Z
_TEXT	SEGMENT
_this$ = -4						; size = 4
_pszFileName$ = 8					; size = 4
_nLineNo$ = 12						; size = 4
??0CTraceFileAndLineInfo@ATL@@QAE@PBDH@Z PROC		; ATL::CTraceFileAndLineInfo::CTraceFileAndLineInfo, COMDAT
; _this$ = ecx

; 411  : 	{

  00000	55		 push	 ebp
  00001	8b ec		 mov	 ebp, esp
  00003	83 ec 44	 sub	 esp, 68			; 00000044H
  00006	53		 push	 ebx
  00007	56		 push	 esi
  00008	57		 push	 edi
  00009	89 4d fc	 mov	 DWORD PTR _this$[ebp], ecx

; 410  : 		: m_pszFileName(pszFileName), m_nLineNo(nLineNo)

  0000c	8b 45 fc	 mov	 eax, DWORD PTR _this$[ebp]
  0000f	8b 4d 08	 mov	 ecx, DWORD PTR _pszFileName$[ebp]
  00012	89 08		 mov	 DWORD PTR [eax], ecx
  00014	8b 45 fc	 mov	 eax, DWORD PTR _this$[ebp]
  00017	8b 4d 0c	 mov	 ecx, DWORD PTR _nLineNo$[ebp]
  0001a	89 48 04	 mov	 DWORD PTR [eax+4], ecx

; 412  : 	}

  0001d	8b 45 fc	 mov	 eax, DWORD PTR _this$[ebp]
  00020	5f		 pop	 edi
  00021	5e		 pop	 esi
  00022	5b		 pop	 ebx
  00023	8b e5		 mov	 esp, ebp
  00025	5d		 pop	 ebp
  00026	c2 08 00	 ret	 8
??0CTraceFileAndLineInfo@ATL@@QAE@PBDH@Z ENDP		; ATL::CTraceFileAndLineInfo::CTraceFileAndLineInfo
_TEXT	ENDS
; Function compile flags: /Odtp /ZI
; File c:\program files (x86)\microsoft visual studio\2017\community\vc\tools\msvc\14.16.27023\atlmfc\include\atltrace.h
;	COMDAT ??1CPreserveLastError@ATL@@QAE@XZ
_TEXT	SEGMENT
_this$ = -4						; size = 4
??1CPreserveLastError@ATL@@QAE@XZ PROC			; ATL::CPreserveLastError::~CPreserveLastError, COMDAT
; _this$ = ecx

; 396  : 	{

  00000	55		 push	 ebp
  00001	8b ec		 mov	 ebp, esp
  00003	83 ec 44	 sub	 esp, 68			; 00000044H
  00006	53		 push	 ebx
  00007	56		 push	 esi
  00008	57		 push	 edi
  00009	89 4d fc	 mov	 DWORD PTR _this$[ebp], ecx

; 397  : 		SetLastError(m_dwLastError);

  0000c	8b 45 fc	 mov	 eax, DWORD PTR _this$[ebp]
  0000f	8b 08		 mov	 ecx, DWORD PTR [eax]
  00011	51		 push	 ecx
  00012	ff 15 00 00 00
	00		 call	 DWORD PTR __imp__SetLastError@4

; 398  : 	}

  00018	5f		 pop	 edi
  00019	5e		 pop	 esi
  0001a	5b		 pop	 ebx
  0001b	8b e5		 mov	 esp, ebp
  0001d	5d		 pop	 ebp
  0001e	c3		 ret	 0
??1CPreserveLastError@ATL@@QAE@XZ ENDP			; ATL::CPreserveLastError::~CPreserveLastError
_TEXT	ENDS
; Function compile flags: /Odtp /ZI
; File c:\program files (x86)\microsoft visual studio\2017\community\vc\tools\msvc\14.16.27023\atlmfc\include\atltrace.h
;	COMDAT ??0CPreserveLastError@ATL@@QAE@XZ
_TEXT	SEGMENT
_this$ = -4						; size = 4
??0CPreserveLastError@ATL@@QAE@XZ PROC			; ATL::CPreserveLastError::CPreserveLastError, COMDAT
; _this$ = ecx

; 390  : 	CPreserveLastError()

  00000	55		 push	 ebp
  00001	8b ec		 mov	 ebp, esp
  00003	83 ec 44	 sub	 esp, 68			; 00000044H
  00006	53		 push	 ebx
  00007	56		 push	 esi
  00008	57		 push	 edi
  00009	89 4d fc	 mov	 DWORD PTR _this$[ebp], ecx

; 391  : 	{
; 392  : 		m_dwLastError = GetLastError();

  0000c	ff 15 00 00 00
	00		 call	 DWORD PTR __imp__GetLastError@0
  00012	8b 4d fc	 mov	 ecx, DWORD PTR _this$[ebp]
  00015	89 01		 mov	 DWORD PTR [ecx], eax

; 393  : 	}

  00017	8b 45 fc	 mov	 eax, DWORD PTR _this$[ebp]
  0001a	5f		 pop	 edi
  0001b	5e		 pop	 esi
  0001c	5b		 pop	 ebx
  0001d	8b e5		 mov	 esp, ebp
  0001f	5d		 pop	 ebp
  00020	c3		 ret	 0
??0CPreserveLastError@ATL@@QAE@XZ ENDP			; ATL::CPreserveLastError::CPreserveLastError
_TEXT	ENDS
; Function compile flags: /Odtp /ZI
;	COMDAT ??1?$CHeapPtr@DVCCRTAllocator@ATL@@@ATL@@QAE@XZ
_TEXT	SEGMENT
_this$ = -4						; size = 4
??1?$CHeapPtr@DVCCRTAllocator@ATL@@@ATL@@QAE@XZ PROC	; ATL::CHeapPtr<char,ATL::CCRTAllocator>::~CHeapPtr<char,ATL::CCRTAllocator>, COMDAT
; _this$ = ecx
  00000	55		 push	 ebp
  00001	8b ec		 mov	 ebp, esp
  00003	83 ec 44	 sub	 esp, 68			; 00000044H
  00006	53		 push	 ebx
  00007	56		 push	 esi
  00008	57		 push	 edi
  00009	89 4d fc	 mov	 DWORD PTR _this$[ebp], ecx
  0000c	8b 4d fc	 mov	 ecx, DWORD PTR _this$[ebp]
  0000f	e8 00 00 00 00	 call	 ??1?$CHeapPtrBase@DVCCRTAllocator@ATL@@@ATL@@QAE@XZ ; ATL::CHeapPtrBase<char,ATL::CCRTAllocator>::~CHeapPtrBase<char,ATL::CCRTAllocator>
  00014	5f		 pop	 edi
  00015	5e		 pop	 esi
  00016	5b		 pop	 ebx
  00017	8b e5		 mov	 esp, ebp
  00019	5d		 pop	 ebp
  0001a	c3		 ret	 0
??1?$CHeapPtr@DVCCRTAllocator@ATL@@@ATL@@QAE@XZ ENDP	; ATL::CHeapPtr<char,ATL::CCRTAllocator>::~CHeapPtr<char,ATL::CCRTAllocator>
_TEXT	ENDS
; Function compile flags: /Odtp /ZI
; File c:\program files (x86)\microsoft visual studio\2017\community\vc\tools\msvc\14.16.27023\atlmfc\include\atlalloc.h
;	COMDAT ?Allocate@?$CHeapPtr@DVCCRTAllocator@ATL@@@ATL@@QAE_NI@Z
_TEXT	SEGMENT
_nBytes$ = -8						; size = 4
_this$ = -4						; size = 4
_nElements$ = 8						; size = 4
?Allocate@?$CHeapPtr@DVCCRTAllocator@ATL@@@ATL@@QAE_NI@Z PROC ; ATL::CHeapPtr<char,ATL::CCRTAllocator>::Allocate, COMDAT
; _this$ = ecx

; 455  : 	{

  00000	55		 push	 ebp
  00001	8b ec		 mov	 ebp, esp
  00003	83 ec 48	 sub	 esp, 72			; 00000048H
  00006	53		 push	 ebx
  00007	56		 push	 esi
  00008	57		 push	 edi
  00009	89 4d fc	 mov	 DWORD PTR _this$[ebp], ecx

; 456  : 		size_t nBytes=0;

  0000c	c7 45 f8 00 00
	00 00		 mov	 DWORD PTR _nBytes$[ebp], 0

; 457  : 		if(FAILED(::ATL::AtlMultiply(&nBytes, nElements, sizeof(T))))

  00013	6a 01		 push	 1
  00015	8b 45 08	 mov	 eax, DWORD PTR _nElements$[ebp]
  00018	50		 push	 eax
  00019	8d 4d f8	 lea	 ecx, DWORD PTR _nBytes$[ebp]
  0001c	51		 push	 ecx
  0001d	e8 00 00 00 00	 call	 ??$AtlMultiply@I@ATL@@YAJPAIII@Z ; ATL::AtlMultiply<unsigned int>
  00022	83 c4 0c	 add	 esp, 12			; 0000000cH
  00025	85 c0		 test	 eax, eax
  00027	7d 04		 jge	 SHORT $LN2@Allocate

; 458  : 		{
; 459  : 			return false;

  00029	32 c0		 xor	 al, al
  0002b	eb 0c		 jmp	 SHORT $LN1@Allocate
$LN2@Allocate:

; 460  : 		}
; 461  : 		return this->AllocateBytes(nBytes);

  0002d	8b 45 f8	 mov	 eax, DWORD PTR _nBytes$[ebp]
  00030	50		 push	 eax
  00031	8b 4d fc	 mov	 ecx, DWORD PTR _this$[ebp]
  00034	e8 00 00 00 00	 call	 ?AllocateBytes@?$CHeapPtrBase@DVCCRTAllocator@ATL@@@ATL@@QAE_NI@Z ; ATL::CHeapPtrBase<char,ATL::CCRTAllocator>::AllocateBytes
$LN1@Allocate:

; 462  : 	}

  00039	5f		 pop	 edi
  0003a	5e		 pop	 esi
  0003b	5b		 pop	 ebx
  0003c	8b e5		 mov	 esp, ebp
  0003e	5d		 pop	 ebp
  0003f	c2 04 00	 ret	 4
?Allocate@?$CHeapPtr@DVCCRTAllocator@ATL@@@ATL@@QAE_NI@Z ENDP ; ATL::CHeapPtr<char,ATL::CCRTAllocator>::Allocate
_TEXT	ENDS
; Function compile flags: /Odtp /ZI
; File c:\program files (x86)\microsoft visual studio\2017\community\vc\tools\msvc\14.16.27023\atlmfc\include\atlalloc.h
;	COMDAT ??0?$CHeapPtr@DVCCRTAllocator@ATL@@@ATL@@QAE@XZ
_TEXT	SEGMENT
_this$ = -4						; size = 4
??0?$CHeapPtr@DVCCRTAllocator@ATL@@@ATL@@QAE@XZ PROC	; ATL::CHeapPtr<char,ATL::CCRTAllocator>::CHeapPtr<char,ATL::CCRTAllocator>, COMDAT
; _this$ = ecx

; 434  : 	CHeapPtr() throw()

  00000	55		 push	 ebp
  00001	8b ec		 mov	 ebp, esp
  00003	83 ec 44	 sub	 esp, 68			; 00000044H
  00006	53		 push	 ebx
  00007	56		 push	 esi
  00008	57		 push	 edi
  00009	89 4d fc	 mov	 DWORD PTR _this$[ebp], ecx

; 435  : 	{

  0000c	8b 4d fc	 mov	 ecx, DWORD PTR _this$[ebp]
  0000f	e8 00 00 00 00	 call	 ??0?$CHeapPtrBase@DVCCRTAllocator@ATL@@@ATL@@IAE@XZ ; ATL::CHeapPtrBase<char,ATL::CCRTAllocator>::CHeapPtrBase<char,ATL::CCRTAllocator>

; 436  : 	}

  00014	8b 45 fc	 mov	 eax, DWORD PTR _this$[ebp]
  00017	5f		 pop	 edi
  00018	5e		 pop	 esi
  00019	5b		 pop	 ebx
  0001a	8b e5		 mov	 esp, ebp
  0001c	5d		 pop	 ebp
  0001d	c3		 ret	 0
??0?$CHeapPtr@DVCCRTAllocator@ATL@@@ATL@@QAE@XZ ENDP	; ATL::CHeapPtr<char,ATL::CCRTAllocator>::CHeapPtr<char,ATL::CCRTAllocator>
_TEXT	ENDS
; Function compile flags: /Odtp /ZI
; File c:\program files (x86)\microsoft visual studio\2017\community\vc\tools\msvc\14.16.27023\atlmfc\include\atlalloc.h
;	COMDAT ?Free@?$CHeapPtrBase@DVCCRTAllocator@ATL@@@ATL@@QAEXXZ
_TEXT	SEGMENT
_this$ = -4						; size = 4
?Free@?$CHeapPtrBase@DVCCRTAllocator@ATL@@@ATL@@QAEXXZ PROC ; ATL::CHeapPtrBase<char,ATL::CCRTAllocator>::Free, COMDAT
; _this$ = ecx

; 407  : 	{

  00000	55		 push	 ebp
  00001	8b ec		 mov	 ebp, esp
  00003	83 ec 44	 sub	 esp, 68			; 00000044H
  00006	53		 push	 ebx
  00007	56		 push	 esi
  00008	57		 push	 edi
  00009	89 4d fc	 mov	 DWORD PTR _this$[ebp], ecx

; 408  : 		Allocator::Free(m_pData);

  0000c	8b 45 fc	 mov	 eax, DWORD PTR _this$[ebp]
  0000f	8b 08		 mov	 ecx, DWORD PTR [eax]
  00011	51		 push	 ecx
  00012	e8 00 00 00 00	 call	 ?Free@CCRTAllocator@ATL@@SAXPAX@Z ; ATL::CCRTAllocator::Free
  00017	83 c4 04	 add	 esp, 4

; 409  : 		m_pData = NULL;

  0001a	8b 45 fc	 mov	 eax, DWORD PTR _this$[ebp]
  0001d	c7 00 00 00 00
	00		 mov	 DWORD PTR [eax], 0

; 410  : 	}

  00023	5f		 pop	 edi
  00024	5e		 pop	 esi
  00025	5b		 pop	 ebx
  00026	8b e5		 mov	 esp, ebp
  00028	5d		 pop	 ebp
  00029	c3		 ret	 0
?Free@?$CHeapPtrBase@DVCCRTAllocator@ATL@@@ATL@@QAEXXZ ENDP ; ATL::CHeapPtrBase<char,ATL::CCRTAllocator>::Free
_TEXT	ENDS
; Function compile flags: /Odtp /ZI
; File c:\program files (x86)\microsoft visual studio\2017\community\vc\tools\msvc\14.16.27023\atlmfc\include\atlalloc.h
;	COMDAT ?AllocateBytes@?$CHeapPtrBase@DVCCRTAllocator@ATL@@@ATL@@QAE_NI@Z
_TEXT	SEGMENT
_this$ = -4						; size = 4
_nBytes$ = 8						; size = 4
?AllocateBytes@?$CHeapPtrBase@DVCCRTAllocator@ATL@@@ATL@@QAE_NI@Z PROC ; ATL::CHeapPtrBase<char,ATL::CCRTAllocator>::AllocateBytes, COMDAT
; _this$ = ecx

; 381  : 	{

  00000	55		 push	 ebp
  00001	8b ec		 mov	 ebp, esp
  00003	83 ec 44	 sub	 esp, 68			; 00000044H
  00006	53		 push	 ebx
  00007	56		 push	 esi
  00008	57		 push	 edi
  00009	89 4d fc	 mov	 DWORD PTR _this$[ebp], ecx

; 382  : 		ATLASSERT(m_pData == NULL);

  0000c	8b 45 fc	 mov	 eax, DWORD PTR _this$[ebp]
  0000f	83 38 00	 cmp	 DWORD PTR [eax], 0
  00012	74 27		 je	 SHORT $LN4@AllocateBy
  00014	68 00 00 00 00	 push	 OFFSET ??_C@_1BK@NHECDDNK@?$AAm?$AA_?$AAp?$AAD?$AAa?$AAt?$AAa?$AA?5?$AA?$DN?$AA?$DN?$AA?5?$AA0@
  00019	68 00 00 00 00	 push	 OFFSET ??_C@_17CNPHIMPH@?$AA?$CF?$AAl?$AAs@
  0001e	6a 00		 push	 0
  00020	68 7e 01 00 00	 push	 382			; 0000017eH
  00025	68 00 00 00 00	 push	 OFFSET ??_C@_1OE@IAPLKPHI@?$AAc?$AA?3?$AA?2?$AAp?$AAr?$AAo?$AAg?$AAr?$AAa?$AAm?$AA?5?$AAf?$AAi?$AAl?$AAe@
  0002a	6a 02		 push	 2
  0002c	ff 15 00 00 00
	00		 call	 DWORD PTR __imp___CrtDbgReportW
  00032	83 c4 18	 add	 esp, 24			; 00000018H
  00035	83 f8 01	 cmp	 eax, 1
  00038	75 01		 jne	 SHORT $LN4@AllocateBy
  0003a	cc		 int	 3
$LN4@AllocateBy:

; 383  : 		m_pData = static_cast<T*>(Allocator::Allocate(nBytes));

  0003b	8b 45 08	 mov	 eax, DWORD PTR _nBytes$[ebp]
  0003e	50		 push	 eax
  0003f	e8 00 00 00 00	 call	 ?Allocate@CCRTAllocator@ATL@@SAPAXI@Z ; ATL::CCRTAllocator::Allocate
  00044	83 c4 04	 add	 esp, 4
  00047	8b 4d fc	 mov	 ecx, DWORD PTR _this$[ebp]
  0004a	89 01		 mov	 DWORD PTR [ecx], eax

; 384  : 		if (m_pData == NULL)

  0004c	8b 45 fc	 mov	 eax, DWORD PTR _this$[ebp]
  0004f	83 38 00	 cmp	 DWORD PTR [eax], 0
  00052	75 04		 jne	 SHORT $LN2@AllocateBy

; 385  : 			return false;

  00054	32 c0		 xor	 al, al
  00056	eb 02		 jmp	 SHORT $LN1@AllocateBy
$LN2@AllocateBy:

; 386  : 
; 387  : 		return true;

  00058	b0 01		 mov	 al, 1
$LN1@AllocateBy:

; 388  : 	}

  0005a	5f		 pop	 edi
  0005b	5e		 pop	 esi
  0005c	5b		 pop	 ebx
  0005d	8b e5		 mov	 esp, ebp
  0005f	5d		 pop	 ebp
  00060	c2 04 00	 ret	 4
?AllocateBytes@?$CHeapPtrBase@DVCCRTAllocator@ATL@@@ATL@@QAE_NI@Z ENDP ; ATL::CHeapPtrBase<char,ATL::CCRTAllocator>::AllocateBytes
_TEXT	ENDS
; Function compile flags: /Odtp /ZI
; File c:\program files (x86)\microsoft visual studio\2017\community\vc\tools\msvc\14.16.27023\atlmfc\include\atlalloc.h
;	COMDAT ??B?$CHeapPtrBase@DVCCRTAllocator@ATL@@@ATL@@QBEPADXZ
_TEXT	SEGMENT
_this$ = -4						; size = 4
??B?$CHeapPtrBase@DVCCRTAllocator@ATL@@@ATL@@QBEPADXZ PROC ; ATL::CHeapPtrBase<char,ATL::CCRTAllocator>::operator char *, COMDAT
; _this$ = ecx

; 363  : 	{

  00000	55		 push	 ebp
  00001	8b ec		 mov	 ebp, esp
  00003	83 ec 44	 sub	 esp, 68			; 00000044H
  00006	53		 push	 ebx
  00007	56		 push	 esi
  00008	57		 push	 edi
  00009	89 4d fc	 mov	 DWORD PTR _this$[ebp], ecx

; 364  : 		return m_pData;

  0000c	8b 45 fc	 mov	 eax, DWORD PTR _this$[ebp]
  0000f	8b 00		 mov	 eax, DWORD PTR [eax]

; 365  : 	}

  00011	5f		 pop	 edi
  00012	5e		 pop	 esi
  00013	5b		 pop	 ebx
  00014	8b e5		 mov	 esp, ebp
  00016	5d		 pop	 ebp
  00017	c3		 ret	 0
??B?$CHeapPtrBase@DVCCRTAllocator@ATL@@@ATL@@QBEPADXZ ENDP ; ATL::CHeapPtrBase<char,ATL::CCRTAllocator>::operator char *
_TEXT	ENDS
; Function compile flags: /Odtp /ZI
; File c:\program files (x86)\microsoft visual studio\2017\community\vc\tools\msvc\14.16.27023\atlmfc\include\atlalloc.h
;	COMDAT ??1?$CHeapPtrBase@DVCCRTAllocator@ATL@@@ATL@@QAE@XZ
_TEXT	SEGMENT
_this$ = -4						; size = 4
??1?$CHeapPtrBase@DVCCRTAllocator@ATL@@@ATL@@QAE@XZ PROC ; ATL::CHeapPtrBase<char,ATL::CCRTAllocator>::~CHeapPtrBase<char,ATL::CCRTAllocator>, COMDAT
; _this$ = ecx

; 349  : 	{

  00000	55		 push	 ebp
  00001	8b ec		 mov	 ebp, esp
  00003	83 ec 44	 sub	 esp, 68			; 00000044H
  00006	53		 push	 ebx
  00007	56		 push	 esi
  00008	57		 push	 edi
  00009	89 4d fc	 mov	 DWORD PTR _this$[ebp], ecx

; 350  : 		Free();

  0000c	8b 4d fc	 mov	 ecx, DWORD PTR _this$[ebp]
  0000f	e8 00 00 00 00	 call	 ?Free@?$CHeapPtrBase@DVCCRTAllocator@ATL@@@ATL@@QAEXXZ ; ATL::CHeapPtrBase<char,ATL::CCRTAllocator>::Free

; 351  : 	}

  00014	5f		 pop	 edi
  00015	5e		 pop	 esi
  00016	5b		 pop	 ebx
  00017	8b e5		 mov	 esp, ebp
  00019	5d		 pop	 ebp
  0001a	c3		 ret	 0
??1?$CHeapPtrBase@DVCCRTAllocator@ATL@@@ATL@@QAE@XZ ENDP ; ATL::CHeapPtrBase<char,ATL::CCRTAllocator>::~CHeapPtrBase<char,ATL::CCRTAllocator>
_TEXT	ENDS
; Function compile flags: /Odtp /ZI
; File c:\program files (x86)\microsoft visual studio\2017\community\vc\tools\msvc\14.16.27023\atlmfc\include\atlalloc.h
;	COMDAT ??0?$CHeapPtrBase@DVCCRTAllocator@ATL@@@ATL@@IAE@XZ
_TEXT	SEGMENT
_this$ = -4						; size = 4
??0?$CHeapPtrBase@DVCCRTAllocator@ATL@@@ATL@@IAE@XZ PROC ; ATL::CHeapPtrBase<char,ATL::CCRTAllocator>::CHeapPtrBase<char,ATL::CCRTAllocator>, COMDAT
; _this$ = ecx

; 336  : 	{

  00000	55		 push	 ebp
  00001	8b ec		 mov	 ebp, esp
  00003	83 ec 44	 sub	 esp, 68			; 00000044H
  00006	53		 push	 ebx
  00007	56		 push	 esi
  00008	57		 push	 edi
  00009	89 4d fc	 mov	 DWORD PTR _this$[ebp], ecx

; 335  : 		m_pData(NULL)

  0000c	8b 45 fc	 mov	 eax, DWORD PTR _this$[ebp]
  0000f	c7 00 00 00 00
	00		 mov	 DWORD PTR [eax], 0

; 337  : 	}

  00015	8b 45 fc	 mov	 eax, DWORD PTR _this$[ebp]
  00018	5f		 pop	 edi
  00019	5e		 pop	 esi
  0001a	5b		 pop	 ebx
  0001b	8b e5		 mov	 esp, ebp
  0001d	5d		 pop	 ebp
  0001e	c3		 ret	 0
??0?$CHeapPtrBase@DVCCRTAllocator@ATL@@@ATL@@IAE@XZ ENDP ; ATL::CHeapPtrBase<char,ATL::CCRTAllocator>::CHeapPtrBase<char,ATL::CCRTAllocator>
_TEXT	ENDS
; Function compile flags: /Odtp /ZI
;	COMDAT ??1?$CHeapPtr@_WVCCRTAllocator@ATL@@@ATL@@QAE@XZ
_TEXT	SEGMENT
_this$ = -4						; size = 4
??1?$CHeapPtr@_WVCCRTAllocator@ATL@@@ATL@@QAE@XZ PROC	; ATL::CHeapPtr<wchar_t,ATL::CCRTAllocator>::~CHeapPtr<wchar_t,ATL::CCRTAllocator>, COMDAT
; _this$ = ecx
  00000	55		 push	 ebp
  00001	8b ec		 mov	 ebp, esp
  00003	83 ec 44	 sub	 esp, 68			; 00000044H
  00006	53		 push	 ebx
  00007	56		 push	 esi
  00008	57		 push	 edi
  00009	89 4d fc	 mov	 DWORD PTR _this$[ebp], ecx
  0000c	8b 4d fc	 mov	 ecx, DWORD PTR _this$[ebp]
  0000f	e8 00 00 00 00	 call	 ??1?$CHeapPtrBase@_WVCCRTAllocator@ATL@@@ATL@@QAE@XZ ; ATL::CHeapPtrBase<wchar_t,ATL::CCRTAllocator>::~CHeapPtrBase<wchar_t,ATL::CCRTAllocator>
  00014	5f		 pop	 edi
  00015	5e		 pop	 esi
  00016	5b		 pop	 ebx
  00017	8b e5		 mov	 esp, ebp
  00019	5d		 pop	 ebp
  0001a	c3		 ret	 0
??1?$CHeapPtr@_WVCCRTAllocator@ATL@@@ATL@@QAE@XZ ENDP	; ATL::CHeapPtr<wchar_t,ATL::CCRTAllocator>::~CHeapPtr<wchar_t,ATL::CCRTAllocator>
_TEXT	ENDS
; Function compile flags: /Odtp /ZI
; File c:\program files (x86)\microsoft visual studio\2017\community\vc\tools\msvc\14.16.27023\atlmfc\include\atlalloc.h
;	COMDAT ?Allocate@?$CHeapPtr@_WVCCRTAllocator@ATL@@@ATL@@QAE_NI@Z
_TEXT	SEGMENT
_nBytes$ = -8						; size = 4
_this$ = -4						; size = 4
_nElements$ = 8						; size = 4
?Allocate@?$CHeapPtr@_WVCCRTAllocator@ATL@@@ATL@@QAE_NI@Z PROC ; ATL::CHeapPtr<wchar_t,ATL::CCRTAllocator>::Allocate, COMDAT
; _this$ = ecx

; 455  : 	{

  00000	55		 push	 ebp
  00001	8b ec		 mov	 ebp, esp
  00003	83 ec 48	 sub	 esp, 72			; 00000048H
  00006	53		 push	 ebx
  00007	56		 push	 esi
  00008	57		 push	 edi
  00009	89 4d fc	 mov	 DWORD PTR _this$[ebp], ecx

; 456  : 		size_t nBytes=0;

  0000c	c7 45 f8 00 00
	00 00		 mov	 DWORD PTR _nBytes$[ebp], 0

; 457  : 		if(FAILED(::ATL::AtlMultiply(&nBytes, nElements, sizeof(T))))

  00013	6a 02		 push	 2
  00015	8b 45 08	 mov	 eax, DWORD PTR _nElements$[ebp]
  00018	50		 push	 eax
  00019	8d 4d f8	 lea	 ecx, DWORD PTR _nBytes$[ebp]
  0001c	51		 push	 ecx
  0001d	e8 00 00 00 00	 call	 ??$AtlMultiply@I@ATL@@YAJPAIII@Z ; ATL::AtlMultiply<unsigned int>
  00022	83 c4 0c	 add	 esp, 12			; 0000000cH
  00025	85 c0		 test	 eax, eax
  00027	7d 04		 jge	 SHORT $LN2@Allocate

; 458  : 		{
; 459  : 			return false;

  00029	32 c0		 xor	 al, al
  0002b	eb 0c		 jmp	 SHORT $LN1@Allocate
$LN2@Allocate:

; 460  : 		}
; 461  : 		return this->AllocateBytes(nBytes);

  0002d	8b 45 f8	 mov	 eax, DWORD PTR _nBytes$[ebp]
  00030	50		 push	 eax
  00031	8b 4d fc	 mov	 ecx, DWORD PTR _this$[ebp]
  00034	e8 00 00 00 00	 call	 ?AllocateBytes@?$CHeapPtrBase@_WVCCRTAllocator@ATL@@@ATL@@QAE_NI@Z ; ATL::CHeapPtrBase<wchar_t,ATL::CCRTAllocator>::AllocateBytes
$LN1@Allocate:

; 462  : 	}

  00039	5f		 pop	 edi
  0003a	5e		 pop	 esi
  0003b	5b		 pop	 ebx
  0003c	8b e5		 mov	 esp, ebp
  0003e	5d		 pop	 ebp
  0003f	c2 04 00	 ret	 4
?Allocate@?$CHeapPtr@_WVCCRTAllocator@ATL@@@ATL@@QAE_NI@Z ENDP ; ATL::CHeapPtr<wchar_t,ATL::CCRTAllocator>::Allocate
_TEXT	ENDS
; Function compile flags: /Odtp /ZI
; File c:\program files (x86)\microsoft visual studio\2017\community\vc\tools\msvc\14.16.27023\atlmfc\include\atlalloc.h
;	COMDAT ??0?$CHeapPtr@_WVCCRTAllocator@ATL@@@ATL@@QAE@XZ
_TEXT	SEGMENT
_this$ = -4						; size = 4
??0?$CHeapPtr@_WVCCRTAllocator@ATL@@@ATL@@QAE@XZ PROC	; ATL::CHeapPtr<wchar_t,ATL::CCRTAllocator>::CHeapPtr<wchar_t,ATL::CCRTAllocator>, COMDAT
; _this$ = ecx

; 434  : 	CHeapPtr() throw()

  00000	55		 push	 ebp
  00001	8b ec		 mov	 ebp, esp
  00003	83 ec 44	 sub	 esp, 68			; 00000044H
  00006	53		 push	 ebx
  00007	56		 push	 esi
  00008	57		 push	 edi
  00009	89 4d fc	 mov	 DWORD PTR _this$[ebp], ecx

; 435  : 	{

  0000c	8b 4d fc	 mov	 ecx, DWORD PTR _this$[ebp]
  0000f	e8 00 00 00 00	 call	 ??0?$CHeapPtrBase@_WVCCRTAllocator@ATL@@@ATL@@IAE@XZ ; ATL::CHeapPtrBase<wchar_t,ATL::CCRTAllocator>::CHeapPtrBase<wchar_t,ATL::CCRTAllocator>

; 436  : 	}

  00014	8b 45 fc	 mov	 eax, DWORD PTR _this$[ebp]
  00017	5f		 pop	 edi
  00018	5e		 pop	 esi
  00019	5b		 pop	 ebx
  0001a	8b e5		 mov	 esp, ebp
  0001c	5d		 pop	 ebp
  0001d	c3		 ret	 0
??0?$CHeapPtr@_WVCCRTAllocator@ATL@@@ATL@@QAE@XZ ENDP	; ATL::CHeapPtr<wchar_t,ATL::CCRTAllocator>::CHeapPtr<wchar_t,ATL::CCRTAllocator>
_TEXT	ENDS
; Function compile flags: /Odtp /ZI
; File c:\program files (x86)\microsoft visual studio\2017\community\vc\tools\msvc\14.16.27023\atlmfc\include\atlalloc.h
;	COMDAT ?Free@?$CHeapPtrBase@_WVCCRTAllocator@ATL@@@ATL@@QAEXXZ
_TEXT	SEGMENT
_this$ = -4						; size = 4
?Free@?$CHeapPtrBase@_WVCCRTAllocator@ATL@@@ATL@@QAEXXZ PROC ; ATL::CHeapPtrBase<wchar_t,ATL::CCRTAllocator>::Free, COMDAT
; _this$ = ecx

; 407  : 	{

  00000	55		 push	 ebp
  00001	8b ec		 mov	 ebp, esp
  00003	83 ec 44	 sub	 esp, 68			; 00000044H
  00006	53		 push	 ebx
  00007	56		 push	 esi
  00008	57		 push	 edi
  00009	89 4d fc	 mov	 DWORD PTR _this$[ebp], ecx

; 408  : 		Allocator::Free(m_pData);

  0000c	8b 45 fc	 mov	 eax, DWORD PTR _this$[ebp]
  0000f	8b 08		 mov	 ecx, DWORD PTR [eax]
  00011	51		 push	 ecx
  00012	e8 00 00 00 00	 call	 ?Free@CCRTAllocator@ATL@@SAXPAX@Z ; ATL::CCRTAllocator::Free
  00017	83 c4 04	 add	 esp, 4

; 409  : 		m_pData = NULL;

  0001a	8b 45 fc	 mov	 eax, DWORD PTR _this$[ebp]
  0001d	c7 00 00 00 00
	00		 mov	 DWORD PTR [eax], 0

; 410  : 	}

  00023	5f		 pop	 edi
  00024	5e		 pop	 esi
  00025	5b		 pop	 ebx
  00026	8b e5		 mov	 esp, ebp
  00028	5d		 pop	 ebp
  00029	c3		 ret	 0
?Free@?$CHeapPtrBase@_WVCCRTAllocator@ATL@@@ATL@@QAEXXZ ENDP ; ATL::CHeapPtrBase<wchar_t,ATL::CCRTAllocator>::Free
_TEXT	ENDS
; Function compile flags: /Odtp /ZI
; File c:\program files (x86)\microsoft visual studio\2017\community\vc\tools\msvc\14.16.27023\atlmfc\include\atlalloc.h
;	COMDAT ?AllocateBytes@?$CHeapPtrBase@_WVCCRTAllocator@ATL@@@ATL@@QAE_NI@Z
_TEXT	SEGMENT
_this$ = -4						; size = 4
_nBytes$ = 8						; size = 4
?AllocateBytes@?$CHeapPtrBase@_WVCCRTAllocator@ATL@@@ATL@@QAE_NI@Z PROC ; ATL::CHeapPtrBase<wchar_t,ATL::CCRTAllocator>::AllocateBytes, COMDAT
; _this$ = ecx

; 381  : 	{

  00000	55		 push	 ebp
  00001	8b ec		 mov	 ebp, esp
  00003	83 ec 44	 sub	 esp, 68			; 00000044H
  00006	53		 push	 ebx
  00007	56		 push	 esi
  00008	57		 push	 edi
  00009	89 4d fc	 mov	 DWORD PTR _this$[ebp], ecx

; 382  : 		ATLASSERT(m_pData == NULL);

  0000c	8b 45 fc	 mov	 eax, DWORD PTR _this$[ebp]
  0000f	83 38 00	 cmp	 DWORD PTR [eax], 0
  00012	74 27		 je	 SHORT $LN4@AllocateBy
  00014	68 00 00 00 00	 push	 OFFSET ??_C@_1BK@NHECDDNK@?$AAm?$AA_?$AAp?$AAD?$AAa?$AAt?$AAa?$AA?5?$AA?$DN?$AA?$DN?$AA?5?$AA0@
  00019	68 00 00 00 00	 push	 OFFSET ??_C@_17CNPHIMPH@?$AA?$CF?$AAl?$AAs@
  0001e	6a 00		 push	 0
  00020	68 7e 01 00 00	 push	 382			; 0000017eH
  00025	68 00 00 00 00	 push	 OFFSET ??_C@_1OE@IAPLKPHI@?$AAc?$AA?3?$AA?2?$AAp?$AAr?$AAo?$AAg?$AAr?$AAa?$AAm?$AA?5?$AAf?$AAi?$AAl?$AAe@
  0002a	6a 02		 push	 2
  0002c	ff 15 00 00 00
	00		 call	 DWORD PTR __imp___CrtDbgReportW
  00032	83 c4 18	 add	 esp, 24			; 00000018H
  00035	83 f8 01	 cmp	 eax, 1
  00038	75 01		 jne	 SHORT $LN4@AllocateBy
  0003a	cc		 int	 3
$LN4@AllocateBy:

; 383  : 		m_pData = static_cast<T*>(Allocator::Allocate(nBytes));

  0003b	8b 45 08	 mov	 eax, DWORD PTR _nBytes$[ebp]
  0003e	50		 push	 eax
  0003f	e8 00 00 00 00	 call	 ?Allocate@CCRTAllocator@ATL@@SAPAXI@Z ; ATL::CCRTAllocator::Allocate
  00044	83 c4 04	 add	 esp, 4
  00047	8b 4d fc	 mov	 ecx, DWORD PTR _this$[ebp]
  0004a	89 01		 mov	 DWORD PTR [ecx], eax

; 384  : 		if (m_pData == NULL)

  0004c	8b 45 fc	 mov	 eax, DWORD PTR _this$[ebp]
  0004f	83 38 00	 cmp	 DWORD PTR [eax], 0
  00052	75 04		 jne	 SHORT $LN2@AllocateBy

; 385  : 			return false;

  00054	32 c0		 xor	 al, al
  00056	eb 02		 jmp	 SHORT $LN1@AllocateBy
$LN2@AllocateBy:

; 386  : 
; 387  : 		return true;

  00058	b0 01		 mov	 al, 1
$LN1@AllocateBy:

; 388  : 	}

  0005a	5f		 pop	 edi
  0005b	5e		 pop	 esi
  0005c	5b		 pop	 ebx
  0005d	8b e5		 mov	 esp, ebp
  0005f	5d		 pop	 ebp
  00060	c2 04 00	 ret	 4
?AllocateBytes@?$CHeapPtrBase@_WVCCRTAllocator@ATL@@@ATL@@QAE_NI@Z ENDP ; ATL::CHeapPtrBase<wchar_t,ATL::CCRTAllocator>::AllocateBytes
_TEXT	ENDS
; Function compile flags: /Odtp /ZI
; File c:\program files (x86)\microsoft visual studio\2017\community\vc\tools\msvc\14.16.27023\atlmfc\include\atlalloc.h
;	COMDAT ??B?$CHeapPtrBase@_WVCCRTAllocator@ATL@@@ATL@@QBEPA_WXZ
_TEXT	SEGMENT
_this$ = -4						; size = 4
??B?$CHeapPtrBase@_WVCCRTAllocator@ATL@@@ATL@@QBEPA_WXZ PROC ; ATL::CHeapPtrBase<wchar_t,ATL::CCRTAllocator>::operator wchar_t *, COMDAT
; _this$ = ecx

; 363  : 	{

  00000	55		 push	 ebp
  00001	8b ec		 mov	 ebp, esp
  00003	83 ec 44	 sub	 esp, 68			; 00000044H
  00006	53		 push	 ebx
  00007	56		 push	 esi
  00008	57		 push	 edi
  00009	89 4d fc	 mov	 DWORD PTR _this$[ebp], ecx

; 364  : 		return m_pData;

  0000c	8b 45 fc	 mov	 eax, DWORD PTR _this$[ebp]
  0000f	8b 00		 mov	 eax, DWORD PTR [eax]

; 365  : 	}

  00011	5f		 pop	 edi
  00012	5e		 pop	 esi
  00013	5b		 pop	 ebx
  00014	8b e5		 mov	 esp, ebp
  00016	5d		 pop	 ebp
  00017	c3		 ret	 0
??B?$CHeapPtrBase@_WVCCRTAllocator@ATL@@@ATL@@QBEPA_WXZ ENDP ; ATL::CHeapPtrBase<wchar_t,ATL::CCRTAllocator>::operator wchar_t *
_TEXT	ENDS
; Function compile flags: /Odtp /ZI
; File c:\program files (x86)\microsoft visual studio\2017\community\vc\tools\msvc\14.16.27023\atlmfc\include\atlalloc.h
;	COMDAT ??1?$CHeapPtrBase@_WVCCRTAllocator@ATL@@@ATL@@QAE@XZ
_TEXT	SEGMENT
_this$ = -4						; size = 4
??1?$CHeapPtrBase@_WVCCRTAllocator@ATL@@@ATL@@QAE@XZ PROC ; ATL::CHeapPtrBase<wchar_t,ATL::CCRTAllocator>::~CHeapPtrBase<wchar_t,ATL::CCRTAllocator>, COMDAT
; _this$ = ecx

; 349  : 	{

  00000	55		 push	 ebp
  00001	8b ec		 mov	 ebp, esp
  00003	83 ec 44	 sub	 esp, 68			; 00000044H
  00006	53		 push	 ebx
  00007	56		 push	 esi
  00008	57		 push	 edi
  00009	89 4d fc	 mov	 DWORD PTR _this$[ebp], ecx

; 350  : 		Free();

  0000c	8b 4d fc	 mov	 ecx, DWORD PTR _this$[ebp]
  0000f	e8 00 00 00 00	 call	 ?Free@?$CHeapPtrBase@_WVCCRTAllocator@ATL@@@ATL@@QAEXXZ ; ATL::CHeapPtrBase<wchar_t,ATL::CCRTAllocator>::Free

; 351  : 	}

  00014	5f		 pop	 edi
  00015	5e		 pop	 esi
  00016	5b		 pop	 ebx
  00017	8b e5		 mov	 esp, ebp
  00019	5d		 pop	 ebp
  0001a	c3		 ret	 0
??1?$CHeapPtrBase@_WVCCRTAllocator@ATL@@@ATL@@QAE@XZ ENDP ; ATL::CHeapPtrBase<wchar_t,ATL::CCRTAllocator>::~CHeapPtrBase<wchar_t,ATL::CCRTAllocator>
_TEXT	ENDS
; Function compile flags: /Odtp /ZI
; File c:\program files (x86)\microsoft visual studio\2017\community\vc\tools\msvc\14.16.27023\atlmfc\include\atlalloc.h
;	COMDAT ??0?$CHeapPtrBase@_WVCCRTAllocator@ATL@@@ATL@@IAE@XZ
_TEXT	SEGMENT
_this$ = -4						; size = 4
??0?$CHeapPtrBase@_WVCCRTAllocator@ATL@@@ATL@@IAE@XZ PROC ; ATL::CHeapPtrBase<wchar_t,ATL::CCRTAllocator>::CHeapPtrBase<wchar_t,ATL::CCRTAllocator>, COMDAT
; _this$ = ecx

; 336  : 	{

  00000	55		 push	 ebp
  00001	8b ec		 mov	 ebp, esp
  00003	83 ec 44	 sub	 esp, 68			; 00000044H
  00006	53		 push	 ebx
  00007	56		 push	 esi
  00008	57		 push	 edi
  00009	89 4d fc	 mov	 DWORD PTR _this$[ebp], ecx

; 335  : 		m_pData(NULL)

  0000c	8b 45 fc	 mov	 eax, DWORD PTR _this$[ebp]
  0000f	c7 00 00 00 00
	00		 mov	 DWORD PTR [eax], 0

; 337  : 	}

  00015	8b 45 fc	 mov	 eax, DWORD PTR _this$[ebp]
  00018	5f		 pop	 edi
  00019	5e		 pop	 esi
  0001a	5b		 pop	 ebx
  0001b	8b e5		 mov	 esp, ebp
  0001d	5d		 pop	 ebp
  0001e	c3		 ret	 0
??0?$CHeapPtrBase@_WVCCRTAllocator@ATL@@@ATL@@IAE@XZ ENDP ; ATL::CHeapPtrBase<wchar_t,ATL::CCRTAllocator>::CHeapPtrBase<wchar_t,ATL::CCRTAllocator>
_TEXT	ENDS
; Function compile flags: /Odtp /ZI
; File c:\program files (x86)\microsoft visual studio\2017\community\vc\tools\msvc\14.16.27023\atlmfc\include\atltrace.h
;	COMDAT ?RegisterCategory@CTrace@ATL@@SAXPBDI@Z
_TEXT	SEGMENT
_buffer$ = -260						; size = 256
__$ArrayPad$ = -4					; size = 4
_pszCategory$ = 8					; size = 4
_nCategory$ = 12					; size = 4
?RegisterCategory@CTrace@ATL@@SAXPBDI@Z PROC		; ATL::CTrace::RegisterCategory, COMDAT

; 329  : 	{

  00000	55		 push	 ebp
  00001	8b ec		 mov	 ebp, esp
  00003	81 ec 44 01 00
	00		 sub	 esp, 324		; 00000144H
  00009	a1 00 00 00 00	 mov	 eax, DWORD PTR ___security_cookie
  0000e	33 c5		 xor	 eax, ebp
  00010	89 45 fc	 mov	 DWORD PTR __$ArrayPad$[ebp], eax
  00013	53		 push	 ebx
  00014	56		 push	 esi
  00015	57		 push	 edi

; 330  : 		if (pszCategory == nullptr)

  00016	83 7d 08 00	 cmp	 DWORD PTR _pszCategory$[ebp], 0
  0001a	75 05		 jne	 SHORT $LN2@RegisterCa

; 331  : 		{
; 332  : 			return;

  0001c	e9 a9 00 00 00	 jmp	 $LN1@RegisterCa
$LN2@RegisterCa:

; 333  : 		}
; 334  : 
; 335  : 		if (m_nLastCategory >= MaxCategoryArray) 

  00021	83 3d 00 00 00
	00 20		 cmp	 DWORD PTR ?m_nLastCategory@CTrace@ATL@@1IA, 32 ; ATL::CTrace::m_nLastCategory, 00000020H
  00028	72 2d		 jb	 SHORT $LN3@RegisterCa

; 336  : 		{
; 337  : 			ATLASSERT(false && "Too many categories defined");

  0002a	33 c0		 xor	 eax, eax
  0002c	75 27		 jne	 SHORT $LN5@RegisterCa
  0002e	68 00 00 00 00	 push	 OFFSET ??_C@_1EO@EBPPKGOM@?$AAf?$AAa?$AAl?$AAs?$AAe?$AA?5?$AA?$CG?$AA?$CG?$AA?5?$AA?$CC?$AAT?$AAo?$AAo?$AA?5?$AAm@
  00033	68 00 00 00 00	 push	 OFFSET ??_C@_17CNPHIMPH@?$AA?$CF?$AAl?$AAs@
  00038	6a 00		 push	 0
  0003a	68 51 01 00 00	 push	 337			; 00000151H
  0003f	68 00 00 00 00	 push	 OFFSET ??_C@_1OE@PDFAMNPL@?$AAc?$AA?3?$AA?2?$AAp?$AAr?$AAo?$AAg?$AAr?$AAa?$AAm?$AA?5?$AAf?$AAi?$AAl?$AAe@
  00044	6a 02		 push	 2
  00046	ff 15 00 00 00
	00		 call	 DWORD PTR __imp___CrtDbgReportW
  0004c	83 c4 18	 add	 esp, 24			; 00000018H
  0004f	83 f8 01	 cmp	 eax, 1
  00052	75 01		 jne	 SHORT $LN5@RegisterCa
  00054	cc		 int	 3
$LN5@RegisterCa:

; 338  : 			return;

  00055	eb 73		 jmp	 SHORT $LN1@RegisterCa
$LN3@RegisterCa:

; 339  : 		}
; 340  : 
; 341  : 		m_nMap[m_nLastCategory].nCategory = nCategory;

  00057	69 05 00 00 00
	00 04 01 00 00	 imul	 eax, DWORD PTR ?m_nLastCategory@CTrace@ATL@@1IA, 260 ; ATL::CTrace::m_nLastCategory
  00061	8b 4d 0c	 mov	 ecx, DWORD PTR _nCategory$[ebp]
  00064	89 88 00 00 00
	00		 mov	 DWORD PTR ?m_nMap@CTrace@ATL@@1PAUCategoryMap@12@A[eax], ecx

; 342  : #ifdef _UNICODE
; 343  : 		wcscpy_s(m_nMap[m_nLastCategory].categryName, MaxLengthOfCategoryName - 1, pszCategory);
; 344  : #else
; 345  : 		wchar_t buffer[MaxLengthOfCategoryName] = { 0 };	

  0006a	68 00 01 00 00	 push	 256			; 00000100H
  0006f	6a 00		 push	 0
  00071	8d 85 fc fe ff
	ff		 lea	 eax, DWORD PTR _buffer$[ebp]
  00077	50		 push	 eax
  00078	e8 00 00 00 00	 call	 _memset
  0007d	83 c4 0c	 add	 esp, 12			; 0000000cH

; 346  : #if _MSC_VER < 1900
; 347  : 		swprintf_s(buffer, MaxLengthOfCategoryName - 1, L"%S", pszCategory);
; 348  : #else
; 349  : 		swprintf_s(buffer, MaxLengthOfCategoryName - 1, L"%hs", pszCategory);

  00080	8b 45 08	 mov	 eax, DWORD PTR _pszCategory$[ebp]
  00083	50		 push	 eax
  00084	68 00 00 00 00	 push	 OFFSET ??_C@_17LGGGMOOB@?$AA?$CF?$AAh?$AAs@
  00089	6a 7f		 push	 127			; 0000007fH
  0008b	8d 8d fc fe ff
	ff		 lea	 ecx, DWORD PTR _buffer$[ebp]
  00091	51		 push	 ecx
  00092	e8 00 00 00 00	 call	 _swprintf_s
  00097	83 c4 10	 add	 esp, 16			; 00000010H

; 350  : #endif
; 351  : 		wcscpy_s(m_nMap[m_nLastCategory].categryName, MaxLengthOfCategoryName - 1, buffer);

  0009a	8d 85 fc fe ff
	ff		 lea	 eax, DWORD PTR _buffer$[ebp]
  000a0	50		 push	 eax
  000a1	6a 7f		 push	 127			; 0000007fH
  000a3	69 0d 00 00 00
	00 04 01 00 00	 imul	 ecx, DWORD PTR ?m_nLastCategory@CTrace@ATL@@1IA, 260 ; ATL::CTrace::m_nLastCategory
  000ad	81 c1 04 00 00
	00		 add	 ecx, OFFSET ?m_nMap@CTrace@ATL@@1PAUCategoryMap@12@A+4
  000b3	51		 push	 ecx
  000b4	ff 15 00 00 00
	00		 call	 DWORD PTR __imp__wcscpy_s
  000ba	83 c4 0c	 add	 esp, 12			; 0000000cH

; 352  : #endif
; 353  : 	
; 354  : 		m_nLastCategory++;

  000bd	a1 00 00 00 00	 mov	 eax, DWORD PTR ?m_nLastCategory@CTrace@ATL@@1IA ; ATL::CTrace::m_nLastCategory
  000c2	83 c0 01	 add	 eax, 1
  000c5	a3 00 00 00 00	 mov	 DWORD PTR ?m_nLastCategory@CTrace@ATL@@1IA, eax ; ATL::CTrace::m_nLastCategory
$LN1@RegisterCa:

; 355  : 	}

  000ca	5f		 pop	 edi
  000cb	5e		 pop	 esi
  000cc	5b		 pop	 ebx
  000cd	8b 4d fc	 mov	 ecx, DWORD PTR __$ArrayPad$[ebp]
  000d0	33 cd		 xor	 ecx, ebp
  000d2	e8 00 00 00 00	 call	 @__security_check_cookie@4
  000d7	8b e5		 mov	 esp, ebp
  000d9	5d		 pop	 ebp
  000da	c3		 ret	 0
?RegisterCategory@CTrace@ATL@@SAXPBDI@Z ENDP		; ATL::CTrace::RegisterCategory
_TEXT	ENDS
; Function compile flags: /Odtp /ZI
; File c:\program files (x86)\microsoft visual studio\2017\community\vc\tools\msvc\14.16.27023\atlmfc\include\atltrace.h
;	COMDAT ?TraceV@CTrace@ATL@@SAXPBDHII0PAD@Z
_TEXT	SEGMENT
_wszBuf$ = -24						; size = 4
_szBuf$ = -20						; size = 4
_cchNeeded$ = -16					; size = 4
__$EHRec$ = -12						; size = 12
_pszFileName$ = 8					; size = 4
_nLine$ = 12						; size = 4
_dwCategory$ = 16					; size = 4
_nLevel$ = 20						; size = 4
_pszFmt$ = 24						; size = 4
_args$ = 28						; size = 4
?TraceV@CTrace@ATL@@SAXPBDHII0PAD@Z PROC		; ATL::CTrace::TraceV, COMDAT

; 238  : 	{

  00000	55		 push	 ebp
  00001	8b ec		 mov	 ebp, esp
  00003	6a ff		 push	 -1
  00005	68 00 00 00 00	 push	 __ehhandler$?TraceV@CTrace@ATL@@SAXPBDHII0PAD@Z
  0000a	64 a1 00 00 00
	00		 mov	 eax, DWORD PTR fs:0
  00010	50		 push	 eax
  00011	83 ec 4c	 sub	 esp, 76			; 0000004cH
  00014	53		 push	 ebx
  00015	56		 push	 esi
  00016	57		 push	 edi
  00017	a1 00 00 00 00	 mov	 eax, DWORD PTR ___security_cookie
  0001c	33 c5		 xor	 eax, ebp
  0001e	50		 push	 eax
  0001f	8d 45 f4	 lea	 eax, DWORD PTR __$EHRec$[ebp]
  00022	64 a3 00 00 00
	00		 mov	 DWORD PTR fs:0, eax

; 239  : 		int cchNeeded = _vscprintf(pszFmt, args);

  00028	8b 45 1c	 mov	 eax, DWORD PTR _args$[ebp]
  0002b	50		 push	 eax
  0002c	8b 4d 18	 mov	 ecx, DWORD PTR _pszFmt$[ebp]
  0002f	51		 push	 ecx
  00030	e8 00 00 00 00	 call	 __vscprintf
  00035	83 c4 08	 add	 esp, 8
  00038	89 45 f0	 mov	 DWORD PTR _cchNeeded$[ebp], eax

; 240  : 		if (cchNeeded < 0)

  0003b	83 7d f0 00	 cmp	 DWORD PTR _cchNeeded$[ebp], 0
  0003f	7d 05		 jge	 SHORT $LN2@TraceV

; 241  : 		{
; 242  : 			return;

  00041	e9 64 01 00 00	 jmp	 $LN1@TraceV
$LN2@TraceV:

; 243  : 		}
; 244  : 
; 245  : 		CHeapPtr<char> szBuf;

  00046	8d 4d ec	 lea	 ecx, DWORD PTR _szBuf$[ebp]
  00049	e8 00 00 00 00	 call	 ??0?$CHeapPtr@DVCCRTAllocator@ATL@@@ATL@@QAE@XZ ; ATL::CHeapPtr<char,ATL::CCRTAllocator>::CHeapPtr<char,ATL::CCRTAllocator>
  0004e	c7 45 fc 00 00
	00 00		 mov	 DWORD PTR __$EHRec$[ebp+8], 0

; 246  : 		if (!szBuf.Allocate(cchNeeded + 1))

  00055	8b 45 f0	 mov	 eax, DWORD PTR _cchNeeded$[ebp]
  00058	83 c0 01	 add	 eax, 1
  0005b	50		 push	 eax
  0005c	8d 4d ec	 lea	 ecx, DWORD PTR _szBuf$[ebp]
  0005f	e8 00 00 00 00	 call	 ?Allocate@?$CHeapPtr@DVCCRTAllocator@ATL@@@ATL@@QAE_NI@Z ; ATL::CHeapPtr<char,ATL::CCRTAllocator>::Allocate
  00064	0f b6 c8	 movzx	 ecx, al
  00067	85 c9		 test	 ecx, ecx
  00069	75 14		 jne	 SHORT $LN3@TraceV

; 247  : 		{
; 248  : 			return;

  0006b	c7 45 fc ff ff
	ff ff		 mov	 DWORD PTR __$EHRec$[ebp+8], -1
  00072	8d 4d ec	 lea	 ecx, DWORD PTR _szBuf$[ebp]
  00075	e8 00 00 00 00	 call	 ??1?$CHeapPtr@DVCCRTAllocator@ATL@@@ATL@@QAE@XZ
  0007a	e9 2b 01 00 00	 jmp	 $LN1@TraceV
$LN3@TraceV:

; 249  : 		}
; 250  : 
; 251  : 		szBuf[0] = '\0';

  0007f	8d 4d ec	 lea	 ecx, DWORD PTR _szBuf$[ebp]
  00082	e8 00 00 00 00	 call	 ??B?$CHeapPtrBase@DVCCRTAllocator@ATL@@@ATL@@QBEPADXZ ; ATL::CHeapPtrBase<char,ATL::CCRTAllocator>::operator char *
  00087	b9 01 00 00 00	 mov	 ecx, 1
  0008c	6b d1 00	 imul	 edx, ecx, 0
  0008f	c6 04 10 00	 mov	 BYTE PTR [eax+edx], 0

; 252  : 
; 253  : 		if (_vsnprintf_s(szBuf, cchNeeded + 1, cchNeeded, pszFmt, args) == -1)

  00093	8b 45 1c	 mov	 eax, DWORD PTR _args$[ebp]
  00096	50		 push	 eax
  00097	8b 4d 18	 mov	 ecx, DWORD PTR _pszFmt$[ebp]
  0009a	51		 push	 ecx
  0009b	8b 55 f0	 mov	 edx, DWORD PTR _cchNeeded$[ebp]
  0009e	52		 push	 edx
  0009f	8b 45 f0	 mov	 eax, DWORD PTR _cchNeeded$[ebp]
  000a2	83 c0 01	 add	 eax, 1
  000a5	50		 push	 eax
  000a6	8d 4d ec	 lea	 ecx, DWORD PTR _szBuf$[ebp]
  000a9	e8 00 00 00 00	 call	 ??B?$CHeapPtrBase@DVCCRTAllocator@ATL@@@ATL@@QBEPADXZ ; ATL::CHeapPtrBase<char,ATL::CCRTAllocator>::operator char *
  000ae	50		 push	 eax
  000af	e8 00 00 00 00	 call	 __vsnprintf_s
  000b4	83 c4 14	 add	 esp, 20			; 00000014H
  000b7	83 f8 ff	 cmp	 eax, -1
  000ba	75 14		 jne	 SHORT $LN4@TraceV

; 254  : 		{
; 255  : 			return;

  000bc	c7 45 fc ff ff
	ff ff		 mov	 DWORD PTR __$EHRec$[ebp+8], -1
  000c3	8d 4d ec	 lea	 ecx, DWORD PTR _szBuf$[ebp]
  000c6	e8 00 00 00 00	 call	 ??1?$CHeapPtr@DVCCRTAllocator@ATL@@@ATL@@QAE@XZ
  000cb	e9 da 00 00 00	 jmp	 $LN1@TraceV
$LN4@TraceV:

; 256  : 		}
; 257  : 
; 258  : 		CHeapPtr<wchar_t> wszBuf;

  000d0	8d 4d e8	 lea	 ecx, DWORD PTR _wszBuf$[ebp]
  000d3	e8 00 00 00 00	 call	 ??0?$CHeapPtr@_WVCCRTAllocator@ATL@@@ATL@@QAE@XZ ; ATL::CHeapPtr<wchar_t,ATL::CCRTAllocator>::CHeapPtr<wchar_t,ATL::CCRTAllocator>
  000d8	c6 45 fc 01	 mov	 BYTE PTR __$EHRec$[ebp+8], 1

; 259  : 		if (!wszBuf.Allocate(cchNeeded + 1))

  000dc	8b 45 f0	 mov	 eax, DWORD PTR _cchNeeded$[ebp]
  000df	83 c0 01	 add	 eax, 1
  000e2	50		 push	 eax
  000e3	8d 4d e8	 lea	 ecx, DWORD PTR _wszBuf$[ebp]
  000e6	e8 00 00 00 00	 call	 ?Allocate@?$CHeapPtr@_WVCCRTAllocator@ATL@@@ATL@@QAE_NI@Z ; ATL::CHeapPtr<wchar_t,ATL::CCRTAllocator>::Allocate
  000eb	0f b6 c8	 movzx	 ecx, al
  000ee	85 c9		 test	 ecx, ecx
  000f0	75 20		 jne	 SHORT $LN5@TraceV

; 260  : 		{
; 261  : 			return;

  000f2	c6 45 fc 00	 mov	 BYTE PTR __$EHRec$[ebp+8], 0
  000f6	8d 4d e8	 lea	 ecx, DWORD PTR _wszBuf$[ebp]
  000f9	e8 00 00 00 00	 call	 ??1?$CHeapPtr@_WVCCRTAllocator@ATL@@@ATL@@QAE@XZ
  000fe	c7 45 fc ff ff
	ff ff		 mov	 DWORD PTR __$EHRec$[ebp+8], -1
  00105	8d 4d ec	 lea	 ecx, DWORD PTR _szBuf$[ebp]
  00108	e8 00 00 00 00	 call	 ??1?$CHeapPtr@DVCCRTAllocator@ATL@@@ATL@@QAE@XZ
  0010d	e9 98 00 00 00	 jmp	 $LN1@TraceV
$LN5@TraceV:

; 262  : 		}
; 263  : 
; 264  : 		wszBuf[0] = '\0';

  00112	8d 4d e8	 lea	 ecx, DWORD PTR _wszBuf$[ebp]
  00115	e8 00 00 00 00	 call	 ??B?$CHeapPtrBase@_WVCCRTAllocator@ATL@@@ATL@@QBEPA_WXZ ; ATL::CHeapPtrBase<wchar_t,ATL::CCRTAllocator>::operator wchar_t *
  0011a	b9 02 00 00 00	 mov	 ecx, 2
  0011f	6b d1 00	 imul	 edx, ecx, 0
  00122	33 c9		 xor	 ecx, ecx
  00124	66 89 0c 10	 mov	 WORD PTR [eax+edx], cx

; 265  : 
; 266  : 		if (::MultiByteToWideChar(CP_ACP, 0, szBuf, -1, wszBuf, cchNeeded + 1) == 0)

  00128	8b 45 f0	 mov	 eax, DWORD PTR _cchNeeded$[ebp]
  0012b	83 c0 01	 add	 eax, 1
  0012e	50		 push	 eax
  0012f	8d 4d e8	 lea	 ecx, DWORD PTR _wszBuf$[ebp]
  00132	e8 00 00 00 00	 call	 ??B?$CHeapPtrBase@_WVCCRTAllocator@ATL@@@ATL@@QBEPA_WXZ ; ATL::CHeapPtrBase<wchar_t,ATL::CCRTAllocator>::operator wchar_t *
  00137	50		 push	 eax
  00138	6a ff		 push	 -1
  0013a	8d 4d ec	 lea	 ecx, DWORD PTR _szBuf$[ebp]
  0013d	e8 00 00 00 00	 call	 ??B?$CHeapPtrBase@DVCCRTAllocator@ATL@@@ATL@@QBEPADXZ ; ATL::CHeapPtrBase<char,ATL::CCRTAllocator>::operator char *
  00142	50		 push	 eax
  00143	6a 00		 push	 0
  00145	6a 00		 push	 0
  00147	ff 15 00 00 00
	00		 call	 DWORD PTR __imp__MultiByteToWideChar@24
  0014d	85 c0		 test	 eax, eax
  0014f	75 1d		 jne	 SHORT $LN6@TraceV

; 267  : 		{
; 268  : 			return;

  00151	c6 45 fc 00	 mov	 BYTE PTR __$EHRec$[ebp+8], 0
  00155	8d 4d e8	 lea	 ecx, DWORD PTR _wszBuf$[ebp]
  00158	e8 00 00 00 00	 call	 ??1?$CHeapPtr@_WVCCRTAllocator@ATL@@@ATL@@QAE@XZ
  0015d	c7 45 fc ff ff
	ff ff		 mov	 DWORD PTR __$EHRec$[ebp+8], -1
  00164	8d 4d ec	 lea	 ecx, DWORD PTR _szBuf$[ebp]
  00167	e8 00 00 00 00	 call	 ??1?$CHeapPtr@DVCCRTAllocator@ATL@@@ATL@@QAE@XZ
  0016c	eb 3c		 jmp	 SHORT $LN1@TraceV
$LN6@TraceV:

; 269  : 		}
; 270  : 
; 271  : 		TraceV(pszFileName, nLine, dwCategory, nLevel, wszBuf);

  0016e	8d 4d e8	 lea	 ecx, DWORD PTR _wszBuf$[ebp]
  00171	e8 00 00 00 00	 call	 ??B?$CHeapPtrBase@_WVCCRTAllocator@ATL@@@ATL@@QBEPA_WXZ ; ATL::CHeapPtrBase<wchar_t,ATL::CCRTAllocator>::operator wchar_t *
  00176	50		 push	 eax
  00177	8b 45 14	 mov	 eax, DWORD PTR _nLevel$[ebp]
  0017a	50		 push	 eax
  0017b	8b 4d 10	 mov	 ecx, DWORD PTR _dwCategory$[ebp]
  0017e	51		 push	 ecx
  0017f	8b 55 0c	 mov	 edx, DWORD PTR _nLine$[ebp]
  00182	52		 push	 edx
  00183	8b 45 08	 mov	 eax, DWORD PTR _pszFileName$[ebp]
  00186	50		 push	 eax
  00187	e8 00 00 00 00	 call	 ?TraceV@CTrace@ATL@@CAXPBDHIIPB_W@Z ; ATL::CTrace::TraceV
  0018c	83 c4 14	 add	 esp, 20			; 00000014H

; 272  : 	}

  0018f	c6 45 fc 00	 mov	 BYTE PTR __$EHRec$[ebp+8], 0
  00193	8d 4d e8	 lea	 ecx, DWORD PTR _wszBuf$[ebp]
  00196	e8 00 00 00 00	 call	 ??1?$CHeapPtr@_WVCCRTAllocator@ATL@@@ATL@@QAE@XZ
  0019b	c7 45 fc ff ff
	ff ff		 mov	 DWORD PTR __$EHRec$[ebp+8], -1
  001a2	8d 4d ec	 lea	 ecx, DWORD PTR _szBuf$[ebp]
  001a5	e8 00 00 00 00	 call	 ??1?$CHeapPtr@DVCCRTAllocator@ATL@@@ATL@@QAE@XZ
$LN1@TraceV:
  001aa	8b 4d f4	 mov	 ecx, DWORD PTR __$EHRec$[ebp]
  001ad	64 89 0d 00 00
	00 00		 mov	 DWORD PTR fs:0, ecx
  001b4	59		 pop	 ecx
  001b5	5f		 pop	 edi
  001b6	5e		 pop	 esi
  001b7	5b		 pop	 ebx
  001b8	8b e5		 mov	 esp, ebp
  001ba	5d		 pop	 ebp
  001bb	c3		 ret	 0
_TEXT	ENDS
;	COMDAT text$x
text$x	SEGMENT
__unwindfunclet$?TraceV@CTrace@ATL@@SAXPBDHII0PAD@Z$0:
  00000	8d 4d ec	 lea	 ecx, DWORD PTR _szBuf$[ebp]
  00003	e9 00 00 00 00	 jmp	 ??1?$CHeapPtr@DVCCRTAllocator@ATL@@@ATL@@QAE@XZ
__unwindfunclet$?TraceV@CTrace@ATL@@SAXPBDHII0PAD@Z$1:
  00008	8d 4d e8	 lea	 ecx, DWORD PTR _wszBuf$[ebp]
  0000b	e9 00 00 00 00	 jmp	 ??1?$CHeapPtr@_WVCCRTAllocator@ATL@@@ATL@@QAE@XZ
__ehhandler$?TraceV@CTrace@ATL@@SAXPBDHII0PAD@Z:
  00010	8b 54 24 08	 mov	 edx, DWORD PTR [esp+8]
  00014	8d 42 0c	 lea	 eax, DWORD PTR [edx+12]
  00017	8b 4a a4	 mov	 ecx, DWORD PTR [edx-92]
  0001a	33 c8		 xor	 ecx, eax
  0001c	e8 00 00 00 00	 call	 @__security_check_cookie@4
  00021	b8 00 00 00 00	 mov	 eax, OFFSET __ehfuncinfo$?TraceV@CTrace@ATL@@SAXPBDHII0PAD@Z
  00026	e9 00 00 00 00	 jmp	 ___CxxFrameHandler3
text$x	ENDS
?TraceV@CTrace@ATL@@SAXPBDHII0PAD@Z ENDP		; ATL::CTrace::TraceV
; Function compile flags: /Odtp /ZI
; File c:\program files (x86)\microsoft visual studio\2017\community\vc\tools\msvc\14.16.27023\atlmfc\include\atltrace.h
;	COMDAT ?TraceV@CTrace@ATL@@CAXPBDHIIPB_W@Z
_TEXT	SEGMENT
_fileName$ = -2588					; size = 520
_wszBuf$ = -2068					; size = 4
_chCount$ = -2064					; size = 4
_pwszCategoryName$ = -2060				; size = 4
_categoryLength$ = -2056				; size = 4
_wszCategory$ = -2052					; size = 2048
__$ArrayPad$ = -4					; size = 4
_pszFileName$ = 8					; size = 4
_nLine$ = 12						; size = 4
_dwCategory$ = 16					; size = 4
_nLevel$ = 20						; size = 4
_pwszMessage$ = 24					; size = 4
?TraceV@CTrace@ATL@@CAXPBDHIIPB_W@Z PROC		; ATL::CTrace::TraceV, COMDAT

; 150  : 	{

  00000	55		 push	 ebp
  00001	8b ec		 mov	 ebp, esp
  00003	81 ec 9c 0b 00
	00		 sub	 esp, 2972		; 00000b9cH
  00009	a1 00 00 00 00	 mov	 eax, DWORD PTR ___security_cookie
  0000e	33 c5		 xor	 eax, ebp
  00010	89 45 fc	 mov	 DWORD PTR __$ArrayPad$[ebp], eax
  00013	53		 push	 ebx
  00014	56		 push	 esi
  00015	57		 push	 edi

; 151  : 		if (CTrace::m_nLevel == CTrace::DisableTracing || CTrace::m_nLevel < nLevel || (CTrace::m_nCategory & dwCategory) == 0)

  00016	83 3d 00 00 00
	00 ff		 cmp	 DWORD PTR ?m_nLevel@CTrace@ATL@@1IA, -1 ; ATL::CTrace::m_nLevel
  0001d	74 14		 je	 SHORT $LN3@TraceV
  0001f	a1 00 00 00 00	 mov	 eax, DWORD PTR ?m_nLevel@CTrace@ATL@@1IA ; ATL::CTrace::m_nLevel
  00024	3b 45 14	 cmp	 eax, DWORD PTR _nLevel$[ebp]
  00027	72 0a		 jb	 SHORT $LN3@TraceV
  00029	a1 00 00 00 00	 mov	 eax, DWORD PTR ?m_nCategory@CTrace@ATL@@1IA ; ATL::CTrace::m_nCategory
  0002e	23 45 10	 and	 eax, DWORD PTR _dwCategory$[ebp]
  00031	75 05		 jne	 SHORT $LN2@TraceV
$LN3@TraceV:

; 152  : 		{
; 153  : 			return;

  00033	e9 c2 01 00 00	 jmp	 $LN1@TraceV
$LN2@TraceV:

; 154  : 		}
; 155  : 
; 156  : 		wchar_t wszCategory[TraceBufferSize] = {'\0'};

  00038	68 00 08 00 00	 push	 2048			; 00000800H
  0003d	6a 00		 push	 0
  0003f	8d 85 fc f7 ff
	ff		 lea	 eax, DWORD PTR _wszCategory$[ebp]
  00045	50		 push	 eax
  00046	e8 00 00 00 00	 call	 _memset
  0004b	83 c4 0c	 add	 esp, 12			; 0000000cH

; 157  : 		int categoryLength = 0;

  0004e	c7 85 f8 f7 ff
	ff 00 00 00 00	 mov	 DWORD PTR _categoryLength$[ebp], 0

; 158  : 		const wchar_t *const pwszCategoryName = GetCategoryName(dwCategory);

  00058	8b 45 10	 mov	 eax, DWORD PTR _dwCategory$[ebp]
  0005b	50		 push	 eax
  0005c	e8 00 00 00 00	 call	 ?GetCategoryName@CTrace@ATL@@CAPA_WI@Z ; ATL::CTrace::GetCategoryName
  00061	83 c4 04	 add	 esp, 4
  00064	89 85 f4 f7 ff
	ff		 mov	 DWORD PTR _pwszCategoryName$[ebp], eax

; 159  : 		if (pwszCategoryName != nullptr)

  0006a	83 bd f4 f7 ff
	ff 00		 cmp	 DWORD PTR _pwszCategoryName$[ebp], 0
  00071	74 36		 je	 SHORT $LN4@TraceV

; 160  : 		{
; 161  : 			if ((categoryLength = swprintf_s(wszCategory, TraceBufferSize, L"%ls - ", pwszCategoryName)) == -1)

  00073	8b 85 f4 f7 ff
	ff		 mov	 eax, DWORD PTR _pwszCategoryName$[ebp]
  00079	50		 push	 eax
  0007a	68 00 00 00 00	 push	 OFFSET ??_C@_1O@LFNDFEBP@?$AA?$CF?$AAl?$AAs?$AA?5?$AA?9?$AA?5@
  0007f	68 00 04 00 00	 push	 1024			; 00000400H
  00084	8d 8d fc f7 ff
	ff		 lea	 ecx, DWORD PTR _wszCategory$[ebp]
  0008a	51		 push	 ecx
  0008b	e8 00 00 00 00	 call	 _swprintf_s
  00090	83 c4 10	 add	 esp, 16			; 00000010H
  00093	89 85 f8 f7 ff
	ff		 mov	 DWORD PTR _categoryLength$[ebp], eax
  00099	83 bd f8 f7 ff
	ff ff		 cmp	 DWORD PTR _categoryLength$[ebp], -1
  000a0	75 05		 jne	 SHORT $LN6@TraceV

; 162  : 			{
; 163  : 				return;

  000a2	e9 53 01 00 00	 jmp	 $LN1@TraceV
$LN6@TraceV:

; 164  : 			}
; 165  : 		}
; 166  : 		else

  000a7	eb 31		 jmp	 SHORT $LN5@TraceV
$LN4@TraceV:

; 167  : 		{
; 168  : 			if ((categoryLength = swprintf_s(wszCategory, TraceBufferSize, L"%u - ", dwCategory)) == -1)

  000a9	8b 45 10	 mov	 eax, DWORD PTR _dwCategory$[ebp]
  000ac	50		 push	 eax
  000ad	68 00 00 00 00	 push	 OFFSET ??_C@_1M@PGKOAACE@?$AA?$CF?$AAu?$AA?5?$AA?9?$AA?5@
  000b2	68 00 04 00 00	 push	 1024			; 00000400H
  000b7	8d 8d fc f7 ff
	ff		 lea	 ecx, DWORD PTR _wszCategory$[ebp]
  000bd	51		 push	 ecx
  000be	e8 00 00 00 00	 call	 _swprintf_s
  000c3	83 c4 10	 add	 esp, 16			; 00000010H
  000c6	89 85 f8 f7 ff
	ff		 mov	 DWORD PTR _categoryLength$[ebp], eax
  000cc	83 bd f8 f7 ff
	ff ff		 cmp	 DWORD PTR _categoryLength$[ebp], -1
  000d3	75 05		 jne	 SHORT $LN5@TraceV

; 169  : 			{
; 170  : 				return;

  000d5	e9 20 01 00 00	 jmp	 $LN1@TraceV
$LN5@TraceV:

; 171  : 			}
; 172  : 		}
; 173  : 
; 174  : 		int chCount = (int)wcslen(pwszMessage) + categoryLength + 1;

  000da	8b 45 18	 mov	 eax, DWORD PTR _pwszMessage$[ebp]
  000dd	50		 push	 eax
  000de	ff 15 00 00 00
	00		 call	 DWORD PTR __imp__wcslen
  000e4	83 c4 04	 add	 esp, 4
  000e7	8b 8d f8 f7 ff
	ff		 mov	 ecx, DWORD PTR _categoryLength$[ebp]
  000ed	8d 54 08 01	 lea	 edx, DWORD PTR [eax+ecx+1]
  000f1	89 95 f0 f7 ff
	ff		 mov	 DWORD PTR _chCount$[ebp], edx

; 175  : 		CHeapPtr<wchar_t> wszBuf;

  000f7	8d 8d ec f7 ff
	ff		 lea	 ecx, DWORD PTR _wszBuf$[ebp]
  000fd	e8 00 00 00 00	 call	 ??0?$CHeapPtr@_WVCCRTAllocator@ATL@@@ATL@@QAE@XZ ; ATL::CHeapPtr<wchar_t,ATL::CCRTAllocator>::CHeapPtr<wchar_t,ATL::CCRTAllocator>

; 176  : 		if (!wszBuf.Allocate(chCount))

  00102	8b 85 f0 f7 ff
	ff		 mov	 eax, DWORD PTR _chCount$[ebp]
  00108	50		 push	 eax
  00109	8d 8d ec f7 ff
	ff		 lea	 ecx, DWORD PTR _wszBuf$[ebp]
  0010f	e8 00 00 00 00	 call	 ?Allocate@?$CHeapPtr@_WVCCRTAllocator@ATL@@@ATL@@QAE_NI@Z ; ATL::CHeapPtr<wchar_t,ATL::CCRTAllocator>::Allocate
  00114	0f b6 c8	 movzx	 ecx, al
  00117	85 c9		 test	 ecx, ecx
  00119	75 10		 jne	 SHORT $LN8@TraceV

; 177  : 		{
; 178  : 			return;

  0011b	8d 8d ec f7 ff
	ff		 lea	 ecx, DWORD PTR _wszBuf$[ebp]
  00121	e8 00 00 00 00	 call	 ??1?$CHeapPtr@_WVCCRTAllocator@ATL@@@ATL@@QAE@XZ
  00126	e9 cf 00 00 00	 jmp	 $LN1@TraceV
$LN8@TraceV:

; 179  : 		}
; 180  : 
; 181  : 		wszBuf[0] = '\0';

  0012b	8d 8d ec f7 ff
	ff		 lea	 ecx, DWORD PTR _wszBuf$[ebp]
  00131	e8 00 00 00 00	 call	 ??B?$CHeapPtrBase@_WVCCRTAllocator@ATL@@@ATL@@QBEPA_WXZ ; ATL::CHeapPtrBase<wchar_t,ATL::CCRTAllocator>::operator wchar_t *
  00136	b9 02 00 00 00	 mov	 ecx, 2
  0013b	6b d1 00	 imul	 edx, ecx, 0
  0013e	33 c9		 xor	 ecx, ecx
  00140	66 89 0c 10	 mov	 WORD PTR [eax+edx], cx

; 182  : 
; 183  : 		if (swprintf_s(wszBuf, chCount, L"%ls%ls", wszCategory, pwszMessage) == -1)

  00144	8b 45 18	 mov	 eax, DWORD PTR _pwszMessage$[ebp]
  00147	50		 push	 eax
  00148	8d 8d fc f7 ff
	ff		 lea	 ecx, DWORD PTR _wszCategory$[ebp]
  0014e	51		 push	 ecx
  0014f	68 00 00 00 00	 push	 OFFSET ??_C@_1O@OAIPCDPO@?$AA?$CF?$AAl?$AAs?$AA?$CF?$AAl?$AAs@
  00154	8b 95 f0 f7 ff
	ff		 mov	 edx, DWORD PTR _chCount$[ebp]
  0015a	52		 push	 edx
  0015b	8d 8d ec f7 ff
	ff		 lea	 ecx, DWORD PTR _wszBuf$[ebp]
  00161	e8 00 00 00 00	 call	 ??B?$CHeapPtrBase@_WVCCRTAllocator@ATL@@@ATL@@QBEPA_WXZ ; ATL::CHeapPtrBase<wchar_t,ATL::CCRTAllocator>::operator wchar_t *
  00166	50		 push	 eax
  00167	e8 00 00 00 00	 call	 _swprintf_s
  0016c	83 c4 14	 add	 esp, 20			; 00000014H
  0016f	83 f8 ff	 cmp	 eax, -1
  00172	75 0d		 jne	 SHORT $LN9@TraceV

; 184  : 		{
; 185  : 			return;

  00174	8d 8d ec f7 ff
	ff		 lea	 ecx, DWORD PTR _wszBuf$[ebp]
  0017a	e8 00 00 00 00	 call	 ??1?$CHeapPtr@_WVCCRTAllocator@ATL@@@ATL@@QAE@XZ
  0017f	eb 79		 jmp	 SHORT $LN1@TraceV
$LN9@TraceV:

; 186  : 		}
; 187  : 
; 188  : 		wchar_t fileName[_MAX_PATH] = {'\0'};	

  00181	68 08 02 00 00	 push	 520			; 00000208H
  00186	6a 00		 push	 0
  00188	8d 85 e4 f5 ff
	ff		 lea	 eax, DWORD PTR _fileName$[ebp]
  0018e	50		 push	 eax
  0018f	e8 00 00 00 00	 call	 _memset
  00194	83 c4 0c	 add	 esp, 12			; 0000000cH

; 189  : #if _MSC_VER < 1900
; 190  : 		if (swprintf_s(fileName, _MAX_PATH, L"%S", pszFileName) == -1)
; 191  : #else
; 192  : 		if (swprintf_s(fileName, _MAX_PATH, L"%hs", pszFileName) == -1)

  00197	8b 45 08	 mov	 eax, DWORD PTR _pszFileName$[ebp]
  0019a	50		 push	 eax
  0019b	68 00 00 00 00	 push	 OFFSET ??_C@_17LGGGMOOB@?$AA?$CF?$AAh?$AAs@
  001a0	68 04 01 00 00	 push	 260			; 00000104H
  001a5	8d 8d e4 f5 ff
	ff		 lea	 ecx, DWORD PTR _fileName$[ebp]
  001ab	51		 push	 ecx
  001ac	e8 00 00 00 00	 call	 _swprintf_s
  001b1	83 c4 10	 add	 esp, 16			; 00000010H
  001b4	83 f8 ff	 cmp	 eax, -1
  001b7	75 0d		 jne	 SHORT $LN10@TraceV

; 193  : #endif
; 194  : 		{
; 195  : 			return;

  001b9	8d 8d ec f7 ff
	ff		 lea	 ecx, DWORD PTR _wszBuf$[ebp]
  001bf	e8 00 00 00 00	 call	 ??1?$CHeapPtr@_WVCCRTAllocator@ATL@@@ATL@@QAE@XZ
  001c4	eb 34		 jmp	 SHORT $LN1@TraceV
$LN10@TraceV:

; 196  : 		}
; 197  : 
; 198  : 		_CrtDbgReportW(_CRT_WARN, fileName, nLine, nullptr, L"%ls", static_cast<const wchar_t*>(wszBuf));

  001c6	8d 8d ec f7 ff
	ff		 lea	 ecx, DWORD PTR _wszBuf$[ebp]
  001cc	e8 00 00 00 00	 call	 ??B?$CHeapPtrBase@_WVCCRTAllocator@ATL@@@ATL@@QBEPA_WXZ ; ATL::CHeapPtrBase<wchar_t,ATL::CCRTAllocator>::operator wchar_t *
  001d1	50		 push	 eax
  001d2	68 00 00 00 00	 push	 OFFSET ??_C@_17CNPHIMPH@?$AA?$CF?$AAl?$AAs@
  001d7	6a 00		 push	 0
  001d9	8b 45 0c	 mov	 eax, DWORD PTR _nLine$[ebp]
  001dc	50		 push	 eax
  001dd	8d 8d e4 f5 ff
	ff		 lea	 ecx, DWORD PTR _fileName$[ebp]
  001e3	51		 push	 ecx
  001e4	6a 00		 push	 0
  001e6	ff 15 00 00 00
	00		 call	 DWORD PTR __imp___CrtDbgReportW
  001ec	83 c4 18	 add	 esp, 24			; 00000018H

; 199  : 	}

  001ef	8d 8d ec f7 ff
	ff		 lea	 ecx, DWORD PTR _wszBuf$[ebp]
  001f5	e8 00 00 00 00	 call	 ??1?$CHeapPtr@_WVCCRTAllocator@ATL@@@ATL@@QAE@XZ
$LN1@TraceV:
  001fa	5f		 pop	 edi
  001fb	5e		 pop	 esi
  001fc	5b		 pop	 ebx
  001fd	8b 4d fc	 mov	 ecx, DWORD PTR __$ArrayPad$[ebp]
  00200	33 cd		 xor	 ecx, ebp
  00202	e8 00 00 00 00	 call	 @__security_check_cookie@4
  00207	8b e5		 mov	 esp, ebp
  00209	5d		 pop	 ebp
  0020a	c3		 ret	 0
?TraceV@CTrace@ATL@@CAXPBDHIIPB_W@Z ENDP		; ATL::CTrace::TraceV
_TEXT	ENDS
; Function compile flags: /Odtp /ZI
; File c:\program files (x86)\microsoft visual studio\2017\community\vc\tools\msvc\14.16.27023\atlmfc\include\atltrace.h
;	COMDAT ?GetCategoryName@CTrace@ATL@@CAPA_WI@Z
_TEXT	SEGMENT
_i$1 = -4						; size = 4
_nCategory$ = 8						; size = 4
?GetCategoryName@CTrace@ATL@@CAPA_WI@Z PROC		; ATL::CTrace::GetCategoryName, COMDAT

; 132  : 	{

  00000	55		 push	 ebp
  00001	8b ec		 mov	 ebp, esp
  00003	83 ec 44	 sub	 esp, 68			; 00000044H
  00006	53		 push	 ebx
  00007	56		 push	 esi
  00008	57		 push	 edi

; 133  : 		for(unsigned int i = 0; i < m_nLastCategory; i++) 

  00009	c7 45 fc 00 00
	00 00		 mov	 DWORD PTR _i$1[ebp], 0
  00010	eb 09		 jmp	 SHORT $LN4@GetCategor
$LN2@GetCategor:
  00012	8b 45 fc	 mov	 eax, DWORD PTR _i$1[ebp]
  00015	83 c0 01	 add	 eax, 1
  00018	89 45 fc	 mov	 DWORD PTR _i$1[ebp], eax
$LN4@GetCategor:
  0001b	8b 45 fc	 mov	 eax, DWORD PTR _i$1[ebp]
  0001e	3b 05 00 00 00
	00		 cmp	 eax, DWORD PTR ?m_nLastCategory@CTrace@ATL@@1IA ; ATL::CTrace::m_nLastCategory
  00024	73 22		 jae	 SHORT $LN3@GetCategor

; 134  : 		{
; 135  : 			if (m_nMap[i].nCategory == nCategory)

  00026	69 45 fc 04 01
	00 00		 imul	 eax, DWORD PTR _i$1[ebp], 260
  0002d	8b 88 00 00 00
	00		 mov	 ecx, DWORD PTR ?m_nMap@CTrace@ATL@@1PAUCategoryMap@12@A[eax]
  00033	3b 4d 08	 cmp	 ecx, DWORD PTR _nCategory$[ebp]
  00036	75 0e		 jne	 SHORT $LN5@GetCategor

; 136  : 			{
; 137  : 				return m_nMap[i].categryName;

  00038	69 45 fc 04 01
	00 00		 imul	 eax, DWORD PTR _i$1[ebp], 260
  0003f	05 04 00 00 00	 add	 eax, OFFSET ?m_nMap@CTrace@ATL@@1PAUCategoryMap@12@A+4
  00044	eb 04		 jmp	 SHORT $LN1@GetCategor
$LN5@GetCategor:

; 138  : 			}
; 139  : 		}

  00046	eb ca		 jmp	 SHORT $LN2@GetCategor
$LN3@GetCategor:

; 140  : 
; 141  : 		return nullptr;

  00048	33 c0		 xor	 eax, eax
$LN1@GetCategor:

; 142  : 	}

  0004a	5f		 pop	 edi
  0004b	5e		 pop	 esi
  0004c	5b		 pop	 ebx
  0004d	8b e5		 mov	 esp, ebp
  0004f	5d		 pop	 ebp
  00050	c3		 ret	 0
?GetCategoryName@CTrace@ATL@@CAPA_WI@Z ENDP		; ATL::CTrace::GetCategoryName
_TEXT	ENDS
; Function compile flags: /Odtp /ZI
; File c:\program files (x86)\microsoft visual studio\2017\community\vc\tools\msvc\14.16.27023\atlmfc\include\atltrace.h
;	COMDAT ??__EatlTraceException@ATL@@YAXXZ
text$di	SEGMENT
??__EatlTraceException@ATL@@YAXXZ PROC			; ATL::`dynamic initializer for 'atlTraceException'', COMDAT

; 110  : __declspec(selectany) CTraceCategoryEx<CTraceCategoryEx<>::TraceException> atlTraceException(_T("atlTraceException"));

  00000	55		 push	 ebp
  00001	8b ec		 mov	 ebp, esp
  00003	83 ec 40	 sub	 esp, 64			; 00000040H
  00006	53		 push	 ebx
  00007	56		 push	 esi
  00008	57		 push	 edi
  00009	68 00 00 00 00	 push	 OFFSET ??_C@_0BC@PGMFNIFA@atlTraceException@
  0000e	b9 00 00 00 00	 mov	 ecx, OFFSET ?atlTraceException@ATL@@3V?$CTraceCategoryEx@$0CAAA@$0A@@1@A ; ATL::atlTraceException
  00013	e8 00 00 00 00	 call	 ??0?$CTraceCategoryEx@$0CAAA@$0A@@ATL@@QAE@PBD@Z ; ATL::CTraceCategoryEx<8192,0>::CTraceCategoryEx<8192,0>
  00018	5f		 pop	 edi
  00019	5e		 pop	 esi
  0001a	5b		 pop	 ebx
  0001b	8b e5		 mov	 esp, ebp
  0001d	5d		 pop	 ebp
  0001e	c3		 ret	 0
??__EatlTraceException@ATL@@YAXXZ ENDP			; ATL::`dynamic initializer for 'atlTraceException''
text$di	ENDS
; Function compile flags: /Odtp /ZI
; File c:\program files (x86)\microsoft visual studio\2017\community\vc\tools\msvc\14.16.27023\atlmfc\include\atltrace.h
;	COMDAT ??B?$CTraceCategoryEx@$0CAAA@$0A@@ATL@@QAEIXZ
_TEXT	SEGMENT
_this$ = -4						; size = 4
??B?$CTraceCategoryEx@$0CAAA@$0A@@ATL@@QAEIXZ PROC	; ATL::CTraceCategoryEx<8192,0>::operator unsigned int, COMDAT
; _this$ = ecx

; 79   : 	{

  00000	55		 push	 ebp
  00001	8b ec		 mov	 ebp, esp
  00003	83 ec 44	 sub	 esp, 68			; 00000044H
  00006	53		 push	 ebx
  00007	56		 push	 esi
  00008	57		 push	 edi
  00009	89 4d fc	 mov	 DWORD PTR _this$[ebp], ecx

; 80   : #ifdef _DEBUG
; 81   : 		return traceCategory;

  0000c	b8 00 20 00 00	 mov	 eax, 8192		; 00002000H

; 82   : #else
; 83   : 		return 0;
; 84   : #endif
; 85   : 	}

  00011	5f		 pop	 edi
  00012	5e		 pop	 esi
  00013	5b		 pop	 ebx
  00014	8b e5		 mov	 esp, ebp
  00016	5d		 pop	 ebp
  00017	c3		 ret	 0
??B?$CTraceCategoryEx@$0CAAA@$0A@@ATL@@QAEIXZ ENDP	; ATL::CTraceCategoryEx<8192,0>::operator unsigned int
_TEXT	ENDS
; Function compile flags: /Odtp /ZI
; File c:\program files (x86)\microsoft visual studio\2017\community\vc\tools\msvc\14.16.27023\atlmfc\include\atltrace.h
;	COMDAT ??0?$CTraceCategoryEx@$0CAAA@$0A@@ATL@@QAE@PBD@Z
_TEXT	SEGMENT
_this$ = -4						; size = 4
_pszCategoryName$ = 8					; size = 4
??0?$CTraceCategoryEx@$0CAAA@$0A@@ATL@@QAE@PBD@Z PROC	; ATL::CTraceCategoryEx<8192,0>::CTraceCategoryEx<8192,0>, COMDAT
; _this$ = ecx

; 480  : {

  00000	55		 push	 ebp
  00001	8b ec		 mov	 ebp, esp
  00003	83 ec 44	 sub	 esp, 68			; 00000044H
  00006	53		 push	 ebx
  00007	56		 push	 esi
  00008	57		 push	 edi
  00009	89 4d fc	 mov	 DWORD PTR _this$[ebp], ecx

; 481  : 	CTrace::RegisterCategory(pszCategoryName, traceCategory);

  0000c	68 00 20 00 00	 push	 8192			; 00002000H
  00011	8b 45 08	 mov	 eax, DWORD PTR _pszCategoryName$[ebp]
  00014	50		 push	 eax
  00015	e8 00 00 00 00	 call	 ?RegisterCategory@CTrace@ATL@@SAXPBDI@Z ; ATL::CTrace::RegisterCategory
  0001a	83 c4 08	 add	 esp, 8

; 482  : }

  0001d	8b 45 fc	 mov	 eax, DWORD PTR _this$[ebp]
  00020	5f		 pop	 edi
  00021	5e		 pop	 esi
  00022	5b		 pop	 ebx
  00023	8b e5		 mov	 esp, ebp
  00025	5d		 pop	 ebp
  00026	c2 04 00	 ret	 4
??0?$CTraceCategoryEx@$0CAAA@$0A@@ATL@@QAE@PBD@Z ENDP	; ATL::CTraceCategoryEx<8192,0>::CTraceCategoryEx<8192,0>
_TEXT	ENDS
; Function compile flags: /Odtp /ZI
; File c:\program files (x86)\microsoft visual studio\2017\community\vc\tools\msvc\14.16.27023\atlmfc\include\atlalloc.h
;	COMDAT ?Free@CCRTAllocator@ATL@@SAXPAX@Z
_TEXT	SEGMENT
_p$ = 8							; size = 4
?Free@CCRTAllocator@ATL@@SAXPAX@Z PROC			; ATL::CCRTAllocator::Free, COMDAT

; 266  : 	{

  00000	55		 push	 ebp
  00001	8b ec		 mov	 ebp, esp
  00003	83 ec 40	 sub	 esp, 64			; 00000040H
  00006	53		 push	 ebx
  00007	56		 push	 esi
  00008	57		 push	 edi

; 267  : 		free(p);

  00009	8b 45 08	 mov	 eax, DWORD PTR _p$[ebp]
  0000c	50		 push	 eax
  0000d	ff 15 00 00 00
	00		 call	 DWORD PTR __imp__free
  00013	83 c4 04	 add	 esp, 4

; 268  : 	}

  00016	5f		 pop	 edi
  00017	5e		 pop	 esi
  00018	5b		 pop	 ebx
  00019	8b e5		 mov	 esp, ebp
  0001b	5d		 pop	 ebp
  0001c	c3		 ret	 0
?Free@CCRTAllocator@ATL@@SAXPAX@Z ENDP			; ATL::CCRTAllocator::Free
_TEXT	ENDS
; Function compile flags: /Odtp /ZI
; File c:\program files (x86)\microsoft visual studio\2017\community\vc\tools\msvc\14.16.27023\atlmfc\include\atlalloc.h
;	COMDAT ?Allocate@CCRTAllocator@ATL@@SAPAXI@Z
_TEXT	SEGMENT
_nBytes$ = 8						; size = 4
?Allocate@CCRTAllocator@ATL@@SAPAXI@Z PROC		; ATL::CCRTAllocator::Allocate, COMDAT

; 261  : 	{

  00000	55		 push	 ebp
  00001	8b ec		 mov	 ebp, esp
  00003	83 ec 40	 sub	 esp, 64			; 00000040H
  00006	53		 push	 ebx
  00007	56		 push	 esi
  00008	57		 push	 edi

; 262  : 		return malloc(nBytes);

  00009	8b 45 08	 mov	 eax, DWORD PTR _nBytes$[ebp]
  0000c	50		 push	 eax
  0000d	ff 15 00 00 00
	00		 call	 DWORD PTR __imp__malloc
  00013	83 c4 04	 add	 esp, 4

; 263  : 	}

  00016	5f		 pop	 edi
  00017	5e		 pop	 esi
  00018	5b		 pop	 ebx
  00019	8b e5		 mov	 esp, ebp
  0001b	5d		 pop	 ebp
  0001c	c3		 ret	 0
?Allocate@CCRTAllocator@ATL@@SAPAXI@Z ENDP		; ATL::CCRTAllocator::Allocate
_TEXT	ENDS
; Function compile flags: /Odtp /ZI
; File c:\program files (x86)\microsoft visual studio\2017\community\vc\tools\msvc\14.16.27023\atlmfc\include\atlalloc.h
;	COMDAT ??$AtlMultiply@I@ATL@@YAJPAIII@Z
_TEXT	SEGMENT
_i64Result$ = -8					; size = 8
_piResult$ = 8						; size = 4
_iLeft$ = 12						; size = 4
_iRight$ = 16						; size = 4
??$AtlMultiply@I@ATL@@YAJPAIII@Z PROC			; ATL::AtlMultiply<unsigned int>, COMDAT

; 135  : {

  00000	55		 push	 ebp
  00001	8b ec		 mov	 ebp, esp
  00003	83 ec 48	 sub	 esp, 72			; 00000048H
  00006	53		 push	 ebx
  00007	56		 push	 esi
  00008	57		 push	 edi

; 136  : 	unsigned __int64 i64Result=static_cast<unsigned __int64>(iLeft) * static_cast<unsigned __int64>(iRight);

  00009	8b 45 0c	 mov	 eax, DWORD PTR _iLeft$[ebp]
  0000c	f7 65 10	 mul	 DWORD PTR _iRight$[ebp]
  0000f	89 45 f8	 mov	 DWORD PTR _i64Result$[ebp], eax
  00012	89 55 fc	 mov	 DWORD PTR _i64Result$[ebp+4], edx

; 137  : 	if(i64Result>UINT_MAX)

  00015	83 7d fc 00	 cmp	 DWORD PTR _i64Result$[ebp+4], 0
  00019	77 06		 ja	 SHORT $LN4@AtlMultipl
  0001b	83 7d f8 ff	 cmp	 DWORD PTR _i64Result$[ebp], -1
  0001f	76 0f		 jbe	 SHORT $LN2@AtlMultipl
$LN4@AtlMultipl:

; 138  : 	{
; 139  : 		return HRESULT_FROM_WIN32(ERROR_ARITHMETIC_OVERFLOW);

  00021	68 16 02 00 00	 push	 534			; 00000216H
  00026	e8 00 00 00 00	 call	 _HRESULT_FROM_WIN32
  0002b	83 c4 04	 add	 esp, 4
  0002e	eb 0a		 jmp	 SHORT $LN1@AtlMultipl
$LN2@AtlMultipl:

; 140  : 	}
; 141  : 	*piResult=static_cast<unsigned int>(i64Result);

  00030	8b 45 f8	 mov	 eax, DWORD PTR _i64Result$[ebp]
  00033	8b 4d 08	 mov	 ecx, DWORD PTR _piResult$[ebp]
  00036	89 01		 mov	 DWORD PTR [ecx], eax

; 142  : 	return S_OK;

  00038	33 c0		 xor	 eax, eax
$LN1@AtlMultipl:

; 143  : }

  0003a	5f		 pop	 edi
  0003b	5e		 pop	 esi
  0003c	5b		 pop	 ebx
  0003d	8b e5		 mov	 esp, ebp
  0003f	5d		 pop	 ebp
  00040	c3		 ret	 0
??$AtlMultiply@I@ATL@@YAJPAIII@Z ENDP			; ATL::AtlMultiply<unsigned int>
_TEXT	ENDS
; Function compile flags: /Odtp /ZI
; File c:\program files (x86)\microsoft visual studio\2017\community\vc\tools\msvc\14.16.27023\atlmfc\include\atlexcept.h
;	COMDAT ?AtlThrowImpl@ATL@@YGXJ@Z
_TEXT	SEGMENT
$T1 = -72						; size = 8
_hr$ = 8						; size = 4
?AtlThrowImpl@ATL@@YGXJ@Z PROC				; ATL::AtlThrowImpl, COMDAT

; 65   : {

  00000	55		 push	 ebp
  00001	8b ec		 mov	 ebp, esp
  00003	83 ec 48	 sub	 esp, 72			; 00000048H
  00006	53		 push	 ebx
  00007	56		 push	 esi
  00008	57		 push	 edi

; 66   : 	ATLTRACE(atlTraceException, 0, _T("AtlThrow: hr = 0x%x\n"), hr );

  00009	8b 45 08	 mov	 eax, DWORD PTR _hr$[ebp]
  0000c	50		 push	 eax
  0000d	68 00 00 00 00	 push	 OFFSET ??_C@_0BF@IAAKIJDJ@AtlThrow?3?5hr?5?$DN?50x?$CFx?6@
  00012	6a 00		 push	 0
  00014	b9 00 00 00 00	 mov	 ecx, OFFSET ?atlTraceException@ATL@@3V?$CTraceCategoryEx@$0CAAA@$0A@@1@A ; ATL::atlTraceException
  00019	e8 00 00 00 00	 call	 ??B?$CTraceCategoryEx@$0CAAA@$0A@@ATL@@QAEIXZ ; ATL::CTraceCategoryEx<8192,0>::operator unsigned int
  0001e	50		 push	 eax
  0001f	8b 0d 00 00 00
	00		 mov	 ecx, DWORD PTR ?__LINE__Var@?0??AtlThrowImpl@ATL@@YGXJ@Z@4JA
  00025	83 c1 01	 add	 ecx, 1
  00028	51		 push	 ecx
  00029	68 00 00 00 00	 push	 OFFSET ??_C@_0HD@OEBHCJKM@c?3?2program?5files?5?$CIx86?$CJ?2microsof@
  0002e	8d 4d b8	 lea	 ecx, DWORD PTR $T1[ebp]
  00031	e8 00 00 00 00	 call	 ??0CTraceFileAndLineInfo@ATL@@QAE@PBDH@Z ; ATL::CTraceFileAndLineInfo::CTraceFileAndLineInfo
  00036	50		 push	 eax
  00037	e8 00 00 00 00	 call	 ??RCTraceFileAndLineInfo@ATL@@QBAXHIPBDZZ ; ATL::CTraceFileAndLineInfo::operator()
  0003c	83 c4 14	 add	 esp, 20			; 00000014H

; 67   : #ifdef _AFX
; 68   : 	if( hr == E_OUTOFMEMORY )

  0003f	81 7d 08 0e 00
	07 80		 cmp	 DWORD PTR _hr$[ebp], -2147024882 ; 8007000eH
  00046	75 07		 jne	 SHORT $LN2@AtlThrowIm

; 69   : 	{
; 70   : 		AfxThrowMemoryException();

  00048	e8 00 00 00 00	 call	 ?AfxThrowMemoryException@@YGXXZ ; AfxThrowMemoryException

; 71   : 	}
; 72   : 	else

  0004d	eb 09		 jmp	 SHORT $LN4@AtlThrowIm
$LN2@AtlThrowIm:

; 73   : 	{
; 74   : 		AfxThrowOleException( hr );

  0004f	8b 45 08	 mov	 eax, DWORD PTR _hr$[ebp]
  00052	50		 push	 eax
  00053	e8 00 00 00 00	 call	 ?AfxThrowOleException@@YGXJ@Z ; AfxThrowOleException
$LN4@AtlThrowIm:

; 75   : 	}
; 76   : #else
; 77   : 	throw CAtlException( hr );
; 78   : #endif
; 79   : };

  00058	5f		 pop	 edi
  00059	5e		 pop	 esi
  0005a	5b		 pop	 ebx
  0005b	8b e5		 mov	 esp, ebp
  0005d	5d		 pop	 ebp
  0005e	c2 04 00	 ret	 4
?AtlThrowImpl@ATL@@YGXJ@Z ENDP				; ATL::AtlThrowImpl
_TEXT	ENDS
; Function compile flags: /Odtp /ZI
; File c:\program files (x86)\microsoft visual studio\2017\community\vc\tools\msvc\14.16.27023\atlmfc\include\afx.h
;	COMDAT ?AfxAssertFailedLine@@YGHPBDH@Z
_TEXT	SEGMENT
_bResult$ = -36						; size = 4
_bQuit$ = -32						; size = 4
_msg$ = -28						; size = 28
_lpszFileName$ = 8					; size = 4
_nLine$ = 12						; size = 4
?AfxAssertFailedLine@@YGHPBDH@Z PROC			; AfxAssertFailedLine, COMDAT

; 312  : {

  00000	55		 push	 ebp
  00001	8b ec		 mov	 ebp, esp
  00003	83 ec 64	 sub	 esp, 100		; 00000064H
  00006	53		 push	 ebx
  00007	56		 push	 esi
  00008	57		 push	 edi

; 313  : 	// we remove WM_QUIT because if it is in the queue then the message box
; 314  : 	// won't display
; 315  : 	MSG msg;
; 316  : 	BOOL bQuit = PeekMessage(&msg, NULL, WM_QUIT, WM_QUIT, PM_REMOVE);

  00009	6a 01		 push	 1
  0000b	6a 12		 push	 18			; 00000012H
  0000d	6a 12		 push	 18			; 00000012H
  0000f	6a 00		 push	 0
  00011	8d 45 e4	 lea	 eax, DWORD PTR _msg$[ebp]
  00014	50		 push	 eax
  00015	ff 15 00 00 00
	00		 call	 DWORD PTR __imp__PeekMessageA@20
  0001b	89 45 e0	 mov	 DWORD PTR _bQuit$[ebp], eax

; 317  : 	BOOL bResult = _CrtDbgReport(_CRT_ASSERT, lpszFileName, nLine, NULL, NULL);

  0001e	6a 00		 push	 0
  00020	6a 00		 push	 0
  00022	8b 45 0c	 mov	 eax, DWORD PTR _nLine$[ebp]
  00025	50		 push	 eax
  00026	8b 4d 08	 mov	 ecx, DWORD PTR _lpszFileName$[ebp]
  00029	51		 push	 ecx
  0002a	6a 02		 push	 2
  0002c	ff 15 00 00 00
	00		 call	 DWORD PTR __imp___CrtDbgReport
  00032	83 c4 14	 add	 esp, 20			; 00000014H
  00035	89 45 dc	 mov	 DWORD PTR _bResult$[ebp], eax

; 318  : 	if (bQuit)

  00038	83 7d e0 00	 cmp	 DWORD PTR _bQuit$[ebp], 0
  0003c	74 0a		 je	 SHORT $LN2@AfxAssertF

; 319  : 		PostQuitMessage((int)msg.wParam);

  0003e	8b 45 ec	 mov	 eax, DWORD PTR _msg$[ebp+8]
  00041	50		 push	 eax
  00042	ff 15 00 00 00
	00		 call	 DWORD PTR __imp__PostQuitMessage@4
$LN2@AfxAssertF:

; 320  : 	return bResult;

  00048	8b 45 dc	 mov	 eax, DWORD PTR _bResult$[ebp]

; 321  : }

  0004b	5f		 pop	 edi
  0004c	5e		 pop	 esi
  0004d	5b		 pop	 ebx
  0004e	8b e5		 mov	 esp, ebp
  00050	5d		 pop	 ebp
  00051	c2 08 00	 ret	 8
?AfxAssertFailedLine@@YGHPBDH@Z ENDP			; AfxAssertFailedLine
_TEXT	ENDS
; Function compile flags: /Odtp /ZI
; File c:\program files (x86)\windows kits\10\include\10.0.17763.0\ucrt\time.h
;	COMDAT _time
_TEXT	SEGMENT
__Time$ = 8						; size = 4
_time	PROC						; COMDAT

; 535  :         {

  00000	55		 push	 ebp
  00001	8b ec		 mov	 ebp, esp
  00003	83 ec 40	 sub	 esp, 64			; 00000040H
  00006	53		 push	 ebx
  00007	56		 push	 esi
  00008	57		 push	 edi

; 536  :             return _time64(_Time);

  00009	8b 45 08	 mov	 eax, DWORD PTR __Time$[ebp]
  0000c	50		 push	 eax
  0000d	ff 15 00 00 00
	00		 call	 DWORD PTR __imp___time64
  00013	83 c4 04	 add	 esp, 4

; 537  :         }

  00016	5f		 pop	 edi
  00017	5e		 pop	 esi
  00018	5b		 pop	 ebx
  00019	8b e5		 mov	 esp, ebp
  0001b	5d		 pop	 ebp
  0001c	c3		 ret	 0
_time	ENDP
_TEXT	ENDS
; Function compile flags: /Odtp /ZI
; File c:\program files (x86)\windows kits\10\include\10.0.17763.0\ucrt\stdio.h
;	COMDAT __vscprintf
_TEXT	SEGMENT
__Format$ = 8						; size = 4
__ArgList$ = 12						; size = 4
__vscprintf PROC					; COMDAT

; 1675 :     {

  00000	55		 push	 ebp
  00001	8b ec		 mov	 ebp, esp
  00003	83 ec 40	 sub	 esp, 64			; 00000040H
  00006	53		 push	 ebx
  00007	56		 push	 esi
  00008	57		 push	 edi

; 1676 :         return _vscprintf_l(_Format, NULL, _ArgList);

  00009	8b 45 0c	 mov	 eax, DWORD PTR __ArgList$[ebp]
  0000c	50		 push	 eax
  0000d	6a 00		 push	 0
  0000f	8b 4d 08	 mov	 ecx, DWORD PTR __Format$[ebp]
  00012	51		 push	 ecx
  00013	e8 00 00 00 00	 call	 __vscprintf_l
  00018	83 c4 0c	 add	 esp, 12			; 0000000cH

; 1677 :     }

  0001b	5f		 pop	 edi
  0001c	5e		 pop	 esi
  0001d	5b		 pop	 ebx
  0001e	8b e5		 mov	 esp, ebp
  00020	5d		 pop	 ebp
  00021	c3		 ret	 0
__vscprintf ENDP
_TEXT	ENDS
; Function compile flags: /Odtp /ZI
; File c:\program files (x86)\windows kits\10\include\10.0.17763.0\ucrt\stdio.h
;	COMDAT __vscprintf_l
_TEXT	SEGMENT
tv74 = -72						; size = 4
__Result$ = -4						; size = 4
__Format$ = 8						; size = 4
__Locale$ = 12						; size = 4
__ArgList$ = 16						; size = 4
__vscprintf_l PROC					; COMDAT

; 1658 :     {

  00000	55		 push	 ebp
  00001	8b ec		 mov	 ebp, esp
  00003	83 ec 48	 sub	 esp, 72			; 00000048H
  00006	53		 push	 ebx
  00007	56		 push	 esi
  00008	57		 push	 edi

; 1659 :         int const _Result = __stdio_common_vsprintf(

  00009	8b 45 10	 mov	 eax, DWORD PTR __ArgList$[ebp]
  0000c	50		 push	 eax
  0000d	8b 4d 0c	 mov	 ecx, DWORD PTR __Locale$[ebp]
  00010	51		 push	 ecx
  00011	8b 55 08	 mov	 edx, DWORD PTR __Format$[ebp]
  00014	52		 push	 edx
  00015	6a 00		 push	 0
  00017	6a 00		 push	 0
  00019	e8 00 00 00 00	 call	 ___local_stdio_printf_options
  0001e	8b 08		 mov	 ecx, DWORD PTR [eax]
  00020	83 c9 02	 or	 ecx, 2
  00023	8b 50 04	 mov	 edx, DWORD PTR [eax+4]
  00026	52		 push	 edx
  00027	51		 push	 ecx
  00028	ff 15 00 00 00
	00		 call	 DWORD PTR __imp____stdio_common_vsprintf
  0002e	83 c4 1c	 add	 esp, 28			; 0000001cH
  00031	89 45 fc	 mov	 DWORD PTR __Result$[ebp], eax

; 1660 :             _CRT_INTERNAL_LOCAL_PRINTF_OPTIONS | _CRT_INTERNAL_PRINTF_STANDARD_SNPRINTF_BEHAVIOR,
; 1661 :             NULL, 0, _Format, _Locale, _ArgList);
; 1662 : 
; 1663 :         return _Result < 0 ? -1 : _Result;

  00034	83 7d fc 00	 cmp	 DWORD PTR __Result$[ebp], 0
  00038	7d 09		 jge	 SHORT $LN3@vscprintf_
  0003a	c7 45 b8 ff ff
	ff ff		 mov	 DWORD PTR tv74[ebp], -1
  00041	eb 06		 jmp	 SHORT $LN4@vscprintf_
$LN3@vscprintf_:
  00043	8b 45 fc	 mov	 eax, DWORD PTR __Result$[ebp]
  00046	89 45 b8	 mov	 DWORD PTR tv74[ebp], eax
$LN4@vscprintf_:
  00049	8b 45 b8	 mov	 eax, DWORD PTR tv74[ebp]

; 1664 :     }

  0004c	5f		 pop	 edi
  0004d	5e		 pop	 esi
  0004e	5b		 pop	 ebx
  0004f	8b e5		 mov	 esp, ebp
  00051	5d		 pop	 ebp
  00052	c3		 ret	 0
__vscprintf_l ENDP
_TEXT	ENDS
; Function compile flags: /Odtp /ZI
; File c:\program files (x86)\windows kits\10\include\10.0.17763.0\ucrt\stdio.h
;	COMDAT __vsnprintf_s
_TEXT	SEGMENT
__Buffer$ = 8						; size = 4
__BufferCount$ = 12					; size = 4
__MaxCount$ = 16					; size = 4
__Format$ = 20						; size = 4
__ArgList$ = 24						; size = 4
__vsnprintf_s PROC					; COMDAT

; 1605 :     {

  00000	55		 push	 ebp
  00001	8b ec		 mov	 ebp, esp
  00003	83 ec 40	 sub	 esp, 64			; 00000040H
  00006	53		 push	 ebx
  00007	56		 push	 esi
  00008	57		 push	 edi

; 1606 :         return _vsnprintf_s_l(_Buffer, _BufferCount, _MaxCount, _Format, NULL, _ArgList);

  00009	8b 45 18	 mov	 eax, DWORD PTR __ArgList$[ebp]
  0000c	50		 push	 eax
  0000d	6a 00		 push	 0
  0000f	8b 4d 14	 mov	 ecx, DWORD PTR __Format$[ebp]
  00012	51		 push	 ecx
  00013	8b 55 10	 mov	 edx, DWORD PTR __MaxCount$[ebp]
  00016	52		 push	 edx
  00017	8b 45 0c	 mov	 eax, DWORD PTR __BufferCount$[ebp]
  0001a	50		 push	 eax
  0001b	8b 4d 08	 mov	 ecx, DWORD PTR __Buffer$[ebp]
  0001e	51		 push	 ecx
  0001f	e8 00 00 00 00	 call	 __vsnprintf_s_l
  00024	83 c4 18	 add	 esp, 24			; 00000018H

; 1607 :     }

  00027	5f		 pop	 edi
  00028	5e		 pop	 esi
  00029	5b		 pop	 ebx
  0002a	8b e5		 mov	 esp, ebp
  0002c	5d		 pop	 ebp
  0002d	c3		 ret	 0
__vsnprintf_s ENDP
_TEXT	ENDS
; Function compile flags: /Odtp /ZI
; File c:\program files (x86)\windows kits\10\include\10.0.17763.0\ucrt\stdio.h
;	COMDAT __vsnprintf_s_l
_TEXT	SEGMENT
tv74 = -72						; size = 4
__Result$ = -4						; size = 4
__Buffer$ = 8						; size = 4
__BufferCount$ = 12					; size = 4
__MaxCount$ = 16					; size = 4
__Format$ = 20						; size = 4
__Locale$ = 24						; size = 4
__ArgList$ = 28						; size = 4
__vsnprintf_s_l PROC					; COMDAT

; 1584 :     {

  00000	55		 push	 ebp
  00001	8b ec		 mov	 ebp, esp
  00003	83 ec 48	 sub	 esp, 72			; 00000048H
  00006	53		 push	 ebx
  00007	56		 push	 esi
  00008	57		 push	 edi

; 1585 :         int const _Result = __stdio_common_vsnprintf_s(

  00009	8b 45 1c	 mov	 eax, DWORD PTR __ArgList$[ebp]
  0000c	50		 push	 eax
  0000d	8b 4d 18	 mov	 ecx, DWORD PTR __Locale$[ebp]
  00010	51		 push	 ecx
  00011	8b 55 14	 mov	 edx, DWORD PTR __Format$[ebp]
  00014	52		 push	 edx
  00015	8b 45 10	 mov	 eax, DWORD PTR __MaxCount$[ebp]
  00018	50		 push	 eax
  00019	8b 4d 0c	 mov	 ecx, DWORD PTR __BufferCount$[ebp]
  0001c	51		 push	 ecx
  0001d	8b 55 08	 mov	 edx, DWORD PTR __Buffer$[ebp]
  00020	52		 push	 edx
  00021	e8 00 00 00 00	 call	 ___local_stdio_printf_options
  00026	8b 48 04	 mov	 ecx, DWORD PTR [eax+4]
  00029	51		 push	 ecx
  0002a	8b 10		 mov	 edx, DWORD PTR [eax]
  0002c	52		 push	 edx
  0002d	ff 15 00 00 00
	00		 call	 DWORD PTR __imp____stdio_common_vsnprintf_s
  00033	83 c4 20	 add	 esp, 32			; 00000020H
  00036	89 45 fc	 mov	 DWORD PTR __Result$[ebp], eax

; 1586 :             _CRT_INTERNAL_LOCAL_PRINTF_OPTIONS,
; 1587 :             _Buffer, _BufferCount, _MaxCount, _Format, _Locale, _ArgList);
; 1588 : 
; 1589 :         return _Result < 0 ? -1 : _Result;

  00039	83 7d fc 00	 cmp	 DWORD PTR __Result$[ebp], 0
  0003d	7d 09		 jge	 SHORT $LN3@vsnprintf_
  0003f	c7 45 b8 ff ff
	ff ff		 mov	 DWORD PTR tv74[ebp], -1
  00046	eb 06		 jmp	 SHORT $LN4@vsnprintf_
$LN3@vsnprintf_:
  00048	8b 45 fc	 mov	 eax, DWORD PTR __Result$[ebp]
  0004b	89 45 b8	 mov	 DWORD PTR tv74[ebp], eax
$LN4@vsnprintf_:
  0004e	8b 45 b8	 mov	 eax, DWORD PTR tv74[ebp]

; 1590 :     }

  00051	5f		 pop	 edi
  00052	5e		 pop	 esi
  00053	5b		 pop	 ebx
  00054	8b e5		 mov	 esp, ebp
  00056	5d		 pop	 ebp
  00057	c3		 ret	 0
__vsnprintf_s_l ENDP
_TEXT	ENDS
; Function compile flags: /Odtp /ZI
; File c:\program files (x86)\windows kits\10\include\10.0.17763.0\ucrt\corecrt_wstdio.h
;	COMDAT _swprintf_s
_TEXT	SEGMENT
__ArgList$ = -8						; size = 4
__Result$ = -4						; size = 4
__Buffer$ = 8						; size = 4
__BufferCount$ = 12					; size = 4
__Format$ = 16						; size = 4
_swprintf_s PROC					; COMDAT

; 1538 :         {

  00000	55		 push	 ebp
  00001	8b ec		 mov	 ebp, esp
  00003	83 ec 4c	 sub	 esp, 76			; 0000004cH
  00006	53		 push	 ebx
  00007	56		 push	 esi
  00008	57		 push	 edi

; 1539 :             int _Result;
; 1540 :             va_list _ArgList;
; 1541 :             __crt_va_start(_ArgList, _Format);

  00009	8d 45 14	 lea	 eax, DWORD PTR __Format$[ebp+4]
  0000c	89 45 f8	 mov	 DWORD PTR __ArgList$[ebp], eax

; 1542 :             _Result = _vswprintf_s_l(_Buffer, _BufferCount, _Format, NULL, _ArgList);

  0000f	8b 45 f8	 mov	 eax, DWORD PTR __ArgList$[ebp]
  00012	50		 push	 eax
  00013	6a 00		 push	 0
  00015	8b 4d 10	 mov	 ecx, DWORD PTR __Format$[ebp]
  00018	51		 push	 ecx
  00019	8b 55 0c	 mov	 edx, DWORD PTR __BufferCount$[ebp]
  0001c	52		 push	 edx
  0001d	8b 45 08	 mov	 eax, DWORD PTR __Buffer$[ebp]
  00020	50		 push	 eax
  00021	e8 00 00 00 00	 call	 __vswprintf_s_l
  00026	83 c4 14	 add	 esp, 20			; 00000014H
  00029	89 45 fc	 mov	 DWORD PTR __Result$[ebp], eax

; 1543 :             __crt_va_end(_ArgList);

  0002c	c7 45 f8 00 00
	00 00		 mov	 DWORD PTR __ArgList$[ebp], 0

; 1544 :             return _Result;

  00033	8b 45 fc	 mov	 eax, DWORD PTR __Result$[ebp]

; 1545 :         }

  00036	5f		 pop	 edi
  00037	5e		 pop	 esi
  00038	5b		 pop	 ebx
  00039	8b e5		 mov	 esp, ebp
  0003b	5d		 pop	 ebp
  0003c	c3		 ret	 0
_swprintf_s ENDP
_TEXT	ENDS
; Function compile flags: /Odtp /ZI
; File c:\program files (x86)\windows kits\10\include\10.0.17763.0\ucrt\corecrt_wstdio.h
;	COMDAT __vswprintf_s_l
_TEXT	SEGMENT
tv73 = -72						; size = 4
__Result$ = -4						; size = 4
__Buffer$ = 8						; size = 4
__BufferCount$ = 12					; size = 4
__Format$ = 16						; size = 4
__Locale$ = 20						; size = 4
__ArgList$ = 24						; size = 4
__vswprintf_s_l PROC					; COMDAT

; 1264 :     {

  00000	55		 push	 ebp
  00001	8b ec		 mov	 ebp, esp
  00003	83 ec 48	 sub	 esp, 72			; 00000048H
  00006	53		 push	 ebx
  00007	56		 push	 esi
  00008	57		 push	 edi

; 1265 :         int const _Result = __stdio_common_vswprintf_s(

  00009	8b 45 18	 mov	 eax, DWORD PTR __ArgList$[ebp]
  0000c	50		 push	 eax
  0000d	8b 4d 14	 mov	 ecx, DWORD PTR __Locale$[ebp]
  00010	51		 push	 ecx
  00011	8b 55 10	 mov	 edx, DWORD PTR __Format$[ebp]
  00014	52		 push	 edx
  00015	8b 45 0c	 mov	 eax, DWORD PTR __BufferCount$[ebp]
  00018	50		 push	 eax
  00019	8b 4d 08	 mov	 ecx, DWORD PTR __Buffer$[ebp]
  0001c	51		 push	 ecx
  0001d	e8 00 00 00 00	 call	 ___local_stdio_printf_options
  00022	8b 50 04	 mov	 edx, DWORD PTR [eax+4]
  00025	52		 push	 edx
  00026	8b 00		 mov	 eax, DWORD PTR [eax]
  00028	50		 push	 eax
  00029	ff 15 00 00 00
	00		 call	 DWORD PTR __imp____stdio_common_vswprintf_s
  0002f	83 c4 1c	 add	 esp, 28			; 0000001cH
  00032	89 45 fc	 mov	 DWORD PTR __Result$[ebp], eax

; 1266 :             _CRT_INTERNAL_LOCAL_PRINTF_OPTIONS,
; 1267 :             _Buffer, _BufferCount, _Format, _Locale, _ArgList);
; 1268 : 
; 1269 :         return _Result < 0 ? -1 : _Result;

  00035	83 7d fc 00	 cmp	 DWORD PTR __Result$[ebp], 0
  00039	7d 09		 jge	 SHORT $LN3@vswprintf_
  0003b	c7 45 b8 ff ff
	ff ff		 mov	 DWORD PTR tv73[ebp], -1
  00042	eb 06		 jmp	 SHORT $LN4@vswprintf_
$LN3@vswprintf_:
  00044	8b 45 fc	 mov	 eax, DWORD PTR __Result$[ebp]
  00047	89 45 b8	 mov	 DWORD PTR tv73[ebp], eax
$LN4@vswprintf_:
  0004a	8b 45 b8	 mov	 eax, DWORD PTR tv73[ebp]

; 1270 :     }

  0004d	5f		 pop	 edi
  0004e	5e		 pop	 esi
  0004f	5b		 pop	 ebx
  00050	8b e5		 mov	 esp, ebp
  00052	5d		 pop	 ebp
  00053	c3		 ret	 0
__vswprintf_s_l ENDP
_TEXT	ENDS
; Function compile flags: /Odtp /ZI
; File c:\program files (x86)\windows kits\10\include\10.0.17763.0\ucrt\corecrt_stdio_config.h
;	COMDAT ___local_stdio_printf_options
_TEXT	SEGMENT
___local_stdio_printf_options PROC			; COMDAT

; 86   :     {

  00000	55		 push	 ebp
  00001	8b ec		 mov	 ebp, esp
  00003	83 ec 40	 sub	 esp, 64			; 00000040H
  00006	53		 push	 ebx
  00007	56		 push	 esi
  00008	57		 push	 edi

; 87   :         static unsigned __int64 _OptionsStorage;
; 88   :         return &_OptionsStorage;

  00009	b8 00 00 00 00	 mov	 eax, OFFSET ?_OptionsStorage@?1??__local_stdio_printf_options@@9@4_KA ; `__local_stdio_printf_options'::`2'::_OptionsStorage

; 89   :     }

  0000e	5f		 pop	 edi
  0000f	5e		 pop	 esi
  00010	5b		 pop	 ebx
  00011	8b e5		 mov	 esp, ebp
  00013	5d		 pop	 ebp
  00014	c3		 ret	 0
___local_stdio_printf_options ENDP
_TEXT	ENDS
; Function compile flags: /Odtp /ZI
; File c:\program files (x86)\windows kits\10\include\10.0.17763.0\shared\winerror.h
;	COMDAT _HRESULT_FROM_WIN32
_TEXT	SEGMENT
tv68 = -68						; size = 4
_x$ = 8							; size = 4
_HRESULT_FROM_WIN32 PROC				; COMDAT

; 28640: FORCEINLINE _Translates_Win32_to_HRESULT_(x) HRESULT HRESULT_FROM_WIN32(unsigned long x) { return (HRESULT)(x) <= 0 ? (HRESULT)(x) : (HRESULT) (((x) & 0x0000FFFF) | (FACILITY_WIN32 << 16) | 0x80000000);}

  00000	55		 push	 ebp
  00001	8b ec		 mov	 ebp, esp
  00003	83 ec 44	 sub	 esp, 68			; 00000044H
  00006	53		 push	 ebx
  00007	56		 push	 esi
  00008	57		 push	 edi
  00009	83 7d 08 00	 cmp	 DWORD PTR _x$[ebp], 0
  0000d	7f 08		 jg	 SHORT $LN3@HRESULT_FR
  0000f	8b 45 08	 mov	 eax, DWORD PTR _x$[ebp]
  00012	89 45 bc	 mov	 DWORD PTR tv68[ebp], eax
  00015	eb 18		 jmp	 SHORT $LN4@HRESULT_FR
$LN3@HRESULT_FR:
  00017	8b 4d 08	 mov	 ecx, DWORD PTR _x$[ebp]
  0001a	81 e1 ff ff 00
	00		 and	 ecx, 65535		; 0000ffffH
  00020	81 c9 00 00 07
	00		 or	 ecx, 458752		; 00070000H
  00026	81 c9 00 00 00
	80		 or	 ecx, -2147483648	; 80000000H
  0002c	89 4d bc	 mov	 DWORD PTR tv68[ebp], ecx
$LN4@HRESULT_FR:
  0002f	8b 45 bc	 mov	 eax, DWORD PTR tv68[ebp]
  00032	5f		 pop	 edi
  00033	5e		 pop	 esi
  00034	5b		 pop	 ebx
  00035	8b e5		 mov	 esp, ebp
  00037	5d		 pop	 ebp
  00038	c3		 ret	 0
_HRESULT_FROM_WIN32 ENDP
_TEXT	ENDS
; Function compile flags: /Odtp /ZI
; File c:\program files (x86)\windows kits\10\include\10.0.17763.0\shared\guiddef.h
;	COMDAT _==
_TEXT	SEGMENT
tv68 = -68						; size = 4
_guidOne$ = 8						; size = 4
_guidOther$ = 12					; size = 4
_==	PROC						; COMDAT

; 193  : {

  00000	55		 push	 ebp
  00001	8b ec		 mov	 ebp, esp
  00003	83 ec 44	 sub	 esp, 68			; 00000044H
  00006	53		 push	 ebx
  00007	56		 push	 esi
  00008	57		 push	 edi

; 194  :     return !!IsEqualGUID(guidOne,guidOther);

  00009	8b 45 0c	 mov	 eax, DWORD PTR _guidOther$[ebp]
  0000c	50		 push	 eax
  0000d	8b 4d 08	 mov	 ecx, DWORD PTR _guidOne$[ebp]
  00010	51		 push	 ecx
  00011	e8 00 00 00 00	 call	 _IsEqualGUID
  00016	83 c4 08	 add	 esp, 8
  00019	85 c0		 test	 eax, eax
  0001b	74 09		 je	 SHORT $LN3@
  0001d	c7 45 bc 01 00
	00 00		 mov	 DWORD PTR tv68[ebp], 1
  00024	eb 07		 jmp	 SHORT $LN4@
$LN3@:
  00026	c7 45 bc 00 00
	00 00		 mov	 DWORD PTR tv68[ebp], 0
$LN4@:
  0002d	8a 45 bc	 mov	 al, BYTE PTR tv68[ebp]

; 195  : }

  00030	5f		 pop	 edi
  00031	5e		 pop	 esi
  00032	5b		 pop	 ebx
  00033	8b e5		 mov	 esp, ebp
  00035	5d		 pop	 ebp
  00036	c3		 ret	 0
_==	ENDP
_TEXT	ENDS
; Function compile flags: /Odtp /ZI
; File c:\program files (x86)\windows kits\10\include\10.0.17763.0\shared\guiddef.h
;	COMDAT _IsEqualGUID
_TEXT	SEGMENT
tv69 = -68						; size = 4
_rguid1$ = 8						; size = 4
_rguid2$ = 12						; size = 4
_IsEqualGUID PROC					; COMDAT

; 160  : {

  00000	55		 push	 ebp
  00001	8b ec		 mov	 ebp, esp
  00003	83 ec 44	 sub	 esp, 68			; 00000044H
  00006	53		 push	 ebx
  00007	56		 push	 esi
  00008	57		 push	 edi

; 161  :     return !memcmp(&rguid1, &rguid2, sizeof(GUID));

  00009	6a 10		 push	 16			; 00000010H
  0000b	8b 45 0c	 mov	 eax, DWORD PTR _rguid2$[ebp]
  0000e	50		 push	 eax
  0000f	8b 4d 08	 mov	 ecx, DWORD PTR _rguid1$[ebp]
  00012	51		 push	 ecx
  00013	e8 00 00 00 00	 call	 _memcmp
  00018	83 c4 0c	 add	 esp, 12			; 0000000cH
  0001b	85 c0		 test	 eax, eax
  0001d	75 09		 jne	 SHORT $LN3@IsEqualGUI
  0001f	c7 45 bc 01 00
	00 00		 mov	 DWORD PTR tv69[ebp], 1
  00026	eb 07		 jmp	 SHORT $LN4@IsEqualGUI
$LN3@IsEqualGUI:
  00028	c7 45 bc 00 00
	00 00		 mov	 DWORD PTR tv69[ebp], 0
$LN4@IsEqualGUI:
  0002f	8b 45 bc	 mov	 eax, DWORD PTR tv69[ebp]

; 162  : }

  00032	5f		 pop	 edi
  00033	5e		 pop	 esi
  00034	5b		 pop	 ebx
  00035	8b e5		 mov	 esp, ebp
  00037	5d		 pop	 ebp
  00038	c3		 ret	 0
_IsEqualGUID ENDP
_TEXT	ENDS
; Function compile flags: /Odtp /ZI
; File c:\program files (x86)\microsoft visual studio\2017\community\vc\tools\msvc\14.16.27023\include\vcruntime_new.h
;	COMDAT ??2@YAPAXIPAX@Z
_TEXT	SEGMENT
__Size$ = 8						; size = 4
__Where$ = 12						; size = 4
??2@YAPAXIPAX@Z PROC					; operator new, COMDAT

; 185  :     {

  00000	55		 push	 ebp
  00001	8b ec		 mov	 ebp, esp
  00003	83 ec 40	 sub	 esp, 64			; 00000040H
  00006	53		 push	 ebx
  00007	56		 push	 esi
  00008	57		 push	 edi

; 186  :         (void)_Size;
; 187  :         return _Where;

  00009	8b 45 0c	 mov	 eax, DWORD PTR __Where$[ebp]

; 188  :     }

  0000c	5f		 pop	 edi
  0000d	5e		 pop	 esi
  0000e	5b		 pop	 ebx
  0000f	8b e5		 mov	 esp, ebp
  00011	5d		 pop	 ebp
  00012	c3		 ret	 0
??2@YAPAXIPAX@Z ENDP					; operator new
_TEXT	ENDS
; Function compile flags: /Odtp /ZI
; File g:\网狐\happygamewh\服务端\系统模块\服务器组件\比赛服务\immediategroup.cpp
;	COMDAT ?__empty_global_delete@@YAXPAXI@Z
_TEXT	SEGMENT
___formal$ = 8						; size = 4
___formal$ = 12						; size = 4
?__empty_global_delete@@YAXPAXI@Z PROC			; __empty_global_delete, COMDAT

  00000	55		 push	 ebp
  00001	8b ec		 mov	 ebp, esp
  00003	83 ec 40	 sub	 esp, 64			; 00000040H
  00006	53		 push	 ebx
  00007	56		 push	 esi
  00008	57		 push	 edi
  00009	5f		 pop	 edi
  0000a	5e		 pop	 esi
  0000b	5b		 pop	 ebx
  0000c	8b e5		 mov	 esp, ebp
  0000e	5d		 pop	 ebp
  0000f	c3		 ret	 0
?__empty_global_delete@@YAXPAXI@Z ENDP			; __empty_global_delete
_TEXT	ENDS
; Function compile flags: /Odtp /ZI
; File g:\网狐\happygamewh\服务端\系统模块\服务器组件\比赛服务\immediategroup.cpp
;	COMDAT ?__empty_global_delete@@YAXPAX@Z
_TEXT	SEGMENT
___formal$ = 8						; size = 4
?__empty_global_delete@@YAXPAX@Z PROC			; __empty_global_delete, COMDAT

  00000	55		 push	 ebp
  00001	8b ec		 mov	 ebp, esp
  00003	83 ec 40	 sub	 esp, 64			; 00000040H
  00006	53		 push	 ebx
  00007	56		 push	 esi
  00008	57		 push	 edi
  00009	5f		 pop	 edi
  0000a	5e		 pop	 esi
  0000b	5b		 pop	 ebx
  0000c	8b e5		 mov	 esp, ebp
  0000e	5d		 pop	 ebp
  0000f	c3		 ret	 0
?__empty_global_delete@@YAXPAX@Z ENDP			; __empty_global_delete
_TEXT	ENDS
END
