; Listing generated by Microsoft (R) Optimizing Compiler Version 19.16.27032.1 

	TITLE	G:\网狐\HappyGameWH\服务端\系统模块\服务器组件\比赛服务\LockTimeMatch.cpp
	.686P
	.XMM
	include listing.inc
	.model	flat

INCLUDELIB MSVCRTD
INCLUDELIB OLDNAMES

CONST	SEGMENT
?IID_IUnknownEx@@3U_GUID@@B DD 05feec21eH		; IID_IUnknownEx
	DW	0dbf3H
	DW	046f0H
	DB	09fH
	DB	057H
	DB	0d1H
	DB	0cdH
	DB	071H
	DB	01cH
	DB	046H
	DB	0deH
?IID_IServerUserItemSink@@3U_GUID@@B DD 09d0cfe02H	; IID_IServerUserItemSink
	DW	0fe9H
	DW	04a8bH
	DB	097H
	DB	095H
	DB	0acH
	DB	032H
	DB	067H
	DB	05aH
	DB	0f8H
	DB	0b1H
?IID_IMatchServiceManager@@3U_GUID@@B DD 07d381e8aH	; IID_IMatchServiceManager
	DW	08c10H
	DW	04443H
	DB	0b5H
	DB	0adH
	DB	075H
	DB	04bH
	DB	0e5H
	DB	050H
	DB	0c5H
	DB	053H
?IID_IGameMatchItem@@3U_GUID@@B DD 07d381e8aH		; IID_IGameMatchItem
	DW	08c10H
	DW	04443H
	DB	0b5H
	DB	0adH
	DB	075H
	DB	04bH
	DB	0e5H
	DB	050H
	DB	0c5H
	DB	053H
?IID_IMatchEventSink@@3U_GUID@@B DD 091cf29a0H		; IID_IMatchEventSink
	DW	04d3H
	DW	048daH
	DB	083H
	DB	036H
	DB	064H
	DB	0b2H
	DB	0daH
	DB	06aH
	DB	021H
	DB	0dbH
CONST	ENDS
PUBLIC	?__empty_global_delete@@YAXPAX@Z		; __empty_global_delete
PUBLIC	?__empty_global_delete@@YAXPAXI@Z		; __empty_global_delete
PUBLIC	_IsEqualGUID
PUBLIC	_==
PUBLIC	_HRESULT_FROM_WIN32
PUBLIC	___local_stdio_printf_options
PUBLIC	__vswprintf_s_l
PUBLIC	_swprintf_s
PUBLIC	__vsnprintf_s_l
PUBLIC	__vsnprintf_s
PUBLIC	__vscprintf_l
PUBLIC	__vscprintf
PUBLIC	__snprintf_s
PUBLIC	?AfxAssertFailedLine@@YGHPBDH@Z			; AfxAssertFailedLine
PUBLIC	?AtlThrowImpl@ATL@@YGXJ@Z			; ATL::AtlThrowImpl
PUBLIC	??$AtlMultiply@I@ATL@@YAJPAIII@Z		; ATL::AtlMultiply<unsigned int>
PUBLIC	?Allocate@CCRTAllocator@ATL@@SAPAXI@Z		; ATL::CCRTAllocator::Allocate
PUBLIC	?Free@CCRTAllocator@ATL@@SAXPAX@Z		; ATL::CCRTAllocator::Free
PUBLIC	??0?$CTraceCategoryEx@$0CAAA@$0A@@ATL@@QAE@PBD@Z ; ATL::CTraceCategoryEx<8192,0>::CTraceCategoryEx<8192,0>
PUBLIC	??B?$CTraceCategoryEx@$0CAAA@$0A@@ATL@@QAEIXZ	; ATL::CTraceCategoryEx<8192,0>::operator unsigned int
PUBLIC	?GetCategoryName@CTrace@ATL@@CAPA_WI@Z		; ATL::CTrace::GetCategoryName
PUBLIC	?TraceV@CTrace@ATL@@CAXPBDHIIPB_W@Z		; ATL::CTrace::TraceV
PUBLIC	?TraceV@CTrace@ATL@@SAXPBDHII0PAD@Z		; ATL::CTrace::TraceV
PUBLIC	?RegisterCategory@CTrace@ATL@@SAXPBDI@Z		; ATL::CTrace::RegisterCategory
PUBLIC	??0?$CHeapPtrBase@_WVCCRTAllocator@ATL@@@ATL@@IAE@XZ ; ATL::CHeapPtrBase<wchar_t,ATL::CCRTAllocator>::CHeapPtrBase<wchar_t,ATL::CCRTAllocator>
PUBLIC	??1?$CHeapPtrBase@_WVCCRTAllocator@ATL@@@ATL@@QAE@XZ ; ATL::CHeapPtrBase<wchar_t,ATL::CCRTAllocator>::~CHeapPtrBase<wchar_t,ATL::CCRTAllocator>
PUBLIC	??B?$CHeapPtrBase@_WVCCRTAllocator@ATL@@@ATL@@QBEPA_WXZ ; ATL::CHeapPtrBase<wchar_t,ATL::CCRTAllocator>::operator wchar_t *
PUBLIC	?AllocateBytes@?$CHeapPtrBase@_WVCCRTAllocator@ATL@@@ATL@@QAE_NI@Z ; ATL::CHeapPtrBase<wchar_t,ATL::CCRTAllocator>::AllocateBytes
PUBLIC	?Free@?$CHeapPtrBase@_WVCCRTAllocator@ATL@@@ATL@@QAEXXZ ; ATL::CHeapPtrBase<wchar_t,ATL::CCRTAllocator>::Free
PUBLIC	??0?$CHeapPtr@_WVCCRTAllocator@ATL@@@ATL@@QAE@XZ ; ATL::CHeapPtr<wchar_t,ATL::CCRTAllocator>::CHeapPtr<wchar_t,ATL::CCRTAllocator>
PUBLIC	?Allocate@?$CHeapPtr@_WVCCRTAllocator@ATL@@@ATL@@QAE_NI@Z ; ATL::CHeapPtr<wchar_t,ATL::CCRTAllocator>::Allocate
PUBLIC	??1?$CHeapPtr@_WVCCRTAllocator@ATL@@@ATL@@QAE@XZ ; ATL::CHeapPtr<wchar_t,ATL::CCRTAllocator>::~CHeapPtr<wchar_t,ATL::CCRTAllocator>
PUBLIC	??0?$CHeapPtrBase@DVCCRTAllocator@ATL@@@ATL@@IAE@XZ ; ATL::CHeapPtrBase<char,ATL::CCRTAllocator>::CHeapPtrBase<char,ATL::CCRTAllocator>
PUBLIC	??1?$CHeapPtrBase@DVCCRTAllocator@ATL@@@ATL@@QAE@XZ ; ATL::CHeapPtrBase<char,ATL::CCRTAllocator>::~CHeapPtrBase<char,ATL::CCRTAllocator>
PUBLIC	??B?$CHeapPtrBase@DVCCRTAllocator@ATL@@@ATL@@QBEPADXZ ; ATL::CHeapPtrBase<char,ATL::CCRTAllocator>::operator char *
PUBLIC	?AllocateBytes@?$CHeapPtrBase@DVCCRTAllocator@ATL@@@ATL@@QAE_NI@Z ; ATL::CHeapPtrBase<char,ATL::CCRTAllocator>::AllocateBytes
PUBLIC	?Free@?$CHeapPtrBase@DVCCRTAllocator@ATL@@@ATL@@QAEXXZ ; ATL::CHeapPtrBase<char,ATL::CCRTAllocator>::Free
PUBLIC	??0?$CHeapPtr@DVCCRTAllocator@ATL@@@ATL@@QAE@XZ	; ATL::CHeapPtr<char,ATL::CCRTAllocator>::CHeapPtr<char,ATL::CCRTAllocator>
PUBLIC	?Allocate@?$CHeapPtr@DVCCRTAllocator@ATL@@@ATL@@QAE_NI@Z ; ATL::CHeapPtr<char,ATL::CCRTAllocator>::Allocate
PUBLIC	??1?$CHeapPtr@DVCCRTAllocator@ATL@@@ATL@@QAE@XZ	; ATL::CHeapPtr<char,ATL::CCRTAllocator>::~CHeapPtr<char,ATL::CCRTAllocator>
PUBLIC	??0CPreserveLastError@ATL@@QAE@XZ		; ATL::CPreserveLastError::CPreserveLastError
PUBLIC	??1CPreserveLastError@ATL@@QAE@XZ		; ATL::CPreserveLastError::~CPreserveLastError
PUBLIC	??0CTraceFileAndLineInfo@ATL@@QAE@PBDH@Z	; ATL::CTraceFileAndLineInfo::CTraceFileAndLineInfo
PUBLIC	??RCTraceFileAndLineInfo@ATL@@QBAXHIPBDZZ	; ATL::CTraceFileAndLineInfo::operator()
PUBLIC	??0CTimeSpan@ATL@@QAE@_J@Z			; ATL::CTimeSpan::CTimeSpan
PUBLIC	?GetDays@CTimeSpan@ATL@@QBE_JXZ			; ATL::CTimeSpan::GetDays
PUBLIC	?GetTotalSeconds@CTimeSpan@ATL@@QBE_JXZ		; ATL::CTimeSpan::GetTotalSeconds
PUBLIC	?GetTickCount@CTime@ATL@@SG?AV12@XZ		; ATL::CTime::GetTickCount
PUBLIC	??0CTime@ATL@@QAE@XZ				; ATL::CTime::CTime
PUBLIC	??0CTime@ATL@@QAE@_J@Z				; ATL::CTime::CTime
PUBLIC	??0CTime@ATL@@QAE@HHHHHHH@Z			; ATL::CTime::CTime
PUBLIC	??0CTime@ATL@@QAE@ABU_SYSTEMTIME@@H@Z		; ATL::CTime::CTime
PUBLIC	??GCTime@ATL@@QBE?AVCTimeSpan@1@V01@@Z		; ATL::CTime::operator-
PUBLIC	??MCTime@ATL@@QBE_NV01@@Z			; ATL::CTime::operator<
PUBLIC	??PCTime@ATL@@QBE_NV01@@Z			; ATL::CTime::operator>=
PUBLIC	?GetLocalTm@CTime@ATL@@QBEPAUtm@@PAU3@@Z	; ATL::CTime::GetLocalTm
PUBLIC	?GetAsSystemTime@CTime@ATL@@QBE_NAAU_SYSTEMTIME@@@Z ; ATL::CTime::GetAsSystemTime
PUBLIC	?GetYear@CTime@ATL@@QBEHXZ			; ATL::CTime::GetYear
PUBLIC	?GetMonth@CTime@ATL@@QBEHXZ			; ATL::CTime::GetMonth
PUBLIC	?GetDay@CTime@ATL@@QBEHXZ			; ATL::CTime::GetDay
PUBLIC	?GetHour@CTime@ATL@@QBEHXZ			; ATL::CTime::GetHour
PUBLIC	?GetMinute@CTime@ATL@@QBEHXZ			; ATL::CTime::GetMinute
PUBLIC	?GetSecond@CTime@ATL@@QBEHXZ			; ATL::CTime::GetSecond
PUBLIC	??0IUnknownEx@@QAE@XZ				; IUnknownEx::IUnknownEx
PUBLIC	?GetProductVer@@YAEK@Z				; GetProductVer
PUBLIC	?GetMainVer@@YAEK@Z				; GetMainVer
PUBLIC	?GetSubVer@@YAEK@Z				; GetSubVer
PUBLIC	?GetBuildVer@@YAEK@Z				; GetBuildVer
PUBLIC	?InterfaceVersionCompare@@YA_NKK@Z		; InterfaceVersionCompare
PUBLIC	?IsImmediateWriteScore@CServerRule@@SA_NK@Z	; CServerRule::IsImmediateWriteScore
PUBLIC	?IsSuportPlayBack@CServerRule@@SA_NK@Z		; CServerRule::IsSuportPlayBack
PUBLIC	??0IServerUserItemSink@@QAE@XZ			; IServerUserItemSink::IServerUserItemSink
PUBLIC	??0IGameMatchItem@@QAE@XZ			; IGameMatchItem::IGameMatchItem
PUBLIC	??0IMatchEventSink@@QAE@XZ			; IMatchEventSink::IMatchEventSink
PUBLIC	?GetCount@CDistributeManager@@QAEGXZ		; CDistributeManager::GetCount
PUBLIC	?SetDistributeRule@CDistributeManager@@QAEXE@Z	; CDistributeManager::SetDistributeRule
PUBLIC	??0CLockTimeMatch@@QAE@XZ			; CLockTimeMatch::CLockTimeMatch
PUBLIC	??1CLockTimeMatch@@UAE@XZ			; CLockTimeMatch::~CLockTimeMatch
PUBLIC	?Release@CLockTimeMatch@@UAEXXZ			; CLockTimeMatch::Release
PUBLIC	?QueryInterface@CLockTimeMatch@@UAEPAXABU_GUID@@K@Z ; CLockTimeMatch::QueryInterface
PUBLIC	?OnStartService@CLockTimeMatch@@UAEXXZ		; CLockTimeMatch::OnStartService
PUBLIC	?BindTableFrame@CLockTimeMatch@@UAE_NPAUITableFrame@@G@Z ; CLockTimeMatch::BindTableFrame
PUBLIC	?InitMatchInterface@CLockTimeMatch@@UAE_NAAUtagMatchManagerParameter@@@Z ; CLockTimeMatch::InitMatchInterface
PUBLIC	?OnEventTimer@CLockTimeMatch@@UAE_NKI@Z		; CLockTimeMatch::OnEventTimer
PUBLIC	?OnEventDataBase@CLockTimeMatch@@UAE_NGPAUIServerUserItem@@PAXGK@Z ; CLockTimeMatch::OnEventDataBase
PUBLIC	?OnEventSocketMatch@CLockTimeMatch@@UAE_NGPAXGPAUIServerUserItem@@K@Z ; CLockTimeMatch::OnEventSocketMatch
PUBLIC	?OnEventUserItemScore@CLockTimeMatch@@UAE_NPAUIServerUserItem@@E@Z ; CLockTimeMatch::OnEventUserItemScore
PUBLIC	?OnEventUserItemGameData@CLockTimeMatch@@UAE_NPAUIServerUserItem@@E@Z ; CLockTimeMatch::OnEventUserItemGameData
PUBLIC	?OnEventUserItemStatus@CLockTimeMatch@@UAE_NPAUIServerUserItem@@GG@Z ; CLockTimeMatch::OnEventUserItemStatus
PUBLIC	?OnEventUserItemRight@CLockTimeMatch@@UAE_NPAUIServerUserItem@@KKE@Z ; CLockTimeMatch::OnEventUserItemRight
PUBLIC	?OnEventUserLogon@CLockTimeMatch@@UAE_NPAUIServerUserItem@@@Z ; CLockTimeMatch::OnEventUserLogon
PUBLIC	?OnEventUserLogout@CLockTimeMatch@@UAE_NPAUIServerUserItem@@@Z ; CLockTimeMatch::OnEventUserLogout
PUBLIC	?OnEventUserLogonFinish@CLockTimeMatch@@UAE_NPAUIServerUserItem@@@Z ; CLockTimeMatch::OnEventUserLogonFinish
PUBLIC	?OnEventEnterMatch@CLockTimeMatch@@UAE_NKPAXK_N@Z ; CLockTimeMatch::OnEventEnterMatch
PUBLIC	?OnEventUserJoinMatch@CLockTimeMatch@@UAE_NPAUIServerUserItem@@EK@Z ; CLockTimeMatch::OnEventUserJoinMatch
PUBLIC	?OnEventUserQuitMatch@CLockTimeMatch@@UAE_NPAUIServerUserItem@@EPAGK@Z ; CLockTimeMatch::OnEventUserQuitMatch
PUBLIC	?OnEventGameStart@CLockTimeMatch@@UAE_NPAUITableFrame@@G@Z ; CLockTimeMatch::OnEventGameStart
PUBLIC	?OnEventGameEnd@CLockTimeMatch@@UAE_NPAUITableFrame@@GPAUIServerUserItem@@E@Z ; CLockTimeMatch::OnEventGameEnd
PUBLIC	?OnEventUserReturnMatch@CLockTimeMatch@@UAE_NPAUITableFrame@@PAUIServerUserItem@@@Z ; CLockTimeMatch::OnEventUserReturnMatch
PUBLIC	?OnActionUserSitDown@CLockTimeMatch@@UAE_NGGPAUIServerUserItem@@_N@Z ; CLockTimeMatch::OnActionUserSitDown
PUBLIC	?OnActionUserStandUp@CLockTimeMatch@@UAE_NGGPAUIServerUserItem@@_N@Z ; CLockTimeMatch::OnActionUserStandUp
PUBLIC	?OnActionUserOnReady@CLockTimeMatch@@UAE_NGGPAUIServerUserItem@@PAXG@Z ; CLockTimeMatch::OnActionUserOnReady
PUBLIC	?ClearSameTableUser@CLockTimeMatch@@IAEXK@Z	; CLockTimeMatch::ClearSameTableUser
PUBLIC	?InsertSameTableUser@CLockTimeMatch@@IAEXKK@Z	; CLockTimeMatch::InsertSameTableUser
PUBLIC	?RemoveDistribute@CLockTimeMatch@@IAE_NPAUIServerUserItem@@@Z ; CLockTimeMatch::RemoveDistribute
PUBLIC	?InsertDistribute@CLockTimeMatch@@IAE_NPAUIServerUserItem@@@Z ; CLockTimeMatch::InsertDistribute
PUBLIC	?SendMatchUserScore@CLockTimeMatch@@IAE_NPAUIServerUserItem@@@Z ; CLockTimeMatch::SendMatchUserScore
PUBLIC	?SendMatchUserInitScore@CLockTimeMatch@@IAE_NPAUIServerUserItem@@@Z ; CLockTimeMatch::SendMatchUserInitScore
PUBLIC	?SendSafeCardNotify@CLockTimeMatch@@IAE_NPAUIServerUserItem@@@Z ; CLockTimeMatch::SendSafeCardNotify
PUBLIC	?SendDeductFeeNotify@CLockTimeMatch@@IAE_NPAUIServerUserItem@@@Z ; CLockTimeMatch::SendDeductFeeNotify
PUBLIC	?SendEliminateNotify@CLockTimeMatch@@IAE_NPAUIServerUserItem@@@Z ; CLockTimeMatch::SendEliminateNotify
PUBLIC	?SendSignupSuccessNotify@CLockTimeMatch@@IAE_NPAUIServerUserItem@@@Z ; CLockTimeMatch::SendSignupSuccessNotify
PUBLIC	?SendReviveNotify@CLockTimeMatch@@IAE_NPAUIServerUserItem@@E_N@Z ; CLockTimeMatch::SendReviveNotify
PUBLIC	?VerifyUserEnterMatch@CLockTimeMatch@@AAE_NPAUIServerUserItem@@@Z ; CLockTimeMatch::VerifyUserEnterMatch
PUBLIC	?VerifyMatchTime@CLockTimeMatch@@AAE_NPADGAAG@Z	; CLockTimeMatch::VerifyMatchTime
PUBLIC	?CalcMatchNo@CLockTimeMatch@@IAE_JXZ		; CLockTimeMatch::CalcMatchNo
PUBLIC	?PerformDistribute@CLockTimeMatch@@IAE_NXZ	; CLockTimeMatch::PerformDistribute
PUBLIC	?UpdateMatchStatus@CLockTimeMatch@@IAEXXZ	; CLockTimeMatch::UpdateMatchStatus
PUBLIC	?SwitchMatchTimer@CLockTimeMatch@@IAEXXZ	; CLockTimeMatch::SwitchMatchTimer
PUBLIC	?IsMatchSignupEnd@CLockTimeMatch@@IAE_NXZ	; CLockTimeMatch::IsMatchSignupEnd
PUBLIC	?IsMatchSignupStart@CLockTimeMatch@@IAE_NXZ	; CLockTimeMatch::IsMatchSignupStart
PUBLIC	?GetMatchStartInterval@CLockTimeMatch@@IAEKXZ	; CLockTimeMatch::GetMatchStartInterval
PUBLIC	?PerformAllUserStandUp@CLockTimeMatch@@IAEXPAUITableFrame@@@Z ; CLockTimeMatch::PerformAllUserStandUp
PUBLIC	?SendTableUserMatchInfo@CLockTimeMatch@@IAEXPAUITableFrame@@G@Z ; CLockTimeMatch::SendTableUserMatchInfo
PUBLIC	?WriteUserAward@CLockTimeMatch@@IAE_NPAUIServerUserItem@@PAUtagMatchRankInfo@@@Z ; CLockTimeMatch::WriteUserAward
PUBLIC	??_GCLockTimeMatch@@UAEPAXI@Z			; CLockTimeMatch::`scalar deleting destructor'
PUBLIC	??$_snprintf_s@$0IA@@@YAHAAY0IA@DIPBDZZ		; _snprintf_s<128>
PUBLIC	??$_snprintf_s@$0EA@@@YAHAAY0EA@DIPBDZZ		; _snprintf_s<64>
PUBLIC	??0?$CWHArray@UtagDistributeInfo@@ABU1@@@QAE@XZ	; CWHArray<tagDistributeInfo,tagDistributeInfo const &>::CWHArray<tagDistributeInfo,tagDistributeInfo const &>
PUBLIC	??1?$CWHArray@UtagDistributeInfo@@ABU1@@@UAE@XZ	; CWHArray<tagDistributeInfo,tagDistributeInfo const &>::~CWHArray<tagDistributeInfo,tagDistributeInfo const &>
PUBLIC	?GetCount@?$CWHArray@UtagDistributeInfo@@ABU1@@@QBEHXZ ; CWHArray<tagDistributeInfo,tagDistributeInfo const &>::GetCount
PUBLIC	?ElementAt@?$CWHArray@UtagDistributeInfo@@ABU1@@@QAEAAUtagDistributeInfo@@H@Z ; CWHArray<tagDistributeInfo,tagDistributeInfo const &>::ElementAt
PUBLIC	??A?$CWHArray@UtagDistributeInfo@@ABU1@@@QAEAAUtagDistributeInfo@@H@Z ; CWHArray<tagDistributeInfo,tagDistributeInfo const &>::operator[]
PUBLIC	??_G?$CWHArray@UtagDistributeInfo@@ABU1@@@UAEPAXI@Z ; CWHArray<tagDistributeInfo,tagDistributeInfo const &>::`scalar deleting destructor'
PUBLIC	?Release@CLockTimeMatch@@W3AEXXZ		; [thunk]:CLockTimeMatch::Release`adjustor{4}'
PUBLIC	?QueryInterface@CLockTimeMatch@@W3AEPAXABU_GUID@@K@Z ; [thunk]:CLockTimeMatch::QueryInterface`adjustor{4}'
PUBLIC	?Release@CLockTimeMatch@@W7AEXXZ		; [thunk]:CLockTimeMatch::Release`adjustor{8}'
PUBLIC	?QueryInterface@CLockTimeMatch@@W7AEPAXABU_GUID@@K@Z ; [thunk]:CLockTimeMatch::QueryInterface`adjustor{8}'
PUBLIC	?_OptionsStorage@?1??__local_stdio_printf_options@@9@4_KA ; `__local_stdio_printf_options'::`2'::_OptionsStorage
PUBLIC	??_C@_17CNPHIMPH@?$AA?$CF?$AAl?$AAs@		; `string'
PUBLIC	??_C@_1OE@IAPLKPHI@?$AAc?$AA?3?$AA?2?$AAp?$AAr?$AAo?$AAg?$AAr?$AAa?$AAm?$AA?5?$AAf?$AAi?$AAl?$AAe@ ; `string'
PUBLIC	?atlTraceException@ATL@@3V?$CTraceCategoryEx@$0CAAA@$0A@@1@A ; ATL::atlTraceException
PUBLIC	??_C@_0BC@PGMFNIFA@atlTraceException@		; `string'
PUBLIC	?m_nLevel@CTrace@ATL@@1IA			; ATL::CTrace::m_nLevel
PUBLIC	?m_nCategory@CTrace@ATL@@1IA			; ATL::CTrace::m_nCategory
PUBLIC	?m_nLastCategory@CTrace@ATL@@1IA		; ATL::CTrace::m_nLastCategory
PUBLIC	?m_nMap@CTrace@ATL@@1PAUCategoryMap@12@A	; ATL::CTrace::m_nMap
PUBLIC	??_C@_1O@LFNDFEBP@?$AA?$CF?$AAl?$AAs?$AA?5?$AA?9?$AA?5@ ; `string'
PUBLIC	??_C@_1M@PGKOAACE@?$AA?$CF?$AAu?$AA?5?$AA?9?$AA?5@ ; `string'
PUBLIC	??_C@_1O@OAIPCDPO@?$AA?$CF?$AAl?$AAs?$AA?$CF?$AAl?$AAs@ ; `string'
PUBLIC	??_C@_17LGGGMOOB@?$AA?$CF?$AAh?$AAs@		; `string'
PUBLIC	??_C@_1EO@EBPPKGOM@?$AAf?$AAa?$AAl?$AAs?$AAe?$AA?5?$AA?$CG?$AA?$CG?$AA?5?$AA?$CC?$AAT?$AAo?$AAo?$AA?5?$AAm@ ; `string'
PUBLIC	??_C@_1OE@PDFAMNPL@?$AAc?$AA?3?$AA?2?$AAp?$AAr?$AAo?$AAg?$AAr?$AAa?$AAm?$AA?5?$AAf?$AAi?$AAl?$AAe@ ; `string'
PUBLIC	?__LINE__Var@?0??AtlThrowImpl@ATL@@YGXJ@Z@4JA	; `ATL::AtlThrowImpl'::`1'::__LINE__Var
PUBLIC	??_C@_0HD@OEBHCJKM@c?3?2program?5files?5?$CIx86?$CJ?2microsof@ ; `string'
PUBLIC	??_C@_0BF@IAAKIJDJ@AtlThrow?3?5hr?5?$DN?50x?$CFx?6@ ; `string'
PUBLIC	??_C@_1BM@GBBOFEAE@?$AA_?$AA_?$AAa?$AAt?$AAl?$AA_?$AAc?$AAo?$AAn?$AAd?$AAV?$AAa?$AAl@ ; `string'
PUBLIC	?__LINE__Var@?0???0CTime@ATL@@QAE@HHHHHHH@Z@4JA	; `ATL::CTime::CTime'::`1'::__LINE__Var
PUBLIC	??_C@_1OC@IALJLBM@?$AAc?$AA?3?$AA?2?$AAp?$AAr?$AAo?$AAg?$AAr?$AAa?$AAm?$AA?5?$AAf?$AAi?$AAl?$AAe@ ; `string'
PUBLIC	??_C@_1BK@NHHHCKNA@?$AAm?$AA_?$AAt?$AAi?$AAm?$AAe?$AA?5?$AA?$CB?$AA?$DN?$AA?5?$AA?9?$AA1@ ; `string'
PUBLIC	?__LINE__Var@?0??GetLocalTm@CTime@ATL@@QBEPAUtm@@PAU4@@Z@4JA ; `ATL::CTime::GetLocalTm'::`1'::__LINE__Var
PUBLIC	??_C@_00CNPNBAHC@@				; `string'
PUBLIC	??_7IUnknownEx@@6B@				; IUnknownEx::`vftable'
PUBLIC	??_7IServerUserItemSink@@6B@			; IServerUserItemSink::`vftable'
PUBLIC	??_C@_1BK@NHECDDNK@?$AAm?$AA_?$AAp?$AAD?$AAa?$AAt?$AAa?$AA?5?$AA?$DN?$AA?$DN?$AA?5?$AA0@ ; `string'
PUBLIC	??_7IGameMatchItem@@6B@				; IGameMatchItem::`vftable'
PUBLIC	??_7IMatchEventSink@@6B@			; IMatchEventSink::`vftable'
PUBLIC	??_7CLockTimeMatch@@6BIGameMatchItem@@@		; CLockTimeMatch::`vftable'
PUBLIC	??_7CLockTimeMatch@@6BIMatchEventSink@@@	; CLockTimeMatch::`vftable'
PUBLIC	??_7CLockTimeMatch@@6BIServerUserItemSink@@@	; CLockTimeMatch::`vftable'
PUBLIC	?__LINE__Var@?0???1CLockTimeMatch@@UAE@XZ@4JA	; `CLockTimeMatch::~CLockTimeMatch'::`1'::__LINE__Var
PUBLIC	??_C@_0EK@PLFANKAP@g?3?2?M?x?$LK?$PM?2happygamewh?2?$LH?$PO?N?q?$LG?K?2?O?$LF?M?$LD@ ; `string'
PUBLIC	?__LINE__Var@?0??BindTableFrame@CLockTimeMatch@@UAE_NPAUITableFrame@@G@Z@4JA ; `CLockTimeMatch::BindTableFrame'::`1'::__LINE__Var
PUBLIC	?__LINE__Var@?0??OnEventTimer@CLockTimeMatch@@UAE_NKI@Z@4JA ; `CLockTimeMatch::OnEventTimer'::`1'::__LINE__Var
PUBLIC	??_C@_0DJ@LFOAJBDH@?$LN?q?L?l?$LF?D?$LB?H?H?$PM?$LN?a?J?x?J?$LB?$LM?d?R?Q?$LF?$LN?$KD?$KM?G?k?$LO?$KB?$LP?l?T@ ; `string'
PUBLIC	??_C@_0FP@CHGGEFGE@?$LB?$LO?$LD?$KB?$LB?H?H?$PM?$LN?a?J?x?J?$LB?$LM?d?R?Q?$LF?$LN?$KD?$KM?G?k?$LO?$KB?$LP?l?T?Z?5@ ; `string'
PUBLIC	??_C@_0CH@GCHCKFGB@?$LN?q?L?l?$LF?D?$LB?H?H?$PM?$LF?$LN?$LE?K?$LN?a?J?x?$KD?$KM?G?k?D?z?C?w?L?l?T?Y?$MA@ ; `string'
PUBLIC	??_C@_0FF@DDBBBMHA@?$LB?$LO?$LD?$KB?$LB?H?H?$PM?$LN?a?J?x?J?$LB?$LM?d?R?Q?$LF?$LN?$KD?$KM?$LI?P?P?$LL?D?z?$LF?D?$LC@ ; `string'
PUBLIC	?__LINE__Var@?0??OnEventDataBase@CLockTimeMatch@@UAE_NGPAUIServerUserItem@@PAXGK@Z@4JA ; `CLockTimeMatch::OnEventDataBase'::`1'::__LINE__Var
PUBLIC	??_C@_0CL@IJGLKDAG@?$LB?$KH?G?$LI?0?D?z?$LC?$LL?$LO?$NP?$LB?$LI?$LB?$LO?$LD?$KB?$LB?H?H?$PM?$LF?D?$LB?$KI?C?$PL?W?J?$LI?q@ ; `string'
PUBLIC	??_C@_0DB@IMGKPMKE@?$LJ?$KH?O?$LC?D?z?$KD?$KM?$LB?$KD?O?U?$LP?$KI?$LJ?$LK?B?r?$LD?I?$LJ?$KG?$KD?$KM?G?k?$LF?H?$LE?$PN?O@ ; `string'
PUBLIC	??_C@_0CL@GGBOLFBO@?$LJ?$KH?O?$LC?D?z?$KD?$KM?$LI?$LE?$LL?n?$LD?I?$LJ?$KG?$KD?$KM?G?k?$LF?H?$LE?$PN?O?$LF?M?$LD?N?$KK?D@ ; `string'
PUBLIC	??_C@_0EH@PFKOHNEP@?$LB?$LO?$LE?N?$LB?H?H?$PM?$LF?$LN?$LE?K?$LN?a?J?x?$KD?$KM?G?k?D?z?G?$LA?M?y?M?x?U?$LO?$LC@ ; `string'
PUBLIC	??_C@_0FH@GLGCEBDA@?R?r?$LB?$KI?C?$PL?H?K?J?$PN?$LC?$LL?W?c?$KD?$KM?H?$KB?O?$PL?$LB?$LO?$LD?$KB?$LB?H?H?$PM?$KB?$KD?R@ ; `string'
PUBLIC	?__LINE__Var@?0??OnEventSocketMatch@CLockTimeMatch@@UAE_NGPAXGPAUIServerUserItem@@K@Z@4JA ; `CLockTimeMatch::OnEventSocketMatch'::`1'::__LINE__Var
PUBLIC	??_C@_0CD@LHKCDNBI@?O?$LF?M?$LD?U?$PN?T?Z?E?$KM?A?$KG?N?$KK?D?z?$LH?V?E?d?W?y?N?$LL?$KD?$KM?G?k?$LF?H?$LE@ ; `string'
PUBLIC	??_C@_0CH@PJALIOJF@?D?z?$LF?D?$LH?V?J?$PN?N?$LE?$LE?o?$LF?$LN?L?T?L?$KN?$LH?V?J?$PN?O?$NP?$KD?$KM?$LC?$LL?P?h?R@ ; `string'
PUBLIC	?__LINE__Var@?0??OnEventUserItemScore@CLockTimeMatch@@UAE_NPAUIServerUserItem@@E@Z@4JA ; `CLockTimeMatch::OnEventUserItemScore'::`1'::__LINE__Var
PUBLIC	?__LINE__Var@?0??OnEventUserJoinMatch@CLockTimeMatch@@UAE_NPAUIServerUserItem@@EK@Z@4JA ; `CLockTimeMatch::OnEventUserJoinMatch'::`1'::__LINE__Var
PUBLIC	??_C@_0BL@CKGEBLOB@?$LB?$KI?C?$PL?I?P?N?$LE?$LP?$KK?J?$LM?$KD?$KM?G?k?I?T?$LK?s?T?Y?$MA?$LE?$KD?$KB@ ; `string'
PUBLIC	??_C@_0CP@GPKKPIPC@?$LB?$KI?C?$PL?R?Q?$LO?$KN?$LN?X?V?$LJ?$KD?$KM?G?k?D?z?R?F?$LM?$NN?V?A?F?d?K?$PL?$LB?H?H@ ; `string'
PUBLIC	??_C@_0CN@MILLHBCL@?$LB?$KH?G?$LI?$KD?$KM?D?z?$LF?D?$LL?a?T?$LB?$LF?H?$LM?$LG?$LE?o?$LC?$LL?$LF?$LN?$LB?$KI?C?$PL?L?u?$LM@ ; `string'
PUBLIC	??_C@_0CL@NANGINFO@?$LB?$KH?G?$LI?$KD?$KM?D?z?$LF?D?$LO?$KN?Q?i?V?$LF?$LE?o?$LC?$LL?$LF?$LN?$LB?$KI?C?$PL?L?u?$LM?$PO?$KD@ ; `string'
PUBLIC	??_C@_0CH@PBJGPBJH@?O?$LF?M?$LD?U?$PN?T?Z?E?$KM?A?$KG?N?$KK?D?z?$LH?V?E?d?W?y?N?$LL?$KD?$KM?G?k?I?T?$LK@ ; `string'
PUBLIC	?__LINE__Var@?0??OnEventUserQuitMatch@CLockTimeMatch@@UAE_NPAUIServerUserItem@@EPAGK@Z@4JA ; `CLockTimeMatch::OnEventUserQuitMatch'::`1'::__LINE__Var
PUBLIC	??_C@_0CE@DMINAKJA@?$LB?$KH?G?$LI?0?D?z?R?Q?$LC?N?$LM?S?$LJ?$PN?$LB?$LO?$LD?$KB?$LB?H?H?$PM?$KD?$KM?$LC?$LL?D?$NM?M?K@ ; `string'
PUBLIC	??_C@_0BJ@CODAEBJM@?$LB?$LO?$LO?V?$LB?H?H?$PM?J?G?D?z?$LF?D?$LF?Z?5?$CFd?5?$LO?V?$KB?$KD@ ; `string'
PUBLIC	?__LINE__Var@?0??OnEventGameEnd@CLockTimeMatch@@UAE_NPAUITableFrame@@GPAUIServerUserItem@@E@Z@4JA ; `CLockTimeMatch::OnEventGameEnd'::`1'::__LINE__Var
PUBLIC	??_C@_0EJ@COJNGGKL@?D?z?R?Q?M?j?$LD?I?$CFd?$LO?V?$LB?H?H?$PM?$KD?$KM?$LP?I?R?T?$LM?L?P?x?$LF?$LB?G?$LA?$LB@ ; `string'
PUBLIC	??_C@_0HB@JAGJBAEH@?D?z?R?Q?M?j?$LD?I?$CFd?$LO?V?$LB?H?H?$PM?$KD?$KM?O?$LF?M?$LD?$LN?$KL?$LL?a?$LM?G?B?$LM?D@ ; `string'
PUBLIC	??_C@_0DC@KHAHGIHK@?$LB?$LO?$LO?V?$LB?H?H?$PM?$LN?a?J?x?$KD?$KM?O?$LF?M?$LD?U?$PN?T?Z?E?$KM?A?$KG?N?$KK?D?z?$LH@ ; `string'
PUBLIC	??_C@_0DC@JLJHDNKI@?S?I?S?Z?M?f?$LM?R?$MA?k?$LP?$KK?$KD?$KM?O?$LF?M?$LD?U?$PN?T?Z?N?$KK?D?z?V?X?P?B?$LH@ ; `string'
PUBLIC	?__LINE__Var@?0??VerifyUserEnterMatch@CLockTimeMatch@@AAE_NPAUIServerUserItem@@@Z@4JA ; `CLockTimeMatch::VerifyUserEnterMatch'::`1'::__LINE__Var
PUBLIC	??_C@_0CK@MEIIMJBH@?S?I?S?Z?D?z?$LF?D?$LB?H?H?$PM?$LB?R?$LF?M?S?Z?5?$CFd?$KD?$KM?D?z?$LN?$KL?$LC?$LL?D?$NM@ ; `string'
PUBLIC	??_C@_0EB@IICMIGNG@?D?z?R?Q?M?j?$LD?I?5?$CFd?5?$LO?V?$LB?H?H?$PM?$KD?$KM?D?z?$LN?$KL?$LC?$LL?D?$NM?$LM?L?P@ ; `string'
PUBLIC	?__LINE__Var@?0??PerformAllUserStandUp@CLockTimeMatch@@IAEXPAUITableFrame@@@Z@4JA ; `CLockTimeMatch::PerformAllUserStandUp'::`1'::__LINE__Var
PUBLIC	?__LINE__Var@?0??PerformDistribute@CLockTimeMatch@@IAE_NXZ@4JA ; `CLockTimeMatch::PerformDistribute'::`1'::__LINE__Var
PUBLIC	??_7?$CWHArray@UtagDistributeInfo@@ABU1@@@6B@	; CWHArray<tagDistributeInfo,tagDistributeInfo const &>::`vftable'
PUBLIC	?__LINE__Var@?0??InsertDistribute@CLockTimeMatch@@IAE_NPAUIServerUserItem@@@Z@4JA ; `CLockTimeMatch::InsertDistribute'::`1'::__LINE__Var
PUBLIC	??_C@_0DA@MIICOPIN@?$LB?H?H?$PM?R?Q?$LO?$KN?$LN?a?J?x?0?G?k?D?z?R?F?$LM?$NN?V?A?F?d?K?$PL?$LB?H?H?$PM@ ; `string'
PUBLIC	??_C@_0DI@NBAMOMBH@?$LN?q?L?l?$LF?D?$LB?H?H?$PM?R?Q?$LO?$KN?$LN?a?J?x?0?G?k?D?z?S?Z?C?w?L?l?$CFd@ ; `string'
PUBLIC	??_C@_0EK@KKHDFNFN@?$LB?H?H?$PM?$LB?$KI?C?$PL?I?P?N?$LE?$LP?$KK?J?$LM?0?$LB?$LO?$LD?$KB?$LB?H?H?$PM?$LB?$KI?C?$PL?J?$LB@ ; `string'
PUBLIC	??_C@_0DK@LADIJLOB@?$LB?H?H?$PM?$LB?$KI?C?$PL?I?P?N?$LE?$LP?$KK?J?$LM?0?G?k?D?z?S?Z?$LN?q?L?l?$CFd?J?$LB@ ; `string'
PUBLIC	??_C@_0FM@EDKOAGPM@?D?z?$LF?D?$LB?H?H?$PM?$LB?R?$LF?M?S?Z?5?$CFd?$KD?$KM?$LN?$KL?$LC?$LL?D?$NM?$LM?L?P?x?S?N@ ; `string'
PUBLIC	??_C@_0FA@CPFANEOM@?D?z?$LF?D?$LB?H?H?$PM?$LB?R?$LF?M?S?Z?5?$CFd?$KD?$KM?$LN?$KL?$LC?$LL?D?$NM?$LM?L?P?x?S?N@ ; `string'
PUBLIC	??_C@_0FK@LABKGBIM@?$LJ?$KH?O?$LC?D?z?$LB?$KI?C?$PL?$LD?I?$LJ?$KG?$KD?$KB?$LB?$LO?$LD?$KB?$LB?H?H?$PM?$LD?v?J?$NL?$LB?$KD?O@ ; `string'
PUBLIC	??_C@_06EPCIHMAO@?S?N?O?$LH?$LB?R@		; `string'
PUBLIC	??_C@_04FLLPKHFC@?T?$KK?$LB?$KG@		; `string'
PUBLIC	??_C@_0CK@KBNEFBOJ@?$LC?N?H?$PM?$LN?$KL?$LP?$NL?$LD?$PN?$LB?$KI?C?$PL?$LH?Q?5?$CFI64d?5?$CFs?$KD?$KM?H?$LH?H?O@ ; `string'
PUBLIC	??_C@_0CL@LKBHCBDE@?$LJ?$KH?O?$LC?D?z?$KD?$KM?$LB?$KI?C?$PL?$LD?I?$LJ?$KG?$KD?$KM?G?k?$LF?H?$LE?$PN?O?$LF?M?$LD?N?$KK?D@ ; `string'
PUBLIC	??_C@_0CH@JFAMEAMK@?$LJ?$KH?O?$LC?D?z?$KD?$KM?$LB?$KI?C?$PL?$LD?I?$LJ?$KG?$KD?$KM?G?k?$LN?l?J?$LB?G?$LA?$MA?$LE?$LC?N?$LM@ ; `string'
PUBLIC	?__LINE__Var@?0??RemoveDistribute@CLockTimeMatch@@IAE_NPAUIServerUserItem@@@Z@4JA ; `CLockTimeMatch::RemoveDistribute'::`1'::__LINE__Var
PUBLIC	?__LINE__Var@?0??SendTableUserMatchInfo@CLockTimeMatch@@IAEXPAUITableFrame@@G@Z@4JA ; `CLockTimeMatch::SendTableUserMatchInfo'::`1'::__LINE__Var
PUBLIC	??_C@_0BD@KNNGNBNI@?$LL?$PN?$LH?V?$LH?$LN?J?$LN?$KD?$LK?$MA?$NL?$LM?F?$LL?$PN?$LH?V@ ; `string'
PUBLIC	??_C@_0N@JCGEHOBO@?S?N?O?$LH?$LL?y?J?$PN?$KD?$LK?$CFd@ ; `string'
PUBLIC	??_C@_0BD@NHCOODCL@?$LO?V?V?F?C?$PL?$LD?F?$KD?$LK?$LG?$KI?J?$LB?$LP?$KK?H?$PM@ ; `string'
PUBLIC	?__LINE__Var@?0??WriteUserAward@CLockTimeMatch@@IAE_NPAUIServerUserItem@@PAUtagMatchRankInfo@@@Z@4JA ; `CLockTimeMatch::WriteUserAward'::`1'::__LINE__Var
PUBLIC	??_C@_0DF@LDFGAABH@g?3?2?M?x?$LK?$PM?2happygamewh?2?$LH?$PO?N?q?$LG?K?2?O?$LF?M?$LD@ ; `string'
PUBLIC	??_R4IUnknownEx@@6B@				; IUnknownEx::`RTTI Complete Object Locator'
PUBLIC	??_R0?AUIUnknownEx@@@8				; IUnknownEx `RTTI Type Descriptor'
PUBLIC	??_R3IUnknownEx@@8				; IUnknownEx::`RTTI Class Hierarchy Descriptor'
PUBLIC	??_R2IUnknownEx@@8				; IUnknownEx::`RTTI Base Class Array'
PUBLIC	??_R1A@?0A@EA@IUnknownEx@@8			; IUnknownEx::`RTTI Base Class Descriptor at (0,-1,0,64)'
PUBLIC	??_R4IServerUserItemSink@@6B@			; IServerUserItemSink::`RTTI Complete Object Locator'
PUBLIC	??_R0?AUIServerUserItemSink@@@8			; IServerUserItemSink `RTTI Type Descriptor'
PUBLIC	??_R3IServerUserItemSink@@8			; IServerUserItemSink::`RTTI Class Hierarchy Descriptor'
PUBLIC	??_R2IServerUserItemSink@@8			; IServerUserItemSink::`RTTI Base Class Array'
PUBLIC	??_R1A@?0A@EA@IServerUserItemSink@@8		; IServerUserItemSink::`RTTI Base Class Descriptor at (0,-1,0,64)'
PUBLIC	??_R4CLockTimeMatch@@6BIGameMatchItem@@@	; CLockTimeMatch::`RTTI Complete Object Locator'
PUBLIC	??_R0?AVCLockTimeMatch@@@8			; CLockTimeMatch `RTTI Type Descriptor'
PUBLIC	??_R3CLockTimeMatch@@8				; CLockTimeMatch::`RTTI Class Hierarchy Descriptor'
PUBLIC	??_R2CLockTimeMatch@@8				; CLockTimeMatch::`RTTI Base Class Array'
PUBLIC	??_R1A@?0A@EA@CLockTimeMatch@@8			; CLockTimeMatch::`RTTI Base Class Descriptor at (0,-1,0,64)'
PUBLIC	??_R1A@?0A@EA@IGameMatchItem@@8			; IGameMatchItem::`RTTI Base Class Descriptor at (0,-1,0,64)'
PUBLIC	??_R0?AUIGameMatchItem@@@8			; IGameMatchItem `RTTI Type Descriptor'
PUBLIC	??_R3IGameMatchItem@@8				; IGameMatchItem::`RTTI Class Hierarchy Descriptor'
PUBLIC	??_R2IGameMatchItem@@8				; IGameMatchItem::`RTTI Base Class Array'
PUBLIC	??_R1A@?0A@EC@IUnknownEx@@8			; IUnknownEx::`RTTI Base Class Descriptor at (0,-1,0,66)'
PUBLIC	??_R13?0A@EA@IMatchEventSink@@8			; IMatchEventSink::`RTTI Base Class Descriptor at (4,-1,0,64)'
PUBLIC	??_R0?AUIMatchEventSink@@@8			; IMatchEventSink `RTTI Type Descriptor'
PUBLIC	??_R3IMatchEventSink@@8				; IMatchEventSink::`RTTI Class Hierarchy Descriptor'
PUBLIC	??_R2IMatchEventSink@@8				; IMatchEventSink::`RTTI Base Class Array'
PUBLIC	??_R1A@?0A@EA@IMatchEventSink@@8		; IMatchEventSink::`RTTI Base Class Descriptor at (0,-1,0,64)'
PUBLIC	??_R13?0A@EC@IUnknownEx@@8			; IUnknownEx::`RTTI Base Class Descriptor at (4,-1,0,66)'
PUBLIC	??_R17?0A@EA@IServerUserItemSink@@8		; IServerUserItemSink::`RTTI Base Class Descriptor at (8,-1,0,64)'
PUBLIC	??_R17?0A@EC@IUnknownEx@@8			; IUnknownEx::`RTTI Base Class Descriptor at (8,-1,0,66)'
PUBLIC	??_R4CLockTimeMatch@@6BIMatchEventSink@@@	; CLockTimeMatch::`RTTI Complete Object Locator'
PUBLIC	??_R4CLockTimeMatch@@6BIServerUserItemSink@@@	; CLockTimeMatch::`RTTI Complete Object Locator'
PUBLIC	??_R4IGameMatchItem@@6B@			; IGameMatchItem::`RTTI Complete Object Locator'
PUBLIC	??_R4IMatchEventSink@@6B@			; IMatchEventSink::`RTTI Complete Object Locator'
PUBLIC	??_R4?$CWHArray@UtagDistributeInfo@@ABU1@@@6B@	; CWHArray<tagDistributeInfo,tagDistributeInfo const &>::`RTTI Complete Object Locator'
PUBLIC	??_R0?AV?$CWHArray@UtagDistributeInfo@@ABU1@@@@8 ; CWHArray<tagDistributeInfo,tagDistributeInfo const &> `RTTI Type Descriptor'
PUBLIC	??_R3?$CWHArray@UtagDistributeInfo@@ABU1@@@8	; CWHArray<tagDistributeInfo,tagDistributeInfo const &>::`RTTI Class Hierarchy Descriptor'
PUBLIC	??_R2?$CWHArray@UtagDistributeInfo@@ABU1@@@8	; CWHArray<tagDistributeInfo,tagDistributeInfo const &>::`RTTI Base Class Array'
PUBLIC	??_R1A@?0A@EA@?$CWHArray@UtagDistributeInfo@@ABU1@@@8 ; CWHArray<tagDistributeInfo,tagDistributeInfo const &>::`RTTI Base Class Descriptor at (0,-1,0,64)'
EXTRN	__purecall:PROC
EXTRN	??2@YAPAXI@Z:PROC				; operator new
EXTRN	??3@YAXPAXI@Z:PROC				; operator delete
EXTRN	??_U@YAPAXI@Z:PROC				; operator new[]
EXTRN	??_V@YAXPAX@Z:PROC				; operator delete[]
EXTRN	_memcmp:PROC
EXTRN	_memcpy:PROC
EXTRN	_memset:PROC
EXTRN	__imp__wcscpy_s:PROC
EXTRN	__imp__wcslen:PROC
EXTRN	__imp__GetLastError@0:PROC
EXTRN	__imp__SetLastError@4:PROC
EXTRN	__imp__GetSystemTime@4:PROC
EXTRN	__imp__lstrcpynA@12:PROC
EXTRN	__imp__lstrlenA@4:PROC
EXTRN	__imp__PeekMessageA@20:PROC
EXTRN	__imp__PostQuitMessage@4:PROC
EXTRN	__imp__MultiByteToWideChar@24:PROC
EXTRN	__imp____stdio_common_vswprintf_s:PROC
EXTRN	__imp____stdio_common_vsprintf:PROC
EXTRN	__imp____stdio_common_vsnprintf_s:PROC
EXTRN	__imp__free:PROC
EXTRN	__imp__malloc:PROC
EXTRN	__imp__rand:PROC
EXTRN	__imp___localtime64_s:PROC
EXTRN	__imp___mktime64:PROC
EXTRN	__imp___time64:PROC
EXTRN	__imp___CrtDbgReport:PROC
EXTRN	__imp___CrtDbgReportW:PROC
EXTRN	?AfxThrowMemoryException@@YGXXZ:PROC		; AfxThrowMemoryException
EXTRN	?AfxThrowInvalidArgException@@YGXXZ:PROC	; AfxThrowInvalidArgException
EXTRN	?AfxThrowOleException@@YGXJ@Z:PROC		; AfxThrowOleException
EXTRN	??0CTableFrameHook@@QAE@XZ:PROC			; CTableFrameHook::CTableFrameHook
EXTRN	??0CDistributeManager@@QAE@XZ:PROC		; CDistributeManager::CDistributeManager
EXTRN	??1CDistributeManager@@UAE@XZ:PROC		; CDistributeManager::~CDistributeManager
EXTRN	?RemoveAll@CDistributeManager@@QAEXXZ:PROC	; CDistributeManager::RemoveAll
EXTRN	?InsertDistributeNode@CDistributeManager@@QAEHABUtagDistributeInfo@@@Z:PROC ; CDistributeManager::InsertDistributeNode
EXTRN	?RemoveDistributeNode@CDistributeManager@@QAEXPAUtagDistributeNode@@@Z:PROC ; CDistributeManager::RemoveDistributeNode
EXTRN	?RemoveDistributeNode@CDistributeManager@@QAEXPAUIServerUserItem@@@Z:PROC ; CDistributeManager::RemoveDistributeNode
EXTRN	?PerformDistribute@CDistributeManager@@QAEGAAV?$CWHArray@UtagDistributeInfo@@ABU1@@@G@Z:PROC ; CDistributeManager::PerformDistribute
EXTRN	?SearchNode@CDistributeManager@@QAEPAUtagDistributeNode@@PAUIServerUserItem@@@Z:PROC ; CDistributeManager::SearchNode
EXTRN	?GetUserSameTableInfo@CDistributeManager@@QAEPAUtagSameTableInfo@@K@Z:PROC ; CDistributeManager::GetUserSameTableInfo
EXTRN	?RemoveUserSameTableInfo@CDistributeManager@@QAEXK@Z:PROC ; CDistributeManager::RemoveUserSameTableInfo
EXTRN	??_ECLockTimeMatch@@UAEPAXI@Z:PROC		; CLockTimeMatch::`vector deleting destructor'
EXTRN	??_E?$CWHArray@UtagDistributeInfo@@ABU1@@@UAEPAXI@Z:PROC ; CWHArray<tagDistributeInfo,tagDistributeInfo const &>::`vector deleting destructor'
EXTRN	@__security_check_cookie@4:PROC
EXTRN	___CxxFrameHandler3:PROC
EXTRN	__alldiv:PROC
EXTRN	_memset:PROC
EXTRN	??_7type_info@@6B@:QWORD			; type_info::`vftable'
EXTRN	___security_cookie:DWORD
;	COMDAT ?_OptionsStorage@?1??__local_stdio_printf_options@@9@4_KA
_BSS	SEGMENT
?_OptionsStorage@?1??__local_stdio_printf_options@@9@4_KA DQ 01H DUP (?) ; `__local_stdio_printf_options'::`2'::_OptionsStorage
_BSS	ENDS
;	COMDAT ?atlTraceException@ATL@@3V?$CTraceCategoryEx@$0CAAA@$0A@@1@A
_BSS	SEGMENT
?atlTraceException@ATL@@3V?$CTraceCategoryEx@$0CAAA@$0A@@1@A DD 01H DUP (?) ; ATL::atlTraceException
_BSS	ENDS
;	COMDAT ?m_nLevel@CTrace@ATL@@1IA
_BSS	SEGMENT
?m_nLevel@CTrace@ATL@@1IA DD 01H DUP (?)		; ATL::CTrace::m_nLevel
_BSS	ENDS
;	COMDAT ?m_nLastCategory@CTrace@ATL@@1IA
_BSS	SEGMENT
?m_nLastCategory@CTrace@ATL@@1IA DD 01H DUP (?)		; ATL::CTrace::m_nLastCategory
_BSS	ENDS
;	COMDAT ?m_nMap@CTrace@ATL@@1PAUCategoryMap@12@A
_BSS	SEGMENT
?m_nMap@CTrace@ATL@@1PAUCategoryMap@12@A DB 02080H DUP (?) ; ATL::CTrace::m_nMap
_BSS	ENDS
;	COMDAT CRT$XCU
CRT$XCU	SEGMENT
?atlTraceException$initializer$@ATL@@3P6AXXZA DD FLAT:??__EatlTraceException@ATL@@YAXXZ ; ATL::atlTraceException$initializer$
CRT$XCU	ENDS
;	COMDAT ??_R1A@?0A@EA@?$CWHArray@UtagDistributeInfo@@ABU1@@@8
rdata$r	SEGMENT
??_R1A@?0A@EA@?$CWHArray@UtagDistributeInfo@@ABU1@@@8 DD FLAT:??_R0?AV?$CWHArray@UtagDistributeInfo@@ABU1@@@@8 ; CWHArray<tagDistributeInfo,tagDistributeInfo const &>::`RTTI Base Class Descriptor at (0,-1,0,64)'
	DD	00H
	DD	00H
	DD	0ffffffffH
	DD	00H
	DD	040H
	DD	FLAT:??_R3?$CWHArray@UtagDistributeInfo@@ABU1@@@8
rdata$r	ENDS
;	COMDAT ??_R2?$CWHArray@UtagDistributeInfo@@ABU1@@@8
rdata$r	SEGMENT
??_R2?$CWHArray@UtagDistributeInfo@@ABU1@@@8 DD FLAT:??_R1A@?0A@EA@?$CWHArray@UtagDistributeInfo@@ABU1@@@8 ; CWHArray<tagDistributeInfo,tagDistributeInfo const &>::`RTTI Base Class Array'
rdata$r	ENDS
;	COMDAT ??_R3?$CWHArray@UtagDistributeInfo@@ABU1@@@8
rdata$r	SEGMENT
??_R3?$CWHArray@UtagDistributeInfo@@ABU1@@@8 DD 00H	; CWHArray<tagDistributeInfo,tagDistributeInfo const &>::`RTTI Class Hierarchy Descriptor'
	DD	00H
	DD	01H
	DD	FLAT:??_R2?$CWHArray@UtagDistributeInfo@@ABU1@@@8
rdata$r	ENDS
;	COMDAT ??_R0?AV?$CWHArray@UtagDistributeInfo@@ABU1@@@@8
data$r	SEGMENT
??_R0?AV?$CWHArray@UtagDistributeInfo@@ABU1@@@@8 DD FLAT:??_7type_info@@6B@ ; CWHArray<tagDistributeInfo,tagDistributeInfo const &> `RTTI Type Descriptor'
	DD	00H
	DB	'.?AV?$CWHArray@UtagDistributeInfo@@ABU1@@@', 00H
data$r	ENDS
;	COMDAT ??_R4?$CWHArray@UtagDistributeInfo@@ABU1@@@6B@
rdata$r	SEGMENT
??_R4?$CWHArray@UtagDistributeInfo@@ABU1@@@6B@ DD 00H	; CWHArray<tagDistributeInfo,tagDistributeInfo const &>::`RTTI Complete Object Locator'
	DD	00H
	DD	00H
	DD	FLAT:??_R0?AV?$CWHArray@UtagDistributeInfo@@ABU1@@@@8
	DD	FLAT:??_R3?$CWHArray@UtagDistributeInfo@@ABU1@@@8
rdata$r	ENDS
;	COMDAT ??_R4IMatchEventSink@@6B@
rdata$r	SEGMENT
??_R4IMatchEventSink@@6B@ DD 00H			; IMatchEventSink::`RTTI Complete Object Locator'
	DD	00H
	DD	00H
	DD	FLAT:??_R0?AUIMatchEventSink@@@8
	DD	FLAT:??_R3IMatchEventSink@@8
rdata$r	ENDS
;	COMDAT ??_R4IGameMatchItem@@6B@
rdata$r	SEGMENT
??_R4IGameMatchItem@@6B@ DD 00H				; IGameMatchItem::`RTTI Complete Object Locator'
	DD	00H
	DD	00H
	DD	FLAT:??_R0?AUIGameMatchItem@@@8
	DD	FLAT:??_R3IGameMatchItem@@8
rdata$r	ENDS
;	COMDAT ??_R4CLockTimeMatch@@6BIServerUserItemSink@@@
rdata$r	SEGMENT
??_R4CLockTimeMatch@@6BIServerUserItemSink@@@ DD 00H	; CLockTimeMatch::`RTTI Complete Object Locator'
	DD	08H
	DD	00H
	DD	FLAT:??_R0?AVCLockTimeMatch@@@8
	DD	FLAT:??_R3CLockTimeMatch@@8
rdata$r	ENDS
;	COMDAT ??_R4CLockTimeMatch@@6BIMatchEventSink@@@
rdata$r	SEGMENT
??_R4CLockTimeMatch@@6BIMatchEventSink@@@ DD 00H	; CLockTimeMatch::`RTTI Complete Object Locator'
	DD	04H
	DD	00H
	DD	FLAT:??_R0?AVCLockTimeMatch@@@8
	DD	FLAT:??_R3CLockTimeMatch@@8
rdata$r	ENDS
;	COMDAT ??_R17?0A@EC@IUnknownEx@@8
rdata$r	SEGMENT
??_R17?0A@EC@IUnknownEx@@8 DD FLAT:??_R0?AUIUnknownEx@@@8 ; IUnknownEx::`RTTI Base Class Descriptor at (8,-1,0,66)'
	DD	00H
	DD	08H
	DD	0ffffffffH
	DD	00H
	DD	042H
	DD	FLAT:??_R3IUnknownEx@@8
rdata$r	ENDS
;	COMDAT ??_R17?0A@EA@IServerUserItemSink@@8
rdata$r	SEGMENT
??_R17?0A@EA@IServerUserItemSink@@8 DD FLAT:??_R0?AUIServerUserItemSink@@@8 ; IServerUserItemSink::`RTTI Base Class Descriptor at (8,-1,0,64)'
	DD	01H
	DD	08H
	DD	0ffffffffH
	DD	00H
	DD	040H
	DD	FLAT:??_R3IServerUserItemSink@@8
rdata$r	ENDS
;	COMDAT ??_R13?0A@EC@IUnknownEx@@8
rdata$r	SEGMENT
??_R13?0A@EC@IUnknownEx@@8 DD FLAT:??_R0?AUIUnknownEx@@@8 ; IUnknownEx::`RTTI Base Class Descriptor at (4,-1,0,66)'
	DD	00H
	DD	04H
	DD	0ffffffffH
	DD	00H
	DD	042H
	DD	FLAT:??_R3IUnknownEx@@8
rdata$r	ENDS
;	COMDAT ??_R1A@?0A@EA@IMatchEventSink@@8
rdata$r	SEGMENT
??_R1A@?0A@EA@IMatchEventSink@@8 DD FLAT:??_R0?AUIMatchEventSink@@@8 ; IMatchEventSink::`RTTI Base Class Descriptor at (0,-1,0,64)'
	DD	01H
	DD	00H
	DD	0ffffffffH
	DD	00H
	DD	040H
	DD	FLAT:??_R3IMatchEventSink@@8
rdata$r	ENDS
;	COMDAT ??_R2IMatchEventSink@@8
rdata$r	SEGMENT
??_R2IMatchEventSink@@8 DD FLAT:??_R1A@?0A@EA@IMatchEventSink@@8 ; IMatchEventSink::`RTTI Base Class Array'
	DD	FLAT:??_R1A@?0A@EA@IUnknownEx@@8
rdata$r	ENDS
;	COMDAT ??_R3IMatchEventSink@@8
rdata$r	SEGMENT
??_R3IMatchEventSink@@8 DD 00H				; IMatchEventSink::`RTTI Class Hierarchy Descriptor'
	DD	00H
	DD	02H
	DD	FLAT:??_R2IMatchEventSink@@8
rdata$r	ENDS
;	COMDAT ??_R0?AUIMatchEventSink@@@8
data$r	SEGMENT
??_R0?AUIMatchEventSink@@@8 DD FLAT:??_7type_info@@6B@	; IMatchEventSink `RTTI Type Descriptor'
	DD	00H
	DB	'.?AUIMatchEventSink@@', 00H
data$r	ENDS
;	COMDAT ??_R13?0A@EA@IMatchEventSink@@8
rdata$r	SEGMENT
??_R13?0A@EA@IMatchEventSink@@8 DD FLAT:??_R0?AUIMatchEventSink@@@8 ; IMatchEventSink::`RTTI Base Class Descriptor at (4,-1,0,64)'
	DD	01H
	DD	04H
	DD	0ffffffffH
	DD	00H
	DD	040H
	DD	FLAT:??_R3IMatchEventSink@@8
rdata$r	ENDS
;	COMDAT ??_R1A@?0A@EC@IUnknownEx@@8
rdata$r	SEGMENT
??_R1A@?0A@EC@IUnknownEx@@8 DD FLAT:??_R0?AUIUnknownEx@@@8 ; IUnknownEx::`RTTI Base Class Descriptor at (0,-1,0,66)'
	DD	00H
	DD	00H
	DD	0ffffffffH
	DD	00H
	DD	042H
	DD	FLAT:??_R3IUnknownEx@@8
rdata$r	ENDS
;	COMDAT ??_R2IGameMatchItem@@8
rdata$r	SEGMENT
??_R2IGameMatchItem@@8 DD FLAT:??_R1A@?0A@EA@IGameMatchItem@@8 ; IGameMatchItem::`RTTI Base Class Array'
	DD	FLAT:??_R1A@?0A@EA@IUnknownEx@@8
rdata$r	ENDS
;	COMDAT ??_R3IGameMatchItem@@8
rdata$r	SEGMENT
??_R3IGameMatchItem@@8 DD 00H				; IGameMatchItem::`RTTI Class Hierarchy Descriptor'
	DD	00H
	DD	02H
	DD	FLAT:??_R2IGameMatchItem@@8
rdata$r	ENDS
;	COMDAT ??_R0?AUIGameMatchItem@@@8
data$r	SEGMENT
??_R0?AUIGameMatchItem@@@8 DD FLAT:??_7type_info@@6B@	; IGameMatchItem `RTTI Type Descriptor'
	DD	00H
	DB	'.?AUIGameMatchItem@@', 00H
data$r	ENDS
;	COMDAT ??_R1A@?0A@EA@IGameMatchItem@@8
rdata$r	SEGMENT
??_R1A@?0A@EA@IGameMatchItem@@8 DD FLAT:??_R0?AUIGameMatchItem@@@8 ; IGameMatchItem::`RTTI Base Class Descriptor at (0,-1,0,64)'
	DD	01H
	DD	00H
	DD	0ffffffffH
	DD	00H
	DD	040H
	DD	FLAT:??_R3IGameMatchItem@@8
rdata$r	ENDS
;	COMDAT ??_R1A@?0A@EA@CLockTimeMatch@@8
rdata$r	SEGMENT
??_R1A@?0A@EA@CLockTimeMatch@@8 DD FLAT:??_R0?AVCLockTimeMatch@@@8 ; CLockTimeMatch::`RTTI Base Class Descriptor at (0,-1,0,64)'
	DD	06H
	DD	00H
	DD	0ffffffffH
	DD	00H
	DD	040H
	DD	FLAT:??_R3CLockTimeMatch@@8
rdata$r	ENDS
;	COMDAT ??_R2CLockTimeMatch@@8
rdata$r	SEGMENT
??_R2CLockTimeMatch@@8 DD FLAT:??_R1A@?0A@EA@CLockTimeMatch@@8 ; CLockTimeMatch::`RTTI Base Class Array'
	DD	FLAT:??_R1A@?0A@EA@IGameMatchItem@@8
	DD	FLAT:??_R1A@?0A@EC@IUnknownEx@@8
	DD	FLAT:??_R13?0A@EA@IMatchEventSink@@8
	DD	FLAT:??_R13?0A@EC@IUnknownEx@@8
	DD	FLAT:??_R17?0A@EA@IServerUserItemSink@@8
	DD	FLAT:??_R17?0A@EC@IUnknownEx@@8
rdata$r	ENDS
;	COMDAT ??_R3CLockTimeMatch@@8
rdata$r	SEGMENT
??_R3CLockTimeMatch@@8 DD 00H				; CLockTimeMatch::`RTTI Class Hierarchy Descriptor'
	DD	05H
	DD	07H
	DD	FLAT:??_R2CLockTimeMatch@@8
rdata$r	ENDS
;	COMDAT ??_R0?AVCLockTimeMatch@@@8
data$r	SEGMENT
??_R0?AVCLockTimeMatch@@@8 DD FLAT:??_7type_info@@6B@	; CLockTimeMatch `RTTI Type Descriptor'
	DD	00H
	DB	'.?AVCLockTimeMatch@@', 00H
data$r	ENDS
;	COMDAT ??_R4CLockTimeMatch@@6BIGameMatchItem@@@
rdata$r	SEGMENT
??_R4CLockTimeMatch@@6BIGameMatchItem@@@ DD 00H		; CLockTimeMatch::`RTTI Complete Object Locator'
	DD	00H
	DD	00H
	DD	FLAT:??_R0?AVCLockTimeMatch@@@8
	DD	FLAT:??_R3CLockTimeMatch@@8
rdata$r	ENDS
;	COMDAT ??_R1A@?0A@EA@IServerUserItemSink@@8
rdata$r	SEGMENT
??_R1A@?0A@EA@IServerUserItemSink@@8 DD FLAT:??_R0?AUIServerUserItemSink@@@8 ; IServerUserItemSink::`RTTI Base Class Descriptor at (0,-1,0,64)'
	DD	01H
	DD	00H
	DD	0ffffffffH
	DD	00H
	DD	040H
	DD	FLAT:??_R3IServerUserItemSink@@8
rdata$r	ENDS
;	COMDAT ??_R2IServerUserItemSink@@8
rdata$r	SEGMENT
??_R2IServerUserItemSink@@8 DD FLAT:??_R1A@?0A@EA@IServerUserItemSink@@8 ; IServerUserItemSink::`RTTI Base Class Array'
	DD	FLAT:??_R1A@?0A@EA@IUnknownEx@@8
rdata$r	ENDS
;	COMDAT ??_R3IServerUserItemSink@@8
rdata$r	SEGMENT
??_R3IServerUserItemSink@@8 DD 00H			; IServerUserItemSink::`RTTI Class Hierarchy Descriptor'
	DD	00H
	DD	02H
	DD	FLAT:??_R2IServerUserItemSink@@8
rdata$r	ENDS
;	COMDAT ??_R0?AUIServerUserItemSink@@@8
data$r	SEGMENT
??_R0?AUIServerUserItemSink@@@8 DD FLAT:??_7type_info@@6B@ ; IServerUserItemSink `RTTI Type Descriptor'
	DD	00H
	DB	'.?AUIServerUserItemSink@@', 00H
data$r	ENDS
;	COMDAT ??_R4IServerUserItemSink@@6B@
rdata$r	SEGMENT
??_R4IServerUserItemSink@@6B@ DD 00H			; IServerUserItemSink::`RTTI Complete Object Locator'
	DD	00H
	DD	00H
	DD	FLAT:??_R0?AUIServerUserItemSink@@@8
	DD	FLAT:??_R3IServerUserItemSink@@8
rdata$r	ENDS
;	COMDAT ??_R1A@?0A@EA@IUnknownEx@@8
rdata$r	SEGMENT
??_R1A@?0A@EA@IUnknownEx@@8 DD FLAT:??_R0?AUIUnknownEx@@@8 ; IUnknownEx::`RTTI Base Class Descriptor at (0,-1,0,64)'
	DD	00H
	DD	00H
	DD	0ffffffffH
	DD	00H
	DD	040H
	DD	FLAT:??_R3IUnknownEx@@8
rdata$r	ENDS
;	COMDAT ??_R2IUnknownEx@@8
rdata$r	SEGMENT
??_R2IUnknownEx@@8 DD FLAT:??_R1A@?0A@EA@IUnknownEx@@8	; IUnknownEx::`RTTI Base Class Array'
rdata$r	ENDS
;	COMDAT ??_R3IUnknownEx@@8
rdata$r	SEGMENT
??_R3IUnknownEx@@8 DD 00H				; IUnknownEx::`RTTI Class Hierarchy Descriptor'
	DD	00H
	DD	01H
	DD	FLAT:??_R2IUnknownEx@@8
rdata$r	ENDS
;	COMDAT ??_R0?AUIUnknownEx@@@8
data$r	SEGMENT
??_R0?AUIUnknownEx@@@8 DD FLAT:??_7type_info@@6B@	; IUnknownEx `RTTI Type Descriptor'
	DD	00H
	DB	'.?AUIUnknownEx@@', 00H
data$r	ENDS
;	COMDAT ??_R4IUnknownEx@@6B@
rdata$r	SEGMENT
??_R4IUnknownEx@@6B@ DD 00H				; IUnknownEx::`RTTI Complete Object Locator'
	DD	00H
	DD	00H
	DD	FLAT:??_R0?AUIUnknownEx@@@8
	DD	FLAT:??_R3IUnknownEx@@8
rdata$r	ENDS
;	COMDAT ??_C@_0DF@LDFGAABH@g?3?2?M?x?$LK?$PM?2happygamewh?2?$LH?$PO?N?q?$LG?K?2?O?$LF?M?$LD@
CONST	SEGMENT
??_C@_0DF@LDFGAABH@g?3?2?M?x?$LK?$PM?2happygamewh?2?$LH?$PO?N?q?$LG?K?2?O?$LF?M?$LD@ DB 'g'
	DB	':\', 0cdH, 0f8H, 0baH, 0fcH, '\happygamewh\', 0b7H, 0feH, 0ceH
	DB	0f1H, 0b6H, 0cbH, '\', 0cfH, 0b5H, 0cdH, 0b3H, 0c4H, 0a3H, 0bfH
	DB	0e9H, '\', 0c8H, 0abH, 0beH, 0d6H, 0b6H, 0a8H, 0d2H, 0e5H, '\a'
	DB	'rray.h', 00H				; `string'
CONST	ENDS
;	COMDAT ?__LINE__Var@?0??WriteUserAward@CLockTimeMatch@@IAE_NPAUIServerUserItem@@PAUtagMatchRankInfo@@@Z@4JA
_DATA	SEGMENT
?__LINE__Var@?0??WriteUserAward@CLockTimeMatch@@IAE_NPAUIServerUserItem@@PAUtagMatchRankInfo@@@Z@4JA DD 0a1dH ; `CLockTimeMatch::WriteUserAward'::`1'::__LINE__Var
_DATA	ENDS
;	COMDAT ??_C@_0BD@NHCOODCL@?$LO?V?V?F?C?$PL?$LD?F?$KD?$LK?$LG?$KI?J?$LB?$LP?$KK?H?$PM@
CONST	SEGMENT
??_C@_0BD@NHCOODCL@?$LO?V?V?F?C?$PL?$LD?F?$KD?$LK?$LG?$KI?J?$LB?$LP?$KK?H?$PM@ DB 0beH
	DB	0d6H, 0d6H, 0c6H, 0c3H, 0fbH, 0b3H, 0c6H, 0a3H, 0baH, 0b6H, 0a8H
	DB	0caH, 0b1H, 0bfH, 0aaH, 0c8H, 0fcH, 00H	; `string'
CONST	ENDS
;	COMDAT ??_C@_0N@JCGEHOBO@?S?N?O?$LH?$LL?y?J?$PN?$KD?$LK?$CFd@
CONST	SEGMENT
??_C@_0N@JCGEHOBO@?S?N?O?$LH?$LL?y?J?$PN?$KD?$LK?$CFd@ DB 0d3H, 0ceH, 0cfH
	DB	0b7H, 0bbH, 0f9H, 0caH, 0fdH, 0a3H, 0baH, '%d', 00H ; `string'
CONST	ENDS
;	COMDAT ??_C@_0BD@KNNGNBNI@?$LL?$PN?$LH?V?$LH?$LN?J?$LN?$KD?$LK?$MA?$NL?$LM?F?$LL?$PN?$LH?V@
CONST	SEGMENT
??_C@_0BD@KNNGNBNI@?$LL?$PN?$LH?V?$LH?$LN?J?$LN?$KD?$LK?$MA?$NL?$LM?F?$LL?$PN?$LH?V@ DB 0bbH
	DB	0fdH, 0b7H, 0d6H, 0b7H, 0bdH, 0caH, 0bdH, 0a3H, 0baH, 0c0H, 0dbH
	DB	0bcH, 0c6H, 0bbH, 0fdH, 0b7H, 0d6H, 00H	; `string'
CONST	ENDS
;	COMDAT ?__LINE__Var@?0??SendTableUserMatchInfo@CLockTimeMatch@@IAEXPAUITableFrame@@G@Z@4JA
_DATA	SEGMENT
?__LINE__Var@?0??SendTableUserMatchInfo@CLockTimeMatch@@IAEXPAUITableFrame@@G@Z@4JA DD 09f9H ; `CLockTimeMatch::SendTableUserMatchInfo'::`1'::__LINE__Var
_DATA	ENDS
;	COMDAT ?__LINE__Var@?0??RemoveDistribute@CLockTimeMatch@@IAE_NPAUIServerUserItem@@@Z@4JA
_DATA	SEGMENT
?__LINE__Var@?0??RemoveDistribute@CLockTimeMatch@@IAE_NPAUIServerUserItem@@@Z@4JA DD 09ebH ; `CLockTimeMatch::RemoveDistribute'::`1'::__LINE__Var
_DATA	ENDS
;	COMDAT ??_C@_0CH@JFAMEAMK@?$LJ?$KH?O?$LC?D?z?$KD?$KM?$LB?$KI?C?$PL?$LD?I?$LJ?$KG?$KD?$KM?G?k?$LN?l?J?$LB?G?$LA?$MA?$LE?$LC?N?$LM@
CONST	SEGMENT
??_C@_0CH@JFAMEAMK@?$LJ?$KH?O?$LC?D?z?$KD?$KM?$LB?$KI?C?$PL?$LD?I?$LJ?$KG?$KD?$KM?G?k?$LN?l?J?$LB?G?$LA?$MA?$LE?$LC?N?$LM@ DB 0b9H
	DB	0a7H, 0cfH, 0b2H, 0c4H, 0faH, 0a3H, 0acH, 0b1H, 0a8H, 0c3H, 0fbH
	DB	0b3H, 0c9H, 0b9H, 0a6H, 0a3H, 0acH, 0c7H, 0ebH, 0bdH, 0ecH, 0caH
	DB	0b1H, 0c7H, 0b0H, 0c0H, 0b4H, 0b2H, 0ceH, 0bcH, 0d3H, 0b1H, 0c8H
	DB	0c8H, 0fcH, 0a3H, 0a1H, 00H			; `string'
CONST	ENDS
;	COMDAT ??_C@_0CL@LKBHCBDE@?$LJ?$KH?O?$LC?D?z?$KD?$KM?$LB?$KI?C?$PL?$LD?I?$LJ?$KG?$KD?$KM?G?k?$LF?H?$LE?$PN?O?$LF?M?$LD?N?$KK?D@
CONST	SEGMENT
??_C@_0CL@LKBHCBDE@?$LJ?$KH?O?$LC?D?z?$KD?$KM?$LB?$KI?C?$PL?$LD?I?$LJ?$KG?$KD?$KM?G?k?$LF?H?$LE?$PN?O?$LF?M?$LD?N?$KK?D@ DB 0b9H
	DB	0a7H, 0cfH, 0b2H, 0c4H, 0faH, 0a3H, 0acH, 0b1H, 0a8H, 0c3H, 0fbH
	DB	0b3H, 0c9H, 0b9H, 0a6H, 0a3H, 0acH, 0c7H, 0ebH, 0b5H, 0c8H, 0b4H
	DB	0fdH, 0cfH, 0b5H, 0cdH, 0b3H, 0ceH, 0aaH, 0c4H, 0faH, 0b7H, 0d6H
	DB	0c5H, 0e4H, 0d7H, 0f9H, 0ceH, 0bbH, 0a3H, 0a1H, 00H ; `string'
CONST	ENDS
;	COMDAT ??_C@_0CK@KBNEFBOJ@?$LC?N?H?$PM?$LN?$KL?$LP?$NL?$LD?$PN?$LB?$KI?C?$PL?$LH?Q?5?$CFI64d?5?$CFs?$KD?$KM?H?$LH?H?O@
CONST	SEGMENT
??_C@_0CK@KBNEFBOJ@?$LC?N?H?$PM?$LN?$KL?$LP?$NL?$LD?$PN?$LB?$KI?C?$PL?$LH?Q?5?$CFI64d?5?$CFs?$KD?$KM?H?$LH?H?O@ DB 0b2H
	DB	0ceH, 0c8H, 0fcH, 0bdH, 0abH, 0bfH, 0dbH, 0b3H, 0fdH, 0b1H, 0a8H
	DB	0c3H, 0fbH, 0b7H, 0d1H, ' %I64d %s', 0a3H, 0acH, 0c8H, 0b7H, 0c8H
	DB	0cfH, 0d2H, 0aaH, 0b2H, 0ceH, 0c8H, 0fcH, 0c2H, 0f0H, 0a3H, 0bfH
	DB	00H						; `string'
CONST	ENDS
;	COMDAT ??_C@_04FLLPKHFC@?T?$KK?$LB?$KG@
CONST	SEGMENT
??_C@_04FLLPKHFC@?T?$KK?$LB?$KG@ DB 0d4H, 0aaH, 0b1H, 0a6H, 00H ; `string'
CONST	ENDS
;	COMDAT ??_C@_06EPCIHMAO@?S?N?O?$LH?$LB?R@
CONST	SEGMENT
??_C@_06EPCIHMAO@?S?N?O?$LH?$LB?R@ DB 0d3H, 0ceH, 0cfH, 0b7H, 0b1H, 0d2H, 00H ; `string'
CONST	ENDS
;	COMDAT ??_C@_0FK@LABKGBIM@?$LJ?$KH?O?$LC?D?z?$LB?$KI?C?$PL?$LD?I?$LJ?$KG?$KD?$KB?$LB?$LO?$LD?$KB?$LB?H?H?$PM?$LD?v?J?$NL?$LB?$KD?O@
CONST	SEGMENT
??_C@_0FK@LABKGBIM@?$LJ?$KH?O?$LC?D?z?$LB?$KI?C?$PL?$LD?I?$LJ?$KG?$KD?$KB?$LB?$LO?$LD?$KB?$LB?H?H?$PM?$LD?v?J?$NL?$LB?$KD?O@ DB 0b9H
	DB	0a7H, 0cfH, 0b2H, 0c4H, 0faH, 0b1H, 0a8H, 0c3H, 0fbH, 0b3H, 0c9H
	DB	0b9H, 0a6H, 0a3H, 0a1H, 0b1H, 0beH, 0b3H, 0a1H, 0b1H, 0c8H, 0c8H
	DB	0fcH, 0b3H, 0f6H, 0caH, 0dbH, 0b1H, 0a3H, 0cfH, 0d5H, 0bfH, 0a8H
	DB	', ', 0b1H, 0bbH, 0ccH, 0d4H, 0ccH, 0adH, 0bfH, 0c9H, 0c3H, 0e2H
	DB	0b7H, 0d1H, 0b8H, 0b4H, 0bbH, 0eeH, 0d2H, 0bbH, 0b4H, 0ceH, 0a3H
	DB	0acH, 0caH, 0dbH, 0bcH, 0dbH, ' %I64d ', 0bdH, 0f0H, 0b1H, 0d2H
	DB	0a3H, 0acH, 0c4H, 0faH, 0caH, 0c7H, 0b7H, 0f1H, 0d2H, 0aaH, 0b9H
	DB	0baH, 0c2H, 0f2H, 0a3H, 0bfH, 00H		; `string'
CONST	ENDS
;	COMDAT ??_C@_0FA@CPFANEOM@?D?z?$LF?D?$LB?H?H?$PM?$LB?R?$LF?M?S?Z?5?$CFd?$KD?$KM?$LN?$KL?$LC?$LL?D?$NM?$LM?L?P?x?S?N@
CONST	SEGMENT
??_C@_0FA@CPFANEOM@?D?z?$LF?D?$LB?H?H?$PM?$LB?R?$LF?M?S?Z?5?$CFd?$KD?$KM?$LN?$KL?$LC?$LL?D?$NM?$LM?L?P?x?S?N@ DB 0c4H
	DB	0faH, 0b5H, 0c4H, 0b1H, 0c8H, 0c8H, 0fcH, 0b1H, 0d2H, 0b5H, 0cdH
	DB	0d3H, 0daH, ' %d', 0a3H, 0acH, 0bdH, 0abH, 0b2H, 0bbH, 0c4H, 0dcH
	DB	0bcH, 0ccH, 0d0H, 0f8H, 0d3H, 0ceH, 0cfH, 0b7H, 0a1H, 0a3H, 0d3H
	DB	0c9H, 0d3H, 0daH, 0c4H, 0faH, 0b9H, 0baH, 0c2H, 0f2H, 0c1H, 0cbH
	DB	0b1H, 0a3H, 0cfH, 0d5H, 0bfH, 0a8H, 0a3H, 0acH, 0cfH, 0b5H, 0cdH
	DB	0b3H, 0bdH, 0abH, 0c3H, 0e2H, 0b7H, 0d1H, 0ceH, 0aaH, 0c4H, 0faH
	DB	0b8H, 0b4H, 0bbH, 0eeH, 0d2H, 0bbH, 0b4H, 0ceH, 0a3H, 0a1H, 00H ; `string'
CONST	ENDS
;	COMDAT ??_C@_0FM@EDKOAGPM@?D?z?$LF?D?$LB?H?H?$PM?$LB?R?$LF?M?S?Z?5?$CFd?$KD?$KM?$LN?$KL?$LC?$LL?D?$NM?$LM?L?P?x?S?N@
CONST	SEGMENT
??_C@_0FM@EDKOAGPM@?D?z?$LF?D?$LB?H?H?$PM?$LB?R?$LF?M?S?Z?5?$CFd?$KD?$KM?$LN?$KL?$LC?$LL?D?$NM?$LM?L?P?x?S?N@ DB 0c4H
	DB	0faH, 0b5H, 0c4H, 0b1H, 0c8H, 0c8H, 0fcH, 0b1H, 0d2H, 0b5H, 0cdH
	DB	0d3H, 0daH, ' %d', 0a3H, 0acH, 0bdH, 0abH, 0b2H, 0bbH, 0c4H, 0dcH
	DB	0bcH, 0ccH, 0d0H, 0f8H, 0d3H, 0ceH, 0cfH, 0b7H, 0a1H, 0a3H, ' '
	DB	0c4H, 0faH, 0d6H, 0bbH, 0d0H, 0e8H, 0d6H, 0a7H, 0b8H, 0b6H, ' '
	DB	'%I64d ', 0bdH, 0f0H, 0b1H, 0d2H, 0b1H, 0e3H, 0bfH, 0c9H, 0b8H
	DB	0b4H, 0bbH, 0eeH, 0bcH, 0ccH, 0d0H, 0f8H, 0b1H, 0c8H, 0c8H, 0fcH
	DB	0a3H, 0acH, 0c4H, 0faH, 0c8H, 0b7H, 0b6H, 0a8H, 0d2H, 0aaH, 0b8H
	DB	0b4H, 0bbH, 0eeH, 0c2H, 0f0H, 0a3H, 0bfH, 00H ; `string'
CONST	ENDS
;	COMDAT ??_C@_0DK@LADIJLOB@?$LB?H?H?$PM?$LB?$KI?C?$PL?I?P?N?$LE?$LP?$KK?J?$LM?0?G?k?D?z?S?Z?$LN?q?L?l?$CFd?J?$LB@
CONST	SEGMENT
??_C@_0DK@LADIJLOB@?$LB?H?H?$PM?$LB?$KI?C?$PL?I?P?N?$LE?$LP?$KK?J?$LM?0?G?k?D?z?S?Z?$LN?q?L?l?$CFd?J?$LB@ DB 0b1H
	DB	0c8H, 0c8H, 0fcH, 0b1H, 0a8H, 0c3H, 0fbH, 0c9H, 0d0H, 0ceH, 0b4H
	DB	0bfH, 0aaH, 0caH, 0bcH, ',', 0c7H, 0ebH, 0c4H, 0faH, 0d3H, 0daH
	DB	0bdH, 0f1H, 0ccH, 0ecH, '%d', 0caH, 0b1H, '%d', 0b7H, 0d6H, '%'
	DB	'd', 0c3H, 0ebH, 0c7H, 0b0H, 0c0H, 0b4H, 0b1H, 0a8H, 0c3H, 0fbH
	DB	0b2H, 0ceH, 0bcH, 0d3H, 0b1H, 0c8H, 0c8H, 0fcH, 0a3H, 0a1H, 00H ; `string'
CONST	ENDS
;	COMDAT ??_C@_0EK@KKHDFNFN@?$LB?H?H?$PM?$LB?$KI?C?$PL?I?P?N?$LE?$LP?$KK?J?$LM?0?$LB?$LO?$LD?$KB?$LB?H?H?$PM?$LB?$KI?C?$PL?J?$LB@
CONST	SEGMENT
??_C@_0EK@KKHDFNFN@?$LB?H?H?$PM?$LB?$KI?C?$PL?I?P?N?$LE?$LP?$KK?J?$LM?0?$LB?$LO?$LD?$KB?$LB?H?H?$PM?$LB?$KI?C?$PL?J?$LB@ DB 0b1H
	DB	0c8H, 0c8H, 0fcH, 0b1H, 0a8H, 0c3H, 0fbH, 0c9H, 0d0H, 0ceH, 0b4H
	DB	0bfH, 0aaH, 0caH, 0bcH, ',', 0b1H, 0beH, 0b3H, 0a1H, 0b1H, 0c8H
	DB	0c8H, 0fcH, 0b1H, 0a8H, 0c3H, 0fbH, 0caH, 0b1H, 0b6H, 0ceH, 0ceH
	DB	0aaH, 0a3H, 0baH, '%d-%d-%d %d:%d:%d', 0d6H, 0c1H, '%d-%d-%d %'
	DB	'd:%d:%d', 00H				; `string'
CONST	ENDS
;	COMDAT ??_C@_0DI@NBAMOMBH@?$LN?q?L?l?$LF?D?$LB?H?H?$PM?R?Q?$LO?$KN?$LN?a?J?x?0?G?k?D?z?S?Z?C?w?L?l?$CFd@
CONST	SEGMENT
??_C@_0DI@NBAMOMBH@?$LN?q?L?l?$LF?D?$LB?H?H?$PM?R?Q?$LO?$KN?$LN?a?J?x?0?G?k?D?z?S?Z?C?w?L?l?$CFd@ DB 0bdH
	DB	0f1H, 0ccH, 0ecH, 0b5H, 0c4H, 0b1H, 0c8H, 0c8H, 0fcH, 0d2H, 0d1H
	DB	0beH, 0adH, 0bdH, 0e1H, 0caH, 0f8H, ',', 0c7H, 0ebH, 0c4H, 0faH
	DB	0d3H, 0daH, 0c3H, 0f7H, 0ccH, 0ecH, '%d', 0caH, 0b1H, '%d', 0b7H
	DB	0d6H, '%d', 0c3H, 0ebH, 0c7H, 0b0H, 0c0H, 0b4H, 0b2H, 0ceH, 0bcH
	DB	0d3H, 0b1H, 0c8H, 0c8H, 0fcH, 0a3H, 0a1H, 00H ; `string'
CONST	ENDS
;	COMDAT ??_C@_0DA@MIICOPIN@?$LB?H?H?$PM?R?Q?$LO?$KN?$LN?a?J?x?0?G?k?D?z?R?F?$LM?$NN?V?A?F?d?K?$PL?$LB?H?H?$PM@
CONST	SEGMENT
??_C@_0DA@MIICOPIN@?$LB?H?H?$PM?R?Q?$LO?$KN?$LN?a?J?x?0?G?k?D?z?R?F?$LM?$NN?V?A?F?d?K?$PL?$LB?H?H?$PM@ DB 0b1H
	DB	0c8H, 0c8H, 0fcH, 0d2H, 0d1H, 0beH, 0adH, 0bdH, 0e1H, 0caH, 0f8H
	DB	',', 0c7H, 0ebH, 0c4H, 0faH, 0d2H, 0c6H, 0bcH, 0ddH, 0d6H, 0c1H
	DB	0c6H, 0e4H, 0cbH, 0fbH, 0b1H, 0c8H, 0c8H, 0fcH, 0b7H, 0bfH, 0bcH
	DB	0e4H, 0b2H, 0ceH, 0d3H, 0ebH, 0b1H, 0c8H, 0c8H, 0fcH, 0b0H, 0c9H
	DB	0a3H, 0a1H, 00H				; `string'
CONST	ENDS
;	COMDAT ?__LINE__Var@?0??InsertDistribute@CLockTimeMatch@@IAE_NPAUIServerUserItem@@@Z@4JA
_DATA	SEGMENT
?__LINE__Var@?0??InsertDistribute@CLockTimeMatch@@IAE_NPAUIServerUserItem@@@Z@4JA DD 08b0H ; `CLockTimeMatch::InsertDistribute'::`1'::__LINE__Var
_DATA	ENDS
;	COMDAT ??_7?$CWHArray@UtagDistributeInfo@@ABU1@@@6B@
CONST	SEGMENT
??_7?$CWHArray@UtagDistributeInfo@@ABU1@@@6B@ DD FLAT:??_R4?$CWHArray@UtagDistributeInfo@@ABU1@@@6B@ ; CWHArray<tagDistributeInfo,tagDistributeInfo const &>::`vftable'
	DD	FLAT:??_E?$CWHArray@UtagDistributeInfo@@ABU1@@@UAEPAXI@Z
CONST	ENDS
;	COMDAT ?__LINE__Var@?0??PerformDistribute@CLockTimeMatch@@IAE_NXZ@4JA
_DATA	SEGMENT
?__LINE__Var@?0??PerformDistribute@CLockTimeMatch@@IAE_NXZ@4JA DD 07d8H ; `CLockTimeMatch::PerformDistribute'::`1'::__LINE__Var
_DATA	ENDS
;	COMDAT ?__LINE__Var@?0??PerformAllUserStandUp@CLockTimeMatch@@IAEXPAUITableFrame@@@Z@4JA
_DATA	SEGMENT
?__LINE__Var@?0??PerformAllUserStandUp@CLockTimeMatch@@IAEXPAUITableFrame@@@Z@4JA DD 07a9H ; `CLockTimeMatch::PerformAllUserStandUp'::`1'::__LINE__Var
_DATA	ENDS
;	COMDAT ??_C@_0EB@IICMIGNG@?D?z?R?Q?M?j?$LD?I?5?$CFd?5?$LO?V?$LB?H?H?$PM?$KD?$KM?D?z?$LN?$KL?$LC?$LL?D?$NM?$LM?L?P@
CONST	SEGMENT
??_C@_0EB@IICMIGNG@?D?z?R?Q?M?j?$LD?I?5?$CFd?5?$LO?V?$LB?H?H?$PM?$KD?$KM?D?z?$LN?$KL?$LC?$LL?D?$NM?$LM?L?P@ DB 0c4H
	DB	0faH, 0d2H, 0d1H, 0cdH, 0eaH, 0b3H, 0c9H, ' %d ', 0beH, 0d6H, 0b1H
	DB	0c8H, 0c8H, 0fcH, 0a3H, 0acH, 0c4H, 0faH, 0bdH, 0abH, 0b2H, 0bbH
	DB	0c4H, 0dcH, 0bcH, 0ccH, 0d0H, 0f8H, 0d3H, 0ceH, 0cfH, 0b7H, 0a3H
	DB	0acH, 0c7H, 0ebH, 0b5H, 0c8H, 0b4H, 0fdH, 0b1H, 0c8H, 0c8H, 0fcH
	DB	0bdH, 0e1H, 0caH, 0f8H, 0c0H, 0b4H, 0b2H, 0e9H, 0bfH, 0b4H, 0c5H
	DB	0c5H, 0c3H, 0fbH, 0a3H, 0a1H, 00H		; `string'
CONST	ENDS
;	COMDAT ??_C@_0CK@MEIIMJBH@?S?I?S?Z?D?z?$LF?D?$LB?H?H?$PM?$LB?R?$LF?M?S?Z?5?$CFd?$KD?$KM?D?z?$LN?$KL?$LC?$LL?D?$NM@
CONST	SEGMENT
??_C@_0CK@MEIIMJBH@?S?I?S?Z?D?z?$LF?D?$LB?H?H?$PM?$LB?R?$LF?M?S?Z?5?$CFd?$KD?$KM?D?z?$LN?$KL?$LC?$LL?D?$NM@ DB 0d3H
	DB	0c9H, 0d3H, 0daH, 0c4H, 0faH, 0b5H, 0c4H, 0b1H, 0c8H, 0c8H, 0fcH
	DB	0b1H, 0d2H, 0b5H, 0cdH, 0d3H, 0daH, ' %d', 0a3H, 0acH, 0c4H, 0faH
	DB	0bdH, 0abH, 0b2H, 0bbH, 0c4H, 0dcH, 0bcH, 0ccH, 0d0H, 0f8H, 0d3H
	DB	0ceH, 0cfH, 0b7H, 0a3H, 0a1H, 00H		; `string'
CONST	ENDS
;	COMDAT ?__LINE__Var@?0??VerifyUserEnterMatch@CLockTimeMatch@@AAE_NPAUIServerUserItem@@@Z@4JA
_DATA	SEGMENT
?__LINE__Var@?0??VerifyUserEnterMatch@CLockTimeMatch@@AAE_NPAUIServerUserItem@@@Z@4JA DD 0710H ; `CLockTimeMatch::VerifyUserEnterMatch'::`1'::__LINE__Var
_DATA	ENDS
;	COMDAT ??_C@_0DC@JLJHDNKI@?S?I?S?Z?M?f?$LM?R?$MA?k?$LP?$KK?$KD?$KM?O?$LF?M?$LD?U?$PN?T?Z?N?$KK?D?z?V?X?P?B?$LH@
CONST	SEGMENT
??_C@_0DC@JLJHDNKI@?S?I?S?Z?M?f?$LM?R?$MA?k?$LP?$KK?$KD?$KM?O?$LF?M?$LD?U?$PN?T?Z?N?$KK?D?z?V?X?P?B?$LH@ DB 0d3H
	DB	0c9H, 0d3H, 0daH, 0cdH, 0e6H, 0bcH, 0d2H, 0c0H, 0ebH, 0bfH, 0aaH
	DB	0a3H, 0acH, 0cfH, 0b5H, 0cdH, 0b3H, 0d5H, 0fdH, 0d4H, 0daH, 0ceH
	DB	0aaH, 0c4H, 0faH, 0d6H, 0d8H, 0d0H, 0c2H, 0b7H, 0d6H, 0c5H, 0e4H
	DB	0d7H, 0f9H, 0ceH, 0bbH, 0a3H, 0acH, 0c7H, 0ebH, 0c9H, 0d4H, 0baH
	DB	0f3H, '...', 00H				; `string'
CONST	ENDS
;	COMDAT ??_C@_0DC@KHAHGIHK@?$LB?$LO?$LO?V?$LB?H?H?$PM?$LN?a?J?x?$KD?$KM?O?$LF?M?$LD?U?$PN?T?Z?E?$KM?A?$KG?N?$KK?D?z?$LH@
CONST	SEGMENT
??_C@_0DC@KHAHGIHK@?$LB?$LO?$LO?V?$LB?H?H?$PM?$LN?a?J?x?$KD?$KM?O?$LF?M?$LD?U?$PN?T?Z?E?$KM?A?$KG?N?$KK?D?z?$LH@ DB 0b1H
	DB	0beH, 0beH, 0d6H, 0b1H, 0c8H, 0c8H, 0fcH, 0bdH, 0e1H, 0caH, 0f8H
	DB	0a3H, 0acH, 0cfH, 0b5H, 0cdH, 0b3H, 0d5H, 0fdH, 0d4H, 0daH, 0c5H
	DB	0acH, 0c1H, 0a6H, 0ceH, 0aaH, 0c4H, 0faH, 0b7H, 0d6H, 0c5H, 0e4H
	DB	0d7H, 0f9H, 0ceH, 0bbH, 0a3H, 0acH, 0c7H, 0ebH, 0c9H, 0d4H, 0baH
	DB	0f3H, '...', 00H				; `string'
CONST	ENDS
;	COMDAT ??_C@_0HB@JAGJBAEH@?D?z?R?Q?M?j?$LD?I?$CFd?$LO?V?$LB?H?H?$PM?$KD?$KM?O?$LF?M?$LD?$LN?$KL?$LL?a?$LM?G?B?$LM?D@
CONST	SEGMENT
??_C@_0HB@JAGJBAEH@?D?z?R?Q?M?j?$LD?I?$CFd?$LO?V?$LB?H?H?$PM?$KD?$KM?O?$LF?M?$LD?$LN?$KL?$LL?a?$LM?G?B?$LM?D@ DB 0c4H
	DB	0faH, 0d2H, 0d1H, 0cdH, 0eaH, 0b3H, 0c9H, '%d', 0beH, 0d6H, 0b1H
	DB	0c8H, 0c8H, 0fcH, 0a3H, 0acH, 0cfH, 0b5H, 0cdH, 0b3H, 0bdH, 0abH
	DB	0bbH, 0e1H, 0bcH, 0c7H, 0c2H, 0bcH, 0c4H, 0faH, 0b5H, 0b1H, 0c7H
	DB	0b0H, 0b5H, 0c4H, 0b3H, 0c9H, 0bcH, 0a8H, 0b2H, 0a2H, 0d6H, 0d8H
	DB	0d6H, 0c3H, 0b1H, 0c8H, 0c8H, 0fcH, 0b7H, 0d6H, 0a3H, 0acH, 0c4H
	DB	0faH, 0bfH, 0c9H, 0d2H, 0d4H, 0bcH, 0ccH, 0d0H, 0f8H, 0b5H, 0b1H
	DB	0c7H, 0b0H, 0b1H, 0c8H, 0c8H, 0fcH, 0bbH, 0f2H, 0d1H, 0a1H, 0d4H
	DB	0f1H, 0cdH, 0cbH, 0b3H, 0f6H, 0b5H, 0c8H, 0b4H, 0fdH, 0b1H, 0beH
	DB	0b4H, 0ceH, 0b1H, 0c8H, 0c8H, 0fcH, 0bdH, 0e1H, 0caH, 0f8H, 0baH
	DB	0f3H, 0b2H, 0e9H, 0bfH, 0b4H, 0c5H, 0c5H, 0c3H, 0fbH, 0a3H, 0a1H
	DB	00H						; `string'
CONST	ENDS
;	COMDAT ??_C@_0EJ@COJNGGKL@?D?z?R?Q?M?j?$LD?I?$CFd?$LO?V?$LB?H?H?$PM?$KD?$KM?$LP?I?R?T?$LM?L?P?x?$LF?$LB?G?$LA?$LB@
CONST	SEGMENT
??_C@_0EJ@COJNGGKL@?D?z?R?Q?M?j?$LD?I?$CFd?$LO?V?$LB?H?H?$PM?$KD?$KM?$LP?I?R?T?$LM?L?P?x?$LF?$LB?G?$LA?$LB@ DB 0c4H
	DB	0faH, 0d2H, 0d1H, 0cdH, 0eaH, 0b3H, 0c9H, '%d', 0beH, 0d6H, 0b1H
	DB	0c8H, 0c8H, 0fcH, 0a3H, 0acH, 0bfH, 0c9H, 0d2H, 0d4H, 0bcH, 0ccH
	DB	0d0H, 0f8H, 0b5H, 0b1H, 0c7H, 0b0H, 0b1H, 0c8H, 0c8H, 0fcH, 0bbH
	DB	0f2H, 0d1H, 0a1H, 0d4H, 0f1H, 0cdH, 0cbH, 0b3H, 0f6H, 0b5H, 0c8H
	DB	0b4H, 0fdH, 0b1H, 0beH, 0b4H, 0ceH, 0b1H, 0c8H, 0c8H, 0fcH, 0bbH
	DB	0eeH, 0b6H, 0afH, 0bdH, 0e1H, 0caH, 0f8H, 0baH, 0f3H, 0c5H, 0c5H
	DB	0c3H, 0fbH, 0a3H, 0a1H, 00H			; `string'
CONST	ENDS
;	COMDAT ?__LINE__Var@?0??OnEventGameEnd@CLockTimeMatch@@UAE_NPAUITableFrame@@GPAUIServerUserItem@@E@Z@4JA
_DATA	SEGMENT
?__LINE__Var@?0??OnEventGameEnd@CLockTimeMatch@@UAE_NPAUITableFrame@@GPAUIServerUserItem@@E@Z@4JA DD 066eH ; `CLockTimeMatch::OnEventGameEnd'::`1'::__LINE__Var
_DATA	ENDS
;	COMDAT ??_C@_0BJ@CODAEBJM@?$LB?$LO?$LO?V?$LB?H?H?$PM?J?G?D?z?$LF?D?$LF?Z?5?$CFd?5?$LO?V?$KB?$KD@
CONST	SEGMENT
??_C@_0BJ@CODAEBJM@?$LB?$LO?$LO?V?$LB?H?H?$PM?J?G?D?z?$LF?D?$LF?Z?5?$CFd?5?$LO?V?$KB?$KD@ DB 0b1H
	DB	0beH, 0beH, 0d6H, 0b1H, 0c8H, 0c8H, 0fcH, 0caH, 0c7H, 0c4H, 0faH
	DB	0b5H, 0c4H, 0b5H, 0daH, ' %d ', 0beH, 0d6H, 0a1H, 0a3H, 00H ; `string'
CONST	ENDS
;	COMDAT ??_C@_0CE@DMINAKJA@?$LB?$KH?G?$LI?0?D?z?R?Q?$LC?N?$LM?S?$LJ?$PN?$LB?$LO?$LD?$KB?$LB?H?H?$PM?$KD?$KM?$LC?$LL?D?$NM?M?K@
CONST	SEGMENT
??_C@_0CE@DMINAKJA@?$LB?$KH?G?$LI?0?D?z?R?Q?$LC?N?$LM?S?$LJ?$PN?$LB?$LO?$LD?$KB?$LB?H?H?$PM?$KD?$KM?$LC?$LL?D?$NM?M?K@ DB 0b1H
	DB	0a7H, 0c7H, 0b8H, ',', 0c4H, 0faH, 0d2H, 0d1H, 0b2H, 0ceH, 0bcH
	DB	0d3H, 0b9H, 0fdH, 0b1H, 0beH, 0b3H, 0a1H, 0b1H, 0c8H, 0c8H, 0fcH
	DB	0a3H, 0acH, 0b2H, 0bbH, 0c4H, 0dcH, 0cdH, 0cbH, 0c8H, 0fcH, 0a3H
	DB	0a1H, 00H					; `string'
CONST	ENDS
;	COMDAT ?__LINE__Var@?0??OnEventUserQuitMatch@CLockTimeMatch@@UAE_NPAUIServerUserItem@@EPAGK@Z@4JA
_DATA	SEGMENT
?__LINE__Var@?0??OnEventUserQuitMatch@CLockTimeMatch@@UAE_NPAUIServerUserItem@@EPAGK@Z@4JA DD 0606H ; `CLockTimeMatch::OnEventUserQuitMatch'::`1'::__LINE__Var
_DATA	ENDS
;	COMDAT ??_C@_0CH@PBJGPBJH@?O?$LF?M?$LD?U?$PN?T?Z?E?$KM?A?$KG?N?$KK?D?z?$LH?V?E?d?W?y?N?$LL?$KD?$KM?G?k?I?T?$LK@
CONST	SEGMENT
??_C@_0CH@PBJGPBJH@?O?$LF?M?$LD?U?$PN?T?Z?E?$KM?A?$KG?N?$KK?D?z?$LH?V?E?d?W?y?N?$LL?$KD?$KM?G?k?I?T?$LK@ DB 0cfH
	DB	0b5H, 0cdH, 0b3H, 0d5H, 0fdH, 0d4H, 0daH, 0c5H, 0acH, 0c1H, 0a6H
	DB	0ceH, 0aaH, 0c4H, 0faH, 0b7H, 0d6H, 0c5H, 0e4H, 0d7H, 0f9H, 0ceH
	DB	0bbH, 0a3H, 0acH, 0c7H, 0ebH, 0c9H, 0d4H, 0baH, 0f3H, 0a1H, 0a3H
	DB	0a1H, 0a3H, 0a1H, 0a3H, 00H			; `string'
CONST	ENDS
;	COMDAT ??_C@_0CL@NANGINFO@?$LB?$KH?G?$LI?$KD?$KM?D?z?$LF?D?$LO?$KN?Q?i?V?$LF?$LE?o?$LC?$LL?$LF?$LN?$LB?$KI?C?$PL?L?u?$LM?$PO?$KD@
CONST	SEGMENT
??_C@_0CL@NANGINFO@?$LB?$KH?G?$LI?$KD?$KM?D?z?$LF?D?$LO?$KN?Q?i?V?$LF?$LE?o?$LC?$LL?$LF?$LN?$LB?$KI?C?$PL?L?u?$LM?$PO?$KD@ DB 0b1H
	DB	0a7H, 0c7H, 0b8H, 0a3H, 0acH, 0c4H, 0faH, 0b5H, 0c4H, 0beH, 0adH
	DB	0d1H, 0e9H, 0d6H, 0b5H, 0b4H, 0efH, 0b2H, 0bbH, 0b5H, 0bdH, 0b1H
	DB	0a8H, 0c3H, 0fbH, 0ccH, 0f5H, 0bcH, 0feH, 0a3H, 0acH, 0b1H, 0a8H
	DB	0c3H, 0fbH, 0caH, 0a7H, 0b0H, 0dcH, 0a3H, 0a1H, 00H ; `string'
CONST	ENDS
;	COMDAT ??_C@_0CN@MILLHBCL@?$LB?$KH?G?$LI?$KD?$KM?D?z?$LF?D?$LL?a?T?$LB?$LF?H?$LM?$LG?$LE?o?$LC?$LL?$LF?$LN?$LB?$KI?C?$PL?L?u?$LM@
CONST	SEGMENT
??_C@_0CN@MILLHBCL@?$LB?$KH?G?$LI?$KD?$KM?D?z?$LF?D?$LL?a?T?$LB?$LF?H?$LM?$LG?$LE?o?$LC?$LL?$LF?$LN?$LB?$KI?C?$PL?L?u?$LM@ DB 0b1H
	DB	0a7H, 0c7H, 0b8H, 0a3H, 0acH, 0c4H, 0faH, 0b5H, 0c4H, 0bbH, 0e1H
	DB	0d4H, 0b1H, 0b5H, 0c8H, 0bcH, 0b6H, 0b4H, 0efH, 0b2H, 0bbH, 0b5H
	DB	0bdH, 0b1H, 0a8H, 0c3H, 0fbH, 0ccH, 0f5H, 0bcH, 0feH, 0a3H, 0acH
	DB	0b1H, 0a8H, 0c3H, 0fbH, 0caH, 0a7H, 0b0H, 0dcH, 0a3H, 0a1H, 00H ; `string'
CONST	ENDS
;	COMDAT ??_C@_0CP@GPKKPIPC@?$LB?$KI?C?$PL?R?Q?$LO?$KN?$LN?X?V?$LJ?$KD?$KM?G?k?D?z?R?F?$LM?$NN?V?A?F?d?K?$PL?$LB?H?H@
CONST	SEGMENT
??_C@_0CP@GPKKPIPC@?$LB?$KI?C?$PL?R?Q?$LO?$KN?$LN?X?V?$LJ?$KD?$KM?G?k?D?z?R?F?$LM?$NN?V?A?F?d?K?$PL?$LB?H?H@ DB 0b1H
	DB	0a8H, 0c3H, 0fbH, 0d2H, 0d1H, 0beH, 0adH, 0bdH, 0d8H, 0d6H, 0b9H
	DB	0a3H, 0acH, 0c7H, 0ebH, 0c4H, 0faH, 0d2H, 0c6H, 0bcH, 0ddH, 0d6H
	DB	0c1H, 0c6H, 0e4H, 0cbH, 0fbH, 0b1H, 0c8H, 0c8H, 0fcH, 0b7H, 0bfH
	DB	0bcH, 0e4H, 0b2H, 0ceH, 0d3H, 0ebH, 0b1H, 0c8H, 0c8H, 0fcH, 0a3H
	DB	0a1H, 00H					; `string'
CONST	ENDS
;	COMDAT ??_C@_0BL@CKGEBLOB@?$LB?$KI?C?$PL?I?P?N?$LE?$LP?$KK?J?$LM?$KD?$KM?G?k?I?T?$LK?s?T?Y?$MA?$LE?$KD?$KB@
CONST	SEGMENT
??_C@_0BL@CKGEBLOB@?$LB?$KI?C?$PL?I?P?N?$LE?$LP?$KK?J?$LM?$KD?$KM?G?k?I?T?$LK?s?T?Y?$MA?$LE?$KD?$KB@ DB 0b1H
	DB	0a8H, 0c3H, 0fbH, 0c9H, 0d0H, 0ceH, 0b4H, 0bfH, 0aaH, 0caH, 0bcH
	DB	0a3H, 0acH, 0c7H, 0ebH, 0c9H, 0d4H, 0baH, 0f3H, 0d4H, 0d9H, 0c0H
	DB	0b4H, 0a3H, 0a1H, 00H			; `string'
CONST	ENDS
;	COMDAT ?__LINE__Var@?0??OnEventUserJoinMatch@CLockTimeMatch@@UAE_NPAUIServerUserItem@@EK@Z@4JA
_DATA	SEGMENT
?__LINE__Var@?0??OnEventUserJoinMatch@CLockTimeMatch@@UAE_NPAUIServerUserItem@@EK@Z@4JA DD 0596H ; `CLockTimeMatch::OnEventUserJoinMatch'::`1'::__LINE__Var
_DATA	ENDS
;	COMDAT ?__LINE__Var@?0??OnEventUserItemScore@CLockTimeMatch@@UAE_NPAUIServerUserItem@@E@Z@4JA
_DATA	SEGMENT
?__LINE__Var@?0??OnEventUserItemScore@CLockTimeMatch@@UAE_NPAUIServerUserItem@@E@Z@4JA DD 0466H ; `CLockTimeMatch::OnEventUserItemScore'::`1'::__LINE__Var
_DATA	ENDS
;	COMDAT ??_C@_0CH@PJALIOJF@?D?z?$LF?D?$LH?V?J?$PN?N?$LE?$LE?o?$LF?$LN?L?T?L?$KN?$LH?V?J?$PN?O?$NP?$KD?$KM?$LC?$LL?P?h?R@
CONST	SEGMENT
??_C@_0CH@PJALIOJF@?D?z?$LF?D?$LH?V?J?$PN?N?$LE?$LE?o?$LF?$LN?L?T?L?$KN?$LH?V?J?$PN?O?$NP?$KD?$KM?$LC?$LL?P?h?R@ DB 0c4H
	DB	0faH, 0b5H, 0c4H, 0b7H, 0d6H, 0caH, 0fdH, 0ceH, 0b4H, 0b4H, 0efH
	DB	0b5H, 0bdH, 0ccH, 0d4H, 0ccH, 0adH, 0b7H, 0d6H, 0caH, 0fdH, 0cfH
	DB	0dfH, 0a3H, 0acH, 0b2H, 0bbH, 0d0H, 0e8H, 0d2H, 0aaH, 0b8H, 0b4H
	DB	0bbH, 0eeH, 0a3H, 0a1H, 00H			; `string'
CONST	ENDS
;	COMDAT ??_C@_0CD@LHKCDNBI@?O?$LF?M?$LD?U?$PN?T?Z?E?$KM?A?$KG?N?$KK?D?z?$LH?V?E?d?W?y?N?$LL?$KD?$KM?G?k?$LF?H?$LE@
CONST	SEGMENT
??_C@_0CD@LHKCDNBI@?O?$LF?M?$LD?U?$PN?T?Z?E?$KM?A?$KG?N?$KK?D?z?$LH?V?E?d?W?y?N?$LL?$KD?$KM?G?k?$LF?H?$LE@ DB 0cfH
	DB	0b5H, 0cdH, 0b3H, 0d5H, 0fdH, 0d4H, 0daH, 0c5H, 0acH, 0c1H, 0a6H
	DB	0ceH, 0aaH, 0c4H, 0faH, 0b7H, 0d6H, 0c5H, 0e4H, 0d7H, 0f9H, 0ceH
	DB	0bbH, 0a3H, 0acH, 0c7H, 0ebH, 0b5H, 0c8H, 0b4H, 0fdH, 0a3H, 0a1H
	DB	00H						; `string'
CONST	ENDS
;	COMDAT ?__LINE__Var@?0??OnEventSocketMatch@CLockTimeMatch@@UAE_NGPAXGPAUIServerUserItem@@K@Z@4JA
_DATA	SEGMENT
?__LINE__Var@?0??OnEventSocketMatch@CLockTimeMatch@@UAE_NGPAXGPAUIServerUserItem@@K@Z@4JA DD 03edH ; `CLockTimeMatch::OnEventSocketMatch'::`1'::__LINE__Var
_DATA	ENDS
;	COMDAT ??_C@_0FH@GLGCEBDA@?R?r?$LB?$KI?C?$PL?H?K?J?$PN?$LC?$LL?W?c?$KD?$KM?H?$KB?O?$PL?$LB?$LO?$LD?$KB?$LB?H?H?$PM?$KB?$KD?R@
CONST	SEGMENT
??_C@_0FH@GLGCEBDA@?R?r?$LB?$KI?C?$PL?H?K?J?$PN?$LC?$LL?W?c?$KD?$KM?H?$KB?O?$PL?$LB?$LO?$LD?$KB?$LB?H?H?$PM?$KB?$KD?R@ DB 0d2H
	DB	0f2H, 0b1H, 0a8H, 0c3H, 0fbH, 0c8H, 0cbH, 0caH, 0fdH, 0b2H, 0bbH
	DB	0d7H, 0e3H, 0a3H, 0acH, 0c8H, 0a1H, 0cfH, 0fbH, 0b1H, 0beH, 0b3H
	DB	0a1H, 0b1H, 0c8H, 0c8H, 0fcH, 0a1H, 0a3H, 0d2H, 0d1H, 0b1H, 0a8H
	DB	0c3H, 0fbH, 0b5H, 0c4H, 0cdH, 0e6H, 0bcH, 0d2H, 0c9H, 0d4H, 0baH
	DB	0f3H, 0bdH, 0abH, 0bbH, 0e1H, 0caH, 0d5H, 0b5H, 0bdH, 0cfH, 0b5H
	DB	0cdH, 0b3H, 0cdH, 0cbH, 0bbH, 0b9H, 0b5H, 0c4H, 0b1H, 0a8H, 0c3H
	DB	0fbH, 0b7H, 0d1H, 0d3H, 0c3H, 0a3H, 0acH, 0c7H, 0ebH, 0d7H, 0a2H
	DB	0d2H, 0e2H, 0b2H, 0e9H, 0caH, 0d5H, 0a1H, 0a3H, 00H ; `string'
CONST	ENDS
;	COMDAT ??_C@_0EH@PFKOHNEP@?$LB?$LO?$LE?N?$LB?H?H?$PM?$LF?$LN?$LE?K?$LN?a?J?x?$KD?$KM?G?k?D?z?G?$LA?M?y?M?x?U?$LO?$LC@
CONST	SEGMENT
??_C@_0EH@PFKOHNEP@?$LB?$LO?$LE?N?$LB?H?H?$PM?$LF?$LN?$LE?K?$LN?a?J?x?$KD?$KM?G?k?D?z?G?$LA?M?y?M?x?U?$LO?$LC@ DB 0b1H
	DB	0beH, 0b4H, 0ceH, 0b1H, 0c8H, 0c8H, 0fcH, 0b5H, 0bdH, 0b4H, 0cbH
	DB	0bdH, 0e1H, 0caH, 0f8H, 0a3H, 0acH, 0c7H, 0ebH, 0c4H, 0faH, 0c7H
	DB	0b0H, 0cdH, 0f9H, 0cdH, 0f8H, 0d5H, 0beH, 0b2H, 0e9H, 0bfH, 0b4H
	DB	0cfH, 0b5H, 0cdH, 0b3H, 0c5H, 0c5H, 0c3H, 0fbH, 0bbH, 0f2H, 0d2H
	DB	0c6H, 0bcH, 0ddH, 0c6H, 0e4H, 0cbH, 0fbH, 0b1H, 0c8H, 0c8H, 0fcH
	DB	0b7H, 0bfH, 0bcH, 0e4H, 0b2H, 0ceH, 0d3H, 0ebH, 0b1H, 0c8H, 0c8H
	DB	0fcH, 0a3H, 0a1H, 00H			; `string'
CONST	ENDS
;	COMDAT ??_C@_0CL@GGBOLFBO@?$LJ?$KH?O?$LC?D?z?$KD?$KM?$LI?$LE?$LL?n?$LD?I?$LJ?$KG?$KD?$KM?G?k?$LF?H?$LE?$PN?O?$LF?M?$LD?N?$KK?D@
CONST	SEGMENT
??_C@_0CL@GGBOLFBO@?$LJ?$KH?O?$LC?D?z?$KD?$KM?$LI?$LE?$LL?n?$LD?I?$LJ?$KG?$KD?$KM?G?k?$LF?H?$LE?$PN?O?$LF?M?$LD?N?$KK?D@ DB 0b9H
	DB	0a7H, 0cfH, 0b2H, 0c4H, 0faH, 0a3H, 0acH, 0b8H, 0b4H, 0bbH, 0eeH
	DB	0b3H, 0c9H, 0b9H, 0a6H, 0a3H, 0acH, 0c7H, 0ebH, 0b5H, 0c8H, 0b4H
	DB	0fdH, 0cfH, 0b5H, 0cdH, 0b3H, 0ceH, 0aaH, 0c4H, 0faH, 0b7H, 0d6H
	DB	0c5H, 0e4H, 0d7H, 0f9H, 0ceH, 0bbH, 0a3H, 0a1H, 00H ; `string'
CONST	ENDS
;	COMDAT ??_C@_0DB@IMGKPMKE@?$LJ?$KH?O?$LC?D?z?$KD?$KM?$LB?$KD?O?U?$LP?$KI?$LJ?$LK?B?r?$LD?I?$LJ?$KG?$KD?$KM?G?k?$LF?H?$LE?$PN?O@
CONST	SEGMENT
??_C@_0DB@IMGKPMKE@?$LJ?$KH?O?$LC?D?z?$KD?$KM?$LB?$KD?O?U?$LP?$KI?$LJ?$LK?B?r?$LD?I?$LJ?$KG?$KD?$KM?G?k?$LF?H?$LE?$PN?O@ DB 0b9H
	DB	0a7H, 0cfH, 0b2H, 0c4H, 0faH, 0a3H, 0acH, 0b1H, 0a3H, 0cfH, 0d5H
	DB	0bfH, 0a8H, 0b9H, 0baH, 0c2H, 0f2H, 0b3H, 0c9H, 0b9H, 0a6H, 0a3H
	DB	0acH, 0c7H, 0ebH, 0b5H, 0c8H, 0b4H, 0fdH, 0cfH, 0b5H, 0cdH, 0b3H
	DB	0ceH, 0aaH, 0c4H, 0faH, 0b7H, 0d6H, 0c5H, 0e4H, 0d7H, 0f9H, 0ceH
	DB	0bbH, 0a3H, 0a1H, 00H			; `string'
CONST	ENDS
;	COMDAT ??_C@_0CL@IJGLKDAG@?$LB?$KH?G?$LI?0?D?z?$LC?$LL?$LO?$NP?$LB?$LI?$LB?$LO?$LD?$KB?$LB?H?H?$PM?$LF?D?$LB?$KI?C?$PL?W?J?$LI?q@
CONST	SEGMENT
??_C@_0CL@IJGLKDAG@?$LB?$KH?G?$LI?0?D?z?$LC?$LL?$LO?$NP?$LB?$LI?$LB?$LO?$LD?$KB?$LB?H?H?$PM?$LF?D?$LB?$KI?C?$PL?W?J?$LI?q@ DB 0b1H
	DB	0a7H, 0c7H, 0b8H, ',', 0c4H, 0faH, 0b2H, 0bbH, 0beH, 0dfH, 0b1H
	DB	0b8H, 0b1H, 0beH, 0b3H, 0a1H, 0b1H, 0c8H, 0c8H, 0fcH, 0b5H, 0c4H
	DB	0b1H, 0a8H, 0c3H, 0fbH, 0d7H, 0caH, 0b8H, 0f1H, ',', 0b1H, 0a8H
	DB	0c3H, 0fbH, 0caH, 0a7H, 0b0H, 0dcH, 0a3H, 0a1H, 00H ; `string'
CONST	ENDS
;	COMDAT ?__LINE__Var@?0??OnEventDataBase@CLockTimeMatch@@UAE_NGPAUIServerUserItem@@PAXGK@Z@4JA
_DATA	SEGMENT
?__LINE__Var@?0??OnEventDataBase@CLockTimeMatch@@UAE_NGPAUIServerUserItem@@PAXGK@Z@4JA DD 024bH ; `CLockTimeMatch::OnEventDataBase'::`1'::__LINE__Var
_DATA	ENDS
;	COMDAT ??_C@_0FF@DDBBBMHA@?$LB?$LO?$LD?$KB?$LB?H?H?$PM?$LN?a?J?x?J?$LB?$LM?d?R?Q?$LF?$LN?$KD?$KM?$LI?P?P?$LL?D?z?$LF?D?$LC@
CONST	SEGMENT
??_C@_0FF@DDBBBMHA@?$LB?$LO?$LD?$KB?$LB?H?H?$PM?$LN?a?J?x?J?$LB?$LM?d?R?Q?$LF?$LN?$KD?$KM?$LI?P?P?$LL?D?z?$LF?D?$LC@ DB 0b1H
	DB	0beH, 0b3H, 0a1H, 0b1H, 0c8H, 0c8H, 0fcH, 0bdH, 0e1H, 0caH, 0f8H
	DB	0caH, 0b1H, 0bcH, 0e4H, 0d2H, 0d1H, 0b5H, 0bdH, 0a3H, 0acH, 0b8H
	DB	0d0H, 0d0H, 0bbH, 0c4H, 0faH, 0b5H, 0c4H, 0b2H, 0ceH, 0d3H, 0ebH
	DB	0a3H, 0bbH, 0c7H, 0ebH, 0d4H, 0daH, ' %d ', 0b7H, 0d6H, 0d6H, 0d3H
	DB	0baH, 0f3H, 0c7H, 0b0H, 0cdH, 0f9H, 0cfH, 0e0H, 0b9H, 0d8H, 0d2H
	DB	0b3H, 0c3H, 0e6H, 0b2H, 0e9H, 0d1H, 0afH, 0c4H, 0faH, 0b5H, 0c4H
	DB	0b1H, 0beH, 0b3H, 0a1H, 0b1H, 0c8H, 0c8H, 0fcH, 0b3H, 0c9H, 0bcH
	DB	0a8H, 0a1H, 0a3H, 00H			; `string'
CONST	ENDS
;	COMDAT ??_C@_0CH@GCHCKFGB@?$LN?q?L?l?$LF?D?$LB?H?H?$PM?$LF?$LN?$LE?K?$LN?a?J?x?$KD?$KM?G?k?D?z?C?w?L?l?T?Y?$MA@
CONST	SEGMENT
??_C@_0CH@GCHCKFGB@?$LN?q?L?l?$LF?D?$LB?H?H?$PM?$LF?$LN?$LE?K?$LN?a?J?x?$KD?$KM?G?k?D?z?C?w?L?l?T?Y?$MA@ DB 0bdH
	DB	0f1H, 0ccH, 0ecH, 0b5H, 0c4H, 0b1H, 0c8H, 0c8H, 0fcH, 0b5H, 0bdH
	DB	0b4H, 0cbH, 0bdH, 0e1H, 0caH, 0f8H, 0a3H, 0acH, 0c7H, 0ebH, 0c4H
	DB	0faH, 0c3H, 0f7H, 0ccH, 0ecH, 0d4H, 0d9H, 0c0H, 0b4H, 0b2H, 0ceH
	DB	0bcH, 0d3H, 0a3H, 0a1H, 00H			; `string'
CONST	ENDS
;	COMDAT ??_C@_0FP@CHGGEFGE@?$LB?$LO?$LD?$KB?$LB?H?H?$PM?$LN?a?J?x?J?$LB?$LM?d?R?Q?$LF?$LN?$KD?$KM?G?k?$LO?$KB?$LP?l?T?Z?5@
CONST	SEGMENT
??_C@_0FP@CHGGEFGE@?$LB?$LO?$LD?$KB?$LB?H?H?$PM?$LN?a?J?x?J?$LB?$LM?d?R?Q?$LF?$LN?$KD?$KM?G?k?$LO?$KB?$LP?l?T?Z?5@ DB 0b1H
	DB	0beH, 0b3H, 0a1H, 0b1H, 0c8H, 0c8H, 0fcH, 0bdH, 0e1H, 0caH, 0f8H
	DB	0caH, 0b1H, 0bcH, 0e4H, 0d2H, 0d1H, 0b5H, 0bdH, 0a3H, 0acH, 0c7H
	DB	0ebH, 0beH, 0a1H, 0bfH, 0ecH, 0d4H, 0daH, ' %d ', 0b7H, 0d6H, 0d6H
	DB	0d3H, 0c4H, 0daH, 0bdH, 0e1H, 0caH, 0f8H, 0b5H, 0b1H, 0c7H, 0b0H
	DB	0b1H, 0c8H, 0c8H, 0fcH, 0a1H, 0a3H, 0b7H, 0f1H, 0d4H, 0f2H, 0cfH
	DB	0b5H, 0cdH, 0b3H, 0bdH, 0abH, 0bbH, 0e1H, 0d7H, 0d4H, 0b6H, 0afH
	DB	0bdH, 0e2H, 0c9H, 0a2H, 0b1H, 0beH, 0bbH, 0d8H, 0baH, 0cfH, 0b2H
	DB	0a2H, 0b2H, 0bbH, 0bcH, 0c6H, 0c8H, 0ebH, 0b3H, 0c9H, 0bcH, 0a8H
	DB	0a1H, 0a3H, 00H				; `string'
CONST	ENDS
;	COMDAT ??_C@_0DJ@LFOAJBDH@?$LN?q?L?l?$LF?D?$LB?H?H?$PM?$LN?a?J?x?J?$LB?$LM?d?R?Q?$LF?$LN?$KD?$KM?G?k?$LO?$KB?$LP?l?T@
CONST	SEGMENT
??_C@_0DJ@LFOAJBDH@?$LN?q?L?l?$LF?D?$LB?H?H?$PM?$LN?a?J?x?J?$LB?$LM?d?R?Q?$LF?$LN?$KD?$KM?G?k?$LO?$KB?$LP?l?T@ DB 0bdH
	DB	0f1H, 0ccH, 0ecH, 0b5H, 0c4H, 0b1H, 0c8H, 0c8H, 0fcH, 0bdH, 0e1H
	DB	0caH, 0f8H, 0caH, 0b1H, 0bcH, 0e4H, 0d2H, 0d1H, 0b5H, 0bdH, 0a3H
	DB	0acH, 0c7H, 0ebH, 0beH, 0a1H, 0bfH, 0ecH, 0d4H, 0daH, ' %d ', 0b7H
	DB	0d6H, 0d6H, 0d3H, 0c4H, 0daH, 0bdH, 0e1H, 0caH, 0f8H, 0b1H, 0beH
	DB	0beH, 0d6H, 0d3H, 0ceH, 0cfH, 0b7H, 0a1H, 0a3H, 00H ; `string'
CONST	ENDS
;	COMDAT ?__LINE__Var@?0??OnEventTimer@CLockTimeMatch@@UAE_NKI@Z@4JA
_DATA	SEGMENT
?__LINE__Var@?0??OnEventTimer@CLockTimeMatch@@UAE_NKI@Z@4JA DD 0d1H ; `CLockTimeMatch::OnEventTimer'::`1'::__LINE__Var
_DATA	ENDS
;	COMDAT ?__LINE__Var@?0??BindTableFrame@CLockTimeMatch@@UAE_NPAUITableFrame@@G@Z@4JA
_DATA	SEGMENT
?__LINE__Var@?0??BindTableFrame@CLockTimeMatch@@UAE_NPAUITableFrame@@G@Z@4JA DD 076H ; `CLockTimeMatch::BindTableFrame'::`1'::__LINE__Var
_DATA	ENDS
;	COMDAT ??_C@_0EK@PLFANKAP@g?3?2?M?x?$LK?$PM?2happygamewh?2?$LH?$PO?N?q?$LG?K?2?O?$LF?M?$LD@
CONST	SEGMENT
??_C@_0EK@PLFANKAP@g?3?2?M?x?$LK?$PM?2happygamewh?2?$LH?$PO?N?q?$LG?K?2?O?$LF?M?$LD@ DB 'g'
	DB	':\', 0cdH, 0f8H, 0baH, 0fcH, '\happygamewh\', 0b7H, 0feH, 0ceH
	DB	0f1H, 0b6H, 0cbH, '\', 0cfH, 0b5H, 0cdH, 0b3H, 0c4H, 0a3H, 0bfH
	DB	0e9H, '\', 0b7H, 0feH, 0ceH, 0f1H, 0c6H, 0f7H, 0d7H, 0e9H, 0bcH
	DB	0feH, '\', 0b1H, 0c8H, 0c8H, 0fcH, 0b7H, 0feH, 0ceH, 0f1H, '\l'
	DB	'ocktimematch.cpp', 00H			; `string'
CONST	ENDS
;	COMDAT ?__LINE__Var@?0???1CLockTimeMatch@@UAE@XZ@4JA
_DATA	SEGMENT
?__LINE__Var@?0???1CLockTimeMatch@@UAE@XZ@4JA DD 037H	; `CLockTimeMatch::~CLockTimeMatch'::`1'::__LINE__Var
_DATA	ENDS
;	COMDAT ??_7CLockTimeMatch@@6BIServerUserItemSink@@@
CONST	SEGMENT
??_7CLockTimeMatch@@6BIServerUserItemSink@@@ DD FLAT:??_R4CLockTimeMatch@@6BIServerUserItemSink@@@ ; CLockTimeMatch::`vftable'
	DD	FLAT:?Release@CLockTimeMatch@@W7AEXXZ
	DD	FLAT:?QueryInterface@CLockTimeMatch@@W7AEPAXABU_GUID@@K@Z
	DD	FLAT:?OnEventUserItemScore@CLockTimeMatch@@UAE_NPAUIServerUserItem@@E@Z
	DD	FLAT:?OnEventUserItemGameData@CLockTimeMatch@@UAE_NPAUIServerUserItem@@E@Z
	DD	FLAT:?OnEventUserItemStatus@CLockTimeMatch@@UAE_NPAUIServerUserItem@@GG@Z
	DD	FLAT:?OnEventUserItemRight@CLockTimeMatch@@UAE_NPAUIServerUserItem@@KKE@Z
CONST	ENDS
;	COMDAT ??_7CLockTimeMatch@@6BIMatchEventSink@@@
CONST	SEGMENT
??_7CLockTimeMatch@@6BIMatchEventSink@@@ DD FLAT:??_R4CLockTimeMatch@@6BIMatchEventSink@@@ ; CLockTimeMatch::`vftable'
	DD	FLAT:?Release@CLockTimeMatch@@W3AEXXZ
	DD	FLAT:?QueryInterface@CLockTimeMatch@@W3AEPAXABU_GUID@@K@Z
	DD	FLAT:?OnEventGameStart@CLockTimeMatch@@UAE_NPAUITableFrame@@G@Z
	DD	FLAT:?OnEventGameEnd@CLockTimeMatch@@UAE_NPAUITableFrame@@GPAUIServerUserItem@@E@Z
	DD	FLAT:?OnEventUserReturnMatch@CLockTimeMatch@@UAE_NPAUITableFrame@@PAUIServerUserItem@@@Z
	DD	FLAT:?OnActionUserSitDown@CLockTimeMatch@@UAE_NGGPAUIServerUserItem@@_N@Z
	DD	FLAT:?OnActionUserStandUp@CLockTimeMatch@@UAE_NGGPAUIServerUserItem@@_N@Z
	DD	FLAT:?OnActionUserOnReady@CLockTimeMatch@@UAE_NGGPAUIServerUserItem@@PAXG@Z
CONST	ENDS
;	COMDAT ??_7CLockTimeMatch@@6BIGameMatchItem@@@
CONST	SEGMENT
??_7CLockTimeMatch@@6BIGameMatchItem@@@ DD FLAT:??_R4CLockTimeMatch@@6BIGameMatchItem@@@ ; CLockTimeMatch::`vftable'
	DD	FLAT:?Release@CLockTimeMatch@@UAEXXZ
	DD	FLAT:?QueryInterface@CLockTimeMatch@@UAEPAXABU_GUID@@K@Z
	DD	FLAT:?OnStartService@CLockTimeMatch@@UAEXXZ
	DD	FLAT:?BindTableFrame@CLockTimeMatch@@UAE_NPAUITableFrame@@G@Z
	DD	FLAT:?InitMatchInterface@CLockTimeMatch@@UAE_NAAUtagMatchManagerParameter@@@Z
	DD	FLAT:?OnEventTimer@CLockTimeMatch@@UAE_NKI@Z
	DD	FLAT:?OnEventDataBase@CLockTimeMatch@@UAE_NGPAUIServerUserItem@@PAXGK@Z
	DD	FLAT:?OnEventSocketMatch@CLockTimeMatch@@UAE_NGPAXGPAUIServerUserItem@@K@Z
	DD	FLAT:?OnEventUserLogon@CLockTimeMatch@@UAE_NPAUIServerUserItem@@@Z
	DD	FLAT:?OnEventUserLogout@CLockTimeMatch@@UAE_NPAUIServerUserItem@@@Z
	DD	FLAT:?OnEventUserLogonFinish@CLockTimeMatch@@UAE_NPAUIServerUserItem@@@Z
	DD	FLAT:?OnEventEnterMatch@CLockTimeMatch@@UAE_NKPAXK_N@Z
	DD	FLAT:?OnEventUserJoinMatch@CLockTimeMatch@@UAE_NPAUIServerUserItem@@EK@Z
	DD	FLAT:?OnEventUserQuitMatch@CLockTimeMatch@@UAE_NPAUIServerUserItem@@EPAGK@Z
	DD	FLAT:??_ECLockTimeMatch@@UAEPAXI@Z
CONST	ENDS
;	COMDAT ??_7IMatchEventSink@@6B@
CONST	SEGMENT
??_7IMatchEventSink@@6B@ DD FLAT:??_R4IMatchEventSink@@6B@ ; IMatchEventSink::`vftable'
	DD	FLAT:__purecall
	DD	FLAT:__purecall
	DD	FLAT:__purecall
	DD	FLAT:__purecall
	DD	FLAT:__purecall
	DD	FLAT:__purecall
	DD	FLAT:__purecall
	DD	FLAT:__purecall
CONST	ENDS
;	COMDAT ??_7IGameMatchItem@@6B@
CONST	SEGMENT
??_7IGameMatchItem@@6B@ DD FLAT:??_R4IGameMatchItem@@6B@ ; IGameMatchItem::`vftable'
	DD	FLAT:__purecall
	DD	FLAT:__purecall
	DD	FLAT:__purecall
	DD	FLAT:__purecall
	DD	FLAT:__purecall
	DD	FLAT:__purecall
	DD	FLAT:__purecall
	DD	FLAT:__purecall
	DD	FLAT:__purecall
	DD	FLAT:__purecall
	DD	FLAT:__purecall
	DD	FLAT:__purecall
	DD	FLAT:__purecall
	DD	FLAT:__purecall
CONST	ENDS
;	COMDAT ??_C@_1BK@NHECDDNK@?$AAm?$AA_?$AAp?$AAD?$AAa?$AAt?$AAa?$AA?5?$AA?$DN?$AA?$DN?$AA?5?$AA0@
CONST	SEGMENT
??_C@_1BK@NHECDDNK@?$AAm?$AA_?$AAp?$AAD?$AAa?$AAt?$AAa?$AA?5?$AA?$DN?$AA?$DN?$AA?5?$AA0@ DB 'm'
	DB	00H, '_', 00H, 'p', 00H, 'D', 00H, 'a', 00H, 't', 00H, 'a', 00H
	DB	' ', 00H, '=', 00H, '=', 00H, ' ', 00H, '0', 00H, 00H, 00H ; `string'
CONST	ENDS
;	COMDAT ??_7IServerUserItemSink@@6B@
CONST	SEGMENT
??_7IServerUserItemSink@@6B@ DD FLAT:??_R4IServerUserItemSink@@6B@ ; IServerUserItemSink::`vftable'
	DD	FLAT:__purecall
	DD	FLAT:__purecall
	DD	FLAT:__purecall
	DD	FLAT:__purecall
	DD	FLAT:__purecall
	DD	FLAT:__purecall
CONST	ENDS
;	COMDAT ??_7IUnknownEx@@6B@
CONST	SEGMENT
??_7IUnknownEx@@6B@ DD FLAT:??_R4IUnknownEx@@6B@	; IUnknownEx::`vftable'
	DD	FLAT:__purecall
	DD	FLAT:__purecall
CONST	ENDS
;	COMDAT ??_C@_00CNPNBAHC@@
CONST	SEGMENT
??_C@_00CNPNBAHC@@ DB 00H				; `string'
CONST	ENDS
;	COMDAT ?__LINE__Var@?0??GetLocalTm@CTime@ATL@@QBEPAUtm@@PAU4@@Z@4JA
_DATA	SEGMENT
?__LINE__Var@?0??GetLocalTm@CTime@ATL@@QBEPAUtm@@PAU4@@Z@4JA DD 025fH ; `ATL::CTime::GetLocalTm'::`1'::__LINE__Var
_DATA	ENDS
;	COMDAT ??_C@_1BK@NHHHCKNA@?$AAm?$AA_?$AAt?$AAi?$AAm?$AAe?$AA?5?$AA?$CB?$AA?$DN?$AA?5?$AA?9?$AA1@
CONST	SEGMENT
??_C@_1BK@NHHHCKNA@?$AAm?$AA_?$AAt?$AAi?$AAm?$AAe?$AA?5?$AA?$CB?$AA?$DN?$AA?5?$AA?9?$AA1@ DB 'm'
	DB	00H, '_', 00H, 't', 00H, 'i', 00H, 'm', 00H, 'e', 00H, ' ', 00H
	DB	'!', 00H, '=', 00H, ' ', 00H, '-', 00H, '1', 00H, 00H, 00H ; `string'
CONST	ENDS
;	COMDAT ??_C@_1OC@IALJLBM@?$AAc?$AA?3?$AA?2?$AAp?$AAr?$AAo?$AAg?$AAr?$AAa?$AAm?$AA?5?$AAf?$AAi?$AAl?$AAe@
CONST	SEGMENT
??_C@_1OC@IALJLBM@?$AAc?$AA?3?$AA?2?$AAp?$AAr?$AAo?$AAg?$AAr?$AAa?$AAm?$AA?5?$AAf?$AAi?$AAl?$AAe@ DB 'c'
	DB	00H, ':', 00H, '\', 00H, 'p', 00H, 'r', 00H, 'o', 00H, 'g', 00H
	DB	'r', 00H, 'a', 00H, 'm', 00H, ' ', 00H, 'f', 00H, 'i', 00H, 'l'
	DB	00H, 'e', 00H, 's', 00H, ' ', 00H, '(', 00H, 'x', 00H, '8', 00H
	DB	'6', 00H, ')', 00H, '\', 00H, 'm', 00H, 'i', 00H, 'c', 00H, 'r'
	DB	00H, 'o', 00H, 's', 00H, 'o', 00H, 'f', 00H, 't', 00H, ' ', 00H
	DB	'v', 00H, 'i', 00H, 's', 00H, 'u', 00H, 'a', 00H, 'l', 00H, ' '
	DB	00H, 's', 00H, 't', 00H, 'u', 00H, 'd', 00H, 'i', 00H, 'o', 00H
	DB	'\', 00H, '2', 00H, '0', 00H, '1', 00H, '7', 00H, '\', 00H, 'c'
	DB	00H, 'o', 00H, 'm', 00H, 'm', 00H, 'u', 00H, 'n', 00H, 'i', 00H
	DB	't', 00H, 'y', 00H, '\', 00H, 'v', 00H, 'c', 00H, '\', 00H, 't'
	DB	00H, 'o', 00H, 'o', 00H, 'l', 00H, 's', 00H, '\', 00H, 'm', 00H
	DB	's', 00H, 'v', 00H, 'c', 00H, '\', 00H, '1', 00H, '4', 00H, '.'
	DB	00H, '1', 00H, '6', 00H, '.', 00H, '2', 00H, '7', 00H, '0', 00H
	DB	'2', 00H, '3', 00H, '\', 00H, 'a', 00H, 't', 00H, 'l', 00H, 'm'
	DB	00H, 'f', 00H, 'c', 00H, '\', 00H, 'i', 00H, 'n', 00H, 'c', 00H
	DB	'l', 00H, 'u', 00H, 'd', 00H, 'e', 00H, '\', 00H, 'a', 00H, 't'
	DB	00H, 'l', 00H, 't', 00H, 'i', 00H, 'm', 00H, 'e', 00H, '.', 00H
	DB	'h', 00H, 00H, 00H				; `string'
CONST	ENDS
;	COMDAT ?__LINE__Var@?0???0CTime@ATL@@QAE@HHHHHHH@Z@4JA
_DATA	SEGMENT
?__LINE__Var@?0???0CTime@ATL@@QAE@HHHHHHH@Z@4JA DD 01adH ; `ATL::CTime::CTime'::`1'::__LINE__Var
_DATA	ENDS
;	COMDAT ??_C@_1BM@GBBOFEAE@?$AA_?$AA_?$AAa?$AAt?$AAl?$AA_?$AAc?$AAo?$AAn?$AAd?$AAV?$AAa?$AAl@
CONST	SEGMENT
??_C@_1BM@GBBOFEAE@?$AA_?$AA_?$AAa?$AAt?$AAl?$AA_?$AAc?$AAo?$AAn?$AAd?$AAV?$AAa?$AAl@ DB '_'
	DB	00H, '_', 00H, 'a', 00H, 't', 00H, 'l', 00H, '_', 00H, 'c', 00H
	DB	'o', 00H, 'n', 00H, 'd', 00H, 'V', 00H, 'a', 00H, 'l', 00H, 00H
	DB	00H						; `string'
CONST	ENDS
;	COMDAT ??_C@_0BF@IAAKIJDJ@AtlThrow?3?5hr?5?$DN?50x?$CFx?6@
CONST	SEGMENT
??_C@_0BF@IAAKIJDJ@AtlThrow?3?5hr?5?$DN?50x?$CFx?6@ DB 'AtlThrow: hr = 0x'
	DB	'%x', 0aH, 00H				; `string'
CONST	ENDS
;	COMDAT ??_C@_0HD@OEBHCJKM@c?3?2program?5files?5?$CIx86?$CJ?2microsof@
CONST	SEGMENT
??_C@_0HD@OEBHCJKM@c?3?2program?5files?5?$CIx86?$CJ?2microsof@ DB 'c:\pro'
	DB	'gram files (x86)\microsoft visual studio\2017\community\vc\to'
	DB	'ols\msvc\14.16.27023\atlmfc\include\atlexcept.h', 00H ; `string'
CONST	ENDS
;	COMDAT ?__LINE__Var@?0??AtlThrowImpl@ATL@@YGXJ@Z@4JA
_DATA	SEGMENT
?__LINE__Var@?0??AtlThrowImpl@ATL@@YGXJ@Z@4JA DD 041H	; `ATL::AtlThrowImpl'::`1'::__LINE__Var
_DATA	ENDS
;	COMDAT ??_C@_1OE@PDFAMNPL@?$AAc?$AA?3?$AA?2?$AAp?$AAr?$AAo?$AAg?$AAr?$AAa?$AAm?$AA?5?$AAf?$AAi?$AAl?$AAe@
CONST	SEGMENT
??_C@_1OE@PDFAMNPL@?$AAc?$AA?3?$AA?2?$AAp?$AAr?$AAo?$AAg?$AAr?$AAa?$AAm?$AA?5?$AAf?$AAi?$AAl?$AAe@ DB 'c'
	DB	00H, ':', 00H, '\', 00H, 'p', 00H, 'r', 00H, 'o', 00H, 'g', 00H
	DB	'r', 00H, 'a', 00H, 'm', 00H, ' ', 00H, 'f', 00H, 'i', 00H, 'l'
	DB	00H, 'e', 00H, 's', 00H, ' ', 00H, '(', 00H, 'x', 00H, '8', 00H
	DB	'6', 00H, ')', 00H, '\', 00H, 'm', 00H, 'i', 00H, 'c', 00H, 'r'
	DB	00H, 'o', 00H, 's', 00H, 'o', 00H, 'f', 00H, 't', 00H, ' ', 00H
	DB	'v', 00H, 'i', 00H, 's', 00H, 'u', 00H, 'a', 00H, 'l', 00H, ' '
	DB	00H, 's', 00H, 't', 00H, 'u', 00H, 'd', 00H, 'i', 00H, 'o', 00H
	DB	'\', 00H, '2', 00H, '0', 00H, '1', 00H, '7', 00H, '\', 00H, 'c'
	DB	00H, 'o', 00H, 'm', 00H, 'm', 00H, 'u', 00H, 'n', 00H, 'i', 00H
	DB	't', 00H, 'y', 00H, '\', 00H, 'v', 00H, 'c', 00H, '\', 00H, 't'
	DB	00H, 'o', 00H, 'o', 00H, 'l', 00H, 's', 00H, '\', 00H, 'm', 00H
	DB	's', 00H, 'v', 00H, 'c', 00H, '\', 00H, '1', 00H, '4', 00H, '.'
	DB	00H, '1', 00H, '6', 00H, '.', 00H, '2', 00H, '7', 00H, '0', 00H
	DB	'2', 00H, '3', 00H, '\', 00H, 'a', 00H, 't', 00H, 'l', 00H, 'm'
	DB	00H, 'f', 00H, 'c', 00H, '\', 00H, 'i', 00H, 'n', 00H, 'c', 00H
	DB	'l', 00H, 'u', 00H, 'd', 00H, 'e', 00H, '\', 00H, 'a', 00H, 't'
	DB	00H, 'l', 00H, 't', 00H, 'r', 00H, 'a', 00H, 'c', 00H, 'e', 00H
	DB	'.', 00H, 'h', 00H, 00H, 00H			; `string'
CONST	ENDS
;	COMDAT ??_C@_1EO@EBPPKGOM@?$AAf?$AAa?$AAl?$AAs?$AAe?$AA?5?$AA?$CG?$AA?$CG?$AA?5?$AA?$CC?$AAT?$AAo?$AAo?$AA?5?$AAm@
CONST	SEGMENT
??_C@_1EO@EBPPKGOM@?$AAf?$AAa?$AAl?$AAs?$AAe?$AA?5?$AA?$CG?$AA?$CG?$AA?5?$AA?$CC?$AAT?$AAo?$AAo?$AA?5?$AAm@ DB 'f'
	DB	00H, 'a', 00H, 'l', 00H, 's', 00H, 'e', 00H, ' ', 00H, '&', 00H
	DB	'&', 00H, ' ', 00H, '"', 00H, 'T', 00H, 'o', 00H, 'o', 00H, ' '
	DB	00H, 'm', 00H, 'a', 00H, 'n', 00H, 'y', 00H, ' ', 00H, 'c', 00H
	DB	'a', 00H, 't', 00H, 'e', 00H, 'g', 00H, 'o', 00H, 'r', 00H, 'i'
	DB	00H, 'e', 00H, 's', 00H, ' ', 00H, 'd', 00H, 'e', 00H, 'f', 00H
	DB	'i', 00H, 'n', 00H, 'e', 00H, 'd', 00H, '"', 00H, 00H, 00H ; `string'
CONST	ENDS
;	COMDAT ??_C@_17LGGGMOOB@?$AA?$CF?$AAh?$AAs@
CONST	SEGMENT
??_C@_17LGGGMOOB@?$AA?$CF?$AAh?$AAs@ DB '%', 00H, 'h', 00H, 's', 00H, 00H
	DB	00H						; `string'
CONST	ENDS
;	COMDAT ??_C@_1O@OAIPCDPO@?$AA?$CF?$AAl?$AAs?$AA?$CF?$AAl?$AAs@
CONST	SEGMENT
??_C@_1O@OAIPCDPO@?$AA?$CF?$AAl?$AAs?$AA?$CF?$AAl?$AAs@ DB '%', 00H, 'l', 00H
	DB	's', 00H, '%', 00H, 'l', 00H, 's', 00H, 00H, 00H ; `string'
CONST	ENDS
;	COMDAT ??_C@_1M@PGKOAACE@?$AA?$CF?$AAu?$AA?5?$AA?9?$AA?5@
CONST	SEGMENT
??_C@_1M@PGKOAACE@?$AA?$CF?$AAu?$AA?5?$AA?9?$AA?5@ DB '%', 00H, 'u', 00H, ' '
	DB	00H, '-', 00H, ' ', 00H, 00H, 00H		; `string'
CONST	ENDS
;	COMDAT ??_C@_1O@LFNDFEBP@?$AA?$CF?$AAl?$AAs?$AA?5?$AA?9?$AA?5@
CONST	SEGMENT
??_C@_1O@LFNDFEBP@?$AA?$CF?$AAl?$AAs?$AA?5?$AA?9?$AA?5@ DB '%', 00H, 'l', 00H
	DB	's', 00H, ' ', 00H, '-', 00H, ' ', 00H, 00H, 00H ; `string'
CONST	ENDS
;	COMDAT ?m_nCategory@CTrace@ATL@@1IA
_DATA	SEGMENT
?m_nCategory@CTrace@ATL@@1IA DD 0ffffffffH		; ATL::CTrace::m_nCategory
_DATA	ENDS
;	COMDAT ??_C@_0BC@PGMFNIFA@atlTraceException@
CONST	SEGMENT
??_C@_0BC@PGMFNIFA@atlTraceException@ DB 'atlTraceException', 00H ; `string'
CONST	ENDS
;	COMDAT ??_C@_1OE@IAPLKPHI@?$AAc?$AA?3?$AA?2?$AAp?$AAr?$AAo?$AAg?$AAr?$AAa?$AAm?$AA?5?$AAf?$AAi?$AAl?$AAe@
CONST	SEGMENT
??_C@_1OE@IAPLKPHI@?$AAc?$AA?3?$AA?2?$AAp?$AAr?$AAo?$AAg?$AAr?$AAa?$AAm?$AA?5?$AAf?$AAi?$AAl?$AAe@ DB 'c'
	DB	00H, ':', 00H, '\', 00H, 'p', 00H, 'r', 00H, 'o', 00H, 'g', 00H
	DB	'r', 00H, 'a', 00H, 'm', 00H, ' ', 00H, 'f', 00H, 'i', 00H, 'l'
	DB	00H, 'e', 00H, 's', 00H, ' ', 00H, '(', 00H, 'x', 00H, '8', 00H
	DB	'6', 00H, ')', 00H, '\', 00H, 'm', 00H, 'i', 00H, 'c', 00H, 'r'
	DB	00H, 'o', 00H, 's', 00H, 'o', 00H, 'f', 00H, 't', 00H, ' ', 00H
	DB	'v', 00H, 'i', 00H, 's', 00H, 'u', 00H, 'a', 00H, 'l', 00H, ' '
	DB	00H, 's', 00H, 't', 00H, 'u', 00H, 'd', 00H, 'i', 00H, 'o', 00H
	DB	'\', 00H, '2', 00H, '0', 00H, '1', 00H, '7', 00H, '\', 00H, 'c'
	DB	00H, 'o', 00H, 'm', 00H, 'm', 00H, 'u', 00H, 'n', 00H, 'i', 00H
	DB	't', 00H, 'y', 00H, '\', 00H, 'v', 00H, 'c', 00H, '\', 00H, 't'
	DB	00H, 'o', 00H, 'o', 00H, 'l', 00H, 's', 00H, '\', 00H, 'm', 00H
	DB	's', 00H, 'v', 00H, 'c', 00H, '\', 00H, '1', 00H, '4', 00H, '.'
	DB	00H, '1', 00H, '6', 00H, '.', 00H, '2', 00H, '7', 00H, '0', 00H
	DB	'2', 00H, '3', 00H, '\', 00H, 'a', 00H, 't', 00H, 'l', 00H, 'm'
	DB	00H, 'f', 00H, 'c', 00H, '\', 00H, 'i', 00H, 'n', 00H, 'c', 00H
	DB	'l', 00H, 'u', 00H, 'd', 00H, 'e', 00H, '\', 00H, 'a', 00H, 't'
	DB	00H, 'l', 00H, 'a', 00H, 'l', 00H, 'l', 00H, 'o', 00H, 'c', 00H
	DB	'.', 00H, 'h', 00H, 00H, 00H			; `string'
CONST	ENDS
;	COMDAT ??_C@_17CNPHIMPH@?$AA?$CF?$AAl?$AAs@
CONST	SEGMENT
??_C@_17CNPHIMPH@?$AA?$CF?$AAl?$AAs@ DB '%', 00H, 'l', 00H, 's', 00H, 00H
	DB	00H						; `string'
CONST	ENDS
;	COMDAT xdata$x
xdata$x	SEGMENT
__unwindtable$?PerformDistribute@CLockTimeMatch@@IAE_NXZ DD 0ffffffffH
	DD	FLAT:__unwindfunclet$?PerformDistribute@CLockTimeMatch@@IAE_NXZ$0
__ehfuncinfo$?PerformDistribute@CLockTimeMatch@@IAE_NXZ DD 019930522H
	DD	01H
	DD	FLAT:__unwindtable$?PerformDistribute@CLockTimeMatch@@IAE_NXZ
	DD	2 DUP(00H)
	DD	2 DUP(00H)
	DD	00H
	DD	01H
xdata$x	ENDS
;	COMDAT xdata$x
xdata$x	SEGMENT
__unwindtable$?BindTableFrame@CLockTimeMatch@@UAE_NPAUITableFrame@@G@Z DD 0ffffffffH
	DD	FLAT:__unwindfunclet$?BindTableFrame@CLockTimeMatch@@UAE_NPAUITableFrame@@G@Z$0
__ehfuncinfo$?BindTableFrame@CLockTimeMatch@@UAE_NPAUITableFrame@@G@Z DD 019930522H
	DD	01H
	DD	FLAT:__unwindtable$?BindTableFrame@CLockTimeMatch@@UAE_NPAUITableFrame@@G@Z
	DD	2 DUP(00H)
	DD	2 DUP(00H)
	DD	00H
	DD	01H
xdata$x	ENDS
;	COMDAT xdata$x
xdata$x	SEGMENT
__catchsym$??1CLockTimeMatch@@UAE@XZ$3 DD 040H
	DD	00H
	DD	00H
	DD	FLAT:__catch$??1CLockTimeMatch@@UAE@XZ$0
__tryblocktable$??1CLockTimeMatch@@UAE@XZ DD 01H
	DD	01H
	DD	02H
	DD	01H
	DD	FLAT:__catchsym$??1CLockTimeMatch@@UAE@XZ$3
__unwindtable$??1CLockTimeMatch@@UAE@XZ DD 0ffffffffH
	DD	FLAT:__unwindfunclet$??1CLockTimeMatch@@UAE@XZ$2
	DD	00H
	DD	00H
	DD	00H
	DD	00H
__ehfuncinfo$??1CLockTimeMatch@@UAE@XZ DD 019930522H
	DD	03H
	DD	FLAT:__unwindtable$??1CLockTimeMatch@@UAE@XZ
	DD	01H
	DD	FLAT:__tryblocktable$??1CLockTimeMatch@@UAE@XZ
	DD	2 DUP(00H)
	DD	00H
	DD	05H
xdata$x	ENDS
;	COMDAT xdata$x
xdata$x	SEGMENT
__unwindtable$??RCTraceFileAndLineInfo@ATL@@QBAXHIPBDZZ DD 0ffffffffH
	DD	FLAT:__unwindfunclet$??RCTraceFileAndLineInfo@ATL@@QBAXHIPBDZZ$0
__ehfuncinfo$??RCTraceFileAndLineInfo@ATL@@QBAXHIPBDZZ DD 019930522H
	DD	01H
	DD	FLAT:__unwindtable$??RCTraceFileAndLineInfo@ATL@@QBAXHIPBDZZ
	DD	2 DUP(00H)
	DD	2 DUP(00H)
	DD	00H
	DD	01H
xdata$x	ENDS
;	COMDAT xdata$x
xdata$x	SEGMENT
__unwindtable$?TraceV@CTrace@ATL@@SAXPBDHII0PAD@Z DD 0ffffffffH
	DD	FLAT:__unwindfunclet$?TraceV@CTrace@ATL@@SAXPBDHII0PAD@Z$0
	DD	00H
	DD	FLAT:__unwindfunclet$?TraceV@CTrace@ATL@@SAXPBDHII0PAD@Z$1
__ehfuncinfo$?TraceV@CTrace@ATL@@SAXPBDHII0PAD@Z DD 019930522H
	DD	02H
	DD	FLAT:__unwindtable$?TraceV@CTrace@ATL@@SAXPBDHII0PAD@Z
	DD	2 DUP(00H)
	DD	2 DUP(00H)
	DD	00H
	DD	01H
xdata$x	ENDS
; Function compile flags: /Odsp /ZI
;	COMDAT ?QueryInterface@CLockTimeMatch@@W7AEPAXABU_GUID@@K@Z
_TEXT	SEGMENT
?QueryInterface@CLockTimeMatch@@W7AEPAXABU_GUID@@K@Z PROC ; [thunk]:CLockTimeMatch::QueryInterface`adjustor{8}', COMDAT
  00000	83 e9 08	 sub	 ecx, 8
  00003	e9 00 00 00 00	 jmp	 ?QueryInterface@CLockTimeMatch@@UAEPAXABU_GUID@@K@Z ; CLockTimeMatch::QueryInterface
?QueryInterface@CLockTimeMatch@@W7AEPAXABU_GUID@@K@Z ENDP ; [thunk]:CLockTimeMatch::QueryInterface`adjustor{8}'
_TEXT	ENDS
; Function compile flags: /Odsp /ZI
;	COMDAT ?Release@CLockTimeMatch@@W7AEXXZ
_TEXT	SEGMENT
?Release@CLockTimeMatch@@W7AEXXZ PROC			; [thunk]:CLockTimeMatch::Release`adjustor{8}', COMDAT
  00000	83 e9 08	 sub	 ecx, 8
  00003	e9 00 00 00 00	 jmp	 ?Release@CLockTimeMatch@@UAEXXZ ; CLockTimeMatch::Release
?Release@CLockTimeMatch@@W7AEXXZ ENDP			; [thunk]:CLockTimeMatch::Release`adjustor{8}'
_TEXT	ENDS
; Function compile flags: /Odsp /ZI
;	COMDAT ?QueryInterface@CLockTimeMatch@@W3AEPAXABU_GUID@@K@Z
_TEXT	SEGMENT
?QueryInterface@CLockTimeMatch@@W3AEPAXABU_GUID@@K@Z PROC ; [thunk]:CLockTimeMatch::QueryInterface`adjustor{4}', COMDAT
  00000	83 e9 04	 sub	 ecx, 4
  00003	e9 00 00 00 00	 jmp	 ?QueryInterface@CLockTimeMatch@@UAEPAXABU_GUID@@K@Z ; CLockTimeMatch::QueryInterface
?QueryInterface@CLockTimeMatch@@W3AEPAXABU_GUID@@K@Z ENDP ; [thunk]:CLockTimeMatch::QueryInterface`adjustor{4}'
_TEXT	ENDS
; Function compile flags: /Odsp /ZI
;	COMDAT ?Release@CLockTimeMatch@@W3AEXXZ
_TEXT	SEGMENT
?Release@CLockTimeMatch@@W3AEXXZ PROC			; [thunk]:CLockTimeMatch::Release`adjustor{4}', COMDAT
  00000	83 e9 04	 sub	 ecx, 4
  00003	e9 00 00 00 00	 jmp	 ?Release@CLockTimeMatch@@UAEXXZ ; CLockTimeMatch::Release
?Release@CLockTimeMatch@@W3AEXXZ ENDP			; [thunk]:CLockTimeMatch::Release`adjustor{4}'
_TEXT	ENDS
; Function compile flags: /Odtp /ZI
;	COMDAT ??_G?$CWHArray@UtagDistributeInfo@@ABU1@@@UAEPAXI@Z
_TEXT	SEGMENT
_this$ = -4						; size = 4
___flags$ = 8						; size = 4
??_G?$CWHArray@UtagDistributeInfo@@ABU1@@@UAEPAXI@Z PROC ; CWHArray<tagDistributeInfo,tagDistributeInfo const &>::`scalar deleting destructor', COMDAT
; _this$ = ecx
  00000	55		 push	 ebp
  00001	8b ec		 mov	 ebp, esp
  00003	83 ec 44	 sub	 esp, 68			; 00000044H
  00006	53		 push	 ebx
  00007	56		 push	 esi
  00008	57		 push	 edi
  00009	89 4d fc	 mov	 DWORD PTR _this$[ebp], ecx
  0000c	8b 4d fc	 mov	 ecx, DWORD PTR _this$[ebp]
  0000f	e8 00 00 00 00	 call	 ??1?$CWHArray@UtagDistributeInfo@@ABU1@@@UAE@XZ ; CWHArray<tagDistributeInfo,tagDistributeInfo const &>::~CWHArray<tagDistributeInfo,tagDistributeInfo const &>
  00014	8b 45 08	 mov	 eax, DWORD PTR ___flags$[ebp]
  00017	83 e0 01	 and	 eax, 1
  0001a	74 0e		 je	 SHORT $LN2@scalar
  0001c	6a 14		 push	 20			; 00000014H
  0001e	8b 45 fc	 mov	 eax, DWORD PTR _this$[ebp]
  00021	50		 push	 eax
  00022	e8 00 00 00 00	 call	 ??3@YAXPAXI@Z		; operator delete
  00027	83 c4 08	 add	 esp, 8
$LN2@scalar:
  0002a	8b 45 fc	 mov	 eax, DWORD PTR _this$[ebp]
  0002d	5f		 pop	 edi
  0002e	5e		 pop	 esi
  0002f	5b		 pop	 ebx
  00030	8b e5		 mov	 esp, ebp
  00032	5d		 pop	 ebp
  00033	c2 04 00	 ret	 4
??_G?$CWHArray@UtagDistributeInfo@@ABU1@@@UAEPAXI@Z ENDP ; CWHArray<tagDistributeInfo,tagDistributeInfo const &>::`scalar deleting destructor'
_TEXT	ENDS
; Function compile flags: /Odtp /ZI
; File g:\网狐\happygamewh\服务端\系统模块\全局定义\array.h
;	COMDAT ??A?$CWHArray@UtagDistributeInfo@@ABU1@@@QAEAAUtagDistributeInfo@@H@Z
_TEXT	SEGMENT
_this$ = -4						; size = 4
_nIndex$ = 8						; size = 4
??A?$CWHArray@UtagDistributeInfo@@ABU1@@@QAEAAUtagDistributeInfo@@H@Z PROC ; CWHArray<tagDistributeInfo,tagDistributeInfo const &>::operator[], COMDAT
; _this$ = ecx

; 114  : { 

  00000	55		 push	 ebp
  00001	8b ec		 mov	 ebp, esp
  00003	83 ec 44	 sub	 esp, 68			; 00000044H
  00006	53		 push	 ebx
  00007	56		 push	 esi
  00008	57		 push	 edi
  00009	89 4d fc	 mov	 DWORD PTR _this$[ebp], ecx

; 115  : 	return ElementAt(nIndex);

  0000c	8b 45 08	 mov	 eax, DWORD PTR _nIndex$[ebp]
  0000f	50		 push	 eax
  00010	8b 4d fc	 mov	 ecx, DWORD PTR _this$[ebp]
  00013	e8 00 00 00 00	 call	 ?ElementAt@?$CWHArray@UtagDistributeInfo@@ABU1@@@QAEAAUtagDistributeInfo@@H@Z ; CWHArray<tagDistributeInfo,tagDistributeInfo const &>::ElementAt

; 116  : }

  00018	5f		 pop	 edi
  00019	5e		 pop	 esi
  0001a	5b		 pop	 ebx
  0001b	8b e5		 mov	 esp, ebp
  0001d	5d		 pop	 ebp
  0001e	c2 04 00	 ret	 4
??A?$CWHArray@UtagDistributeInfo@@ABU1@@@QAEAAUtagDistributeInfo@@H@Z ENDP ; CWHArray<tagDistributeInfo,tagDistributeInfo const &>::operator[]
_TEXT	ENDS
; Function compile flags: /Odtp /ZI
; File g:\网狐\happygamewh\服务端\系统模块\全局定义\array.h
;	COMDAT ?ElementAt@?$CWHArray@UtagDistributeInfo@@ABU1@@@QAEAAUtagDistributeInfo@@H@Z
_TEXT	SEGMENT
_this$ = -4						; size = 4
_nIndex$ = 8						; size = 4
?ElementAt@?$CWHArray@UtagDistributeInfo@@ABU1@@@QAEAAUtagDistributeInfo@@H@Z PROC ; CWHArray<tagDistributeInfo,tagDistributeInfo const &>::ElementAt, COMDAT
; _this$ = ecx

; 232  : {

  00000	55		 push	 ebp
  00001	8b ec		 mov	 ebp, esp
  00003	83 ec 44	 sub	 esp, 68			; 00000044H
  00006	53		 push	 ebx
  00007	56		 push	 esi
  00008	57		 push	 edi
  00009	89 4d fc	 mov	 DWORD PTR _this$[ebp], ecx

; 233  : 	ASSERT((nIndex>=0)&&(nIndex<m_nElementCount));

  0000c	83 7d 08 00	 cmp	 DWORD PTR _nIndex$[ebp], 0
  00010	7c 0b		 jl	 SHORT $LN4@ElementAt
  00012	8b 45 fc	 mov	 eax, DWORD PTR _this$[ebp]
  00015	8b 4d 08	 mov	 ecx, DWORD PTR _nIndex$[ebp]
  00018	3b 48 10	 cmp	 ecx, DWORD PTR [eax+16]
  0001b	7c 14		 jl	 SHORT $LN5@ElementAt
$LN4@ElementAt:
  0001d	68 e9 00 00 00	 push	 233			; 000000e9H
  00022	68 00 00 00 00	 push	 OFFSET ??_C@_0DF@LDFGAABH@g?3?2?M?x?$LK?$PM?2happygamewh?2?$LH?$PO?N?q?$LG?K?2?O?$LF?M?$LD@
  00027	e8 00 00 00 00	 call	 ?AfxAssertFailedLine@@YGHPBDH@Z ; AfxAssertFailedLine
  0002c	85 c0		 test	 eax, eax
  0002e	74 01		 je	 SHORT $LN5@ElementAt
  00030	cc		 int	 3
$LN5@ElementAt:

; 234  : 	if ((nIndex<0)&&(nIndex>=m_nElementCount)) AfxThrowInvalidArgException();

  00031	83 7d 08 00	 cmp	 DWORD PTR _nIndex$[ebp], 0
  00035	7d 10		 jge	 SHORT $LN2@ElementAt
  00037	8b 45 fc	 mov	 eax, DWORD PTR _this$[ebp]
  0003a	8b 4d 08	 mov	 ecx, DWORD PTR _nIndex$[ebp]
  0003d	3b 48 10	 cmp	 ecx, DWORD PTR [eax+16]
  00040	7c 05		 jl	 SHORT $LN2@ElementAt
  00042	e8 00 00 00 00	 call	 ?AfxThrowInvalidArgException@@YGXXZ ; AfxThrowInvalidArgException
$LN2@ElementAt:

; 235  : 	
; 236  : 	return m_pData[nIndex];

  00047	6b 45 08 14	 imul	 eax, DWORD PTR _nIndex$[ebp], 20
  0004b	8b 4d fc	 mov	 ecx, DWORD PTR _this$[ebp]
  0004e	03 41 04	 add	 eax, DWORD PTR [ecx+4]
$LN3@ElementAt:

; 237  : }

  00051	5f		 pop	 edi
  00052	5e		 pop	 esi
  00053	5b		 pop	 ebx
  00054	8b e5		 mov	 esp, ebp
  00056	5d		 pop	 ebp
  00057	c2 04 00	 ret	 4
?ElementAt@?$CWHArray@UtagDistributeInfo@@ABU1@@@QAEAAUtagDistributeInfo@@H@Z ENDP ; CWHArray<tagDistributeInfo,tagDistributeInfo const &>::ElementAt
_TEXT	ENDS
; Function compile flags: /Odtp /ZI
; File g:\网狐\happygamewh\服务端\系统模块\全局定义\array.h
;	COMDAT ?GetCount@?$CWHArray@UtagDistributeInfo@@ABU1@@@QBEHXZ
_TEXT	SEGMENT
_this$ = -4						; size = 4
?GetCount@?$CWHArray@UtagDistributeInfo@@ABU1@@@QBEHXZ PROC ; CWHArray<tagDistributeInfo,tagDistributeInfo const &>::GetCount, COMDAT
; _this$ = ecx

; 98   : {

  00000	55		 push	 ebp
  00001	8b ec		 mov	 ebp, esp
  00003	83 ec 44	 sub	 esp, 68			; 00000044H
  00006	53		 push	 ebx
  00007	56		 push	 esi
  00008	57		 push	 edi
  00009	89 4d fc	 mov	 DWORD PTR _this$[ebp], ecx

; 99   : 	return m_nElementCount;

  0000c	8b 45 fc	 mov	 eax, DWORD PTR _this$[ebp]
  0000f	8b 40 10	 mov	 eax, DWORD PTR [eax+16]

; 100  : }

  00012	5f		 pop	 edi
  00013	5e		 pop	 esi
  00014	5b		 pop	 ebx
  00015	8b e5		 mov	 esp, ebp
  00017	5d		 pop	 ebp
  00018	c3		 ret	 0
?GetCount@?$CWHArray@UtagDistributeInfo@@ABU1@@@QBEHXZ ENDP ; CWHArray<tagDistributeInfo,tagDistributeInfo const &>::GetCount
_TEXT	ENDS
; Function compile flags: /Odtp /ZI
; File g:\网狐\happygamewh\服务端\系统模块\全局定义\array.h
;	COMDAT ??1?$CWHArray@UtagDistributeInfo@@ABU1@@@UAE@XZ
_TEXT	SEGMENT
$T1 = -76						; size = 4
_i$2 = -8						; size = 4
_this$ = -4						; size = 4
??1?$CWHArray@UtagDistributeInfo@@ABU1@@@UAE@XZ PROC	; CWHArray<tagDistributeInfo,tagDistributeInfo const &>::~CWHArray<tagDistributeInfo,tagDistributeInfo const &>, COMDAT
; _this$ = ecx

; 143  : {

  00000	55		 push	 ebp
  00001	8b ec		 mov	 ebp, esp
  00003	83 ec 4c	 sub	 esp, 76			; 0000004cH
  00006	53		 push	 ebx
  00007	56		 push	 esi
  00008	57		 push	 edi
  00009	89 4d fc	 mov	 DWORD PTR _this$[ebp], ecx
  0000c	8b 45 fc	 mov	 eax, DWORD PTR _this$[ebp]
  0000f	c7 00 00 00 00
	00		 mov	 DWORD PTR [eax], OFFSET ??_7?$CWHArray@UtagDistributeInfo@@ABU1@@@6B@

; 144  : 	if (m_pData!=NULL)

  00015	8b 45 fc	 mov	 eax, DWORD PTR _this$[ebp]
  00018	83 78 04 00	 cmp	 DWORD PTR [eax+4], 0
  0001c	74 3e		 je	 SHORT $LN6@CWHArray

; 145  : 	{
; 146  : 		for (INT_PTR i=0;i<m_nElementCount;i++)	(m_pData+i)->~TYPE();

  0001e	c7 45 f8 00 00
	00 00		 mov	 DWORD PTR _i$2[ebp], 0
  00025	eb 09		 jmp	 SHORT $LN4@CWHArray
$LN2@CWHArray:
  00027	8b 45 f8	 mov	 eax, DWORD PTR _i$2[ebp]
  0002a	83 c0 01	 add	 eax, 1
  0002d	89 45 f8	 mov	 DWORD PTR _i$2[ebp], eax
$LN4@CWHArray:
  00030	8b 45 fc	 mov	 eax, DWORD PTR _this$[ebp]
  00033	8b 4d f8	 mov	 ecx, DWORD PTR _i$2[ebp]
  00036	3b 48 10	 cmp	 ecx, DWORD PTR [eax+16]
  00039	7d 02		 jge	 SHORT $LN3@CWHArray
  0003b	eb ea		 jmp	 SHORT $LN2@CWHArray
$LN3@CWHArray:

; 147  : 		delete [] (BYTE *)m_pData;

  0003d	8b 45 fc	 mov	 eax, DWORD PTR _this$[ebp]
  00040	8b 48 04	 mov	 ecx, DWORD PTR [eax+4]
  00043	89 4d b4	 mov	 DWORD PTR $T1[ebp], ecx
  00046	8b 55 b4	 mov	 edx, DWORD PTR $T1[ebp]
  00049	52		 push	 edx
  0004a	e8 00 00 00 00	 call	 ??_V@YAXPAX@Z		; operator delete[]
  0004f	83 c4 04	 add	 esp, 4

; 148  : 		m_pData=NULL;

  00052	8b 45 fc	 mov	 eax, DWORD PTR _this$[ebp]
  00055	c7 40 04 00 00
	00 00		 mov	 DWORD PTR [eax+4], 0
$LN6@CWHArray:

; 149  : 	}
; 150  : 
; 151  : 	return;
; 152  : }

  0005c	5f		 pop	 edi
  0005d	5e		 pop	 esi
  0005e	5b		 pop	 ebx
  0005f	8b e5		 mov	 esp, ebp
  00061	5d		 pop	 ebp
  00062	c3		 ret	 0
??1?$CWHArray@UtagDistributeInfo@@ABU1@@@UAE@XZ ENDP	; CWHArray<tagDistributeInfo,tagDistributeInfo const &>::~CWHArray<tagDistributeInfo,tagDistributeInfo const &>
_TEXT	ENDS
; Function compile flags: /Odtp /ZI
; File g:\网狐\happygamewh\服务端\系统模块\全局定义\array.h
;	COMDAT ??0?$CWHArray@UtagDistributeInfo@@ABU1@@@QAE@XZ
_TEXT	SEGMENT
_this$ = -4						; size = 4
??0?$CWHArray@UtagDistributeInfo@@ABU1@@@QAE@XZ PROC	; CWHArray<tagDistributeInfo,tagDistributeInfo const &>::CWHArray<tagDistributeInfo,tagDistributeInfo const &>, COMDAT
; _this$ = ecx

; 131  : {

  00000	55		 push	 ebp
  00001	8b ec		 mov	 ebp, esp
  00003	83 ec 44	 sub	 esp, 68			; 00000044H
  00006	53		 push	 ebx
  00007	56		 push	 esi
  00008	57		 push	 edi
  00009	89 4d fc	 mov	 DWORD PTR _this$[ebp], ecx
  0000c	8b 45 fc	 mov	 eax, DWORD PTR _this$[ebp]
  0000f	c7 00 00 00 00
	00		 mov	 DWORD PTR [eax], OFFSET ??_7?$CWHArray@UtagDistributeInfo@@ABU1@@@6B@

; 132  : 	m_pData=NULL;

  00015	8b 45 fc	 mov	 eax, DWORD PTR _this$[ebp]
  00018	c7 40 04 00 00
	00 00		 mov	 DWORD PTR [eax+4], 0

; 133  : 	m_nMaxCount=0;

  0001f	8b 45 fc	 mov	 eax, DWORD PTR _this$[ebp]
  00022	c7 40 08 00 00
	00 00		 mov	 DWORD PTR [eax+8], 0

; 134  : 	m_nGrowCount=0;

  00029	8b 45 fc	 mov	 eax, DWORD PTR _this$[ebp]
  0002c	c7 40 0c 00 00
	00 00		 mov	 DWORD PTR [eax+12], 0

; 135  : 	m_nElementCount=0;

  00033	8b 45 fc	 mov	 eax, DWORD PTR _this$[ebp]
  00036	c7 40 10 00 00
	00 00		 mov	 DWORD PTR [eax+16], 0

; 136  : 
; 137  : 	return;
; 138  : }

  0003d	8b 45 fc	 mov	 eax, DWORD PTR _this$[ebp]
  00040	5f		 pop	 edi
  00041	5e		 pop	 esi
  00042	5b		 pop	 ebx
  00043	8b e5		 mov	 esp, ebp
  00045	5d		 pop	 ebp
  00046	c3		 ret	 0
??0?$CWHArray@UtagDistributeInfo@@ABU1@@@QAE@XZ ENDP	; CWHArray<tagDistributeInfo,tagDistributeInfo const &>::CWHArray<tagDistributeInfo,tagDistributeInfo const &>
_TEXT	ENDS
; Function compile flags: /Odtp /ZI
; File c:\program files (x86)\windows kits\10\include\10.0.17763.0\ucrt\stdio.h
;	COMDAT ??$_snprintf_s@$0EA@@@YAHAAY0EA@DIPBDZZ
_TEXT	SEGMENT
__ArgList$ = -4						; size = 4
__Buffer$ = 8						; size = 4
__BufferCount$ = 12					; size = 4
__Format$ = 16						; size = 4
??$_snprintf_s@$0EA@@@YAHAAY0EA@DIPBDZZ PROC		; _snprintf_s<64>, COMDAT

; 2079 :         )

  00000	55		 push	 ebp
  00001	8b ec		 mov	 ebp, esp
  00003	83 ec 48	 sub	 esp, 72			; 00000048H
  00006	53		 push	 ebx
  00007	56		 push	 esi
  00008	57		 push	 edi

; 2073 :     __DEFINE_CPP_OVERLOAD_SECURE_FUNC_0_2_ARGLIST(

  00009	8d 45 14	 lea	 eax, DWORD PTR __Format$[ebp+4]
  0000c	89 45 fc	 mov	 DWORD PTR __ArgList$[ebp], eax
  0000f	8b 45 fc	 mov	 eax, DWORD PTR __ArgList$[ebp]
  00012	50		 push	 eax
  00013	8b 4d 10	 mov	 ecx, DWORD PTR __Format$[ebp]
  00016	51		 push	 ecx
  00017	8b 55 0c	 mov	 edx, DWORD PTR __BufferCount$[ebp]
  0001a	52		 push	 edx
  0001b	6a 40		 push	 64			; 00000040H
  0001d	8b 45 08	 mov	 eax, DWORD PTR __Buffer$[ebp]
  00020	50		 push	 eax
  00021	e8 00 00 00 00	 call	 __vsnprintf_s
  00026	83 c4 14	 add	 esp, 20			; 00000014H
  00029	5f		 pop	 edi
  0002a	5e		 pop	 esi
  0002b	5b		 pop	 ebx
  0002c	8b e5		 mov	 esp, ebp
  0002e	5d		 pop	 ebp
  0002f	c3		 ret	 0
??$_snprintf_s@$0EA@@@YAHAAY0EA@DIPBDZZ ENDP		; _snprintf_s<64>
_TEXT	ENDS
; Function compile flags: /Odtp /ZI
; File c:\program files (x86)\windows kits\10\include\10.0.17763.0\ucrt\stdio.h
;	COMDAT ??$_snprintf_s@$0IA@@@YAHAAY0IA@DIPBDZZ
_TEXT	SEGMENT
__ArgList$ = -4						; size = 4
__Buffer$ = 8						; size = 4
__BufferCount$ = 12					; size = 4
__Format$ = 16						; size = 4
??$_snprintf_s@$0IA@@@YAHAAY0IA@DIPBDZZ PROC		; _snprintf_s<128>, COMDAT

; 2079 :         )

  00000	55		 push	 ebp
  00001	8b ec		 mov	 ebp, esp
  00003	83 ec 48	 sub	 esp, 72			; 00000048H
  00006	53		 push	 ebx
  00007	56		 push	 esi
  00008	57		 push	 edi

; 2073 :     __DEFINE_CPP_OVERLOAD_SECURE_FUNC_0_2_ARGLIST(

  00009	8d 45 14	 lea	 eax, DWORD PTR __Format$[ebp+4]
  0000c	89 45 fc	 mov	 DWORD PTR __ArgList$[ebp], eax
  0000f	8b 45 fc	 mov	 eax, DWORD PTR __ArgList$[ebp]
  00012	50		 push	 eax
  00013	8b 4d 10	 mov	 ecx, DWORD PTR __Format$[ebp]
  00016	51		 push	 ecx
  00017	8b 55 0c	 mov	 edx, DWORD PTR __BufferCount$[ebp]
  0001a	52		 push	 edx
  0001b	68 80 00 00 00	 push	 128			; 00000080H
  00020	8b 45 08	 mov	 eax, DWORD PTR __Buffer$[ebp]
  00023	50		 push	 eax
  00024	e8 00 00 00 00	 call	 __vsnprintf_s
  00029	83 c4 14	 add	 esp, 20			; 00000014H
  0002c	5f		 pop	 edi
  0002d	5e		 pop	 esi
  0002e	5b		 pop	 ebx
  0002f	8b e5		 mov	 esp, ebp
  00031	5d		 pop	 ebp
  00032	c3		 ret	 0
??$_snprintf_s@$0IA@@@YAHAAY0IA@DIPBDZZ ENDP		; _snprintf_s<128>
_TEXT	ENDS
; Function compile flags: /Odtp /ZI
;	COMDAT ??_GCLockTimeMatch@@UAEPAXI@Z
_TEXT	SEGMENT
_this$ = -4						; size = 4
___flags$ = 8						; size = 4
??_GCLockTimeMatch@@UAEPAXI@Z PROC			; CLockTimeMatch::`scalar deleting destructor', COMDAT
; _this$ = ecx
  00000	55		 push	 ebp
  00001	8b ec		 mov	 ebp, esp
  00003	83 ec 44	 sub	 esp, 68			; 00000044H
  00006	53		 push	 ebx
  00007	56		 push	 esi
  00008	57		 push	 edi
  00009	89 4d fc	 mov	 DWORD PTR _this$[ebp], ecx
  0000c	8b 4d fc	 mov	 ecx, DWORD PTR _this$[ebp]
  0000f	e8 00 00 00 00	 call	 ??1CLockTimeMatch@@UAE@XZ ; CLockTimeMatch::~CLockTimeMatch
  00014	8b 45 08	 mov	 eax, DWORD PTR ___flags$[ebp]
  00017	83 e0 01	 and	 eax, 1
  0001a	74 11		 je	 SHORT $LN2@scalar
  0001c	68 a4 00 00 00	 push	 164			; 000000a4H
  00021	8b 45 fc	 mov	 eax, DWORD PTR _this$[ebp]
  00024	50		 push	 eax
  00025	e8 00 00 00 00	 call	 ??3@YAXPAXI@Z		; operator delete
  0002a	83 c4 08	 add	 esp, 8
$LN2@scalar:
  0002d	8b 45 fc	 mov	 eax, DWORD PTR _this$[ebp]
  00030	5f		 pop	 edi
  00031	5e		 pop	 esi
  00032	5b		 pop	 ebx
  00033	8b e5		 mov	 esp, ebp
  00035	5d		 pop	 ebp
  00036	c2 04 00	 ret	 4
??_GCLockTimeMatch@@UAEPAXI@Z ENDP			; CLockTimeMatch::`scalar deleting destructor'
_TEXT	ENDS
; Function compile flags: /Odtp /ZI
; File g:\网狐\happygamewh\服务端\系统模块\服务器组件\比赛服务\locktimematch.cpp
;	COMDAT ?WriteUserAward@CLockTimeMatch@@IAE_NPAUIServerUserItem@@PAUtagMatchRankInfo@@@Z
_TEXT	SEGMENT
tv86 = -244						; size = 4
_MatchResult$1 = -176					; size = 134
_MatchReward$2 = -40					; size = 32
_this$ = -8						; size = 4
__$ArrayPad$ = -4					; size = 4
_pIServerUserItem$ = 8					; size = 4
_pMatchRankInfo$ = 12					; size = 4
?WriteUserAward@CLockTimeMatch@@IAE_NPAUIServerUserItem@@PAUtagMatchRankInfo@@@Z PROC ; CLockTimeMatch::WriteUserAward, COMDAT
; _this$ = ecx

; 2589 : {

  00000	55		 push	 ebp
  00001	8b ec		 mov	 ebp, esp
  00003	81 ec f4 00 00
	00		 sub	 esp, 244		; 000000f4H
  00009	a1 00 00 00 00	 mov	 eax, DWORD PTR ___security_cookie
  0000e	33 c5		 xor	 eax, ebp
  00010	89 45 fc	 mov	 DWORD PTR __$ArrayPad$[ebp], eax
  00013	53		 push	 ebx
  00014	56		 push	 esi
  00015	57		 push	 edi
  00016	89 4d f8	 mov	 DWORD PTR _this$[ebp], ecx

; 2590 : 	//参数效验
; 2591 : 	ASSERT(pMatchRankInfo!=NULL);

  00019	83 7d 0c 00	 cmp	 DWORD PTR _pMatchRankInfo$[ebp], 0
  0001d	75 18		 jne	 SHORT $LN7@WriteUserA
  0001f	a1 00 00 00 00	 mov	 eax, DWORD PTR ?__LINE__Var@?0??WriteUserAward@CLockTimeMatch@@IAE_NPAUIServerUserItem@@PAUtagMatchRankInfo@@@Z@4JA
  00024	83 c0 02	 add	 eax, 2
  00027	50		 push	 eax
  00028	68 00 00 00 00	 push	 OFFSET ??_C@_0EK@PLFANKAP@g?3?2?M?x?$LK?$PM?2happygamewh?2?$LH?$PO?N?q?$LG?K?2?O?$LF?M?$LD@
  0002d	e8 00 00 00 00	 call	 ?AfxAssertFailedLine@@YGHPBDH@Z ; AfxAssertFailedLine
  00032	85 c0		 test	 eax, eax
  00034	74 01		 je	 SHORT $LN7@WriteUserA
  00036	cc		 int	 3
$LN7@WriteUserA:

; 2592 : 	if(pMatchRankInfo==NULL) return false;

  00037	83 7d 0c 00	 cmp	 DWORD PTR _pMatchRankInfo$[ebp], 0
  0003b	75 07		 jne	 SHORT $LN2@WriteUserA
  0003d	32 c0		 xor	 al, al
  0003f	e9 91 01 00 00	 jmp	 $LN1@WriteUserA
$LN2@WriteUserA:

; 2593 : 
; 2594 : 	//写入记录
; 2595 : 	if (m_pIDataBaseEngine!=NULL)

  00044	8b 45 f8	 mov	 eax, DWORD PTR _this$[ebp]
  00047	83 b8 8c 00 00
	00 00		 cmp	 DWORD PTR [eax+140], 0
  0004e	0f 84 9e 00 00
	00		 je	 $LN3@WriteUserA

; 2596 : 	{
; 2597 : 		//变量定义
; 2598 : 		DBR_GR_MatchReward MatchReward;
; 2599 : 		ZeroMemory(&MatchReward,sizeof(MatchReward));

  00054	6a 20		 push	 32			; 00000020H
  00056	6a 00		 push	 0
  00058	8d 45 d8	 lea	 eax, DWORD PTR _MatchReward$2[ebp]
  0005b	50		 push	 eax
  0005c	e8 00 00 00 00	 call	 _memset
  00061	83 c4 0c	 add	 esp, 12			; 0000000cH

; 2600 : 		
; 2601 : 		//构造结构
; 2602 : 		MatchReward.dwUserID=pMatchRankInfo->dwUserID;			

  00064	8b 45 0c	 mov	 eax, DWORD PTR _pMatchRankInfo$[ebp]
  00067	8b 48 04	 mov	 ecx, DWORD PTR [eax+4]
  0006a	89 4d d8	 mov	 DWORD PTR _MatchReward$2[ebp], ecx

; 2603 : 		MatchReward.lRewardGold=pMatchRankInfo->lRewardGold;

  0006d	8b 45 0c	 mov	 eax, DWORD PTR _pMatchRankInfo$[ebp]
  00070	8b 48 10	 mov	 ecx, DWORD PTR [eax+16]
  00073	89 4d e0	 mov	 DWORD PTR _MatchReward$2[ebp+8], ecx
  00076	8b 50 14	 mov	 edx, DWORD PTR [eax+20]
  00079	89 55 e4	 mov	 DWORD PTR _MatchReward$2[ebp+12], edx

; 2604 : 		MatchReward.lRewardIngot=pMatchRankInfo->lRewardIngot;

  0007c	8b 45 0c	 mov	 eax, DWORD PTR _pMatchRankInfo$[ebp]
  0007f	8b 48 18	 mov	 ecx, DWORD PTR [eax+24]
  00082	89 4d e8	 mov	 DWORD PTR _MatchReward$2[ebp+16], ecx
  00085	8b 50 1c	 mov	 edx, DWORD PTR [eax+28]
  00088	89 55 ec	 mov	 DWORD PTR _MatchReward$2[ebp+20], edx

; 2605 : 		MatchReward.dwRewardExperience=pMatchRankInfo->dwRewardExperience;

  0008b	8b 45 0c	 mov	 eax, DWORD PTR _pMatchRankInfo$[ebp]
  0008e	8b 48 20	 mov	 ecx, DWORD PTR [eax+32]
  00091	89 4d f0	 mov	 DWORD PTR _MatchReward$2[ebp+24], ecx

; 2606 : 		MatchReward.dwClientAddr=pIServerUserItem?pIServerUserItem->GetClientAddr():0;

  00094	83 7d 08 00	 cmp	 DWORD PTR _pIServerUserItem$[ebp], 0
  00098	74 15		 je	 SHORT $LN8@WriteUserA
  0009a	8b 45 08	 mov	 eax, DWORD PTR _pIServerUserItem$[ebp]
  0009d	8b 10		 mov	 edx, DWORD PTR [eax]
  0009f	8b 4d 08	 mov	 ecx, DWORD PTR _pIServerUserItem$[ebp]
  000a2	8b 42 0c	 mov	 eax, DWORD PTR [edx+12]
  000a5	ff d0		 call	 eax
  000a7	89 85 0c ff ff
	ff		 mov	 DWORD PTR tv86[ebp], eax
  000ad	eb 0a		 jmp	 SHORT $LN9@WriteUserA
$LN8@WriteUserA:
  000af	c7 85 0c ff ff
	ff 00 00 00 00	 mov	 DWORD PTR tv86[ebp], 0
$LN9@WriteUserA:
  000b9	8b 8d 0c ff ff
	ff		 mov	 ecx, DWORD PTR tv86[ebp]
  000bf	89 4d f4	 mov	 DWORD PTR _MatchReward$2[ebp+28], ecx

; 2607 : 
; 2608 : 		//投递数据
; 2609 : 		m_pIDataBaseEngine->PostDataBaseRequest(MatchReward.dwUserID,DBR_GR_MATCH_REWARD,0,&MatchReward,sizeof(MatchReward));

  000c2	6a 00		 push	 0
  000c4	6a 20		 push	 32			; 00000020H
  000c6	8d 45 d8	 lea	 eax, DWORD PTR _MatchReward$2[ebp]
  000c9	50		 push	 eax
  000ca	6a 00		 push	 0
  000cc	68 60 02 00 00	 push	 608			; 00000260H
  000d1	8b 4d d8	 mov	 ecx, DWORD PTR _MatchReward$2[ebp]
  000d4	51		 push	 ecx
  000d5	8b 55 f8	 mov	 edx, DWORD PTR _this$[ebp]
  000d8	8b 82 8c 00 00
	00		 mov	 eax, DWORD PTR [edx+140]
  000de	8b 4d f8	 mov	 ecx, DWORD PTR _this$[ebp]
  000e1	8b 91 8c 00 00
	00		 mov	 edx, DWORD PTR [ecx+140]
  000e7	8b 00		 mov	 eax, DWORD PTR [eax]
  000e9	52		 push	 edx
  000ea	8b 48 14	 mov	 ecx, DWORD PTR [eax+20]
  000ed	ff d1		 call	 ecx
  000ef	83 c4 1c	 add	 esp, 28			; 0000001cH
$LN3@WriteUserA:

; 2610 : 	}
; 2611 : 
; 2612 : 	//在线玩家
; 2613 : 	if (pIServerUserItem!=NULL)

  000f2	83 7d 08 00	 cmp	 DWORD PTR _pIServerUserItem$[ebp], 0
  000f6	0f 84 d7 00 00
	00		 je	 $LN4@WriteUserA

; 2614 : 	{
; 2615 : 		//变量定义
; 2616 : 		CMD_GR_MatchResult MatchResult;
; 2617 : 		ZeroMemory(&MatchResult,sizeof(MatchResult));

  000fc	68 86 00 00 00	 push	 134			; 00000086H
  00101	6a 00		 push	 0
  00103	8d 85 50 ff ff
	ff		 lea	 eax, DWORD PTR _MatchResult$1[ebp]
  00109	50		 push	 eax
  0010a	e8 00 00 00 00	 call	 _memset
  0010f	83 c4 0c	 add	 esp, 12			; 0000000cH

; 2618 : 
; 2619 : 		//比赛奖励
; 2620 : 		GetSystemTime(&MatchResult.MatchEndTime);

  00112	8d 45 c6	 lea	 eax, DWORD PTR _MatchResult$1[ebp+118]
  00115	50		 push	 eax
  00116	ff 15 00 00 00
	00		 call	 DWORD PTR __imp__GetSystemTime@4

; 2621 : 		MatchResult.wMatchRank=pMatchRankInfo->wRankID;

  0011c	8b 45 0c	 mov	 eax, DWORD PTR _pMatchRankInfo$[ebp]
  0011f	66 8b 08	 mov	 cx, WORD PTR [eax]
  00122	66 89 4d 84	 mov	 WORD PTR _MatchResult$1[ebp+52], cx

; 2622 : 		MatchResult.lGold=pMatchRankInfo->lRewardGold;		

  00126	8b 45 0c	 mov	 eax, DWORD PTR _pMatchRankInfo$[ebp]
  00129	8b 48 10	 mov	 ecx, DWORD PTR [eax+16]
  0012c	89 8d 50 ff ff
	ff		 mov	 DWORD PTR _MatchResult$1[ebp], ecx
  00132	8b 50 14	 mov	 edx, DWORD PTR [eax+20]
  00135	89 95 54 ff ff
	ff		 mov	 DWORD PTR _MatchResult$1[ebp+4], edx

; 2623 : 		MatchResult.lIngot=pMatchRankInfo->lRewardIngot;	

  0013b	8b 45 0c	 mov	 eax, DWORD PTR _pMatchRankInfo$[ebp]
  0013e	8b 48 18	 mov	 ecx, DWORD PTR [eax+24]
  00141	89 8d 58 ff ff
	ff		 mov	 DWORD PTR _MatchResult$1[ebp+8], ecx
  00147	8b 50 1c	 mov	 edx, DWORD PTR [eax+28]
  0014a	89 95 5c ff ff
	ff		 mov	 DWORD PTR _MatchResult$1[ebp+12], edx

; 2624 : 		MatchResult.dwExperience=pMatchRankInfo->dwRewardExperience;

  00150	8b 45 0c	 mov	 eax, DWORD PTR _pMatchRankInfo$[ebp]
  00153	8b 48 20	 mov	 ecx, DWORD PTR [eax+32]
  00156	89 8d 60 ff ff
	ff		 mov	 DWORD PTR _MatchResult$1[ebp+16], ecx

; 2625 : 		lstrcpyn(MatchResult.szNickName,pIServerUserItem->GetNickName(),CountArray(MatchResult.szNickName));

  0015c	6a 20		 push	 32			; 00000020H
  0015e	8b 45 08	 mov	 eax, DWORD PTR _pIServerUserItem$[ebp]
  00161	8b 10		 mov	 edx, DWORD PTR [eax]
  00163	8b 4d 08	 mov	 ecx, DWORD PTR _pIServerUserItem$[ebp]
  00166	8b 42 64	 mov	 eax, DWORD PTR [edx+100]
  00169	ff d0		 call	 eax
  0016b	50		 push	 eax
  0016c	8d 8d 64 ff ff
	ff		 lea	 ecx, DWORD PTR _MatchResult$1[ebp+20]
  00172	51		 push	 ecx
  00173	ff 15 00 00 00
	00		 call	 DWORD PTR __imp__lstrcpynA@12

; 2626 : 		lstrcpyn(MatchResult.szMatchName,m_pMatchOption->szMatchName,CountArray(MatchResult.szMatchName));

  00179	6a 40		 push	 64			; 00000040H
  0017b	8b 45 f8	 mov	 eax, DWORD PTR _this$[ebp]
  0017e	8b 48 74	 mov	 ecx, DWORD PTR [eax+116]
  00181	83 c1 12	 add	 ecx, 18			; 00000012H
  00184	51		 push	 ecx
  00185	8d 55 86	 lea	 edx, DWORD PTR _MatchResult$1[ebp+54]
  00188	52		 push	 edx
  00189	ff 15 00 00 00
	00		 call	 DWORD PTR __imp__lstrcpynA@12

; 2627 : 
; 2628 : 		//发送数据
; 2629 : 		if (pIServerUserItem->IsAndroidUser()==false)

  0018f	8b 45 08	 mov	 eax, DWORD PTR _pIServerUserItem$[ebp]
  00192	8b 10		 mov	 edx, DWORD PTR [eax]
  00194	8b 4d 08	 mov	 ecx, DWORD PTR _pIServerUserItem$[ebp]
  00197	8b 82 d0 00 00
	00		 mov	 eax, DWORD PTR [edx+208]
  0019d	ff d0		 call	 eax
  0019f	0f b6 c8	 movzx	 ecx, al
  001a2	85 c9		 test	 ecx, ecx
  001a4	75 2d		 jne	 SHORT $LN4@WriteUserA

; 2630 : 		{
; 2631 : 			m_pIGameServiceFrame->SendData(pIServerUserItem, MDM_GF_FRAME, SUB_GR_MATCH_RESULT, &MatchResult, sizeof(MatchResult));

  001a6	68 86 00 00 00	 push	 134			; 00000086H
  001ab	8d 85 50 ff ff
	ff		 lea	 eax, DWORD PTR _MatchResult$1[ebp]
  001b1	50		 push	 eax
  001b2	6a 09		 push	 9
  001b4	6a 64		 push	 100			; 00000064H
  001b6	8b 4d 08	 mov	 ecx, DWORD PTR _pIServerUserItem$[ebp]
  001b9	51		 push	 ecx
  001ba	8b 55 f8	 mov	 edx, DWORD PTR _this$[ebp]
  001bd	8b 82 94 00 00
	00		 mov	 eax, DWORD PTR [edx+148]
  001c3	8b 4d f8	 mov	 ecx, DWORD PTR _this$[ebp]
  001c6	8b 10		 mov	 edx, DWORD PTR [eax]
  001c8	8b 89 94 00 00
	00		 mov	 ecx, DWORD PTR [ecx+148]
  001ce	8b 42 1c	 mov	 eax, DWORD PTR [edx+28]
  001d1	ff d0		 call	 eax
$LN4@WriteUserA:

; 2632 : 		}
; 2633 : 	}		
; 2634 : 
; 2635 : 	return true;

  001d3	b0 01		 mov	 al, 1
$LN1@WriteUserA:

; 2636 : }

  001d5	5f		 pop	 edi
  001d6	5e		 pop	 esi
  001d7	5b		 pop	 ebx
  001d8	8b 4d fc	 mov	 ecx, DWORD PTR __$ArrayPad$[ebp]
  001db	33 cd		 xor	 ecx, ebp
  001dd	e8 00 00 00 00	 call	 @__security_check_cookie@4
  001e2	8b e5		 mov	 esp, ebp
  001e4	5d		 pop	 ebp
  001e5	c2 08 00	 ret	 8
?WriteUserAward@CLockTimeMatch@@IAE_NPAUIServerUserItem@@PAUtagMatchRankInfo@@@Z ENDP ; CLockTimeMatch::WriteUserAward
_TEXT	ENDS
; Function compile flags: /Odtp /ZI
; File g:\网狐\happygamewh\服务端\系统模块\服务器组件\比赛服务\locktimematch.cpp
;	COMDAT ?SendTableUserMatchInfo@CLockTimeMatch@@IAEXPAUITableFrame@@G@Z
_TEXT	SEGMENT
_pIServerUserItem$1 = -276				; size = 4
_i$2 = -272						; size = 2
_MatchInfo$ = -268					; size = 258
_this$ = -8						; size = 4
__$ArrayPad$ = -4					; size = 4
_pITableFrame$ = 8					; size = 4
_wChairID$ = 12						; size = 2
?SendTableUserMatchInfo@CLockTimeMatch@@IAEXPAUITableFrame@@G@Z PROC ; CLockTimeMatch::SendTableUserMatchInfo, COMDAT
; _this$ = ecx

; 2553 : {

  00000	55		 push	 ebp
  00001	8b ec		 mov	 ebp, esp
  00003	81 ec 54 01 00
	00		 sub	 esp, 340		; 00000154H
  00009	a1 00 00 00 00	 mov	 eax, DWORD PTR ___security_cookie
  0000e	33 c5		 xor	 eax, ebp
  00010	89 45 fc	 mov	 DWORD PTR __$ArrayPad$[ebp], eax
  00013	53		 push	 ebx
  00014	56		 push	 esi
  00015	57		 push	 edi
  00016	89 4d f8	 mov	 DWORD PTR _this$[ebp], ecx

; 2554 : 	//验证参数
; 2555 : 	ASSERT(pITableFrame!=NULL);

  00019	83 7d 08 00	 cmp	 DWORD PTR _pITableFrame$[ebp], 0
  0001d	75 18		 jne	 SHORT $LN10@SendTableU
  0001f	a1 00 00 00 00	 mov	 eax, DWORD PTR ?__LINE__Var@?0??SendTableUserMatchInfo@CLockTimeMatch@@IAEXPAUITableFrame@@G@Z@4JA
  00024	83 c0 02	 add	 eax, 2
  00027	50		 push	 eax
  00028	68 00 00 00 00	 push	 OFFSET ??_C@_0EK@PLFANKAP@g?3?2?M?x?$LK?$PM?2happygamewh?2?$LH?$PO?N?q?$LG?K?2?O?$LF?M?$LD@
  0002d	e8 00 00 00 00	 call	 ?AfxAssertFailedLine@@YGHPBDH@Z ; AfxAssertFailedLine
  00032	85 c0		 test	 eax, eax
  00034	74 01		 je	 SHORT $LN10@SendTableU
  00036	cc		 int	 3
$LN10@SendTableU:

; 2556 : 	if (pITableFrame==NULL) return;

  00037	83 7d 08 00	 cmp	 DWORD PTR _pITableFrame$[ebp], 0
  0003b	75 05		 jne	 SHORT $LN5@SendTableU
  0003d	e9 86 01 00 00	 jmp	 $LN1@SendTableU
$LN5@SendTableU:

; 2557 : 
; 2558 : 	//构造数据
; 2559 : 	CMD_GR_Match_Info MatchInfo;
; 2560 : 	ZeroMemory(&MatchInfo,sizeof(MatchInfo));

  00042	68 02 01 00 00	 push	 258			; 00000102H
  00047	6a 00		 push	 0
  00049	8d 85 f4 fe ff
	ff		 lea	 eax, DWORD PTR _MatchInfo$[ebp]
  0004f	50		 push	 eax
  00050	e8 00 00 00 00	 call	 _memset
  00055	83 c4 0c	 add	 esp, 12			; 0000000cH

; 2561 : 
; 2562 : 	//设置标题
; 2563 : 	_sntprintf_s(MatchInfo.szTitle[0], CountArray(MatchInfo.szTitle[0]),TEXT("积分方式：累计积分"));

  00058	68 00 00 00 00	 push	 OFFSET ??_C@_0BD@KNNGNBNI@?$LL?$PN?$LH?V?$LH?$LN?J?$LN?$KD?$LK?$MA?$NL?$LM?F?$LL?$PN?$LH?V@
  0005d	6a 40		 push	 64			; 00000040H
  0005f	b8 40 00 00 00	 mov	 eax, 64			; 00000040H
  00064	6b c8 00	 imul	 ecx, eax, 0
  00067	8d 94 0d f4 fe
	ff ff		 lea	 edx, DWORD PTR _MatchInfo$[ebp+ecx]
  0006e	52		 push	 edx
  0006f	e8 00 00 00 00	 call	 ??$_snprintf_s@$0EA@@@YAHAAY0EA@DIPBDZZ ; _snprintf_s<64>
  00074	83 c4 0c	 add	 esp, 12			; 0000000cH

; 2564 : 	_sntprintf_s(MatchInfo.szTitle[1], CountArray(MatchInfo.szTitle[1]),TEXT("游戏基数：%d"), m_pLockTimeMatch->lMatchInitScore);

  00077	8b 45 f8	 mov	 eax, DWORD PTR _this$[ebp]
  0007a	8b 48 78	 mov	 ecx, DWORD PTR [eax+120]
  0007d	8b 51 4d	 mov	 edx, DWORD PTR [ecx+77]
  00080	52		 push	 edx
  00081	8b 41 49	 mov	 eax, DWORD PTR [ecx+73]
  00084	50		 push	 eax
  00085	68 00 00 00 00	 push	 OFFSET ??_C@_0N@JCGEHOBO@?S?N?O?$LH?$LL?y?J?$PN?$KD?$LK?$CFd@
  0008a	6a 40		 push	 64			; 00000040H
  0008c	b9 40 00 00 00	 mov	 ecx, 64			; 00000040H
  00091	c1 e1 00	 shl	 ecx, 0
  00094	8d 94 0d f4 fe
	ff ff		 lea	 edx, DWORD PTR _MatchInfo$[ebp+ecx]
  0009b	52		 push	 edx
  0009c	e8 00 00 00 00	 call	 ??$_snprintf_s@$0EA@@@YAHAAY0EA@DIPBDZZ ; _snprintf_s<64>
  000a1	83 c4 14	 add	 esp, 20			; 00000014H

; 2565 : 	_sntprintf_s(MatchInfo.szTitle[2], CountArray(MatchInfo.szTitle[2]),TEXT("局制名称：定时开赛"));

  000a4	68 00 00 00 00	 push	 OFFSET ??_C@_0BD@NHCOODCL@?$LO?V?V?F?C?$PL?$LD?F?$KD?$LK?$LG?$KI?J?$LB?$LP?$KK?H?$PM@
  000a9	6a 40		 push	 64			; 00000040H
  000ab	b8 40 00 00 00	 mov	 eax, 64			; 00000040H
  000b0	d1 e0		 shl	 eax, 1
  000b2	8d 8c 05 f4 fe
	ff ff		 lea	 ecx, DWORD PTR _MatchInfo$[ebp+eax]
  000b9	51		 push	 ecx
  000ba	e8 00 00 00 00	 call	 ??$_snprintf_s@$0EA@@@YAHAAY0EA@DIPBDZZ ; _snprintf_s<64>
  000bf	83 c4 0c	 add	 esp, 12			; 0000000cH

; 2566 : 
; 2567 : 	for(WORD i=0; i<pITableFrame->GetChairCount(); i++)

  000c2	33 c0		 xor	 eax, eax
  000c4	66 89 85 f0 fe
	ff ff		 mov	 WORD PTR _i$2[ebp], ax
  000cb	eb 12		 jmp	 SHORT $LN4@SendTableU
$LN2@SendTableU:
  000cd	66 8b 85 f0 fe
	ff ff		 mov	 ax, WORD PTR _i$2[ebp]
  000d4	66 83 c0 01	 add	 ax, 1
  000d8	66 89 85 f0 fe
	ff ff		 mov	 WORD PTR _i$2[ebp], ax
$LN4@SendTableU:
  000df	0f b7 b5 f0 fe
	ff ff		 movzx	 esi, WORD PTR _i$2[ebp]
  000e6	8b 45 08	 mov	 eax, DWORD PTR _pITableFrame$[ebp]
  000e9	8b 10		 mov	 edx, DWORD PTR [eax]
  000eb	8b 4d 08	 mov	 ecx, DWORD PTR _pITableFrame$[ebp]
  000ee	8b 42 0c	 mov	 eax, DWORD PTR [edx+12]
  000f1	ff d0		 call	 eax
  000f3	0f b7 c8	 movzx	 ecx, ax
  000f6	3b f1		 cmp	 esi, ecx
  000f8	0f 8d ca 00 00
	00		 jge	 $LN1@SendTableU

; 2568 : 	{
; 2569 : 		//获取用户
; 2570 : 		if(wChairID!=INVALID_CHAIR && wChairID!=i) continue;

  000fe	0f b7 45 0c	 movzx	 eax, WORD PTR _wChairID$[ebp]
  00102	3d ff ff 00 00	 cmp	 eax, 65535		; 0000ffffH
  00107	74 11		 je	 SHORT $LN6@SendTableU
  00109	0f b7 45 0c	 movzx	 eax, WORD PTR _wChairID$[ebp]
  0010d	0f b7 8d f0 fe
	ff ff		 movzx	 ecx, WORD PTR _i$2[ebp]
  00114	3b c1		 cmp	 eax, ecx
  00116	74 02		 je	 SHORT $LN6@SendTableU
  00118	eb b3		 jmp	 SHORT $LN2@SendTableU
$LN6@SendTableU:

; 2571 : 		IServerUserItem *pIServerUserItem=pITableFrame->GetTableUserItem(i);

  0011a	0f b7 85 f0 fe
	ff ff		 movzx	 eax, WORD PTR _i$2[ebp]
  00121	50		 push	 eax
  00122	8b 4d 08	 mov	 ecx, DWORD PTR _pITableFrame$[ebp]
  00125	8b 11		 mov	 edx, DWORD PTR [ecx]
  00127	8b 4d 08	 mov	 ecx, DWORD PTR _pITableFrame$[ebp]
  0012a	8b 82 9c 00 00
	00		 mov	 eax, DWORD PTR [edx+156]
  00130	ff d0		 call	 eax
  00132	89 85 ec fe ff
	ff		 mov	 DWORD PTR _pIServerUserItem$1[ebp], eax

; 2572 : 		if(pIServerUserItem==NULL) continue;

  00138	83 bd ec fe ff
	ff 00		 cmp	 DWORD PTR _pIServerUserItem$1[ebp], 0
  0013f	75 02		 jne	 SHORT $LN7@SendTableU
  00141	eb 8a		 jmp	 SHORT $LN2@SendTableU
$LN7@SendTableU:

; 2573 : 
; 2574 : 		//设置局数
; 2575 : 		MatchInfo.wGameCount=(WORD)(pIServerUserItem->GetUserPlayCount()-pIServerUserItem->GetUserInfo()->dwDrawCount)+1;

  00143	8b 85 ec fe ff
	ff		 mov	 eax, DWORD PTR _pIServerUserItem$1[ebp]
  00149	8b 10		 mov	 edx, DWORD PTR [eax]
  0014b	8b 8d ec fe ff
	ff		 mov	 ecx, DWORD PTR _pIServerUserItem$1[ebp]
  00151	8b 82 ac 00 00
	00		 mov	 eax, DWORD PTR [edx+172]
  00157	ff d0		 call	 eax
  00159	8b f0		 mov	 esi, eax
  0015b	8b 8d ec fe ff
	ff		 mov	 ecx, DWORD PTR _pIServerUserItem$1[ebp]
  00161	8b 11		 mov	 edx, DWORD PTR [ecx]
  00163	8b 8d ec fe ff
	ff		 mov	 ecx, DWORD PTR _pIServerUserItem$1[ebp]
  00169	8b 42 20	 mov	 eax, DWORD PTR [edx+32]
  0016c	ff d0		 call	 eax
  0016e	2b b0 e0 00 00
	00		 sub	 esi, DWORD PTR [eax+224]
  00174	0f b7 ce	 movzx	 ecx, si
  00177	83 c1 01	 add	 ecx, 1
  0017a	66 89 4d f4	 mov	 WORD PTR _MatchInfo$[ebp+256], cx

; 2576 : 
; 2577 : 		//发送数据
; 2578 : 		if (pIServerUserItem->IsAndroidUser()==false)

  0017e	8b 85 ec fe ff
	ff		 mov	 eax, DWORD PTR _pIServerUserItem$1[ebp]
  00184	8b 10		 mov	 edx, DWORD PTR [eax]
  00186	8b 8d ec fe ff
	ff		 mov	 ecx, DWORD PTR _pIServerUserItem$1[ebp]
  0018c	8b 82 d0 00 00
	00		 mov	 eax, DWORD PTR [edx+208]
  00192	ff d0		 call	 eax
  00194	0f b6 c8	 movzx	 ecx, al
  00197	85 c9		 test	 ecx, ecx
  00199	75 28		 jne	 SHORT $LN8@SendTableU

; 2579 : 		{
; 2580 : 			pITableFrame->SendTableData(i,SUB_GR_MATCH_INFO,&MatchInfo,sizeof(MatchInfo),MDM_GF_FRAME);

  0019b	6a 64		 push	 100			; 00000064H
  0019d	68 02 01 00 00	 push	 258			; 00000102H
  001a2	8d 85 f4 fe ff
	ff		 lea	 eax, DWORD PTR _MatchInfo$[ebp]
  001a8	50		 push	 eax
  001a9	6a 01		 push	 1
  001ab	0f b7 8d f0 fe
	ff ff		 movzx	 ecx, WORD PTR _i$2[ebp]
  001b2	51		 push	 ecx
  001b3	8b 55 08	 mov	 edx, DWORD PTR _pITableFrame$[ebp]
  001b6	8b 02		 mov	 eax, DWORD PTR [edx]
  001b8	8b 4d 08	 mov	 ecx, DWORD PTR _pITableFrame$[ebp]
  001bb	8b 90 ac 00 00
	00		 mov	 edx, DWORD PTR [eax+172]
  001c1	ff d2		 call	 edx
$LN8@SendTableU:

; 2581 : 		}
; 2582 : 	}

  001c3	e9 05 ff ff ff	 jmp	 $LN2@SendTableU
$LN1@SendTableU:

; 2583 : 
; 2584 : 	return;
; 2585 : }

  001c8	5f		 pop	 edi
  001c9	5e		 pop	 esi
  001ca	5b		 pop	 ebx
  001cb	8b 4d fc	 mov	 ecx, DWORD PTR __$ArrayPad$[ebp]
  001ce	33 cd		 xor	 ecx, ebp
  001d0	e8 00 00 00 00	 call	 @__security_check_cookie@4
  001d5	8b e5		 mov	 esp, ebp
  001d7	5d		 pop	 ebp
  001d8	c2 08 00	 ret	 8
?SendTableUserMatchInfo@CLockTimeMatch@@IAEXPAUITableFrame@@G@Z ENDP ; CLockTimeMatch::SendTableUserMatchInfo
_TEXT	ENDS
; Function compile flags: /Odtp /ZI
; File g:\网狐\happygamewh\服务端\系统模块\服务器组件\比赛服务\locktimematch.cpp
;	COMDAT ?PerformAllUserStandUp@CLockTimeMatch@@IAEXPAUITableFrame@@@Z
_TEXT	SEGMENT
_pUserServerItem$1 = -12				; size = 4
_i$2 = -8						; size = 4
_this$ = -4						; size = 4
_pITableFrame$ = 8					; size = 4
?PerformAllUserStandUp@CLockTimeMatch@@IAEXPAUITableFrame@@@Z PROC ; CLockTimeMatch::PerformAllUserStandUp, COMDAT
; _this$ = ecx

; 1961 : {

  00000	55		 push	 ebp
  00001	8b ec		 mov	 ebp, esp
  00003	83 ec 4c	 sub	 esp, 76			; 0000004cH
  00006	53		 push	 ebx
  00007	56		 push	 esi
  00008	57		 push	 edi
  00009	89 4d fc	 mov	 DWORD PTR _this$[ebp], ecx

; 1962 : 	//参数校验
; 1963 : 	ASSERT(pITableFrame!=NULL);

  0000c	83 7d 08 00	 cmp	 DWORD PTR _pITableFrame$[ebp], 0
  00010	75 18		 jne	 SHORT $LN8@PerformAll
  00012	a1 00 00 00 00	 mov	 eax, DWORD PTR ?__LINE__Var@?0??PerformAllUserStandUp@CLockTimeMatch@@IAEXPAUITableFrame@@@Z@4JA
  00017	83 c0 02	 add	 eax, 2
  0001a	50		 push	 eax
  0001b	68 00 00 00 00	 push	 OFFSET ??_C@_0EK@PLFANKAP@g?3?2?M?x?$LK?$PM?2happygamewh?2?$LH?$PO?N?q?$LG?K?2?O?$LF?M?$LD@
  00020	e8 00 00 00 00	 call	 ?AfxAssertFailedLine@@YGHPBDH@Z ; AfxAssertFailedLine
  00025	85 c0		 test	 eax, eax
  00027	74 01		 je	 SHORT $LN8@PerformAll
  00029	cc		 int	 3
$LN8@PerformAll:

; 1964 : 	if (pITableFrame==NULL) return;

  0002a	83 7d 08 00	 cmp	 DWORD PTR _pITableFrame$[ebp], 0
  0002e	75 02		 jne	 SHORT $LN5@PerformAll
  00030	eb 72		 jmp	 SHORT $LN1@PerformAll
$LN5@PerformAll:

; 1965 : 
; 1966 : 	//处理起立
; 1967 : 	for (int i=0;i<m_pGameServiceAttrib->wChairCount;i++)

  00032	c7 45 f8 00 00
	00 00		 mov	 DWORD PTR _i$2[ebp], 0
  00039	eb 09		 jmp	 SHORT $LN4@PerformAll
$LN2@PerformAll:
  0003b	8b 45 f8	 mov	 eax, DWORD PTR _i$2[ebp]
  0003e	83 c0 01	 add	 eax, 1
  00041	89 45 f8	 mov	 DWORD PTR _i$2[ebp], eax
$LN4@PerformAll:
  00044	8b 45 fc	 mov	 eax, DWORD PTR _this$[ebp]
  00047	8b 88 80 00 00
	00		 mov	 ecx, DWORD PTR [eax+128]
  0004d	0f b7 51 02	 movzx	 edx, WORD PTR [ecx+2]
  00051	39 55 f8	 cmp	 DWORD PTR _i$2[ebp], edx
  00054	7d 4e		 jge	 SHORT $LN1@PerformAll

; 1968 : 	{
; 1969 : 		//获取用户
; 1970 : 		IServerUserItem * pUserServerItem=pITableFrame->GetTableUserItem(i);

  00056	0f b7 45 f8	 movzx	 eax, WORD PTR _i$2[ebp]
  0005a	50		 push	 eax
  0005b	8b 4d 08	 mov	 ecx, DWORD PTR _pITableFrame$[ebp]
  0005e	8b 11		 mov	 edx, DWORD PTR [ecx]
  00060	8b 4d 08	 mov	 ecx, DWORD PTR _pITableFrame$[ebp]
  00063	8b 82 9c 00 00
	00		 mov	 eax, DWORD PTR [edx+156]
  00069	ff d0		 call	 eax
  0006b	89 45 f4	 mov	 DWORD PTR _pUserServerItem$1[ebp], eax

; 1971 : 		if (pUserServerItem&&pUserServerItem->GetTableID()!=INVALID_TABLE)

  0006e	83 7d f4 00	 cmp	 DWORD PTR _pUserServerItem$1[ebp], 0
  00072	74 2e		 je	 SHORT $LN6@PerformAll
  00074	8b 45 f4	 mov	 eax, DWORD PTR _pUserServerItem$1[ebp]
  00077	8b 10		 mov	 edx, DWORD PTR [eax]
  00079	8b 4d f4	 mov	 ecx, DWORD PTR _pUserServerItem$1[ebp]
  0007c	8b 42 68	 mov	 eax, DWORD PTR [edx+104]
  0007f	ff d0		 call	 eax
  00081	0f b7 c8	 movzx	 ecx, ax
  00084	81 f9 ff ff 00
	00		 cmp	 ecx, 65535		; 0000ffffH
  0008a	74 16		 je	 SHORT $LN6@PerformAll

; 1972 : 		{
; 1973 : 			pITableFrame->PerformStandUpAction(pUserServerItem);

  0008c	6a 00		 push	 0
  0008e	8b 45 f4	 mov	 eax, DWORD PTR _pUserServerItem$1[ebp]
  00091	50		 push	 eax
  00092	8b 4d 08	 mov	 ecx, DWORD PTR _pITableFrame$[ebp]
  00095	8b 11		 mov	 edx, DWORD PTR [ecx]
  00097	8b 4d 08	 mov	 ecx, DWORD PTR _pITableFrame$[ebp]
  0009a	8b 82 d8 00 00
	00		 mov	 eax, DWORD PTR [edx+216]
  000a0	ff d0		 call	 eax
$LN6@PerformAll:

; 1974 : 		}
; 1975 : 	}	

  000a2	eb 97		 jmp	 SHORT $LN2@PerformAll
$LN1@PerformAll:

; 1976 : }

  000a4	5f		 pop	 edi
  000a5	5e		 pop	 esi
  000a6	5b		 pop	 ebx
  000a7	8b e5		 mov	 esp, ebp
  000a9	5d		 pop	 ebp
  000aa	c2 04 00	 ret	 4
?PerformAllUserStandUp@CLockTimeMatch@@IAEXPAUITableFrame@@@Z ENDP ; CLockTimeMatch::PerformAllUserStandUp
_TEXT	ENDS
; Function compile flags: /Odtp /ZI
; File g:\网狐\happygamewh\服务端\系统模块\服务器组件\比赛服务\locktimematch.cpp
;	COMDAT ?GetMatchStartInterval@CLockTimeMatch@@IAEKXZ
_TEXT	SEGMENT
_TimeSpan$1 = -52					; size = 8
_dwEndStamp$ = -44					; size = 4
_dwStartStamp$ = -40					; size = 4
_dwCurrStamp$ = -36					; size = 4
_dwTimeInterval$ = -32					; size = 4
_MatchEndTime$ = -28					; size = 8
_MatchStartTime$ = -20					; size = 8
_CurTime$ = -12						; size = 8
_this$ = -4						; size = 4
?GetMatchStartInterval@CLockTimeMatch@@IAEKXZ PROC	; CLockTimeMatch::GetMatchStartInterval, COMDAT
; _this$ = ecx

; 1919 : {

  00000	55		 push	 ebp
  00001	8b ec		 mov	 ebp, esp
  00003	83 ec 74	 sub	 esp, 116		; 00000074H
  00006	53		 push	 ebx
  00007	56		 push	 esi
  00008	57		 push	 edi
  00009	89 4d fc	 mov	 DWORD PTR _this$[ebp], ecx

; 1920 : 	//获取时间
; 1921 : 	CTime CurTime=CTime::GetCurrentTime();

  0000c	8d 45 f4	 lea	 eax, DWORD PTR _CurTime$[ebp]
  0000f	50		 push	 eax
  00010	e8 00 00 00 00	 call	 ?GetTickCount@CTime@ATL@@SG?AV12@XZ ; ATL::CTime::GetTickCount

; 1922 : 	CTime MatchStartTime(m_pLockTimeMatch->MatchStartTime);

  00015	6a ff		 push	 -1
  00017	8b 45 fc	 mov	 eax, DWORD PTR _this$[ebp]
  0001a	8b 48 78	 mov	 ecx, DWORD PTR [eax+120]
  0001d	83 c1 04	 add	 ecx, 4
  00020	51		 push	 ecx
  00021	8d 4d ec	 lea	 ecx, DWORD PTR _MatchStartTime$[ebp]
  00024	e8 00 00 00 00	 call	 ??0CTime@ATL@@QAE@ABU_SYSTEMTIME@@H@Z ; ATL::CTime::CTime

; 1923 : 	CTime MatchEndTime(m_pLockTimeMatch->MatchEndTime);

  00029	6a ff		 push	 -1
  0002b	8b 45 fc	 mov	 eax, DWORD PTR _this$[ebp]
  0002e	8b 48 78	 mov	 ecx, DWORD PTR [eax+120]
  00031	83 c1 14	 add	 ecx, 20			; 00000014H
  00034	51		 push	 ecx
  00035	8d 4d e4	 lea	 ecx, DWORD PTR _MatchEndTime$[ebp]
  00038	e8 00 00 00 00	 call	 ??0CTime@ATL@@QAE@ABU_SYSTEMTIME@@H@Z ; ATL::CTime::CTime

; 1924 : 
; 1925 : 	//变量定义
; 1926 : 	DWORD dwTimeInterval=1;

  0003d	c7 45 e0 01 00
	00 00		 mov	 DWORD PTR _dwTimeInterval$[ebp], 1

; 1927 : 	DWORD dwCurrStamp,dwStartStamp,dwEndStamp;
; 1928 : 
; 1929 : 	//比赛未开始
; 1930 : 	if(CurTime<MatchStartTime)

  00044	8b 45 f0	 mov	 eax, DWORD PTR _MatchStartTime$[ebp+4]
  00047	50		 push	 eax
  00048	8b 4d ec	 mov	 ecx, DWORD PTR _MatchStartTime$[ebp]
  0004b	51		 push	 ecx
  0004c	8d 4d f4	 lea	 ecx, DWORD PTR _CurTime$[ebp]
  0004f	e8 00 00 00 00	 call	 ??MCTime@ATL@@QBE_NV01@@Z ; ATL::CTime::operator<
  00054	0f b6 d0	 movzx	 edx, al
  00057	85 d2		 test	 edx, edx
  00059	74 1f		 je	 SHORT $LN2@GetMatchSt

; 1931 : 	{
; 1932 : 		CTimeSpan TimeSpan = MatchStartTime-CurTime;

  0005b	8b 45 f8	 mov	 eax, DWORD PTR _CurTime$[ebp+4]
  0005e	50		 push	 eax
  0005f	8b 4d f4	 mov	 ecx, DWORD PTR _CurTime$[ebp]
  00062	51		 push	 ecx
  00063	8d 55 cc	 lea	 edx, DWORD PTR _TimeSpan$1[ebp]
  00066	52		 push	 edx
  00067	8d 4d ec	 lea	 ecx, DWORD PTR _MatchStartTime$[ebp]
  0006a	e8 00 00 00 00	 call	 ??GCTime@ATL@@QBE?AVCTimeSpan@1@V01@@Z ; ATL::CTime::operator-

; 1933 : 		dwTimeInterval = (DWORD)TimeSpan.GetTotalSeconds();

  0006f	8d 4d cc	 lea	 ecx, DWORD PTR _TimeSpan$1[ebp]
  00072	e8 00 00 00 00	 call	 ?GetTotalSeconds@CTimeSpan@ATL@@QBE_JXZ ; ATL::CTimeSpan::GetTotalSeconds
  00077	89 45 e0	 mov	 DWORD PTR _dwTimeInterval$[ebp], eax
$LN2@GetMatchSt:

; 1934 : 	}
; 1935 : 
; 1936 : 	//比赛已结束
; 1937 : 	if(CurTime>=MatchEndTime) dwTimeInterval=0;

  0007a	8b 45 e8	 mov	 eax, DWORD PTR _MatchEndTime$[ebp+4]
  0007d	50		 push	 eax
  0007e	8b 4d e4	 mov	 ecx, DWORD PTR _MatchEndTime$[ebp]
  00081	51		 push	 ecx
  00082	8d 4d f4	 lea	 ecx, DWORD PTR _CurTime$[ebp]
  00085	e8 00 00 00 00	 call	 ??PCTime@ATL@@QBE_NV01@@Z ; ATL::CTime::operator>=
  0008a	0f b6 d0	 movzx	 edx, al
  0008d	85 d2		 test	 edx, edx
  0008f	74 07		 je	 SHORT $LN3@GetMatchSt
  00091	c7 45 e0 00 00
	00 00		 mov	 DWORD PTR _dwTimeInterval$[ebp], 0
$LN3@GetMatchSt:

; 1938 : 
; 1939 : 	//计算时间
; 1940 : 	dwCurrStamp = CurTime.GetHour()*3600+CurTime.GetMinute()*60+CurTime.GetSecond();

  00098	8d 4d f4	 lea	 ecx, DWORD PTR _CurTime$[ebp]
  0009b	e8 00 00 00 00	 call	 ?GetHour@CTime@ATL@@QBEHXZ ; ATL::CTime::GetHour
  000a0	69 f0 10 0e 00
	00		 imul	 esi, eax, 3600
  000a6	8d 4d f4	 lea	 ecx, DWORD PTR _CurTime$[ebp]
  000a9	e8 00 00 00 00	 call	 ?GetMinute@CTime@ATL@@QBEHXZ ; ATL::CTime::GetMinute
  000ae	6b c0 3c	 imul	 eax, eax, 60
  000b1	03 f0		 add	 esi, eax
  000b3	8d 4d f4	 lea	 ecx, DWORD PTR _CurTime$[ebp]
  000b6	e8 00 00 00 00	 call	 ?GetSecond@CTime@ATL@@QBEHXZ ; ATL::CTime::GetSecond
  000bb	03 f0		 add	 esi, eax
  000bd	89 75 dc	 mov	 DWORD PTR _dwCurrStamp$[ebp], esi

; 1941 : 	dwStartStamp = m_pLockTimeMatch->MatchStartTime.wHour*3600+m_pLockTimeMatch->MatchStartTime.wMinute*60+m_pLockTimeMatch->MatchStartTime.wSecond;

  000c0	8b 45 fc	 mov	 eax, DWORD PTR _this$[ebp]
  000c3	8b 48 78	 mov	 ecx, DWORD PTR [eax+120]
  000c6	0f b7 51 0c	 movzx	 edx, WORD PTR [ecx+12]
  000ca	69 c2 10 0e 00
	00		 imul	 eax, edx, 3600
  000d0	8b 4d fc	 mov	 ecx, DWORD PTR _this$[ebp]
  000d3	8b 51 78	 mov	 edx, DWORD PTR [ecx+120]
  000d6	0f b7 4a 0e	 movzx	 ecx, WORD PTR [edx+14]
  000da	6b d1 3c	 imul	 edx, ecx, 60
  000dd	03 c2		 add	 eax, edx
  000df	8b 4d fc	 mov	 ecx, DWORD PTR _this$[ebp]
  000e2	8b 51 78	 mov	 edx, DWORD PTR [ecx+120]
  000e5	0f b7 4a 10	 movzx	 ecx, WORD PTR [edx+16]
  000e9	03 c1		 add	 eax, ecx
  000eb	89 45 d8	 mov	 DWORD PTR _dwStartStamp$[ebp], eax

; 1942 : 	dwEndStamp = m_pLockTimeMatch->MatchEndTime.wHour*3600+m_pLockTimeMatch->MatchEndTime.wMinute*60+m_pLockTimeMatch->MatchEndTime.wSecond;

  000ee	8b 45 fc	 mov	 eax, DWORD PTR _this$[ebp]
  000f1	8b 48 78	 mov	 ecx, DWORD PTR [eax+120]
  000f4	0f b7 51 1c	 movzx	 edx, WORD PTR [ecx+28]
  000f8	69 c2 10 0e 00
	00		 imul	 eax, edx, 3600
  000fe	8b 4d fc	 mov	 ecx, DWORD PTR _this$[ebp]
  00101	8b 51 78	 mov	 edx, DWORD PTR [ecx+120]
  00104	0f b7 4a 1e	 movzx	 ecx, WORD PTR [edx+30]
  00108	6b d1 3c	 imul	 edx, ecx, 60
  0010b	03 c2		 add	 eax, edx
  0010d	8b 4d fc	 mov	 ecx, DWORD PTR _this$[ebp]
  00110	8b 51 78	 mov	 edx, DWORD PTR [ecx+120]
  00113	0f b7 4a 20	 movzx	 ecx, WORD PTR [edx+32]
  00117	03 c1		 add	 eax, ecx
  00119	89 45 d4	 mov	 DWORD PTR _dwEndStamp$[ebp], eax

; 1943 : 
; 1944 : 	//比赛未开始
; 1945 : 	if(dwCurrStamp<dwStartStamp) 

  0011c	8b 45 dc	 mov	 eax, DWORD PTR _dwCurrStamp$[ebp]
  0011f	3b 45 d8	 cmp	 eax, DWORD PTR _dwStartStamp$[ebp]
  00122	73 09		 jae	 SHORT $LN4@GetMatchSt

; 1946 : 	{
; 1947 : 		dwTimeInterval = dwStartStamp-dwCurrStamp;

  00124	8b 45 d8	 mov	 eax, DWORD PTR _dwStartStamp$[ebp]
  00127	2b 45 dc	 sub	 eax, DWORD PTR _dwCurrStamp$[ebp]
  0012a	89 45 e0	 mov	 DWORD PTR _dwTimeInterval$[ebp], eax
$LN4@GetMatchSt:

; 1948 : 	}
; 1949 : 
; 1950 : 	//比赛已结束
; 1951 : 	if(dwCurrStamp>=dwEndStamp)

  0012d	8b 45 dc	 mov	 eax, DWORD PTR _dwCurrStamp$[ebp]
  00130	3b 45 d4	 cmp	 eax, DWORD PTR _dwEndStamp$[ebp]
  00133	72 10		 jb	 SHORT $LN5@GetMatchSt

; 1952 : 	{
; 1953 : 		dwTimeInterval = 24*3600-(dwCurrStamp-dwStartStamp);		

  00135	8b 45 dc	 mov	 eax, DWORD PTR _dwCurrStamp$[ebp]
  00138	2b 45 d8	 sub	 eax, DWORD PTR _dwStartStamp$[ebp]
  0013b	b9 80 51 01 00	 mov	 ecx, 86400		; 00015180H
  00140	2b c8		 sub	 ecx, eax
  00142	89 4d e0	 mov	 DWORD PTR _dwTimeInterval$[ebp], ecx
$LN5@GetMatchSt:

; 1954 : 	}
; 1955 : 
; 1956 : 	return dwTimeInterval;

  00145	8b 45 e0	 mov	 eax, DWORD PTR _dwTimeInterval$[ebp]

; 1957 : }

  00148	5f		 pop	 edi
  00149	5e		 pop	 esi
  0014a	5b		 pop	 ebx
  0014b	8b e5		 mov	 esp, ebp
  0014d	5d		 pop	 ebp
  0014e	c3		 ret	 0
?GetMatchStartInterval@CLockTimeMatch@@IAEKXZ ENDP	; CLockTimeMatch::GetMatchStartInterval
_TEXT	ENDS
; Function compile flags: /Odtp /ZI
; File g:\网狐\happygamewh\服务端\系统模块\服务器组件\比赛服务\locktimematch.cpp
;	COMDAT ?IsMatchSignupStart@CLockTimeMatch@@IAE_NXZ
_TEXT	SEGMENT
tv80 = -108						; size = 4
tv152 = -104						; size = 8
tv135 = -100						; size = 4
_nCurrSeconds$1 = -32					; size = 4
_TimeSpan$2 = -28					; size = 8
_SignupStartTime$ = -20					; size = 8
_CurTime$ = -12						; size = 8
_this$ = -4						; size = 4
?IsMatchSignupStart@CLockTimeMatch@@IAE_NXZ PROC	; CLockTimeMatch::IsMatchSignupStart, COMDAT
; _this$ = ecx

; 1894 : {

  00000	55		 push	 ebp
  00001	8b ec		 mov	 ebp, esp
  00003	83 ec 6c	 sub	 esp, 108		; 0000006cH
  00006	53		 push	 ebx
  00007	56		 push	 esi
  00008	57		 push	 edi
  00009	89 4d fc	 mov	 DWORD PTR _this$[ebp], ecx

; 1895 : 	//获取时间
; 1896 : 	CTime CurTime=CTime::GetCurrentTime();

  0000c	8d 45 f4	 lea	 eax, DWORD PTR _CurTime$[ebp]
  0000f	50		 push	 eax
  00010	e8 00 00 00 00	 call	 ?GetTickCount@CTime@ATL@@SG?AV12@XZ ; ATL::CTime::GetTickCount

; 1897 : 	CTime SignupStartTime(m_pLockTimeMatch->SignupStartTime);	

  00015	6a ff		 push	 -1
  00017	8b 45 fc	 mov	 eax, DWORD PTR _this$[ebp]
  0001a	8b 48 78	 mov	 ecx, DWORD PTR [eax+120]
  0001d	83 c1 29	 add	 ecx, 41			; 00000029H
  00020	51		 push	 ecx
  00021	8d 4d ec	 lea	 ecx, DWORD PTR _SignupStartTime$[ebp]
  00024	e8 00 00 00 00	 call	 ??0CTime@ATL@@QAE@ABU_SYSTEMTIME@@H@Z ; ATL::CTime::CTime

; 1898 : 
; 1899 : 	//常规开赛
; 1900 : 	if (m_pLockTimeMatch->cbMatchMode==MATCH_MODE_NORMAL)

  00029	8b 45 fc	 mov	 eax, DWORD PTR _this$[ebp]
  0002c	8b 48 78	 mov	 ecx, DWORD PTR [eax+120]
  0002f	0f b6 51 24	 movzx	 edx, BYTE PTR [ecx+36]
  00033	85 d2		 test	 edx, edx
  00035	75 47		 jne	 SHORT $LN2@IsMatchSig

; 1901 : 	{
; 1902 : 		//比较时间
; 1903 : 		CTimeSpan TimeSpan = CurTime-SignupStartTime;

  00037	8b 45 f0	 mov	 eax, DWORD PTR _SignupStartTime$[ebp+4]
  0003a	50		 push	 eax
  0003b	8b 4d ec	 mov	 ecx, DWORD PTR _SignupStartTime$[ebp]
  0003e	51		 push	 ecx
  0003f	8d 55 e4	 lea	 edx, DWORD PTR _TimeSpan$2[ebp]
  00042	52		 push	 edx
  00043	8d 4d f4	 lea	 ecx, DWORD PTR _CurTime$[ebp]
  00046	e8 00 00 00 00	 call	 ??GCTime@ATL@@QBE?AVCTimeSpan@1@V01@@Z ; ATL::CTime::operator-

; 1904 : 
; 1905 : 		return TimeSpan.GetTotalSeconds()>=0;	

  0004b	8d 4d e4	 lea	 ecx, DWORD PTR _TimeSpan$2[ebp]
  0004e	e8 00 00 00 00	 call	 ?GetTotalSeconds@CTimeSpan@ATL@@QBE_JXZ ; ATL::CTimeSpan::GetTotalSeconds
  00053	89 45 98	 mov	 DWORD PTR tv152[ebp], eax
  00056	89 55 9c	 mov	 DWORD PTR tv152[ebp+4], edx
  00059	83 7d 9c 00	 cmp	 DWORD PTR tv152[ebp+4], 0
  0005d	7c 11		 jl	 SHORT $LN5@IsMatchSig
  0005f	7f 06		 jg	 SHORT $LN9@IsMatchSig
  00061	83 7d 98 00	 cmp	 DWORD PTR tv152[ebp], 0
  00065	72 09		 jb	 SHORT $LN5@IsMatchSig
$LN9@IsMatchSig:
  00067	c7 45 94 01 00
	00 00		 mov	 DWORD PTR tv80[ebp], 1
  0006e	eb 07		 jmp	 SHORT $LN6@IsMatchSig
$LN5@IsMatchSig:
  00070	c7 45 94 00 00
	00 00		 mov	 DWORD PTR tv80[ebp], 0
$LN6@IsMatchSig:
  00077	8a 45 94	 mov	 al, BYTE PTR tv80[ebp]
  0007a	eb 67		 jmp	 SHORT $LN1@IsMatchSig

; 1906 : 	}
; 1907 : 	else

  0007c	eb 65		 jmp	 SHORT $LN1@IsMatchSig
$LN2@IsMatchSig:

; 1908 : 	{
; 1909 : 		//计算时间
; 1910 : 		int nCurrSeconds=CurTime.GetHour()*3600+CurTime.GetMinute()*60+CurTime.GetSecond();

  0007e	8d 4d f4	 lea	 ecx, DWORD PTR _CurTime$[ebp]
  00081	e8 00 00 00 00	 call	 ?GetHour@CTime@ATL@@QBEHXZ ; ATL::CTime::GetHour
  00086	69 f0 10 0e 00
	00		 imul	 esi, eax, 3600
  0008c	8d 4d f4	 lea	 ecx, DWORD PTR _CurTime$[ebp]
  0008f	e8 00 00 00 00	 call	 ?GetMinute@CTime@ATL@@QBEHXZ ; ATL::CTime::GetMinute
  00094	6b c0 3c	 imul	 eax, eax, 60
  00097	03 f0		 add	 esi, eax
  00099	8d 4d f4	 lea	 ecx, DWORD PTR _CurTime$[ebp]
  0009c	e8 00 00 00 00	 call	 ?GetSecond@CTime@ATL@@QBEHXZ ; ATL::CTime::GetSecond
  000a1	03 f0		 add	 esi, eax
  000a3	89 75 e0	 mov	 DWORD PTR _nCurrSeconds$1[ebp], esi

; 1911 : 
; 1912 : 		//判断时间
; 1913 : 		return nCurrSeconds>=(SignupStartTime.GetHour()*3600+SignupStartTime.GetMinute()*60+SignupStartTime.GetSecond());

  000a6	8d 4d ec	 lea	 ecx, DWORD PTR _SignupStartTime$[ebp]
  000a9	e8 00 00 00 00	 call	 ?GetHour@CTime@ATL@@QBEHXZ ; ATL::CTime::GetHour
  000ae	69 f0 10 0e 00
	00		 imul	 esi, eax, 3600
  000b4	8d 4d ec	 lea	 ecx, DWORD PTR _SignupStartTime$[ebp]
  000b7	e8 00 00 00 00	 call	 ?GetMinute@CTime@ATL@@QBEHXZ ; ATL::CTime::GetMinute
  000bc	6b c0 3c	 imul	 eax, eax, 60
  000bf	03 f0		 add	 esi, eax
  000c1	8d 4d ec	 lea	 ecx, DWORD PTR _SignupStartTime$[ebp]
  000c4	e8 00 00 00 00	 call	 ?GetSecond@CTime@ATL@@QBEHXZ ; ATL::CTime::GetSecond
  000c9	03 f0		 add	 esi, eax
  000cb	39 75 e0	 cmp	 DWORD PTR _nCurrSeconds$1[ebp], esi
  000ce	7c 09		 jl	 SHORT $LN7@IsMatchSig
  000d0	c7 45 9c 01 00
	00 00		 mov	 DWORD PTR tv135[ebp], 1
  000d7	eb 07		 jmp	 SHORT $LN8@IsMatchSig
$LN7@IsMatchSig:
  000d9	c7 45 9c 00 00
	00 00		 mov	 DWORD PTR tv135[ebp], 0
$LN8@IsMatchSig:
  000e0	8a 45 9c	 mov	 al, BYTE PTR tv135[ebp]
$LN1@IsMatchSig:

; 1914 : 	}	
; 1915 : }

  000e3	5f		 pop	 edi
  000e4	5e		 pop	 esi
  000e5	5b		 pop	 ebx
  000e6	8b e5		 mov	 esp, ebp
  000e8	5d		 pop	 ebp
  000e9	c3		 ret	 0
?IsMatchSignupStart@CLockTimeMatch@@IAE_NXZ ENDP	; CLockTimeMatch::IsMatchSignupStart
_TEXT	ENDS
; Function compile flags: /Odtp /ZI
; File g:\网狐\happygamewh\服务端\系统模块\服务器组件\比赛服务\locktimematch.cpp
;	COMDAT ?IsMatchSignupEnd@CLockTimeMatch@@IAE_NXZ
_TEXT	SEGMENT
tv80 = -108						; size = 4
tv152 = -104						; size = 8
tv135 = -100						; size = 4
_nCurrSeconds$1 = -32					; size = 4
_TimeSpan$2 = -28					; size = 8
_SignupEndTime$ = -20					; size = 8
_CurTime$ = -12						; size = 8
_this$ = -4						; size = 4
?IsMatchSignupEnd@CLockTimeMatch@@IAE_NXZ PROC		; CLockTimeMatch::IsMatchSignupEnd, COMDAT
; _this$ = ecx

; 1869 : {

  00000	55		 push	 ebp
  00001	8b ec		 mov	 ebp, esp
  00003	83 ec 6c	 sub	 esp, 108		; 0000006cH
  00006	53		 push	 ebx
  00007	56		 push	 esi
  00008	57		 push	 edi
  00009	89 4d fc	 mov	 DWORD PTR _this$[ebp], ecx

; 1870 : 	//获取时间
; 1871 : 	CTime CurTime=CTime::GetCurrentTime();

  0000c	8d 45 f4	 lea	 eax, DWORD PTR _CurTime$[ebp]
  0000f	50		 push	 eax
  00010	e8 00 00 00 00	 call	 ?GetTickCount@CTime@ATL@@SG?AV12@XZ ; ATL::CTime::GetTickCount

; 1872 : 	CTime SignupEndTime(m_pLockTimeMatch->SignupEndTime);	

  00015	6a ff		 push	 -1
  00017	8b 45 fc	 mov	 eax, DWORD PTR _this$[ebp]
  0001a	8b 48 78	 mov	 ecx, DWORD PTR [eax+120]
  0001d	83 c1 39	 add	 ecx, 57			; 00000039H
  00020	51		 push	 ecx
  00021	8d 4d ec	 lea	 ecx, DWORD PTR _SignupEndTime$[ebp]
  00024	e8 00 00 00 00	 call	 ??0CTime@ATL@@QAE@ABU_SYSTEMTIME@@H@Z ; ATL::CTime::CTime

; 1873 : 
; 1874 : 	//常规开赛
; 1875 : 	if (m_pLockTimeMatch->cbMatchMode==MATCH_MODE_NORMAL)

  00029	8b 45 fc	 mov	 eax, DWORD PTR _this$[ebp]
  0002c	8b 48 78	 mov	 ecx, DWORD PTR [eax+120]
  0002f	0f b6 51 24	 movzx	 edx, BYTE PTR [ecx+36]
  00033	85 d2		 test	 edx, edx
  00035	75 47		 jne	 SHORT $LN2@IsMatchSig

; 1876 : 	{
; 1877 : 		//比较时间
; 1878 : 		CTimeSpan TimeSpan=CurTime-SignupEndTime;

  00037	8b 45 f0	 mov	 eax, DWORD PTR _SignupEndTime$[ebp+4]
  0003a	50		 push	 eax
  0003b	8b 4d ec	 mov	 ecx, DWORD PTR _SignupEndTime$[ebp]
  0003e	51		 push	 ecx
  0003f	8d 55 e4	 lea	 edx, DWORD PTR _TimeSpan$2[ebp]
  00042	52		 push	 edx
  00043	8d 4d f4	 lea	 ecx, DWORD PTR _CurTime$[ebp]
  00046	e8 00 00 00 00	 call	 ??GCTime@ATL@@QBE?AVCTimeSpan@1@V01@@Z ; ATL::CTime::operator-

; 1879 : 		
; 1880 : 		return TimeSpan.GetTotalSeconds()>=0;	

  0004b	8d 4d e4	 lea	 ecx, DWORD PTR _TimeSpan$2[ebp]
  0004e	e8 00 00 00 00	 call	 ?GetTotalSeconds@CTimeSpan@ATL@@QBE_JXZ ; ATL::CTimeSpan::GetTotalSeconds
  00053	89 45 98	 mov	 DWORD PTR tv152[ebp], eax
  00056	89 55 9c	 mov	 DWORD PTR tv152[ebp+4], edx
  00059	83 7d 9c 00	 cmp	 DWORD PTR tv152[ebp+4], 0
  0005d	7c 11		 jl	 SHORT $LN5@IsMatchSig
  0005f	7f 06		 jg	 SHORT $LN9@IsMatchSig
  00061	83 7d 98 00	 cmp	 DWORD PTR tv152[ebp], 0
  00065	72 09		 jb	 SHORT $LN5@IsMatchSig
$LN9@IsMatchSig:
  00067	c7 45 94 01 00
	00 00		 mov	 DWORD PTR tv80[ebp], 1
  0006e	eb 07		 jmp	 SHORT $LN6@IsMatchSig
$LN5@IsMatchSig:
  00070	c7 45 94 00 00
	00 00		 mov	 DWORD PTR tv80[ebp], 0
$LN6@IsMatchSig:
  00077	8a 45 94	 mov	 al, BYTE PTR tv80[ebp]
  0007a	eb 67		 jmp	 SHORT $LN1@IsMatchSig

; 1881 : 	}
; 1882 : 	else

  0007c	eb 65		 jmp	 SHORT $LN1@IsMatchSig
$LN2@IsMatchSig:

; 1883 : 	{
; 1884 : 		//计算时间
; 1885 : 		int nCurrSeconds=CurTime.GetHour()*3600+CurTime.GetMinute()*60+CurTime.GetSecond();

  0007e	8d 4d f4	 lea	 ecx, DWORD PTR _CurTime$[ebp]
  00081	e8 00 00 00 00	 call	 ?GetHour@CTime@ATL@@QBEHXZ ; ATL::CTime::GetHour
  00086	69 f0 10 0e 00
	00		 imul	 esi, eax, 3600
  0008c	8d 4d f4	 lea	 ecx, DWORD PTR _CurTime$[ebp]
  0008f	e8 00 00 00 00	 call	 ?GetMinute@CTime@ATL@@QBEHXZ ; ATL::CTime::GetMinute
  00094	6b c0 3c	 imul	 eax, eax, 60
  00097	03 f0		 add	 esi, eax
  00099	8d 4d f4	 lea	 ecx, DWORD PTR _CurTime$[ebp]
  0009c	e8 00 00 00 00	 call	 ?GetSecond@CTime@ATL@@QBEHXZ ; ATL::CTime::GetSecond
  000a1	03 f0		 add	 esi, eax
  000a3	89 75 e0	 mov	 DWORD PTR _nCurrSeconds$1[ebp], esi

; 1886 : 
; 1887 : 		//判断时间
; 1888 : 		return nCurrSeconds>=(SignupEndTime.GetHour()*3600+SignupEndTime.GetMinute()*60+SignupEndTime.GetSecond());

  000a6	8d 4d ec	 lea	 ecx, DWORD PTR _SignupEndTime$[ebp]
  000a9	e8 00 00 00 00	 call	 ?GetHour@CTime@ATL@@QBEHXZ ; ATL::CTime::GetHour
  000ae	69 f0 10 0e 00
	00		 imul	 esi, eax, 3600
  000b4	8d 4d ec	 lea	 ecx, DWORD PTR _SignupEndTime$[ebp]
  000b7	e8 00 00 00 00	 call	 ?GetMinute@CTime@ATL@@QBEHXZ ; ATL::CTime::GetMinute
  000bc	6b c0 3c	 imul	 eax, eax, 60
  000bf	03 f0		 add	 esi, eax
  000c1	8d 4d ec	 lea	 ecx, DWORD PTR _SignupEndTime$[ebp]
  000c4	e8 00 00 00 00	 call	 ?GetSecond@CTime@ATL@@QBEHXZ ; ATL::CTime::GetSecond
  000c9	03 f0		 add	 esi, eax
  000cb	39 75 e0	 cmp	 DWORD PTR _nCurrSeconds$1[ebp], esi
  000ce	7c 09		 jl	 SHORT $LN7@IsMatchSig
  000d0	c7 45 9c 01 00
	00 00		 mov	 DWORD PTR tv135[ebp], 1
  000d7	eb 07		 jmp	 SHORT $LN8@IsMatchSig
$LN7@IsMatchSig:
  000d9	c7 45 9c 00 00
	00 00		 mov	 DWORD PTR tv135[ebp], 0
$LN8@IsMatchSig:
  000e0	8a 45 9c	 mov	 al, BYTE PTR tv135[ebp]
$LN1@IsMatchSig:

; 1889 : 	}		
; 1890 : }

  000e3	5f		 pop	 edi
  000e4	5e		 pop	 esi
  000e5	5b		 pop	 ebx
  000e6	8b e5		 mov	 esp, ebp
  000e8	5d		 pop	 ebp
  000e9	c3		 ret	 0
?IsMatchSignupEnd@CLockTimeMatch@@IAE_NXZ ENDP		; CLockTimeMatch::IsMatchSignupEnd
_TEXT	ENDS
; Function compile flags: /Odtp /ZI
; File g:\网狐\happygamewh\服务端\系统模块\服务器组件\比赛服务\locktimematch.cpp
;	COMDAT ?SwitchMatchTimer@CLockTimeMatch@@IAEXXZ
_TEXT	SEGMENT
_this$ = -4						; size = 4
?SwitchMatchTimer@CLockTimeMatch@@IAEXXZ PROC		; CLockTimeMatch::SwitchMatchTimer, COMDAT
; _this$ = ecx

; 2182 : {

  00000	55		 push	 ebp
  00001	8b ec		 mov	 ebp, esp
  00003	83 ec 44	 sub	 esp, 68			; 00000044H
  00006	53		 push	 ebx
  00007	56		 push	 esi
  00008	57		 push	 edi
  00009	89 4d fc	 mov	 DWORD PTR _this$[ebp], ecx

; 2183 : 	//比赛未开始
; 2184 : 	if (m_MatchStatus==MatchStatus_Free)

  0000c	8b 45 fc	 mov	 eax, DWORD PTR _this$[ebp]
  0000f	0f b6 48 0c	 movzx	 ecx, BYTE PTR [eax+12]
  00013	85 c9		 test	 ecx, ecx
  00015	75 27		 jne	 SHORT $LN2@SwitchMatc

; 2185 : 	{
; 2186 : 		//开始检测	
; 2187 : 		m_pITimerEngine->SetTimer(IDI_CHECK_START_MATCH,2000L,TIMES_INFINITY,NULL);

  00017	6a 00		 push	 0
  00019	6a ff		 push	 -1
  0001b	68 d0 07 00 00	 push	 2000			; 000007d0H
  00020	68 cd 00 00 00	 push	 205			; 000000cdH
  00025	8b 45 fc	 mov	 eax, DWORD PTR _this$[ebp]
  00028	8b 88 88 00 00
	00		 mov	 ecx, DWORD PTR [eax+136]
  0002e	8b 55 fc	 mov	 edx, DWORD PTR _this$[ebp]
  00031	8b 01		 mov	 eax, DWORD PTR [ecx]
  00033	8b 8a 88 00 00
	00		 mov	 ecx, DWORD PTR [edx+136]
  00039	8b 50 18	 mov	 edx, DWORD PTR [eax+24]
  0003c	ff d2		 call	 edx
$LN2@SwitchMatc:

; 2188 : 	}
; 2189 : 
; 2190 : 	//等待开始
; 2191 : 	if (m_MatchStatus==MatchStatus_WaitPlay)

  0003e	8b 45 fc	 mov	 eax, DWORD PTR _this$[ebp]
  00041	0f b6 48 0c	 movzx	 ecx, BYTE PTR [eax+12]
  00045	83 f9 01	 cmp	 ecx, 1
  00048	75 27		 jne	 SHORT $LN3@SwitchMatc

; 2192 : 	{
; 2193 : 		//结束检测
; 2194 : 		m_pITimerEngine->SetTimer(IDI_CHECK_START_MATCH,2000L,TIMES_INFINITY,NULL);

  0004a	6a 00		 push	 0
  0004c	6a ff		 push	 -1
  0004e	68 d0 07 00 00	 push	 2000			; 000007d0H
  00053	68 cd 00 00 00	 push	 205			; 000000cdH
  00058	8b 45 fc	 mov	 eax, DWORD PTR _this$[ebp]
  0005b	8b 88 88 00 00
	00		 mov	 ecx, DWORD PTR [eax+136]
  00061	8b 55 fc	 mov	 edx, DWORD PTR _this$[ebp]
  00064	8b 01		 mov	 eax, DWORD PTR [ecx]
  00066	8b 8a 88 00 00
	00		 mov	 ecx, DWORD PTR [edx+136]
  0006c	8b 50 18	 mov	 edx, DWORD PTR [eax+24]
  0006f	ff d2		 call	 edx
$LN3@SwitchMatc:

; 2195 : 	}
; 2196 : 
; 2197 : 	//比赛进行中
; 2198 : 	if (m_MatchStatus==MatchStatus_Playing)

  00071	8b 45 fc	 mov	 eax, DWORD PTR _this$[ebp]
  00074	0f b6 48 0c	 movzx	 ecx, BYTE PTR [eax+12]
  00078	83 f9 02	 cmp	 ecx, 2
  0007b	75 5a		 jne	 SHORT $LN4@SwitchMatc

; 2199 : 	{
; 2200 : 		//结束检测
; 2201 : 		m_pITimerEngine->SetTimer(IDI_CHECK_END_MATCH,5000,TIMES_INFINITY,NULL);

  0007d	6a 00		 push	 0
  0007f	6a ff		 push	 -1
  00081	68 88 13 00 00	 push	 5000			; 00001388H
  00086	68 ce 00 00 00	 push	 206			; 000000ceH
  0008b	8b 45 fc	 mov	 eax, DWORD PTR _this$[ebp]
  0008e	8b 88 88 00 00
	00		 mov	 ecx, DWORD PTR [eax+136]
  00094	8b 55 fc	 mov	 edx, DWORD PTR _this$[ebp]
  00097	8b 01		 mov	 eax, DWORD PTR [ecx]
  00099	8b 8a 88 00 00
	00		 mov	 ecx, DWORD PTR [edx+136]
  0009f	8b 50 18	 mov	 edx, DWORD PTR [eax+24]
  000a2	ff d2		 call	 edx

; 2202 : 
; 2203 : 		//分组检测
; 2204 : 		m_pITimerEngine->SetTimer(IDI_DISTRIBUTE_USER,m_pMatchOption->wDistributeTimeSpace*1000,TIMES_INFINITY,NULL);

  000a4	6a 00		 push	 0
  000a6	6a ff		 push	 -1
  000a8	8b 45 fc	 mov	 eax, DWORD PTR _this$[ebp]
  000ab	8b 48 74	 mov	 ecx, DWORD PTR [eax+116]
  000ae	0f b7 51 78	 movzx	 edx, WORD PTR [ecx+120]
  000b2	69 c2 e8 03 00
	00		 imul	 eax, edx, 1000
  000b8	50		 push	 eax
  000b9	68 ca 00 00 00	 push	 202			; 000000caH
  000be	8b 4d fc	 mov	 ecx, DWORD PTR _this$[ebp]
  000c1	8b 91 88 00 00
	00		 mov	 edx, DWORD PTR [ecx+136]
  000c7	8b 45 fc	 mov	 eax, DWORD PTR _this$[ebp]
  000ca	8b 12		 mov	 edx, DWORD PTR [edx]
  000cc	8b 88 88 00 00
	00		 mov	 ecx, DWORD PTR [eax+136]
  000d2	8b 42 18	 mov	 eax, DWORD PTR [edx+24]
  000d5	ff d0		 call	 eax
$LN4@SwitchMatc:

; 2205 : 	}
; 2206 : 
; 2207 : 	//等待结束
; 2208 : 	if (m_MatchStatus==MatchStatus_WaitEnd)

  000d7	8b 45 fc	 mov	 eax, DWORD PTR _this$[ebp]
  000da	0f b6 48 0c	 movzx	 ecx, BYTE PTR [eax+12]
  000de	83 f9 03	 cmp	 ecx, 3
  000e1	75 27		 jne	 SHORT $LN5@SwitchMatc

; 2209 : 	{
; 2210 : 		//结束检测
; 2211 : 		m_pITimerEngine->SetTimer(IDI_CHECK_END_MATCH,5000,TIMES_INFINITY,NULL);

  000e3	6a 00		 push	 0
  000e5	6a ff		 push	 -1
  000e7	68 88 13 00 00	 push	 5000			; 00001388H
  000ec	68 ce 00 00 00	 push	 206			; 000000ceH
  000f1	8b 45 fc	 mov	 eax, DWORD PTR _this$[ebp]
  000f4	8b 88 88 00 00
	00		 mov	 ecx, DWORD PTR [eax+136]
  000fa	8b 55 fc	 mov	 edx, DWORD PTR _this$[ebp]
  000fd	8b 01		 mov	 eax, DWORD PTR [ecx]
  000ff	8b 8a 88 00 00
	00		 mov	 ecx, DWORD PTR [edx+136]
  00105	8b 50 18	 mov	 edx, DWORD PTR [eax+24]
  00108	ff d2		 call	 edx
$LN5@SwitchMatc:

; 2212 : 	}
; 2213 : 
; 2214 : 	//比赛已结束
; 2215 : 	if (m_MatchStatus==MatchStatus_End)

  0010a	8b 45 fc	 mov	 eax, DWORD PTR _this$[ebp]
  0010d	0f b6 48 0c	 movzx	 ecx, BYTE PTR [eax+12]
  00111	83 f9 04	 cmp	 ecx, 4
  00114	75 27		 jne	 SHORT $LN1@SwitchMatc

; 2216 : 	{
; 2217 : 		//切换状态
; 2218 : 		m_pITimerEngine->SetTimer(IDI_SWITCH_STATUS,2000,TIMES_INFINITY,NULL);

  00116	6a 00		 push	 0
  00118	6a ff		 push	 -1
  0011a	68 d0 07 00 00	 push	 2000			; 000007d0H
  0011f	68 c9 00 00 00	 push	 201			; 000000c9H
  00124	8b 45 fc	 mov	 eax, DWORD PTR _this$[ebp]
  00127	8b 88 88 00 00
	00		 mov	 ecx, DWORD PTR [eax+136]
  0012d	8b 55 fc	 mov	 edx, DWORD PTR _this$[ebp]
  00130	8b 01		 mov	 eax, DWORD PTR [ecx]
  00132	8b 8a 88 00 00
	00		 mov	 ecx, DWORD PTR [edx+136]
  00138	8b 50 18	 mov	 edx, DWORD PTR [eax+24]
  0013b	ff d2		 call	 edx
$LN1@SwitchMatc:

; 2219 : 	}
; 2220 : }

  0013d	5f		 pop	 edi
  0013e	5e		 pop	 esi
  0013f	5b		 pop	 ebx
  00140	8b e5		 mov	 esp, ebp
  00142	5d		 pop	 ebp
  00143	c3		 ret	 0
?SwitchMatchTimer@CLockTimeMatch@@IAEXXZ ENDP		; CLockTimeMatch::SwitchMatchTimer
_TEXT	ENDS
; Function compile flags: /Odtp /ZI
; File g:\网狐\happygamewh\服务端\系统模块\服务器组件\比赛服务\locktimematch.cpp
;	COMDAT ?UpdateMatchStatus@CLockTimeMatch@@IAEXXZ
_TEXT	SEGMENT
_pITableFrame$1 = -40					; size = 4
_i$2 = -36						; size = 4
_bContinueWait$3 = -30					; size = 1
_MatchStatus$ = -29					; size = 1
_MatchStartTime$ = -28					; size = 8
_MatchEndTime$ = -20					; size = 8
_CurTime$ = -12						; size = 8
_this$ = -4						; size = 4
?UpdateMatchStatus@CLockTimeMatch@@IAEXXZ PROC		; CLockTimeMatch::UpdateMatchStatus, COMDAT
; _this$ = ecx

; 2112 : {

  00000	55		 push	 ebp
  00001	8b ec		 mov	 ebp, esp
  00003	83 ec 68	 sub	 esp, 104		; 00000068H
  00006	53		 push	 ebx
  00007	56		 push	 esi
  00008	57		 push	 edi
  00009	89 4d fc	 mov	 DWORD PTR _this$[ebp], ecx

; 2113 : 	//变量定义
; 2114 : 	CTime CurTime=CTime::GetCurrentTime();

  0000c	8d 45 f4	 lea	 eax, DWORD PTR _CurTime$[ebp]
  0000f	50		 push	 eax
  00010	e8 00 00 00 00	 call	 ?GetTickCount@CTime@ATL@@SG?AV12@XZ ; ATL::CTime::GetTickCount

; 2115 : 	CTime MatchEndTime(m_pLockTimeMatch->MatchEndTime);

  00015	6a ff		 push	 -1
  00017	8b 45 fc	 mov	 eax, DWORD PTR _this$[ebp]
  0001a	8b 48 78	 mov	 ecx, DWORD PTR [eax+120]
  0001d	83 c1 14	 add	 ecx, 20			; 00000014H
  00020	51		 push	 ecx
  00021	8d 4d ec	 lea	 ecx, DWORD PTR _MatchEndTime$[ebp]
  00024	e8 00 00 00 00	 call	 ??0CTime@ATL@@QAE@ABU_SYSTEMTIME@@H@Z ; ATL::CTime::CTime

; 2116 : 	CTime MatchStartTime(m_pLockTimeMatch->MatchStartTime);	

  00029	6a ff		 push	 -1
  0002b	8b 45 fc	 mov	 eax, DWORD PTR _this$[ebp]
  0002e	8b 48 78	 mov	 ecx, DWORD PTR [eax+120]
  00031	83 c1 04	 add	 ecx, 4
  00034	51		 push	 ecx
  00035	8d 4d e4	 lea	 ecx, DWORD PTR _MatchStartTime$[ebp]
  00038	e8 00 00 00 00	 call	 ??0CTime@ATL@@QAE@ABU_SYSTEMTIME@@H@Z ; ATL::CTime::CTime

; 2117 : 
; 2118 : 	//比赛未开始
; 2119 : 	BYTE MatchStatus=m_MatchStatus;

  0003d	8b 45 fc	 mov	 eax, DWORD PTR _this$[ebp]
  00040	8a 48 0c	 mov	 cl, BYTE PTR [eax+12]
  00043	88 4d e3	 mov	 BYTE PTR _MatchStatus$[ebp], cl

; 2120 : 
; 2121 : 	//等待开始比赛
; 2122 : 	if (MatchStatus==MatchStatus_Free && CurTime.GetHour()*3600+CurTime.GetMinute()*60+CurTime.GetSecond() >= 

  00046	0f b6 45 e3	 movzx	 eax, BYTE PTR _MatchStatus$[ebp]
  0004a	85 c0		 test	 eax, eax
  0004c	75 58		 jne	 SHORT $LN5@UpdateMatc
  0004e	8d 4d f4	 lea	 ecx, DWORD PTR _CurTime$[ebp]
  00051	e8 00 00 00 00	 call	 ?GetHour@CTime@ATL@@QBEHXZ ; ATL::CTime::GetHour
  00056	69 f0 10 0e 00
	00		 imul	 esi, eax, 3600
  0005c	8d 4d f4	 lea	 ecx, DWORD PTR _CurTime$[ebp]
  0005f	e8 00 00 00 00	 call	 ?GetMinute@CTime@ATL@@QBEHXZ ; ATL::CTime::GetMinute
  00064	6b c0 3c	 imul	 eax, eax, 60
  00067	03 f0		 add	 esi, eax
  00069	8d 4d f4	 lea	 ecx, DWORD PTR _CurTime$[ebp]
  0006c	e8 00 00 00 00	 call	 ?GetSecond@CTime@ATL@@QBEHXZ ; ATL::CTime::GetSecond
  00071	03 f0		 add	 esi, eax
  00073	8b 4d fc	 mov	 ecx, DWORD PTR _this$[ebp]
  00076	8b 51 78	 mov	 edx, DWORD PTR [ecx+120]
  00079	0f b7 42 0c	 movzx	 eax, WORD PTR [edx+12]
  0007d	69 c8 10 0e 00
	00		 imul	 ecx, eax, 3600
  00083	8b 55 fc	 mov	 edx, DWORD PTR _this$[ebp]
  00086	8b 42 78	 mov	 eax, DWORD PTR [edx+120]
  00089	0f b7 50 0e	 movzx	 edx, WORD PTR [eax+14]
  0008d	6b c2 3c	 imul	 eax, edx, 60
  00090	03 c8		 add	 ecx, eax
  00092	8b 55 fc	 mov	 edx, DWORD PTR _this$[ebp]
  00095	8b 42 78	 mov	 eax, DWORD PTR [edx+120]
  00098	0f b7 50 10	 movzx	 edx, WORD PTR [eax+16]
  0009c	03 ca		 add	 ecx, edx
  0009e	3b f1		 cmp	 esi, ecx
  000a0	7c 04		 jl	 SHORT $LN5@UpdateMatc

; 2123 : 	   m_pLockTimeMatch->MatchStartTime.wHour*3600+m_pLockTimeMatch->MatchStartTime.wMinute*60+m_pLockTimeMatch->MatchStartTime.wSecond)
; 2124 : 	{
; 2125 : 		MatchStatus=MatchStatus_WaitPlay;

  000a2	c6 45 e3 01	 mov	 BYTE PTR _MatchStatus$[ebp], 1
$LN5@UpdateMatc:

; 2126 : 	}
; 2127 : 
; 2128 : 	//比赛进行中
; 2129 : 	if (MatchStatus==MatchStatus_WaitPlay && m_DistributeManage.GetCount()>=m_pLockTimeMatch->wStartUserCount)

  000a6	0f b6 45 e3	 movzx	 eax, BYTE PTR _MatchStatus$[ebp]
  000aa	83 f8 01	 cmp	 eax, 1
  000ad	75 20		 jne	 SHORT $LN6@UpdateMatc
  000af	8b 4d fc	 mov	 ecx, DWORD PTR _this$[ebp]
  000b2	83 c1 18	 add	 ecx, 24			; 00000018H
  000b5	e8 00 00 00 00	 call	 ?GetCount@CDistributeManager@@QAEGXZ ; CDistributeManager::GetCount
  000ba	0f b7 c0	 movzx	 eax, ax
  000bd	8b 4d fc	 mov	 ecx, DWORD PTR _this$[ebp]
  000c0	8b 51 78	 mov	 edx, DWORD PTR [ecx+120]
  000c3	0f b7 4a 27	 movzx	 ecx, WORD PTR [edx+39]
  000c7	3b c1		 cmp	 eax, ecx
  000c9	7c 04		 jl	 SHORT $LN6@UpdateMatc

; 2130 : 	{
; 2131 : 		MatchStatus=MatchStatus_Playing;

  000cb	c6 45 e3 02	 mov	 BYTE PTR _MatchStatus$[ebp], 2
$LN6@UpdateMatc:

; 2132 : 	}
; 2133 : 
; 2134 : 	//等待结束
; 2135 : 	if (MatchStatus==MatchStatus_Playing && CurTime.GetHour()*3600+CurTime.GetMinute()*60+CurTime.GetSecond() >= 

  000cf	0f b6 45 e3	 movzx	 eax, BYTE PTR _MatchStatus$[ebp]
  000d3	83 f8 02	 cmp	 eax, 2
  000d6	75 58		 jne	 SHORT $LN7@UpdateMatc
  000d8	8d 4d f4	 lea	 ecx, DWORD PTR _CurTime$[ebp]
  000db	e8 00 00 00 00	 call	 ?GetHour@CTime@ATL@@QBEHXZ ; ATL::CTime::GetHour
  000e0	69 f0 10 0e 00
	00		 imul	 esi, eax, 3600
  000e6	8d 4d f4	 lea	 ecx, DWORD PTR _CurTime$[ebp]
  000e9	e8 00 00 00 00	 call	 ?GetMinute@CTime@ATL@@QBEHXZ ; ATL::CTime::GetMinute
  000ee	6b c0 3c	 imul	 eax, eax, 60
  000f1	03 f0		 add	 esi, eax
  000f3	8d 4d f4	 lea	 ecx, DWORD PTR _CurTime$[ebp]
  000f6	e8 00 00 00 00	 call	 ?GetSecond@CTime@ATL@@QBEHXZ ; ATL::CTime::GetSecond
  000fb	03 f0		 add	 esi, eax
  000fd	8b 4d fc	 mov	 ecx, DWORD PTR _this$[ebp]
  00100	8b 51 78	 mov	 edx, DWORD PTR [ecx+120]
  00103	0f b7 42 1c	 movzx	 eax, WORD PTR [edx+28]
  00107	69 c8 10 0e 00
	00		 imul	 ecx, eax, 3600
  0010d	8b 55 fc	 mov	 edx, DWORD PTR _this$[ebp]
  00110	8b 42 78	 mov	 eax, DWORD PTR [edx+120]
  00113	0f b7 50 1e	 movzx	 edx, WORD PTR [eax+30]
  00117	6b c2 3c	 imul	 eax, edx, 60
  0011a	03 c8		 add	 ecx, eax
  0011c	8b 55 fc	 mov	 edx, DWORD PTR _this$[ebp]
  0011f	8b 42 78	 mov	 eax, DWORD PTR [edx+120]
  00122	0f b7 50 20	 movzx	 edx, WORD PTR [eax+32]
  00126	03 ca		 add	 ecx, edx
  00128	3b f1		 cmp	 esi, ecx
  0012a	7c 04		 jl	 SHORT $LN7@UpdateMatc

; 2136 : 	   m_pLockTimeMatch->MatchEndTime.wHour*3600+m_pLockTimeMatch->MatchEndTime.wMinute*60+m_pLockTimeMatch->MatchEndTime.wSecond)
; 2137 : 	{
; 2138 : 		MatchStatus=MatchStatus_WaitEnd;

  0012c	c6 45 e3 03	 mov	 BYTE PTR _MatchStatus$[ebp], 3
$LN7@UpdateMatc:

; 2139 : 	}	
; 2140 : 
; 2141 : 	//结束判断
; 2142 : 	if (MatchStatus==MatchStatus_WaitEnd)  

  00130	0f b6 45 e3	 movzx	 eax, BYTE PTR _MatchStatus$[ebp]
  00134	83 f8 03	 cmp	 eax, 3
  00137	0f 85 c7 00 00
	00		 jne	 $LN8@UpdateMatc

; 2143 : 	{
; 2144 : 		//变量定义
; 2145 : 		bool bContinueWait=false;

  0013d	c6 45 e2 00	 mov	 BYTE PTR _bContinueWait$3[ebp], 0

; 2146 : 
; 2147 : 		//解散游戏
; 2148 : 		for (INT i=0; i<m_pGameServiceOption->wTableCount; i++)

  00141	c7 45 dc 00 00
	00 00		 mov	 DWORD PTR _i$2[ebp], 0
  00148	eb 09		 jmp	 SHORT $LN4@UpdateMatc
$LN2@UpdateMatc:
  0014a	8b 45 dc	 mov	 eax, DWORD PTR _i$2[ebp]
  0014d	83 c0 01	 add	 eax, 1
  00150	89 45 dc	 mov	 DWORD PTR _i$2[ebp], eax
$LN4@UpdateMatc:
  00153	8b 45 fc	 mov	 eax, DWORD PTR _this$[ebp]
  00156	8b 48 7c	 mov	 ecx, DWORD PTR [eax+124]
  00159	0f b7 51 46	 movzx	 edx, WORD PTR [ecx+70]
  0015d	39 55 dc	 cmp	 DWORD PTR _i$2[ebp], edx
  00160	7d 36		 jge	 SHORT $LN3@UpdateMatc

; 2149 : 		{
; 2150 : 			//获取对象
; 2151 : 			ITableFrame * pITableFrame=m_ppITableFrame[i];								

  00162	8b 45 fc	 mov	 eax, DWORD PTR _this$[ebp]
  00165	8b 88 84 00 00
	00		 mov	 ecx, DWORD PTR [eax+132]
  0016b	8b 55 dc	 mov	 edx, DWORD PTR _i$2[ebp]
  0016e	8b 04 91	 mov	 eax, DWORD PTR [ecx+edx*4]
  00171	89 45 d8	 mov	 DWORD PTR _pITableFrame$1[ebp], eax

; 2152 : 			if (pITableFrame==NULL) continue;

  00174	83 7d d8 00	 cmp	 DWORD PTR _pITableFrame$1[ebp], 0
  00178	75 02		 jne	 SHORT $LN9@UpdateMatc
  0017a	eb ce		 jmp	 SHORT $LN2@UpdateMatc
$LN9@UpdateMatc:

; 2153 : 
; 2154 : 			//解散游戏
; 2155 : 			if (pITableFrame->IsGameStarted())

  0017c	8b 45 d8	 mov	 eax, DWORD PTR _pITableFrame$1[ebp]
  0017f	8b 10		 mov	 edx, DWORD PTR [eax]
  00181	8b 4d d8	 mov	 ecx, DWORD PTR _pITableFrame$1[ebp]
  00184	8b 42 3c	 mov	 eax, DWORD PTR [edx+60]
  00187	ff d0		 call	 eax
  00189	0f b6 c8	 movzx	 ecx, al
  0018c	85 c9		 test	 ecx, ecx
  0018e	74 06		 je	 SHORT $LN10@UpdateMatc

; 2156 : 			{
; 2157 : 				bContinueWait=true;

  00190	c6 45 e2 01	 mov	 BYTE PTR _bContinueWait$3[ebp], 1

; 2158 : 				break;

  00194	eb 02		 jmp	 SHORT $LN3@UpdateMatc
$LN10@UpdateMatc:

; 2159 : 			}
; 2160 : 		}

  00196	eb b2		 jmp	 SHORT $LN2@UpdateMatc
$LN3@UpdateMatc:

; 2161 : 
; 2162 : 		//无需等待
; 2163 : 		if (bContinueWait==false)

  00198	0f b6 45 e2	 movzx	 eax, BYTE PTR _bContinueWait$3[ebp]
  0019c	85 c0		 test	 eax, eax
  0019e	75 04		 jne	 SHORT $LN11@UpdateMatc

; 2164 : 		{
; 2165 : 			MatchStatus=MatchStatus_End;

  001a0	c6 45 e3 04	 mov	 BYTE PTR _MatchStatus$[ebp], 4
$LN11@UpdateMatc:

; 2166 : 		}
; 2167 : 
; 2168 : 		//强制结束
; 2169 : 		if ((DWORD)(CurTime.GetHour()*3600+CurTime.GetMinute()*60+CurTime.GetSecond()) >= 

  001a4	8d 4d f4	 lea	 ecx, DWORD PTR _CurTime$[ebp]
  001a7	e8 00 00 00 00	 call	 ?GetHour@CTime@ATL@@QBEHXZ ; ATL::CTime::GetHour
  001ac	69 f0 10 0e 00
	00		 imul	 esi, eax, 3600
  001b2	8d 4d f4	 lea	 ecx, DWORD PTR _CurTime$[ebp]
  001b5	e8 00 00 00 00	 call	 ?GetMinute@CTime@ATL@@QBEHXZ ; ATL::CTime::GetMinute
  001ba	6b c0 3c	 imul	 eax, eax, 60
  001bd	03 f0		 add	 esi, eax
  001bf	8d 4d f4	 lea	 ecx, DWORD PTR _CurTime$[ebp]
  001c2	e8 00 00 00 00	 call	 ?GetSecond@CTime@ATL@@QBEHXZ ; ATL::CTime::GetSecond
  001c7	03 f0		 add	 esi, eax
  001c9	8b 4d fc	 mov	 ecx, DWORD PTR _this$[ebp]
  001cc	8b 51 78	 mov	 edx, DWORD PTR [ecx+120]
  001cf	0f b7 42 1c	 movzx	 eax, WORD PTR [edx+28]
  001d3	69 c8 10 0e 00
	00		 imul	 ecx, eax, 3600
  001d9	8b 55 fc	 mov	 edx, DWORD PTR _this$[ebp]
  001dc	8b 42 78	 mov	 eax, DWORD PTR [edx+120]
  001df	0f b7 50 1e	 movzx	 edx, WORD PTR [eax+30]
  001e3	6b c2 3c	 imul	 eax, edx, 60
  001e6	03 c8		 add	 ecx, eax
  001e8	8b 55 fc	 mov	 edx, DWORD PTR _this$[ebp]
  001eb	8b 42 78	 mov	 eax, DWORD PTR [edx+120]
  001ee	0f b7 50 20	 movzx	 edx, WORD PTR [eax+32]
  001f2	03 ca		 add	 ecx, edx
  001f4	8b 45 fc	 mov	 eax, DWORD PTR _this$[ebp]
  001f7	8b 50 78	 mov	 edx, DWORD PTR [eax+120]
  001fa	03 0a		 add	 ecx, DWORD PTR [edx]
  001fc	3b f1		 cmp	 esi, ecx
  001fe	72 04		 jb	 SHORT $LN8@UpdateMatc

; 2170 : 			(DWORD)(m_pLockTimeMatch->MatchEndTime.wHour*3600+m_pLockTimeMatch->MatchEndTime.wMinute*60+m_pLockTimeMatch->MatchEndTime.wSecond+m_pLockTimeMatch->wEndDelayTime))
; 2171 : 		{
; 2172 : 			MatchStatus=MatchStatus_End;

  00200	c6 45 e3 04	 mov	 BYTE PTR _MatchStatus$[ebp], 4
$LN8@UpdateMatc:

; 2173 : 		}
; 2174 : 	}
; 2175 : 
; 2176 : 	//设置状态
; 2177 : 	m_MatchStatus=MatchStatus; 	

  00204	8b 45 fc	 mov	 eax, DWORD PTR _this$[ebp]
  00207	8a 4d e3	 mov	 cl, BYTE PTR _MatchStatus$[ebp]
  0020a	88 48 0c	 mov	 BYTE PTR [eax+12], cl

; 2178 : }

  0020d	5f		 pop	 edi
  0020e	5e		 pop	 esi
  0020f	5b		 pop	 ebx
  00210	8b e5		 mov	 esp, ebp
  00212	5d		 pop	 ebp
  00213	c3		 ret	 0
?UpdateMatchStatus@CLockTimeMatch@@IAEXXZ ENDP		; CLockTimeMatch::UpdateMatchStatus
_TEXT	ENDS
; Function compile flags: /Odtp /ZI
; File g:\网狐\happygamewh\服务端\系统模块\服务器组件\比赛服务\locktimematch.cpp
;	COMDAT ?PerformDistribute@CLockTimeMatch@@IAE_NXZ
_TEXT	SEGMENT
tv264 = -168						; size = 4
tv252 = -168						; size = 4
tv128 = -168						; size = 4
_wTableID$2 = -100					; size = 2
_nIndex$3 = -96						; size = 4
_pITableFrame$4 = -92					; size = 4
_wTableID$5 = -88					; size = 2
_pIServerUserItem$6 = -84				; size = 4
_i$7 = -80						; size = 2
_wChairID$8 = -76					; size = 2
_nIndex$9 = -72						; size = 4
_nSitFailedIndex$10 = -68				; size = 4
_bSitSuccess$11 = -61					; size = 1
_pITableFrame$12 = -60					; size = 4
_i$13 = -56						; size = 2
_pICurrTableFrame$14 = -52				; size = 4
_wDistributeCount$15 = -48				; size = 2
_wChairCount$16 = -44					; size = 2
_wRandCount$17 = -40					; size = 2
_DistributeInfoArray$18 = -36				; size = 20
_this$ = -16						; size = 4
__$EHRec$ = -12						; size = 12
?PerformDistribute@CLockTimeMatch@@IAE_NXZ PROC		; CLockTimeMatch::PerformDistribute, COMDAT
; _this$ = ecx

; 2008 : {

  00000	55		 push	 ebp
  00001	8b ec		 mov	 ebp, esp
  00003	6a ff		 push	 -1
  00005	68 00 00 00 00	 push	 __ehhandler$?PerformDistribute@CLockTimeMatch@@IAE_NXZ
  0000a	64 a1 00 00 00
	00		 mov	 eax, DWORD PTR fs:0
  00010	50		 push	 eax
  00011	81 ec 9c 00 00
	00		 sub	 esp, 156		; 0000009cH
  00017	53		 push	 ebx
  00018	56		 push	 esi
  00019	57		 push	 edi
  0001a	a1 00 00 00 00	 mov	 eax, DWORD PTR ___security_cookie
  0001f	33 c5		 xor	 eax, ebp
  00021	50		 push	 eax
  00022	8d 45 f4	 lea	 eax, DWORD PTR __$EHRec$[ebp]
  00025	64 a3 00 00 00
	00		 mov	 DWORD PTR fs:0, eax
  0002b	89 4d f0	 mov	 DWORD PTR _this$[ebp], ecx

; 2009 : 	//状态判断
; 2010 : 	if (m_MatchStatus!=MatchStatus_Playing) return true;

  0002e	8b 45 f0	 mov	 eax, DWORD PTR _this$[ebp]
  00031	0f b6 48 0c	 movzx	 ecx, BYTE PTR [eax+12]
  00035	83 f9 02	 cmp	 ecx, 2
  00038	74 07		 je	 SHORT $LN16@PerformDis
  0003a	b0 01		 mov	 al, 1
  0003c	e9 d7 03 00 00	 jmp	 $LN1@PerformDis
$LN16@PerformDis:

; 2011 : 
; 2012 : 	//人数校验
; 2013 : 	if (m_DistributeManage.GetCount()<m_pMatchOption->wMinDistributeUser) return false;

  00041	8b 4d f0	 mov	 ecx, DWORD PTR _this$[ebp]
  00044	83 c1 18	 add	 ecx, 24			; 00000018H
  00047	e8 00 00 00 00	 call	 ?GetCount@CDistributeManager@@QAEGXZ ; CDistributeManager::GetCount
  0004c	0f b7 c0	 movzx	 eax, ax
  0004f	8b 4d f0	 mov	 ecx, DWORD PTR _this$[ebp]
  00052	8b 51 74	 mov	 edx, DWORD PTR [ecx+116]
  00055	0f b7 4a 76	 movzx	 ecx, WORD PTR [edx+118]
  00059	3b c1		 cmp	 eax, ecx
  0005b	7d 07		 jge	 SHORT $LN2@PerformDis
  0005d	32 c0		 xor	 al, al
  0005f	e9 b4 03 00 00	 jmp	 $LN1@PerformDis
$LN2@PerformDis:

; 2014 : 
; 2015 : 	//分配用户
; 2016 : 	while(true)

  00064	b8 01 00 00 00	 mov	 eax, 1
  00069	85 c0		 test	 eax, eax
  0006b	0f 84 a5 03 00
	00		 je	 $LN3@PerformDis

; 2017 : 	{
; 2018 : 		//变量定义
; 2019 : 		CDistributeInfoArray DistributeInfoArray;

  00071	8d 4d dc	 lea	 ecx, DWORD PTR _DistributeInfoArray$18[ebp]
  00074	e8 00 00 00 00	 call	 ??0?$CWHArray@UtagDistributeInfo@@ABU1@@@QAE@XZ ; CWHArray<tagDistributeInfo,tagDistributeInfo const &>::CWHArray<tagDistributeInfo,tagDistributeInfo const &>
  00079	c7 45 fc 00 00
	00 00		 mov	 DWORD PTR __$EHRec$[ebp+8], 0

; 2020 : 
; 2021 :         //获取用户
; 2022 : 		WORD wRandCount = __max(m_pMatchOption->wMaxPartakeGameUser-m_pMatchOption->wMinPartakeGameUser+1,1);

  00080	8b 45 f0	 mov	 eax, DWORD PTR _this$[ebp]
  00083	8b 48 74	 mov	 ecx, DWORD PTR [eax+116]
  00086	0f b7 51 7c	 movzx	 edx, WORD PTR [ecx+124]
  0008a	8b 45 f0	 mov	 eax, DWORD PTR _this$[ebp]
  0008d	8b 48 74	 mov	 ecx, DWORD PTR [eax+116]
  00090	0f b7 41 7a	 movzx	 eax, WORD PTR [ecx+122]
  00094	2b d0		 sub	 edx, eax
  00096	83 c2 01	 add	 edx, 1
  00099	83 fa 01	 cmp	 edx, 1
  0009c	7e 21		 jle	 SHORT $LN30@PerformDis
  0009e	8b 4d f0	 mov	 ecx, DWORD PTR _this$[ebp]
  000a1	8b 51 74	 mov	 edx, DWORD PTR [ecx+116]
  000a4	0f b7 42 7c	 movzx	 eax, WORD PTR [edx+124]
  000a8	8b 4d f0	 mov	 ecx, DWORD PTR _this$[ebp]
  000ab	8b 51 74	 mov	 edx, DWORD PTR [ecx+116]
  000ae	0f b7 4a 7a	 movzx	 ecx, WORD PTR [edx+122]
  000b2	2b c1		 sub	 eax, ecx
  000b4	83 c0 01	 add	 eax, 1
  000b7	89 85 58 ff ff
	ff		 mov	 DWORD PTR tv128[ebp], eax
  000bd	eb 0a		 jmp	 SHORT $LN31@PerformDis
$LN30@PerformDis:
  000bf	c7 85 58 ff ff
	ff 01 00 00 00	 mov	 DWORD PTR tv128[ebp], 1
$LN31@PerformDis:
  000c9	66 8b 95 58 ff
	ff ff		 mov	 dx, WORD PTR tv128[ebp]
  000d0	66 89 55 d8	 mov	 WORD PTR _wRandCount$17[ebp], dx

; 2023 : 		WORD wChairCount = m_pMatchOption->wMinPartakeGameUser+rand()%wRandCount;

  000d4	8b 45 f0	 mov	 eax, DWORD PTR _this$[ebp]
  000d7	8b 48 74	 mov	 ecx, DWORD PTR [eax+116]
  000da	0f b7 71 7a	 movzx	 esi, WORD PTR [ecx+122]
  000de	ff 15 00 00 00
	00		 call	 DWORD PTR __imp__rand
  000e4	0f b7 4d d8	 movzx	 ecx, WORD PTR _wRandCount$17[ebp]
  000e8	99		 cdq
  000e9	f7 f9		 idiv	 ecx
  000eb	03 f2		 add	 esi, edx
  000ed	66 89 75 d4	 mov	 WORD PTR _wChairCount$16[ebp], si

; 2024 : 		WORD wDistributeCount = m_DistributeManage.PerformDistribute(DistributeInfoArray,wChairCount);

  000f1	0f b7 45 d4	 movzx	 eax, WORD PTR _wChairCount$16[ebp]
  000f5	50		 push	 eax
  000f6	8d 4d dc	 lea	 ecx, DWORD PTR _DistributeInfoArray$18[ebp]
  000f9	51		 push	 ecx
  000fa	8b 4d f0	 mov	 ecx, DWORD PTR _this$[ebp]
  000fd	83 c1 18	 add	 ecx, 24			; 00000018H
  00100	e8 00 00 00 00	 call	 ?PerformDistribute@CDistributeManager@@QAEGAAV?$CWHArray@UtagDistributeInfo@@ABU1@@@G@Z ; CDistributeManager::PerformDistribute
  00105	66 89 45 d0	 mov	 WORD PTR _wDistributeCount$15[ebp], ax

; 2025 : 		if (wDistributeCount < wChairCount) break;

  00109	0f b7 45 d0	 movzx	 eax, WORD PTR _wDistributeCount$15[ebp]
  0010d	0f b7 4d d4	 movzx	 ecx, WORD PTR _wChairCount$16[ebp]
  00111	3b c1		 cmp	 eax, ecx
  00113	7d 14		 jge	 SHORT $LN18@PerformDis
  00115	c7 45 fc ff ff
	ff ff		 mov	 DWORD PTR __$EHRec$[ebp+8], -1
  0011c	8d 4d dc	 lea	 ecx, DWORD PTR _DistributeInfoArray$18[ebp]
  0011f	e8 00 00 00 00	 call	 ??1?$CWHArray@UtagDistributeInfo@@ABU1@@@UAE@XZ ; CWHArray<tagDistributeInfo,tagDistributeInfo const &>::~CWHArray<tagDistributeInfo,tagDistributeInfo const &>
  00124	e9 ed 02 00 00	 jmp	 $LN3@PerformDis
$LN18@PerformDis:

; 2026 : 
; 2027 : 		//寻找位置
; 2028 : 		ITableFrame * pICurrTableFrame=NULL;

  00129	c7 45 cc 00 00
	00 00		 mov	 DWORD PTR _pICurrTableFrame$14[ebp], 0

; 2029 : 		for (WORD i=0;i<m_pGameServiceOption->wTableCount;i++)

  00130	33 c0		 xor	 eax, eax
  00132	66 89 45 c8	 mov	 WORD PTR _i$13[ebp], ax
  00136	eb 0c		 jmp	 SHORT $LN6@PerformDis
$LN4@PerformDis:
  00138	66 8b 45 c8	 mov	 ax, WORD PTR _i$13[ebp]
  0013c	66 83 c0 01	 add	 ax, 1
  00140	66 89 45 c8	 mov	 WORD PTR _i$13[ebp], ax
$LN6@PerformDis:
  00144	0f b7 45 c8	 movzx	 eax, WORD PTR _i$13[ebp]
  00148	8b 4d f0	 mov	 ecx, DWORD PTR _this$[ebp]
  0014b	8b 51 7c	 mov	 edx, DWORD PTR [ecx+124]
  0014e	0f b7 4a 46	 movzx	 ecx, WORD PTR [edx+70]
  00152	3b c1		 cmp	 eax, ecx
  00154	7d 6f		 jge	 SHORT $LN5@PerformDis

; 2030 : 		{
; 2031 : 			//获取对象
; 2032 : 			ASSERT(m_ppITableFrame[i]!=NULL);

  00156	0f b7 45 c8	 movzx	 eax, WORD PTR _i$13[ebp]
  0015a	8b 4d f0	 mov	 ecx, DWORD PTR _this$[ebp]
  0015d	8b 91 84 00 00
	00		 mov	 edx, DWORD PTR [ecx+132]
  00163	83 3c 82 00	 cmp	 DWORD PTR [edx+eax*4], 0
  00167	75 18		 jne	 SHORT $LN32@PerformDis
  00169	a1 00 00 00 00	 mov	 eax, DWORD PTR ?__LINE__Var@?0??PerformDistribute@CLockTimeMatch@@IAE_NXZ@4JA
  0016e	83 c0 18	 add	 eax, 24			; 00000018H
  00171	50		 push	 eax
  00172	68 00 00 00 00	 push	 OFFSET ??_C@_0EK@PLFANKAP@g?3?2?M?x?$LK?$PM?2happygamewh?2?$LH?$PO?N?q?$LG?K?2?O?$LF?M?$LD@
  00177	e8 00 00 00 00	 call	 ?AfxAssertFailedLine@@YGHPBDH@Z ; AfxAssertFailedLine
  0017c	85 c0		 test	 eax, eax
  0017e	74 01		 je	 SHORT $LN32@PerformDis
  00180	cc		 int	 3
$LN32@PerformDis:

; 2033 : 			ITableFrame * pITableFrame=m_ppITableFrame[i];

  00181	0f b7 45 c8	 movzx	 eax, WORD PTR _i$13[ebp]
  00185	8b 4d f0	 mov	 ecx, DWORD PTR _this$[ebp]
  00188	8b 91 84 00 00
	00		 mov	 edx, DWORD PTR [ecx+132]
  0018e	8b 04 82	 mov	 eax, DWORD PTR [edx+eax*4]
  00191	89 45 c4	 mov	 DWORD PTR _pITableFrame$12[ebp], eax

; 2034 : 
; 2035 : 			//状态判断
; 2036 : 			if (pITableFrame->GetNullChairCount()==pITableFrame->GetChairCount())

  00194	8b 45 c4	 mov	 eax, DWORD PTR _pITableFrame$12[ebp]
  00197	8b 10		 mov	 edx, DWORD PTR [eax]
  00199	8b 4d c4	 mov	 ecx, DWORD PTR _pITableFrame$12[ebp]
  0019c	8b 42 10	 mov	 eax, DWORD PTR [edx+16]
  0019f	ff d0		 call	 eax
  001a1	0f b7 f0	 movzx	 esi, ax
  001a4	8b 4d c4	 mov	 ecx, DWORD PTR _pITableFrame$12[ebp]
  001a7	8b 11		 mov	 edx, DWORD PTR [ecx]
  001a9	8b 4d c4	 mov	 ecx, DWORD PTR _pITableFrame$12[ebp]
  001ac	8b 42 0c	 mov	 eax, DWORD PTR [edx+12]
  001af	ff d0		 call	 eax
  001b1	0f b7 c8	 movzx	 ecx, ax
  001b4	3b f1		 cmp	 esi, ecx
  001b6	75 08		 jne	 SHORT $LN19@PerformDis

; 2037 : 			{
; 2038 : 				pICurrTableFrame=pITableFrame;

  001b8	8b 45 c4	 mov	 eax, DWORD PTR _pITableFrame$12[ebp]
  001bb	89 45 cc	 mov	 DWORD PTR _pICurrTableFrame$14[ebp], eax

; 2039 : 				break;

  001be	eb 05		 jmp	 SHORT $LN5@PerformDis
$LN19@PerformDis:

; 2040 : 			}
; 2041 : 		}

  001c0	e9 73 ff ff ff	 jmp	 $LN4@PerformDis
$LN5@PerformDis:

; 2042 : 
; 2043 : 		//桌子判断
; 2044 : 		if (pICurrTableFrame==NULL) break;

  001c5	83 7d cc 00	 cmp	 DWORD PTR _pICurrTableFrame$14[ebp], 0
  001c9	75 14		 jne	 SHORT $LN20@PerformDis
  001cb	c7 45 fc ff ff
	ff ff		 mov	 DWORD PTR __$EHRec$[ebp+8], -1
  001d2	8d 4d dc	 lea	 ecx, DWORD PTR _DistributeInfoArray$18[ebp]
  001d5	e8 00 00 00 00	 call	 ??1?$CWHArray@UtagDistributeInfo@@ABU1@@@UAE@XZ ; CWHArray<tagDistributeInfo,tagDistributeInfo const &>::~CWHArray<tagDistributeInfo,tagDistributeInfo const &>
  001da	e9 37 02 00 00	 jmp	 $LN3@PerformDis
$LN20@PerformDis:

; 2045 : 
; 2046 : 		//玩家坐下
; 2047 : 		bool bSitSuccess=true;

  001df	c6 45 c3 01	 mov	 BYTE PTR _bSitSuccess$11[ebp], 1

; 2048 : 		INT_PTR nSitFailedIndex=INVALID_CHAIR;

  001e3	c7 45 bc ff ff
	00 00		 mov	 DWORD PTR _nSitFailedIndex$10[ebp], 65535 ; 0000ffffH

; 2049 : 		for (INT_PTR nIndex=0;nIndex<DistributeInfoArray.GetCount();nIndex++)

  001ea	c7 45 b8 00 00
	00 00		 mov	 DWORD PTR _nIndex$9[ebp], 0
  001f1	eb 09		 jmp	 SHORT $LN9@PerformDis
$LN7@PerformDis:
  001f3	8b 45 b8	 mov	 eax, DWORD PTR _nIndex$9[ebp]
  001f6	83 c0 01	 add	 eax, 1
  001f9	89 45 b8	 mov	 DWORD PTR _nIndex$9[ebp], eax
$LN9@PerformDis:
  001fc	8d 4d dc	 lea	 ecx, DWORD PTR _DistributeInfoArray$18[ebp]
  001ff	e8 00 00 00 00	 call	 ?GetCount@?$CWHArray@UtagDistributeInfo@@ABU1@@@QBEHXZ ; CWHArray<tagDistributeInfo,tagDistributeInfo const &>::GetCount
  00204	39 45 b8	 cmp	 DWORD PTR _nIndex$9[ebp], eax
  00207	0f 8d 02 01 00
	00		 jge	 $LN8@PerformDis

; 2050 : 		{
; 2051 : 			//变量定义
; 2052 : 			WORD wChairID=INVALID_CHAIR;

  0020d	b8 ff ff 00 00	 mov	 eax, 65535		; 0000ffffH
  00212	66 89 45 b4	 mov	 WORD PTR _wChairID$8[ebp], ax

; 2053 : 
; 2054 : 			//椅子搜索
; 2055 : 			for (WORD i=0;i<pICurrTableFrame->GetChairCount();i++)

  00216	33 c0		 xor	 eax, eax
  00218	66 89 45 b0	 mov	 WORD PTR _i$7[ebp], ax
  0021c	eb 0c		 jmp	 SHORT $LN12@PerformDis
$LN10@PerformDis:
  0021e	66 8b 45 b0	 mov	 ax, WORD PTR _i$7[ebp]
  00222	66 83 c0 01	 add	 ax, 1
  00226	66 89 45 b0	 mov	 WORD PTR _i$7[ebp], ax
$LN12@PerformDis:
  0022a	0f b7 75 b0	 movzx	 esi, WORD PTR _i$7[ebp]
  0022e	8b 45 cc	 mov	 eax, DWORD PTR _pICurrTableFrame$14[ebp]
  00231	8b 10		 mov	 edx, DWORD PTR [eax]
  00233	8b 4d cc	 mov	 ecx, DWORD PTR _pICurrTableFrame$14[ebp]
  00236	8b 42 0c	 mov	 eax, DWORD PTR [edx+12]
  00239	ff d0		 call	 eax
  0023b	0f b7 c8	 movzx	 ecx, ax
  0023e	3b f1		 cmp	 esi, ecx
  00240	7d 25		 jge	 SHORT $LN11@PerformDis

; 2056 : 			{
; 2057 : 				if (pICurrTableFrame->GetTableUserItem(i)==NULL)

  00242	0f b7 45 b0	 movzx	 eax, WORD PTR _i$7[ebp]
  00246	50		 push	 eax
  00247	8b 4d cc	 mov	 ecx, DWORD PTR _pICurrTableFrame$14[ebp]
  0024a	8b 11		 mov	 edx, DWORD PTR [ecx]
  0024c	8b 4d cc	 mov	 ecx, DWORD PTR _pICurrTableFrame$14[ebp]
  0024f	8b 82 9c 00 00
	00		 mov	 eax, DWORD PTR [edx+156]
  00255	ff d0		 call	 eax
  00257	85 c0		 test	 eax, eax
  00259	75 0a		 jne	 SHORT $LN21@PerformDis

; 2058 : 				{
; 2059 : 					wChairID = i;

  0025b	66 8b 45 b0	 mov	 ax, WORD PTR _i$7[ebp]
  0025f	66 89 45 b4	 mov	 WORD PTR _wChairID$8[ebp], ax

; 2060 : 					break;

  00263	eb 02		 jmp	 SHORT $LN11@PerformDis
$LN21@PerformDis:

; 2061 : 				}
; 2062 : 			}

  00265	eb b7		 jmp	 SHORT $LN10@PerformDis
$LN11@PerformDis:

; 2063 : 
; 2064 : 			//分配用户
; 2065 : 			if (wChairID!=INVALID_CHAIR)

  00267	0f b7 45 b4	 movzx	 eax, WORD PTR _wChairID$8[ebp]
  0026b	3d ff ff 00 00	 cmp	 eax, 65535		; 0000ffffH
  00270	0f 84 94 00 00
	00		 je	 $LN22@PerformDis

; 2066 : 			{
; 2067 : 				//获取用户
; 2068 : 				IServerUserItem * pIServerUserItem=DistributeInfoArray[nIndex].pIServerUserItem;

  00276	8b 45 b8	 mov	 eax, DWORD PTR _nIndex$9[ebp]
  00279	50		 push	 eax
  0027a	8d 4d dc	 lea	 ecx, DWORD PTR _DistributeInfoArray$18[ebp]
  0027d	e8 00 00 00 00	 call	 ??A?$CWHArray@UtagDistributeInfo@@ABU1@@@QAEAAUtagDistributeInfo@@H@Z ; CWHArray<tagDistributeInfo,tagDistributeInfo const &>::operator[]
  00282	8b 48 0c	 mov	 ecx, DWORD PTR [eax+12]
  00285	89 4d ac	 mov	 DWORD PTR _pIServerUserItem$6[ebp], ecx

; 2069 : 
; 2070 : 				//用户起立
; 2071 : 				if (pIServerUserItem->GetTableID()!=INVALID_TABLE)

  00288	8b 45 ac	 mov	 eax, DWORD PTR _pIServerUserItem$6[ebp]
  0028b	8b 10		 mov	 edx, DWORD PTR [eax]
  0028d	8b 4d ac	 mov	 ecx, DWORD PTR _pIServerUserItem$6[ebp]
  00290	8b 42 68	 mov	 eax, DWORD PTR [edx+104]
  00293	ff d0		 call	 eax
  00295	0f b7 c8	 movzx	 ecx, ax
  00298	81 f9 ff ff 00
	00		 cmp	 ecx, 65535		; 0000ffffH
  0029e	74 3a		 je	 SHORT $LN23@PerformDis

; 2072 : 				{
; 2073 : 					WORD wTableID=pIServerUserItem->GetTableID();

  002a0	8b 45 ac	 mov	 eax, DWORD PTR _pIServerUserItem$6[ebp]
  002a3	8b 10		 mov	 edx, DWORD PTR [eax]
  002a5	8b 4d ac	 mov	 ecx, DWORD PTR _pIServerUserItem$6[ebp]
  002a8	8b 42 68	 mov	 eax, DWORD PTR [edx+104]
  002ab	ff d0		 call	 eax
  002ad	66 89 45 a8	 mov	 WORD PTR _wTableID$5[ebp], ax

; 2074 : 					ITableFrame * pITableFrame = m_ppITableFrame[wTableID];

  002b1	0f b7 45 a8	 movzx	 eax, WORD PTR _wTableID$5[ebp]
  002b5	8b 4d f0	 mov	 ecx, DWORD PTR _this$[ebp]
  002b8	8b 91 84 00 00
	00		 mov	 edx, DWORD PTR [ecx+132]
  002be	8b 04 82	 mov	 eax, DWORD PTR [edx+eax*4]
  002c1	89 45 a4	 mov	 DWORD PTR _pITableFrame$4[ebp], eax

; 2075 : 					pITableFrame->PerformStandUpAction(pIServerUserItem);

  002c4	6a 00		 push	 0
  002c6	8b 45 ac	 mov	 eax, DWORD PTR _pIServerUserItem$6[ebp]
  002c9	50		 push	 eax
  002ca	8b 4d a4	 mov	 ecx, DWORD PTR _pITableFrame$4[ebp]
  002cd	8b 11		 mov	 edx, DWORD PTR [ecx]
  002cf	8b 4d a4	 mov	 ecx, DWORD PTR _pITableFrame$4[ebp]
  002d2	8b 82 d8 00 00
	00		 mov	 eax, DWORD PTR [edx+216]
  002d8	ff d0		 call	 eax
$LN23@PerformDis:

; 2076 : 				}
; 2077 : 
; 2078 : 				//用户坐下
; 2079 : 				if(pICurrTableFrame->PerformSitDownAction(wChairID,pIServerUserItem)==false)

  002da	6a 00		 push	 0
  002dc	6a 00		 push	 0
  002de	8b 45 ac	 mov	 eax, DWORD PTR _pIServerUserItem$6[ebp]
  002e1	50		 push	 eax
  002e2	0f b7 4d b4	 movzx	 ecx, WORD PTR _wChairID$8[ebp]
  002e6	51		 push	 ecx
  002e7	8b 55 cc	 mov	 edx, DWORD PTR _pICurrTableFrame$14[ebp]
  002ea	8b 02		 mov	 eax, DWORD PTR [edx]
  002ec	8b 4d cc	 mov	 ecx, DWORD PTR _pICurrTableFrame$14[ebp]
  002ef	8b 90 e0 00 00
	00		 mov	 edx, DWORD PTR [eax+224]
  002f5	ff d2		 call	 edx
  002f7	0f b6 c0	 movzx	 eax, al
  002fa	85 c0		 test	 eax, eax
  002fc	75 0c		 jne	 SHORT $LN22@PerformDis

; 2080 : 				{
; 2081 : 					bSitSuccess=false;

  002fe	c6 45 c3 00	 mov	 BYTE PTR _bSitSuccess$11[ebp], 0

; 2082 : 					nSitFailedIndex=nIndex;

  00302	8b 45 b8	 mov	 eax, DWORD PTR _nIndex$9[ebp]
  00305	89 45 bc	 mov	 DWORD PTR _nSitFailedIndex$10[ebp], eax

; 2083 : 					break;

  00308	eb 05		 jmp	 SHORT $LN8@PerformDis
$LN22@PerformDis:

; 2084 : 				}
; 2085 : 			}
; 2086 : 		}

  0030a	e9 e4 fe ff ff	 jmp	 $LN7@PerformDis
$LN8@PerformDis:

; 2087 : 
; 2088 : 		//坐下结果
; 2089 : 		for (INT_PTR nIndex=0;nIndex<DistributeInfoArray.GetCount();nIndex++)

  0030f	c7 45 a0 00 00
	00 00		 mov	 DWORD PTR _nIndex$3[ebp], 0
  00316	eb 09		 jmp	 SHORT $LN15@PerformDis
$LN13@PerformDis:
  00318	8b 45 a0	 mov	 eax, DWORD PTR _nIndex$3[ebp]
  0031b	83 c0 01	 add	 eax, 1
  0031e	89 45 a0	 mov	 DWORD PTR _nIndex$3[ebp], eax
$LN15@PerformDis:
  00321	8d 4d dc	 lea	 ecx, DWORD PTR _DistributeInfoArray$18[ebp]
  00324	e8 00 00 00 00	 call	 ?GetCount@?$CWHArray@UtagDistributeInfo@@ABU1@@@QBEHXZ ; CWHArray<tagDistributeInfo,tagDistributeInfo const &>::GetCount
  00329	39 45 a0	 cmp	 DWORD PTR _nIndex$3[ebp], eax
  0032c	0f 8d d0 00 00
	00		 jge	 $LN14@PerformDis

; 2090 : 		{
; 2091 : 			if (bSitSuccess==true || nSitFailedIndex==nIndex)

  00332	0f b6 45 c3	 movzx	 eax, BYTE PTR _bSitSuccess$11[ebp]
  00336	83 f8 01	 cmp	 eax, 1
  00339	74 08		 je	 SHORT $LN27@PerformDis
  0033b	8b 45 bc	 mov	 eax, DWORD PTR _nSitFailedIndex$10[ebp]
  0033e	3b 45 a0	 cmp	 eax, DWORD PTR _nIndex$3[ebp]
  00341	75 20		 jne	 SHORT $LN25@PerformDis
$LN27@PerformDis:

; 2092 : 			{
; 2093 : 				m_DistributeManage.RemoveDistributeNode((tagDistributeNode *)DistributeInfoArray[nIndex].pPertainNode);

  00343	8b 45 a0	 mov	 eax, DWORD PTR _nIndex$3[ebp]
  00346	50		 push	 eax
  00347	8d 4d dc	 lea	 ecx, DWORD PTR _DistributeInfoArray$18[ebp]
  0034a	e8 00 00 00 00	 call	 ??A?$CWHArray@UtagDistributeInfo@@ABU1@@@QAEAAUtagDistributeInfo@@H@Z ; CWHArray<tagDistributeInfo,tagDistributeInfo const &>::operator[]
  0034f	8b 48 10	 mov	 ecx, DWORD PTR [eax+16]
  00352	51		 push	 ecx
  00353	8b 4d f0	 mov	 ecx, DWORD PTR _this$[ebp]
  00356	83 c1 18	 add	 ecx, 24			; 00000018H
  00359	e8 00 00 00 00	 call	 ?RemoveDistributeNode@CDistributeManager@@QAEXPAUtagDistributeNode@@@Z ; CDistributeManager::RemoveDistributeNode

; 2094 : 			}
; 2095 : 			else

  0035e	e9 9a 00 00 00	 jmp	 $LN26@PerformDis
$LN25@PerformDis:

; 2096 : 			{
; 2097 : 				//用户起立
; 2098 : 				if (DistributeInfoArray[nIndex].pIServerUserItem->GetTableID()!=INVALID_TABLE)

  00363	8b 45 a0	 mov	 eax, DWORD PTR _nIndex$3[ebp]
  00366	50		 push	 eax
  00367	8d 4d dc	 lea	 ecx, DWORD PTR _DistributeInfoArray$18[ebp]
  0036a	e8 00 00 00 00	 call	 ??A?$CWHArray@UtagDistributeInfo@@ABU1@@@QAEAAUtagDistributeInfo@@H@Z ; CWHArray<tagDistributeInfo,tagDistributeInfo const &>::operator[]
  0036f	8b 48 0c	 mov	 ecx, DWORD PTR [eax+12]
  00372	89 8d 58 ff ff
	ff		 mov	 DWORD PTR tv252[ebp], ecx
  00378	8b 95 58 ff ff
	ff		 mov	 edx, DWORD PTR tv252[ebp]
  0037e	8b 02		 mov	 eax, DWORD PTR [edx]
  00380	8b 8d 58 ff ff
	ff		 mov	 ecx, DWORD PTR tv252[ebp]
  00386	8b 50 68	 mov	 edx, DWORD PTR [eax+104]
  00389	ff d2		 call	 edx
  0038b	0f b7 c0	 movzx	 eax, ax
  0038e	3d ff ff 00 00	 cmp	 eax, 65535		; 0000ffffH
  00393	74 68		 je	 SHORT $LN26@PerformDis

; 2099 : 				{
; 2100 : 					WORD wTableID=DistributeInfoArray[nIndex].pIServerUserItem->GetTableID();

  00395	8b 45 a0	 mov	 eax, DWORD PTR _nIndex$3[ebp]
  00398	50		 push	 eax
  00399	8d 4d dc	 lea	 ecx, DWORD PTR _DistributeInfoArray$18[ebp]
  0039c	e8 00 00 00 00	 call	 ??A?$CWHArray@UtagDistributeInfo@@ABU1@@@QAEAAUtagDistributeInfo@@H@Z ; CWHArray<tagDistributeInfo,tagDistributeInfo const &>::operator[]
  003a1	8b 48 0c	 mov	 ecx, DWORD PTR [eax+12]
  003a4	89 8d 58 ff ff
	ff		 mov	 DWORD PTR tv264[ebp], ecx
  003aa	8b 95 58 ff ff
	ff		 mov	 edx, DWORD PTR tv264[ebp]
  003b0	8b 02		 mov	 eax, DWORD PTR [edx]
  003b2	8b 8d 58 ff ff
	ff		 mov	 ecx, DWORD PTR tv264[ebp]
  003b8	8b 50 68	 mov	 edx, DWORD PTR [eax+104]
  003bb	ff d2		 call	 edx
  003bd	66 89 45 9c	 mov	 WORD PTR _wTableID$2[ebp], ax

; 2101 : 					m_ppITableFrame[wTableID]->PerformStandUpAction(DistributeInfoArray[nIndex].pIServerUserItem);

  003c1	6a 00		 push	 0
  003c3	8b 45 a0	 mov	 eax, DWORD PTR _nIndex$3[ebp]
  003c6	50		 push	 eax
  003c7	8d 4d dc	 lea	 ecx, DWORD PTR _DistributeInfoArray$18[ebp]
  003ca	e8 00 00 00 00	 call	 ??A?$CWHArray@UtagDistributeInfo@@ABU1@@@QAEAAUtagDistributeInfo@@H@Z ; CWHArray<tagDistributeInfo,tagDistributeInfo const &>::operator[]
  003cf	8b 48 0c	 mov	 ecx, DWORD PTR [eax+12]
  003d2	51		 push	 ecx
  003d3	0f b7 55 9c	 movzx	 edx, WORD PTR _wTableID$2[ebp]
  003d7	8b 45 f0	 mov	 eax, DWORD PTR _this$[ebp]
  003da	8b 88 84 00 00
	00		 mov	 ecx, DWORD PTR [eax+132]
  003e0	8b 14 91	 mov	 edx, DWORD PTR [ecx+edx*4]
  003e3	0f b7 45 9c	 movzx	 eax, WORD PTR _wTableID$2[ebp]
  003e7	8b 4d f0	 mov	 ecx, DWORD PTR _this$[ebp]
  003ea	8b 89 84 00 00
	00		 mov	 ecx, DWORD PTR [ecx+132]
  003f0	8b 12		 mov	 edx, DWORD PTR [edx]
  003f2	8b 0c 81	 mov	 ecx, DWORD PTR [ecx+eax*4]
  003f5	8b 82 d8 00 00
	00		 mov	 eax, DWORD PTR [edx+216]
  003fb	ff d0		 call	 eax
$LN26@PerformDis:

; 2102 : 				}
; 2103 : 			}
; 2104 : 		}			

  003fd	e9 16 ff ff ff	 jmp	 $LN13@PerformDis
$LN14@PerformDis:

; 2105 : 	}

  00402	c7 45 fc ff ff
	ff ff		 mov	 DWORD PTR __$EHRec$[ebp+8], -1
  00409	8d 4d dc	 lea	 ecx, DWORD PTR _DistributeInfoArray$18[ebp]
  0040c	e8 00 00 00 00	 call	 ??1?$CWHArray@UtagDistributeInfo@@ABU1@@@UAE@XZ ; CWHArray<tagDistributeInfo,tagDistributeInfo const &>::~CWHArray<tagDistributeInfo,tagDistributeInfo const &>
  00411	e9 4e fc ff ff	 jmp	 $LN2@PerformDis
$LN3@PerformDis:

; 2106 : 
; 2107 : 	return true;

  00416	b0 01		 mov	 al, 1
$LN1@PerformDis:

; 2108 : }

  00418	8b 4d f4	 mov	 ecx, DWORD PTR __$EHRec$[ebp]
  0041b	64 89 0d 00 00
	00 00		 mov	 DWORD PTR fs:0, ecx
  00422	59		 pop	 ecx
  00423	5f		 pop	 edi
  00424	5e		 pop	 esi
  00425	5b		 pop	 ebx
  00426	8b e5		 mov	 esp, ebp
  00428	5d		 pop	 ebp
  00429	c3		 ret	 0
_TEXT	ENDS
;	COMDAT text$x
text$x	SEGMENT
__unwindfunclet$?PerformDistribute@CLockTimeMatch@@IAE_NXZ$0:
  00000	8d 4d dc	 lea	 ecx, DWORD PTR _DistributeInfoArray$18[ebp]
  00003	e9 00 00 00 00	 jmp	 ??1?$CWHArray@UtagDistributeInfo@@ABU1@@@UAE@XZ ; CWHArray<tagDistributeInfo,tagDistributeInfo const &>::~CWHArray<tagDistributeInfo,tagDistributeInfo const &>
__ehhandler$?PerformDistribute@CLockTimeMatch@@IAE_NXZ:
  00008	8b 54 24 08	 mov	 edx, DWORD PTR [esp+8]
  0000c	8d 42 0c	 lea	 eax, DWORD PTR [edx+12]
  0000f	8b 8a 54 ff ff
	ff		 mov	 ecx, DWORD PTR [edx-172]
  00015	33 c8		 xor	 ecx, eax
  00017	e8 00 00 00 00	 call	 @__security_check_cookie@4
  0001c	b8 00 00 00 00	 mov	 eax, OFFSET __ehfuncinfo$?PerformDistribute@CLockTimeMatch@@IAE_NXZ
  00021	e9 00 00 00 00	 jmp	 ___CxxFrameHandler3
text$x	ENDS
?PerformDistribute@CLockTimeMatch@@IAE_NXZ ENDP		; CLockTimeMatch::PerformDistribute
; Function compile flags: /Odtp /ZI
; File g:\网狐\happygamewh\服务端\系统模块\服务器组件\比赛服务\locktimematch.cpp
;	COMDAT ?CalcMatchNo@CLockTimeMatch@@IAE_JXZ
_TEXT	SEGMENT
_TimeSpan$1 = -48					; size = 8
_MatchStartTime$2 = -40					; size = 8
_CurTime$3 = -32					; size = 8
_SystemStartTime$4 = -24				; size = 16
_this$ = -8						; size = 4
__$ArrayPad$ = -4					; size = 4
?CalcMatchNo@CLockTimeMatch@@IAE_JXZ PROC		; CLockTimeMatch::CalcMatchNo, COMDAT
; _this$ = ecx

; 1980 : {

  00000	55		 push	 ebp
  00001	8b ec		 mov	 ebp, esp
  00003	83 ec 70	 sub	 esp, 112		; 00000070H
  00006	a1 00 00 00 00	 mov	 eax, DWORD PTR ___security_cookie
  0000b	33 c5		 xor	 eax, ebp
  0000d	89 45 fc	 mov	 DWORD PTR __$ArrayPad$[ebp], eax
  00010	53		 push	 ebx
  00011	56		 push	 esi
  00012	57		 push	 edi
  00013	89 4d f8	 mov	 DWORD PTR _this$[ebp], ecx

; 1981 : 	//循环开赛
; 1982 : 	if (m_pLockTimeMatch->cbMatchMode==MATCH_MODE_ROUND)

  00016	8b 45 f8	 mov	 eax, DWORD PTR _this$[ebp]
  00019	8b 48 78	 mov	 ecx, DWORD PTR [eax+120]
  0001c	0f b6 51 24	 movzx	 edx, BYTE PTR [ecx+36]
  00020	83 fa 01	 cmp	 edx, 1
  00023	75 73		 jne	 SHORT $LN2@CalcMatchN

; 1983 : 	{
; 1984 : 		//变量定义
; 1985 : 		SYSTEMTIME SystemStartTime=m_pLockTimeMatch->MatchStartTime;

  00025	8b 45 f8	 mov	 eax, DWORD PTR _this$[ebp]
  00028	8b 48 78	 mov	 ecx, DWORD PTR [eax+120]
  0002b	83 c1 04	 add	 ecx, 4
  0002e	8b 11		 mov	 edx, DWORD PTR [ecx]
  00030	89 55 e8	 mov	 DWORD PTR _SystemStartTime$4[ebp], edx
  00033	8b 41 04	 mov	 eax, DWORD PTR [ecx+4]
  00036	89 45 ec	 mov	 DWORD PTR _SystemStartTime$4[ebp+4], eax
  00039	8b 51 08	 mov	 edx, DWORD PTR [ecx+8]
  0003c	89 55 f0	 mov	 DWORD PTR _SystemStartTime$4[ebp+8], edx
  0003f	8b 41 0c	 mov	 eax, DWORD PTR [ecx+12]
  00042	89 45 f4	 mov	 DWORD PTR _SystemStartTime$4[ebp+12], eax

; 1986 : 
; 1987 : 		//设置变量
; 1988 : 		SystemStartTime.wHour=0;

  00045	33 c0		 xor	 eax, eax
  00047	66 89 45 f0	 mov	 WORD PTR _SystemStartTime$4[ebp+8], ax

; 1989 : 		SystemStartTime.wMinute=0;

  0004b	33 c0		 xor	 eax, eax
  0004d	66 89 45 f2	 mov	 WORD PTR _SystemStartTime$4[ebp+10], ax

; 1990 : 		SystemStartTime.wSecond=0;

  00051	33 c0		 xor	 eax, eax
  00053	66 89 45 f4	 mov	 WORD PTR _SystemStartTime$4[ebp+12], ax

; 1991 : 		SystemStartTime.wMilliseconds=0;

  00057	33 c0		 xor	 eax, eax
  00059	66 89 45 f6	 mov	 WORD PTR _SystemStartTime$4[ebp+14], ax

; 1992 : 
; 1993 : 		//获取时间
; 1994 : 		CTime CurTime=CTime::GetCurrentTime();

  0005d	8d 45 e0	 lea	 eax, DWORD PTR _CurTime$3[ebp]
  00060	50		 push	 eax
  00061	e8 00 00 00 00	 call	 ?GetTickCount@CTime@ATL@@SG?AV12@XZ ; ATL::CTime::GetTickCount

; 1995 : 		CTime MatchStartTime(SystemStartTime);

  00066	6a ff		 push	 -1
  00068	8d 45 e8	 lea	 eax, DWORD PTR _SystemStartTime$4[ebp]
  0006b	50		 push	 eax
  0006c	8d 4d d8	 lea	 ecx, DWORD PTR _MatchStartTime$2[ebp]
  0006f	e8 00 00 00 00	 call	 ??0CTime@ATL@@QAE@ABU_SYSTEMTIME@@H@Z ; ATL::CTime::CTime

; 1996 : 
; 1997 : 		//变量定义
; 1998 : 		CTimeSpan TimeSpan=CurTime-MatchStartTime;

  00074	8b 45 dc	 mov	 eax, DWORD PTR _MatchStartTime$2[ebp+4]
  00077	50		 push	 eax
  00078	8b 4d d8	 mov	 ecx, DWORD PTR _MatchStartTime$2[ebp]
  0007b	51		 push	 ecx
  0007c	8d 55 d0	 lea	 edx, DWORD PTR _TimeSpan$1[ebp]
  0007f	52		 push	 edx
  00080	8d 4d e0	 lea	 ecx, DWORD PTR _CurTime$3[ebp]
  00083	e8 00 00 00 00	 call	 ??GCTime@ATL@@QBE?AVCTimeSpan@1@V01@@Z ; ATL::CTime::operator-

; 1999 : 
; 2000 : 		return TimeSpan.GetDays()+1;

  00088	8d 4d d0	 lea	 ecx, DWORD PTR _TimeSpan$1[ebp]
  0008b	e8 00 00 00 00	 call	 ?GetDays@CTimeSpan@ATL@@QBE_JXZ ; ATL::CTimeSpan::GetDays
  00090	83 c0 01	 add	 eax, 1
  00093	83 d2 00	 adc	 edx, 0
  00096	eb 07		 jmp	 SHORT $LN1@CalcMatchN
$LN2@CalcMatchN:

; 2001 : 	}
; 2002 : 
; 2003 : 	return 1;

  00098	b8 01 00 00 00	 mov	 eax, 1
  0009d	33 d2		 xor	 edx, edx
$LN1@CalcMatchN:

; 2004 : }

  0009f	5f		 pop	 edi
  000a0	5e		 pop	 esi
  000a1	5b		 pop	 ebx
  000a2	8b 4d fc	 mov	 ecx, DWORD PTR __$ArrayPad$[ebp]
  000a5	33 cd		 xor	 ecx, ebp
  000a7	e8 00 00 00 00	 call	 @__security_check_cookie@4
  000ac	8b e5		 mov	 esp, ebp
  000ae	5d		 pop	 ebp
  000af	c3		 ret	 0
?CalcMatchNo@CLockTimeMatch@@IAE_JXZ ENDP		; CLockTimeMatch::CalcMatchNo
_TEXT	ENDS
; Function compile flags: /Odtp /ZI
; File g:\网狐\happygamewh\服务端\系统模块\服务器组件\比赛服务\locktimematch.cpp
;	COMDAT ?VerifyMatchTime@CLockTimeMatch@@AAE_NPADGAAG@Z
_TEXT	SEGMENT
tv89 = -120						; size = 4
_nCurrSeconds$ = -52					; size = 4
_bMatchRound$ = -45					; size = 1
_SignupEndTime$ = -44					; size = 8
_SignupStartTime$ = -36					; size = 8
_MatchStartTime$ = -28					; size = 8
_MatchEndTime$ = -20					; size = 8
_CurTime$ = -12						; size = 8
_this$ = -4						; size = 4
_pszMessage$ = 8					; size = 4
_wMaxCount$ = 12					; size = 2
_wMessageType$ = 16					; size = 4
?VerifyMatchTime@CLockTimeMatch@@AAE_NPADGAAG@Z PROC	; CLockTimeMatch::VerifyMatchTime, COMDAT
; _this$ = ecx

; 2301 : {

  00000	55		 push	 ebp
  00001	8b ec		 mov	 ebp, esp
  00003	83 ec 78	 sub	 esp, 120		; 00000078H
  00006	53		 push	 ebx
  00007	56		 push	 esi
  00008	57		 push	 edi
  00009	89 4d fc	 mov	 DWORD PTR _this$[ebp], ecx

; 2302 : 	//变量定义
; 2303 : 	CTime CurTime=CTime::GetCurrentTime();

  0000c	8d 45 f4	 lea	 eax, DWORD PTR _CurTime$[ebp]
  0000f	50		 push	 eax
  00010	e8 00 00 00 00	 call	 ?GetTickCount@CTime@ATL@@SG?AV12@XZ ; ATL::CTime::GetTickCount

; 2304 : 	CTime MatchEndTime(m_pLockTimeMatch->MatchEndTime);

  00015	6a ff		 push	 -1
  00017	8b 45 fc	 mov	 eax, DWORD PTR _this$[ebp]
  0001a	8b 48 78	 mov	 ecx, DWORD PTR [eax+120]
  0001d	83 c1 14	 add	 ecx, 20			; 00000014H
  00020	51		 push	 ecx
  00021	8d 4d ec	 lea	 ecx, DWORD PTR _MatchEndTime$[ebp]
  00024	e8 00 00 00 00	 call	 ??0CTime@ATL@@QAE@ABU_SYSTEMTIME@@H@Z ; ATL::CTime::CTime

; 2305 : 	CTime MatchStartTime(m_pLockTimeMatch->MatchStartTime);

  00029	6a ff		 push	 -1
  0002b	8b 45 fc	 mov	 eax, DWORD PTR _this$[ebp]
  0002e	8b 48 78	 mov	 ecx, DWORD PTR [eax+120]
  00031	83 c1 04	 add	 ecx, 4
  00034	51		 push	 ecx
  00035	8d 4d e4	 lea	 ecx, DWORD PTR _MatchStartTime$[ebp]
  00038	e8 00 00 00 00	 call	 ??0CTime@ATL@@QAE@ABU_SYSTEMTIME@@H@Z ; ATL::CTime::CTime

; 2306 : 	CTime SignupStartTime(m_pLockTimeMatch->SignupStartTime);	

  0003d	6a ff		 push	 -1
  0003f	8b 45 fc	 mov	 eax, DWORD PTR _this$[ebp]
  00042	8b 48 78	 mov	 ecx, DWORD PTR [eax+120]
  00045	83 c1 29	 add	 ecx, 41			; 00000029H
  00048	51		 push	 ecx
  00049	8d 4d dc	 lea	 ecx, DWORD PTR _SignupStartTime$[ebp]
  0004c	e8 00 00 00 00	 call	 ??0CTime@ATL@@QAE@ABU_SYSTEMTIME@@H@Z ; ATL::CTime::CTime

; 2307 : 	CTime SignupEndTime(m_pLockTimeMatch->SignupEndTime);

  00051	6a ff		 push	 -1
  00053	8b 45 fc	 mov	 eax, DWORD PTR _this$[ebp]
  00056	8b 48 78	 mov	 ecx, DWORD PTR [eax+120]
  00059	83 c1 39	 add	 ecx, 57			; 00000039H
  0005c	51		 push	 ecx
  0005d	8d 4d d4	 lea	 ecx, DWORD PTR _SignupEndTime$[ebp]
  00060	e8 00 00 00 00	 call	 ??0CTime@ATL@@QAE@ABU_SYSTEMTIME@@H@Z ; ATL::CTime::CTime

; 2308 : 
; 2309 : 	//变量定义
; 2310 : 	bool bMatchRound=m_pLockTimeMatch->cbMatchMode==MATCH_MODE_ROUND;

  00065	8b 45 fc	 mov	 eax, DWORD PTR _this$[ebp]
  00068	8b 48 78	 mov	 ecx, DWORD PTR [eax+120]
  0006b	0f b6 51 24	 movzx	 edx, BYTE PTR [ecx+36]
  0006f	83 fa 01	 cmp	 edx, 1
  00072	75 09		 jne	 SHORT $LN7@VerifyMatc
  00074	c7 45 88 01 00
	00 00		 mov	 DWORD PTR tv89[ebp], 1
  0007b	eb 07		 jmp	 SHORT $LN8@VerifyMatc
$LN7@VerifyMatc:
  0007d	c7 45 88 00 00
	00 00		 mov	 DWORD PTR tv89[ebp], 0
$LN8@VerifyMatc:
  00084	8a 45 88	 mov	 al, BYTE PTR tv89[ebp]
  00087	88 45 d3	 mov	 BYTE PTR _bMatchRound$[ebp], al

; 2311 : 	int nCurrSeconds=CurTime.GetHour()*3600+CurTime.GetMinute()*60+CurTime.GetSecond();

  0008a	8d 4d f4	 lea	 ecx, DWORD PTR _CurTime$[ebp]
  0008d	e8 00 00 00 00	 call	 ?GetHour@CTime@ATL@@QBEHXZ ; ATL::CTime::GetHour
  00092	69 f0 10 0e 00
	00		 imul	 esi, eax, 3600
  00098	8d 4d f4	 lea	 ecx, DWORD PTR _CurTime$[ebp]
  0009b	e8 00 00 00 00	 call	 ?GetMinute@CTime@ATL@@QBEHXZ ; ATL::CTime::GetMinute
  000a0	6b c0 3c	 imul	 eax, eax, 60
  000a3	03 f0		 add	 esi, eax
  000a5	8d 4d f4	 lea	 ecx, DWORD PTR _CurTime$[ebp]
  000a8	e8 00 00 00 00	 call	 ?GetSecond@CTime@ATL@@QBEHXZ ; ATL::CTime::GetSecond
  000ad	03 f0		 add	 esi, eax
  000af	89 75 cc	 mov	 DWORD PTR _nCurrSeconds$[ebp], esi

; 2312 : 
; 2313 : 	//设置类型
; 2314 : 	wMessageType=SMT_EJECT|SMT_CHAT;

  000b2	b8 03 00 00 00	 mov	 eax, 3
  000b7	8b 4d 10	 mov	 ecx, DWORD PTR _wMessageType$[ebp]
  000ba	66 89 01	 mov	 WORD PTR [ecx], ax

; 2315 : 
; 2316 : 	//比赛结束
; 2317 : 	if (CurTime>=MatchEndTime)

  000bd	8b 45 f0	 mov	 eax, DWORD PTR _MatchEndTime$[ebp+4]
  000c0	50		 push	 eax
  000c1	8b 4d ec	 mov	 ecx, DWORD PTR _MatchEndTime$[ebp]
  000c4	51		 push	 ecx
  000c5	8d 4d f4	 lea	 ecx, DWORD PTR _CurTime$[ebp]
  000c8	e8 00 00 00 00	 call	 ??PCTime@ATL@@QBE_NV01@@Z ; ATL::CTime::operator>=
  000cd	0f b6 d0	 movzx	 edx, al
  000d0	85 d2		 test	 edx, edx
  000d2	74 34		 je	 SHORT $LN2@VerifyMatc

; 2318 : 	{
; 2319 : 		wMessageType |= SMT_CLOSE_ROOM|SMT_CLOSE_GAME;

  000d4	8b 45 10	 mov	 eax, DWORD PTR _wMessageType$[ebp]
  000d7	0f b7 08	 movzx	 ecx, WORD PTR [eax]
  000da	81 c9 00 03 00
	00		 or	 ecx, 768		; 00000300H
  000e0	8b 55 10	 mov	 edx, DWORD PTR _wMessageType$[ebp]
  000e3	66 89 0a	 mov	 WORD PTR [edx], cx

; 2320 : 		_sntprintf_s(pszMessage, wMaxCount, wMaxCount, TEXT("比赛已经结束,请您移驾至其他比赛房间参与比赛吧！"));

  000e6	68 00 00 00 00	 push	 OFFSET ??_C@_0DA@MIICOPIN@?$LB?H?H?$PM?R?Q?$LO?$KN?$LN?a?J?x?0?G?k?D?z?R?F?$LM?$NN?V?A?F?d?K?$PL?$LB?H?H?$PM@
  000eb	0f b7 45 0c	 movzx	 eax, WORD PTR _wMaxCount$[ebp]
  000ef	50		 push	 eax
  000f0	0f b7 4d 0c	 movzx	 ecx, WORD PTR _wMaxCount$[ebp]
  000f4	51		 push	 ecx
  000f5	8b 55 08	 mov	 edx, DWORD PTR _pszMessage$[ebp]
  000f8	52		 push	 edx
  000f9	e8 00 00 00 00	 call	 __snprintf_s
  000fe	83 c4 10	 add	 esp, 16			; 00000010H

; 2321 : 		return false;

  00101	32 c0		 xor	 al, al
  00103	e9 b4 01 00 00	 jmp	 $LN1@VerifyMatc
$LN2@VerifyMatc:

; 2322 : 	}
; 2323 : 
; 2324 : 	//比赛已结束
; 2325 : 	if (nCurrSeconds >= MatchEndTime.GetHour()*3600+MatchEndTime.GetMinute()*60+MatchEndTime.GetSecond())

  00108	8d 4d ec	 lea	 ecx, DWORD PTR _MatchEndTime$[ebp]
  0010b	e8 00 00 00 00	 call	 ?GetHour@CTime@ATL@@QBEHXZ ; ATL::CTime::GetHour
  00110	69 f0 10 0e 00
	00		 imul	 esi, eax, 3600
  00116	8d 4d ec	 lea	 ecx, DWORD PTR _MatchEndTime$[ebp]
  00119	e8 00 00 00 00	 call	 ?GetMinute@CTime@ATL@@QBEHXZ ; ATL::CTime::GetMinute
  0011e	6b c0 3c	 imul	 eax, eax, 60
  00121	03 f0		 add	 esi, eax
  00123	8d 4d ec	 lea	 ecx, DWORD PTR _MatchEndTime$[ebp]
  00126	e8 00 00 00 00	 call	 ?GetSecond@CTime@ATL@@QBEHXZ ; ATL::CTime::GetSecond
  0012b	03 f0		 add	 esi, eax
  0012d	39 75 cc	 cmp	 DWORD PTR _nCurrSeconds$[ebp], esi
  00130	7c 4f		 jl	 SHORT $LN3@VerifyMatc

; 2326 : 	{
; 2327 : 		wMessageType |= SMT_CLOSE_ROOM|SMT_CLOSE_GAME;

  00132	8b 45 10	 mov	 eax, DWORD PTR _wMessageType$[ebp]
  00135	0f b7 08	 movzx	 ecx, WORD PTR [eax]
  00138	81 c9 00 03 00
	00		 or	 ecx, 768		; 00000300H
  0013e	8b 55 10	 mov	 edx, DWORD PTR _wMessageType$[ebp]
  00141	66 89 0a	 mov	 WORD PTR [edx], cx

; 2328 : 		_sntprintf_s(pszMessage, wMaxCount, wMaxCount, TEXT("今天的比赛已经结束,请您于明天%d时%d分%d秒前来参加比赛！"), MatchStartTime.GetHour(), MatchStartTime.GetMinute(), MatchStartTime.GetSecond());

  00144	8d 4d e4	 lea	 ecx, DWORD PTR _MatchStartTime$[ebp]
  00147	e8 00 00 00 00	 call	 ?GetSecond@CTime@ATL@@QBEHXZ ; ATL::CTime::GetSecond
  0014c	50		 push	 eax
  0014d	8d 4d e4	 lea	 ecx, DWORD PTR _MatchStartTime$[ebp]
  00150	e8 00 00 00 00	 call	 ?GetMinute@CTime@ATL@@QBEHXZ ; ATL::CTime::GetMinute
  00155	50		 push	 eax
  00156	8d 4d e4	 lea	 ecx, DWORD PTR _MatchStartTime$[ebp]
  00159	e8 00 00 00 00	 call	 ?GetHour@CTime@ATL@@QBEHXZ ; ATL::CTime::GetHour
  0015e	50		 push	 eax
  0015f	68 00 00 00 00	 push	 OFFSET ??_C@_0DI@NBAMOMBH@?$LN?q?L?l?$LF?D?$LB?H?H?$PM?R?Q?$LO?$KN?$LN?a?J?x?0?G?k?D?z?S?Z?C?w?L?l?$CFd@
  00164	0f b7 45 0c	 movzx	 eax, WORD PTR _wMaxCount$[ebp]
  00168	50		 push	 eax
  00169	0f b7 4d 0c	 movzx	 ecx, WORD PTR _wMaxCount$[ebp]
  0016d	51		 push	 ecx
  0016e	8b 55 08	 mov	 edx, DWORD PTR _pszMessage$[ebp]
  00171	52		 push	 edx
  00172	e8 00 00 00 00	 call	 __snprintf_s
  00177	83 c4 1c	 add	 esp, 28			; 0000001cH

; 2329 : 		return false;

  0017a	32 c0		 xor	 al, al
  0017c	e9 3b 01 00 00	 jmp	 $LN1@VerifyMatc
$LN3@VerifyMatc:

; 2330 : 	}
; 2331 : 
; 2332 : 	//报名未开始
; 2333 : 	if (CurTime<SignupStartTime)

  00181	8b 45 e0	 mov	 eax, DWORD PTR _SignupStartTime$[ebp+4]
  00184	50		 push	 eax
  00185	8b 4d dc	 mov	 ecx, DWORD PTR _SignupStartTime$[ebp]
  00188	51		 push	 ecx
  00189	8d 4d f4	 lea	 ecx, DWORD PTR _CurTime$[ebp]
  0018c	e8 00 00 00 00	 call	 ??MCTime@ATL@@QBE_NV01@@Z ; ATL::CTime::operator<
  00191	0f b6 d0	 movzx	 edx, al
  00194	85 d2		 test	 edx, edx
  00196	0f 84 a0 00 00
	00		 je	 $LN4@VerifyMatc

; 2334 : 	{
; 2335 : 		wMessageType |= SMT_CLOSE_ROOM;

  0019c	8b 45 10	 mov	 eax, DWORD PTR _wMessageType$[ebp]
  0019f	0f b7 08	 movzx	 ecx, WORD PTR [eax]
  001a2	81 c9 00 01 00
	00		 or	 ecx, 256		; 00000100H
  001a8	8b 55 10	 mov	 edx, DWORD PTR _wMessageType$[ebp]
  001ab	66 89 0a	 mov	 WORD PTR [edx], cx

; 2336 : 		_sntprintf_s(pszMessage, wMaxCount, wMaxCount, TEXT("比赛报名尚未开始,本场比赛报名时段为：%d-%d-%d %d:%d:%d至%d-%d-%d %d:%d:%d"),

  001ae	8d 4d d4	 lea	 ecx, DWORD PTR _SignupEndTime$[ebp]
  001b1	e8 00 00 00 00	 call	 ?GetSecond@CTime@ATL@@QBEHXZ ; ATL::CTime::GetSecond
  001b6	50		 push	 eax
  001b7	8d 4d d4	 lea	 ecx, DWORD PTR _SignupEndTime$[ebp]
  001ba	e8 00 00 00 00	 call	 ?GetMinute@CTime@ATL@@QBEHXZ ; ATL::CTime::GetMinute
  001bf	50		 push	 eax
  001c0	8d 4d d4	 lea	 ecx, DWORD PTR _SignupEndTime$[ebp]
  001c3	e8 00 00 00 00	 call	 ?GetHour@CTime@ATL@@QBEHXZ ; ATL::CTime::GetHour
  001c8	50		 push	 eax
  001c9	8d 4d d4	 lea	 ecx, DWORD PTR _SignupEndTime$[ebp]
  001cc	e8 00 00 00 00	 call	 ?GetDay@CTime@ATL@@QBEHXZ ; ATL::CTime::GetDay
  001d1	50		 push	 eax
  001d2	8d 4d d4	 lea	 ecx, DWORD PTR _SignupEndTime$[ebp]
  001d5	e8 00 00 00 00	 call	 ?GetMonth@CTime@ATL@@QBEHXZ ; ATL::CTime::GetMonth
  001da	50		 push	 eax
  001db	8d 4d d4	 lea	 ecx, DWORD PTR _SignupEndTime$[ebp]
  001de	e8 00 00 00 00	 call	 ?GetYear@CTime@ATL@@QBEHXZ ; ATL::CTime::GetYear
  001e3	50		 push	 eax
  001e4	8d 4d dc	 lea	 ecx, DWORD PTR _SignupStartTime$[ebp]
  001e7	e8 00 00 00 00	 call	 ?GetSecond@CTime@ATL@@QBEHXZ ; ATL::CTime::GetSecond
  001ec	50		 push	 eax
  001ed	8d 4d dc	 lea	 ecx, DWORD PTR _SignupStartTime$[ebp]
  001f0	e8 00 00 00 00	 call	 ?GetMinute@CTime@ATL@@QBEHXZ ; ATL::CTime::GetMinute
  001f5	50		 push	 eax
  001f6	8d 4d dc	 lea	 ecx, DWORD PTR _SignupStartTime$[ebp]
  001f9	e8 00 00 00 00	 call	 ?GetHour@CTime@ATL@@QBEHXZ ; ATL::CTime::GetHour
  001fe	50		 push	 eax
  001ff	8d 4d dc	 lea	 ecx, DWORD PTR _SignupStartTime$[ebp]
  00202	e8 00 00 00 00	 call	 ?GetDay@CTime@ATL@@QBEHXZ ; ATL::CTime::GetDay
  00207	50		 push	 eax
  00208	8d 4d dc	 lea	 ecx, DWORD PTR _SignupStartTime$[ebp]
  0020b	e8 00 00 00 00	 call	 ?GetMonth@CTime@ATL@@QBEHXZ ; ATL::CTime::GetMonth
  00210	50		 push	 eax
  00211	8d 4d dc	 lea	 ecx, DWORD PTR _SignupStartTime$[ebp]
  00214	e8 00 00 00 00	 call	 ?GetYear@CTime@ATL@@QBEHXZ ; ATL::CTime::GetYear
  00219	50		 push	 eax
  0021a	68 00 00 00 00	 push	 OFFSET ??_C@_0EK@KKHDFNFN@?$LB?H?H?$PM?$LB?$KI?C?$PL?I?P?N?$LE?$LP?$KK?J?$LM?0?$LB?$LO?$LD?$KB?$LB?H?H?$PM?$LB?$KI?C?$PL?J?$LB@
  0021f	0f b7 45 0c	 movzx	 eax, WORD PTR _wMaxCount$[ebp]
  00223	50		 push	 eax
  00224	0f b7 4d 0c	 movzx	 ecx, WORD PTR _wMaxCount$[ebp]
  00228	51		 push	 ecx
  00229	8b 55 08	 mov	 edx, DWORD PTR _pszMessage$[ebp]
  0022c	52		 push	 edx
  0022d	e8 00 00 00 00	 call	 __snprintf_s
  00232	83 c4 40	 add	 esp, 64			; 00000040H

; 2337 : 			SignupStartTime.GetYear(),SignupStartTime.GetMonth(),SignupStartTime.GetDay(),SignupStartTime.GetHour(),SignupStartTime.GetMinute(),SignupStartTime.GetSecond(),
; 2338 : 			SignupEndTime.GetYear(),SignupEndTime.GetMonth(),SignupEndTime.GetDay(),SignupEndTime.GetHour(),SignupEndTime.GetMinute(),SignupEndTime.GetSecond());
; 2339 : 		return false;

  00235	32 c0		 xor	 al, al
  00237	e9 80 00 00 00	 jmp	 $LN1@VerifyMatc
$LN4@VerifyMatc:

; 2340 : 	}
; 2341 : 
; 2342 : 
; 2343 : 	//报名未开始
; 2344 : 	if (bMatchRound && nCurrSeconds<(SignupStartTime.GetHour()*3600+SignupStartTime.GetMinute()*60+SignupStartTime.GetSecond()))

  0023c	0f b6 45 d3	 movzx	 eax, BYTE PTR _bMatchRound$[ebp]
  00240	85 c0		 test	 eax, eax
  00242	74 76		 je	 SHORT $LN5@VerifyMatc
  00244	8d 4d dc	 lea	 ecx, DWORD PTR _SignupStartTime$[ebp]
  00247	e8 00 00 00 00	 call	 ?GetHour@CTime@ATL@@QBEHXZ ; ATL::CTime::GetHour
  0024c	69 f0 10 0e 00
	00		 imul	 esi, eax, 3600
  00252	8d 4d dc	 lea	 ecx, DWORD PTR _SignupStartTime$[ebp]
  00255	e8 00 00 00 00	 call	 ?GetMinute@CTime@ATL@@QBEHXZ ; ATL::CTime::GetMinute
  0025a	6b c0 3c	 imul	 eax, eax, 60
  0025d	03 f0		 add	 esi, eax
  0025f	8d 4d dc	 lea	 ecx, DWORD PTR _SignupStartTime$[ebp]
  00262	e8 00 00 00 00	 call	 ?GetSecond@CTime@ATL@@QBEHXZ ; ATL::CTime::GetSecond
  00267	03 f0		 add	 esi, eax
  00269	39 75 cc	 cmp	 DWORD PTR _nCurrSeconds$[ebp], esi
  0026c	7d 4c		 jge	 SHORT $LN5@VerifyMatc

; 2345 : 	{
; 2346 : 		wMessageType |= SMT_CLOSE_ROOM;

  0026e	8b 45 10	 mov	 eax, DWORD PTR _wMessageType$[ebp]
  00271	0f b7 08	 movzx	 ecx, WORD PTR [eax]
  00274	81 c9 00 01 00
	00		 or	 ecx, 256		; 00000100H
  0027a	8b 55 10	 mov	 edx, DWORD PTR _wMessageType$[ebp]
  0027d	66 89 0a	 mov	 WORD PTR [edx], cx

; 2347 : 		_sntprintf_s(pszMessage, wMaxCount, wMaxCount, TEXT("比赛报名尚未开始,请您于今天%d时%d分%d秒前来报名参加比赛！"), SignupStartTime.GetHour(), SignupStartTime.GetMinute(), SignupStartTime.GetSecond());

  00280	8d 4d dc	 lea	 ecx, DWORD PTR _SignupStartTime$[ebp]
  00283	e8 00 00 00 00	 call	 ?GetSecond@CTime@ATL@@QBEHXZ ; ATL::CTime::GetSecond
  00288	50		 push	 eax
  00289	8d 4d dc	 lea	 ecx, DWORD PTR _SignupStartTime$[ebp]
  0028c	e8 00 00 00 00	 call	 ?GetMinute@CTime@ATL@@QBEHXZ ; ATL::CTime::GetMinute
  00291	50		 push	 eax
  00292	8d 4d dc	 lea	 ecx, DWORD PTR _SignupStartTime$[ebp]
  00295	e8 00 00 00 00	 call	 ?GetHour@CTime@ATL@@QBEHXZ ; ATL::CTime::GetHour
  0029a	50		 push	 eax
  0029b	68 00 00 00 00	 push	 OFFSET ??_C@_0DK@LADIJLOB@?$LB?H?H?$PM?$LB?$KI?C?$PL?I?P?N?$LE?$LP?$KK?J?$LM?0?G?k?D?z?S?Z?$LN?q?L?l?$CFd?J?$LB@
  002a0	0f b7 45 0c	 movzx	 eax, WORD PTR _wMaxCount$[ebp]
  002a4	50		 push	 eax
  002a5	0f b7 4d 0c	 movzx	 ecx, WORD PTR _wMaxCount$[ebp]
  002a9	51		 push	 ecx
  002aa	8b 55 08	 mov	 edx, DWORD PTR _pszMessage$[ebp]
  002ad	52		 push	 edx
  002ae	e8 00 00 00 00	 call	 __snprintf_s
  002b3	83 c4 1c	 add	 esp, 28			; 0000001cH

; 2348 : 		return false;

  002b6	32 c0		 xor	 al, al
  002b8	eb 02		 jmp	 SHORT $LN1@VerifyMatc
$LN5@VerifyMatc:

; 2349 : 	}	
; 2350 : 
; 2351 : 	return true;

  002ba	b0 01		 mov	 al, 1
$LN1@VerifyMatc:

; 2352 : }

  002bc	5f		 pop	 edi
  002bd	5e		 pop	 esi
  002be	5b		 pop	 ebx
  002bf	8b e5		 mov	 esp, ebp
  002c1	5d		 pop	 ebp
  002c2	c2 0c 00	 ret	 12			; 0000000cH
?VerifyMatchTime@CLockTimeMatch@@AAE_NPADGAAG@Z ENDP	; CLockTimeMatch::VerifyMatchTime
_TEXT	ENDS
; Function compile flags: /Odtp /ZI
; File g:\网狐\happygamewh\服务端\系统模块\服务器组件\比赛服务\locktimematch.cpp
;	COMDAT ?VerifyUserEnterMatch@CLockTimeMatch@@AAE_NPAUIServerUserItem@@@Z
_TEXT	SEGMENT
tv283 = -216						; size = 4
tv280 = -212						; size = 8
tv267 = -208						; size = 4
_szMessage$ = -140					; size = 128
_wMessageType$ = -12					; size = 2
_this$ = -8						; size = 4
__$ArrayPad$ = -4					; size = 4
_pIServerUserItem$ = 8					; size = 4
?VerifyUserEnterMatch@CLockTimeMatch@@AAE_NPAUIServerUserItem@@@Z PROC ; CLockTimeMatch::VerifyUserEnterMatch, COMDAT
; _this$ = ecx

; 1808 : {

  00000	55		 push	 ebp
  00001	8b ec		 mov	 ebp, esp
  00003	81 ec d8 00 00
	00		 sub	 esp, 216		; 000000d8H
  00009	a1 00 00 00 00	 mov	 eax, DWORD PTR ___security_cookie
  0000e	33 c5		 xor	 eax, ebp
  00010	89 45 fc	 mov	 DWORD PTR __$ArrayPad$[ebp], eax
  00013	53		 push	 ebx
  00014	56		 push	 esi
  00015	57		 push	 edi
  00016	89 4d f8	 mov	 DWORD PTR _this$[ebp], ecx

; 1809 : 	ASSERT(pIServerUserItem!=NULL);

  00019	83 7d 08 00	 cmp	 DWORD PTR _pIServerUserItem$[ebp], 0
  0001d	75 18		 jne	 SHORT $LN12@VerifyUser
  0001f	a1 00 00 00 00	 mov	 eax, DWORD PTR ?__LINE__Var@?0??VerifyUserEnterMatch@CLockTimeMatch@@AAE_NPAUIServerUserItem@@@Z@4JA
  00024	83 c0 01	 add	 eax, 1
  00027	50		 push	 eax
  00028	68 00 00 00 00	 push	 OFFSET ??_C@_0EK@PLFANKAP@g?3?2?M?x?$LK?$PM?2happygamewh?2?$LH?$PO?N?q?$LG?K?2?O?$LF?M?$LD@
  0002d	e8 00 00 00 00	 call	 ?AfxAssertFailedLine@@YGHPBDH@Z ; AfxAssertFailedLine
  00032	85 c0		 test	 eax, eax
  00034	74 01		 je	 SHORT $LN12@VerifyUser
  00036	cc		 int	 3
$LN12@VerifyUser:

; 1810 : 	if (pIServerUserItem==NULL) return false;

  00037	83 7d 08 00	 cmp	 DWORD PTR _pIServerUserItem$[ebp], 0
  0003b	75 07		 jne	 SHORT $LN2@VerifyUser
  0003d	32 c0		 xor	 al, al
  0003f	e9 81 02 00 00	 jmp	 $LN1@VerifyUser
$LN2@VerifyUser:

; 1811 : 
; 1812 : 	//机器不受限制
; 1813 : 	if (pIServerUserItem->IsAndroidUser()==true) return true;

  00044	8b 45 08	 mov	 eax, DWORD PTR _pIServerUserItem$[ebp]
  00047	8b 10		 mov	 edx, DWORD PTR [eax]
  00049	8b 4d 08	 mov	 ecx, DWORD PTR _pIServerUserItem$[ebp]
  0004c	8b 82 d0 00 00
	00		 mov	 eax, DWORD PTR [edx+208]
  00052	ff d0		 call	 eax
  00054	0f b6 c8	 movzx	 ecx, al
  00057	83 f9 01	 cmp	 ecx, 1
  0005a	75 07		 jne	 SHORT $LN3@VerifyUser
  0005c	b0 01		 mov	 al, 1
  0005e	e9 62 02 00 00	 jmp	 $LN1@VerifyUser
$LN3@VerifyUser:

; 1814 : 
; 1815 : 	//变量定义
; 1816 : 	WORD wMessageType;
; 1817 : 	TCHAR szMessage[128]=TEXT("");

  00063	a0 00 00 00 00	 mov	 al, BYTE PTR ??_C@_00CNPNBAHC@@
  00068	88 85 74 ff ff
	ff		 mov	 BYTE PTR _szMessage$[ebp], al
  0006e	6a 7f		 push	 127			; 0000007fH
  00070	6a 00		 push	 0
  00072	8d 85 75 ff ff
	ff		 lea	 eax, DWORD PTR _szMessage$[ebp+1]
  00078	50		 push	 eax
  00079	e8 00 00 00 00	 call	 _memset
  0007e	83 c4 0c	 add	 esp, 12			; 0000000cH

; 1818 : 
; 1819 : 	//校验时间
; 1820 : 	if (VerifyMatchTime(szMessage,CountArray(szMessage),wMessageType)==false)

  00081	8d 45 f4	 lea	 eax, DWORD PTR _wMessageType$[ebp]
  00084	50		 push	 eax
  00085	68 80 00 00 00	 push	 128			; 00000080H
  0008a	8d 8d 74 ff ff
	ff		 lea	 ecx, DWORD PTR _szMessage$[ebp]
  00090	51		 push	 ecx
  00091	8b 4d f8	 mov	 ecx, DWORD PTR _this$[ebp]
  00094	e8 00 00 00 00	 call	 ?VerifyMatchTime@CLockTimeMatch@@AAE_NPADGAAG@Z ; CLockTimeMatch::VerifyMatchTime
  00099	0f b6 d0	 movzx	 edx, al
  0009c	85 d2		 test	 edx, edx
  0009e	75 30		 jne	 SHORT $LN4@VerifyUser

; 1821 : 	{
; 1822 : 		//发送消息
; 1823 : 		m_pIGameServiceFrame->SendRoomMessage(pIServerUserItem,szMessage,wMessageType);

  000a0	0f b7 45 f4	 movzx	 eax, WORD PTR _wMessageType$[ebp]
  000a4	50		 push	 eax
  000a5	8d 8d 74 ff ff
	ff		 lea	 ecx, DWORD PTR _szMessage$[ebp]
  000ab	51		 push	 ecx
  000ac	8b 55 08	 mov	 edx, DWORD PTR _pIServerUserItem$[ebp]
  000af	52		 push	 edx
  000b0	8b 45 f8	 mov	 eax, DWORD PTR _this$[ebp]
  000b3	8b 88 94 00 00
	00		 mov	 ecx, DWORD PTR [eax+148]
  000b9	8b 55 f8	 mov	 edx, DWORD PTR _this$[ebp]
  000bc	8b 01		 mov	 eax, DWORD PTR [ecx]
  000be	8b 8a 94 00 00
	00		 mov	 ecx, DWORD PTR [edx+148]
  000c4	8b 50 0c	 mov	 edx, DWORD PTR [eax+12]
  000c7	ff d2		 call	 edx

; 1824 : 
; 1825 : 		return false;

  000c9	32 c0		 xor	 al, al
  000cb	e9 f5 01 00 00	 jmp	 $LN1@VerifyUser
$LN4@VerifyUser:

; 1826 : 	}
; 1827 : 
; 1828 : 	//淘汰判断
; 1829 : 	if (m_pLockTimeMatch->lMatchCullScore>0 && pIServerUserItem->GetUserScore()<m_pLockTimeMatch->lMatchCullScore)

  000d0	8b 45 f8	 mov	 eax, DWORD PTR _this$[ebp]
  000d3	8b 48 78	 mov	 ecx, DWORD PTR [eax+120]
  000d6	89 8d 30 ff ff
	ff		 mov	 DWORD PTR tv267[ebp], ecx
  000dc	8b 95 30 ff ff
	ff		 mov	 edx, DWORD PTR tv267[ebp]
  000e2	83 7a 55 00	 cmp	 DWORD PTR [edx+85], 0
  000e6	0f 8c fd 00 00
	00		 jl	 $LN5@VerifyUser
  000ec	7f 10		 jg	 SHORT $LN13@VerifyUser
  000ee	8b 85 30 ff ff
	ff		 mov	 eax, DWORD PTR tv267[ebp]
  000f4	83 78 51 00	 cmp	 DWORD PTR [eax+81], 0
  000f8	0f 86 eb 00 00
	00		 jbe	 $LN5@VerifyUser
$LN13@VerifyUser:
  000fe	8b 45 08	 mov	 eax, DWORD PTR _pIServerUserItem$[ebp]
  00101	8b 10		 mov	 edx, DWORD PTR [eax]
  00103	8b 4d 08	 mov	 ecx, DWORD PTR _pIServerUserItem$[ebp]
  00106	8b 82 88 00 00
	00		 mov	 eax, DWORD PTR [edx+136]
  0010c	ff d0		 call	 eax
  0010e	8b 4d f8	 mov	 ecx, DWORD PTR _this$[ebp]
  00111	8b 49 78	 mov	 ecx, DWORD PTR [ecx+120]
  00114	89 85 2c ff ff
	ff		 mov	 DWORD PTR tv280[ebp], eax
  0011a	89 95 30 ff ff
	ff		 mov	 DWORD PTR tv280[ebp+4], edx
  00120	89 8d 28 ff ff
	ff		 mov	 DWORD PTR tv283[ebp], ecx
  00126	8b 95 28 ff ff
	ff		 mov	 edx, DWORD PTR tv283[ebp]
  0012c	8b 85 30 ff ff
	ff		 mov	 eax, DWORD PTR tv280[ebp+4]
  00132	3b 42 55	 cmp	 eax, DWORD PTR [edx+85]
  00135	0f 8f ae 00 00
	00		 jg	 $LN5@VerifyUser
  0013b	7c 15		 jl	 SHORT $LN14@VerifyUser
  0013d	8b 8d 28 ff ff
	ff		 mov	 ecx, DWORD PTR tv283[ebp]
  00143	8b 95 2c ff ff
	ff		 mov	 edx, DWORD PTR tv280[ebp]
  00149	3b 51 51	 cmp	 edx, DWORD PTR [ecx+81]
  0014c	0f 83 97 00 00
	00		 jae	 $LN5@VerifyUser
$LN14@VerifyUser:

; 1830 : 	{
; 1831 : 		_sntprintf_s(szMessage,CountArray(szMessage),TEXT("由于您的比赛币低于 %d，您将不能继续游戏！"),m_pLockTimeMatch->lMatchCullScore);

  00152	8b 45 f8	 mov	 eax, DWORD PTR _this$[ebp]
  00155	8b 48 78	 mov	 ecx, DWORD PTR [eax+120]
  00158	8b 51 55	 mov	 edx, DWORD PTR [ecx+85]
  0015b	52		 push	 edx
  0015c	8b 41 51	 mov	 eax, DWORD PTR [ecx+81]
  0015f	50		 push	 eax
  00160	68 00 00 00 00	 push	 OFFSET ??_C@_0CK@MEIIMJBH@?S?I?S?Z?D?z?$LF?D?$LB?H?H?$PM?$LB?R?$LF?M?S?Z?5?$CFd?$KD?$KM?D?z?$LN?$KL?$LC?$LL?D?$NM@
  00165	68 80 00 00 00	 push	 128			; 00000080H
  0016a	8d 8d 74 ff ff
	ff		 lea	 ecx, DWORD PTR _szMessage$[ebp]
  00170	51		 push	 ecx
  00171	e8 00 00 00 00	 call	 ??$_snprintf_s@$0IA@@@YAHAAY0IA@DIPBDZZ ; _snprintf_s<128>
  00176	83 c4 14	 add	 esp, 20			; 00000014H

; 1832 : 
; 1833 : 		//发送消息
; 1834 : 		if(pIServerUserItem->GetTableID()==INVALID_TABLE)

  00179	8b 45 08	 mov	 eax, DWORD PTR _pIServerUserItem$[ebp]
  0017c	8b 10		 mov	 edx, DWORD PTR [eax]
  0017e	8b 4d 08	 mov	 ecx, DWORD PTR _pIServerUserItem$[ebp]
  00181	8b 42 68	 mov	 eax, DWORD PTR [edx+104]
  00184	ff d0		 call	 eax
  00186	0f b7 c8	 movzx	 ecx, ax
  00189	81 f9 ff ff 00
	00		 cmp	 ecx, 65535		; 0000ffffH
  0018f	75 28		 jne	 SHORT $LN6@VerifyUser

; 1835 : 		{
; 1836 : 			m_pIGameServiceFrame->SendRoomMessage(pIServerUserItem,szMessage,SMT_EJECT|SMT_CHAT);

  00191	6a 03		 push	 3
  00193	8d 85 74 ff ff
	ff		 lea	 eax, DWORD PTR _szMessage$[ebp]
  00199	50		 push	 eax
  0019a	8b 4d 08	 mov	 ecx, DWORD PTR _pIServerUserItem$[ebp]
  0019d	51		 push	 ecx
  0019e	8b 55 f8	 mov	 edx, DWORD PTR _this$[ebp]
  001a1	8b 82 94 00 00
	00		 mov	 eax, DWORD PTR [edx+148]
  001a7	8b 4d f8	 mov	 ecx, DWORD PTR _this$[ebp]
  001aa	8b 10		 mov	 edx, DWORD PTR [eax]
  001ac	8b 89 94 00 00
	00		 mov	 ecx, DWORD PTR [ecx+148]
  001b2	8b 42 0c	 mov	 eax, DWORD PTR [edx+12]
  001b5	ff d0		 call	 eax

; 1837 : 		}
; 1838 : 		else

  001b7	eb 29		 jmp	 SHORT $LN7@VerifyUser
$LN6@VerifyUser:

; 1839 : 		{
; 1840 : 			m_pIGameServiceFrame->SendGameMessage(pIServerUserItem,szMessage,SMT_EJECT|SMT_CHAT|SMT_CLOSE_GAME);

  001b9	68 03 02 00 00	 push	 515			; 00000203H
  001be	8d 85 74 ff ff
	ff		 lea	 eax, DWORD PTR _szMessage$[ebp]
  001c4	50		 push	 eax
  001c5	8b 4d 08	 mov	 ecx, DWORD PTR _pIServerUserItem$[ebp]
  001c8	51		 push	 ecx
  001c9	8b 55 f8	 mov	 edx, DWORD PTR _this$[ebp]
  001cc	8b 82 94 00 00
	00		 mov	 eax, DWORD PTR [edx+148]
  001d2	8b 4d f8	 mov	 ecx, DWORD PTR _this$[ebp]
  001d5	8b 10		 mov	 edx, DWORD PTR [eax]
  001d7	8b 89 94 00 00
	00		 mov	 ecx, DWORD PTR [ecx+148]
  001dd	8b 42 14	 mov	 eax, DWORD PTR [edx+20]
  001e0	ff d0		 call	 eax
$LN7@VerifyUser:

; 1841 : 		}
; 1842 : 
; 1843 : 		return false;

  001e2	32 c0		 xor	 al, al
  001e4	e9 dc 00 00 00	 jmp	 $LN1@VerifyUser
$LN5@VerifyUser:

; 1844 : 	}
; 1845 : 
; 1846 : 	//最大局数
; 1847 : 	if (m_pLockTimeMatch->wMaxPlayCount>0 && (pIServerUserItem->GetUserPlayCount()-pIServerUserItem->GetUserInfo()->dwDrawCount)==m_pLockTimeMatch->wMaxPlayCount)

  001e9	8b 45 f8	 mov	 eax, DWORD PTR _this$[ebp]
  001ec	8b 48 78	 mov	 ecx, DWORD PTR [eax+120]
  001ef	0f b7 51 5b	 movzx	 edx, WORD PTR [ecx+91]
  001f3	85 d2		 test	 edx, edx
  001f5	0f 8e c8 00 00
	00		 jle	 $LN8@VerifyUser
  001fb	8b 45 08	 mov	 eax, DWORD PTR _pIServerUserItem$[ebp]
  001fe	8b 10		 mov	 edx, DWORD PTR [eax]
  00200	8b 4d 08	 mov	 ecx, DWORD PTR _pIServerUserItem$[ebp]
  00203	8b 82 ac 00 00
	00		 mov	 eax, DWORD PTR [edx+172]
  00209	ff d0		 call	 eax
  0020b	8b f0		 mov	 esi, eax
  0020d	8b 4d 08	 mov	 ecx, DWORD PTR _pIServerUserItem$[ebp]
  00210	8b 11		 mov	 edx, DWORD PTR [ecx]
  00212	8b 4d 08	 mov	 ecx, DWORD PTR _pIServerUserItem$[ebp]
  00215	8b 42 20	 mov	 eax, DWORD PTR [edx+32]
  00218	ff d0		 call	 eax
  0021a	2b b0 e0 00 00
	00		 sub	 esi, DWORD PTR [eax+224]
  00220	8b 4d f8	 mov	 ecx, DWORD PTR _this$[ebp]
  00223	8b 51 78	 mov	 edx, DWORD PTR [ecx+120]
  00226	0f b7 42 5b	 movzx	 eax, WORD PTR [edx+91]
  0022a	3b f0		 cmp	 esi, eax
  0022c	0f 85 91 00 00
	00		 jne	 $LN8@VerifyUser

; 1848 : 	{
; 1849 : 		_sntprintf_s(szMessage,CountArray(szMessage),TEXT("您已完成 %d 局比赛，您将不能继续游戏，请等待比赛结束来查看排名！"),m_pLockTimeMatch->wMaxPlayCount);

  00232	8b 45 f8	 mov	 eax, DWORD PTR _this$[ebp]
  00235	8b 48 78	 mov	 ecx, DWORD PTR [eax+120]
  00238	0f b7 51 5b	 movzx	 edx, WORD PTR [ecx+91]
  0023c	52		 push	 edx
  0023d	68 00 00 00 00	 push	 OFFSET ??_C@_0EB@IICMIGNG@?D?z?R?Q?M?j?$LD?I?5?$CFd?5?$LO?V?$LB?H?H?$PM?$KD?$KM?D?z?$LN?$KL?$LC?$LL?D?$NM?$LM?L?P@
  00242	68 80 00 00 00	 push	 128			; 00000080H
  00247	8d 85 74 ff ff
	ff		 lea	 eax, DWORD PTR _szMessage$[ebp]
  0024d	50		 push	 eax
  0024e	e8 00 00 00 00	 call	 ??$_snprintf_s@$0IA@@@YAHAAY0IA@DIPBDZZ ; _snprintf_s<128>
  00253	83 c4 10	 add	 esp, 16			; 00000010H

; 1850 : 
; 1851 : 		//发送消息
; 1852 : 		if(pIServerUserItem->GetTableID()==INVALID_TABLE)

  00256	8b 45 08	 mov	 eax, DWORD PTR _pIServerUserItem$[ebp]
  00259	8b 10		 mov	 edx, DWORD PTR [eax]
  0025b	8b 4d 08	 mov	 ecx, DWORD PTR _pIServerUserItem$[ebp]
  0025e	8b 42 68	 mov	 eax, DWORD PTR [edx+104]
  00261	ff d0		 call	 eax
  00263	0f b7 c8	 movzx	 ecx, ax
  00266	81 f9 ff ff 00
	00		 cmp	 ecx, 65535		; 0000ffffH
  0026c	75 28		 jne	 SHORT $LN9@VerifyUser

; 1853 : 		{
; 1854 : 			m_pIGameServiceFrame->SendRoomMessage(pIServerUserItem,szMessage,SMT_EJECT|SMT_CHAT);

  0026e	6a 03		 push	 3
  00270	8d 85 74 ff ff
	ff		 lea	 eax, DWORD PTR _szMessage$[ebp]
  00276	50		 push	 eax
  00277	8b 4d 08	 mov	 ecx, DWORD PTR _pIServerUserItem$[ebp]
  0027a	51		 push	 ecx
  0027b	8b 55 f8	 mov	 edx, DWORD PTR _this$[ebp]
  0027e	8b 82 94 00 00
	00		 mov	 eax, DWORD PTR [edx+148]
  00284	8b 4d f8	 mov	 ecx, DWORD PTR _this$[ebp]
  00287	8b 10		 mov	 edx, DWORD PTR [eax]
  00289	8b 89 94 00 00
	00		 mov	 ecx, DWORD PTR [ecx+148]
  0028f	8b 42 0c	 mov	 eax, DWORD PTR [edx+12]
  00292	ff d0		 call	 eax

; 1855 : 		}
; 1856 : 		else

  00294	eb 29		 jmp	 SHORT $LN10@VerifyUser
$LN9@VerifyUser:

; 1857 : 		{
; 1858 : 			m_pIGameServiceFrame->SendGameMessage(pIServerUserItem,szMessage,SMT_EJECT|SMT_CHAT|SMT_CLOSE_GAME);

  00296	68 03 02 00 00	 push	 515			; 00000203H
  0029b	8d 85 74 ff ff
	ff		 lea	 eax, DWORD PTR _szMessage$[ebp]
  002a1	50		 push	 eax
  002a2	8b 4d 08	 mov	 ecx, DWORD PTR _pIServerUserItem$[ebp]
  002a5	51		 push	 ecx
  002a6	8b 55 f8	 mov	 edx, DWORD PTR _this$[ebp]
  002a9	8b 82 94 00 00
	00		 mov	 eax, DWORD PTR [edx+148]
  002af	8b 4d f8	 mov	 ecx, DWORD PTR _this$[ebp]
  002b2	8b 10		 mov	 edx, DWORD PTR [eax]
  002b4	8b 89 94 00 00
	00		 mov	 ecx, DWORD PTR [ecx+148]
  002ba	8b 42 14	 mov	 eax, DWORD PTR [edx+20]
  002bd	ff d0		 call	 eax
$LN10@VerifyUser:

; 1859 : 		}
; 1860 : 
; 1861 : 		return false;

  002bf	32 c0		 xor	 al, al
  002c1	eb 02		 jmp	 SHORT $LN1@VerifyUser
$LN8@VerifyUser:

; 1862 : 	}
; 1863 : 
; 1864 : 	return true;

  002c3	b0 01		 mov	 al, 1
$LN1@VerifyUser:

; 1865 : }

  002c5	5f		 pop	 edi
  002c6	5e		 pop	 esi
  002c7	5b		 pop	 ebx
  002c8	8b 4d fc	 mov	 ecx, DWORD PTR __$ArrayPad$[ebp]
  002cb	33 cd		 xor	 ecx, ebp
  002cd	e8 00 00 00 00	 call	 @__security_check_cookie@4
  002d2	8b e5		 mov	 esp, ebp
  002d4	5d		 pop	 ebp
  002d5	c2 04 00	 ret	 4
?VerifyUserEnterMatch@CLockTimeMatch@@AAE_NPAUIServerUserItem@@@Z ENDP ; CLockTimeMatch::VerifyUserEnterMatch
_TEXT	ENDS
; Function compile flags: /Odtp /ZI
; File g:\网狐\happygamewh\服务端\系统模块\服务器组件\比赛服务\locktimematch.cpp
;	COMDAT ?SendReviveNotify@CLockTimeMatch@@IAE_NPAUIServerUserItem@@E_N@Z
_TEXT	SEGMENT
_szMessage$1 = -292					; size = 128
_wDataSize$2 = -164					; size = 2
_MatchRevive$3 = -160					; size = 150
_this$ = -8						; size = 4
__$ArrayPad$ = -4					; size = 4
_pIServerUserItem$ = 8					; size = 4
_cbReviveTimesed$ = 12					; size = 1
_bUseSafeCard$ = 16					; size = 1
?SendReviveNotify@CLockTimeMatch@@IAE_NPAUIServerUserItem@@E_N@Z PROC ; CLockTimeMatch::SendReviveNotify, COMDAT
; _this$ = ecx

; 2401 : {

  00000	55		 push	 ebp
  00001	8b ec		 mov	 ebp, esp
  00003	81 ec 64 01 00
	00		 sub	 esp, 356		; 00000164H
  00009	a1 00 00 00 00	 mov	 eax, DWORD PTR ___security_cookie
  0000e	33 c5		 xor	 eax, ebp
  00010	89 45 fc	 mov	 DWORD PTR __$ArrayPad$[ebp], eax
  00013	53		 push	 ebx
  00014	56		 push	 esi
  00015	57		 push	 edi
  00016	89 4d f8	 mov	 DWORD PTR _this$[ebp], ecx

; 2402 : 	if (bUseSafeCard==false)

  00019	0f b6 45 10	 movzx	 eax, BYTE PTR _bUseSafeCard$[ebp]
  0001d	85 c0		 test	 eax, eax
  0001f	0f 85 e8 00 00
	00		 jne	 $LN2@SendRevive

; 2403 : 	{
; 2404 : 		//构造结构 
; 2405 : 		CMD_GR_Match_Revive MatchRevive;
; 2406 : 
; 2407 : 		//比赛信息
; 2408 : 		MatchRevive.dwMatchID=m_pMatchOption->dwMatchID;

  00025	8b 45 f8	 mov	 eax, DWORD PTR _this$[ebp]
  00028	8b 48 74	 mov	 ecx, DWORD PTR [eax+116]
  0002b	8b 11		 mov	 edx, DWORD PTR [ecx]
  0002d	89 95 60 ff ff
	ff		 mov	 DWORD PTR _MatchRevive$3[ebp], edx

; 2409 : 		MatchRevive.lMatchNO=m_pMatchOption->lMatchNo;

  00033	8b 45 f8	 mov	 eax, DWORD PTR _this$[ebp]
  00036	8b 48 74	 mov	 ecx, DWORD PTR [eax+116]
  00039	8b 51 08	 mov	 edx, DWORD PTR [ecx+8]
  0003c	89 95 64 ff ff
	ff		 mov	 DWORD PTR _MatchRevive$3[ebp+4], edx
  00042	8b 41 0c	 mov	 eax, DWORD PTR [ecx+12]
  00045	89 85 68 ff ff
	ff		 mov	 DWORD PTR _MatchRevive$3[ebp+8], eax

; 2410 : 
; 2411 : 		//复活信息
; 2412 : 		MatchRevive.lReviveFee=m_pLockTimeMatch->lReviveFee;

  0004b	8b 45 f8	 mov	 eax, DWORD PTR _this$[ebp]
  0004e	8b 48 78	 mov	 ecx, DWORD PTR [eax+120]
  00051	8b 51 60	 mov	 edx, DWORD PTR [ecx+96]
  00054	89 95 6c ff ff
	ff		 mov	 DWORD PTR _MatchRevive$3[ebp+12], edx
  0005a	8b 41 64	 mov	 eax, DWORD PTR [ecx+100]
  0005d	89 85 70 ff ff
	ff		 mov	 DWORD PTR _MatchRevive$3[ebp+16], eax

; 2413 : 		MatchRevive.cbReviveTimes=m_pLockTimeMatch->cbReviveTimes;

  00063	8b 45 f8	 mov	 eax, DWORD PTR _this$[ebp]
  00066	8b 48 78	 mov	 ecx, DWORD PTR [eax+120]
  00069	8a 51 5f	 mov	 dl, BYTE PTR [ecx+95]
  0006c	88 95 74 ff ff
	ff		 mov	 BYTE PTR _MatchRevive$3[ebp+20], dl

; 2414 : 		MatchRevive.cbReviveTimesed=cbReviveTimesed;

  00072	8a 45 0c	 mov	 al, BYTE PTR _cbReviveTimesed$[ebp]
  00075	88 85 75 ff ff
	ff		 mov	 BYTE PTR _MatchRevive$3[ebp+21], al

; 2415 : 
; 2416 : 		//构造消息
; 2417 : 		_sntprintf_s(MatchRevive.szNotifyContent,CountArray(MatchRevive.szNotifyContent),TEXT("您的比赛币低于 %d，将不能继续游戏。 您只需支付 %I64d 金币便可复活继续比赛，您确定要复活吗？"),m_pLockTimeMatch->lMatchCullScore,m_pLockTimeMatch->lReviveFee);

  0007b	8b 45 f8	 mov	 eax, DWORD PTR _this$[ebp]
  0007e	8b 48 78	 mov	 ecx, DWORD PTR [eax+120]
  00081	8b 51 64	 mov	 edx, DWORD PTR [ecx+100]
  00084	52		 push	 edx
  00085	8b 41 60	 mov	 eax, DWORD PTR [ecx+96]
  00088	50		 push	 eax
  00089	8b 4d f8	 mov	 ecx, DWORD PTR _this$[ebp]
  0008c	8b 51 78	 mov	 edx, DWORD PTR [ecx+120]
  0008f	8b 42 55	 mov	 eax, DWORD PTR [edx+85]
  00092	50		 push	 eax
  00093	8b 4a 51	 mov	 ecx, DWORD PTR [edx+81]
  00096	51		 push	 ecx
  00097	68 00 00 00 00	 push	 OFFSET ??_C@_0FM@EDKOAGPM@?D?z?$LF?D?$LB?H?H?$PM?$LB?R?$LF?M?S?Z?5?$CFd?$KD?$KM?$LN?$KL?$LC?$LL?D?$NM?$LM?L?P?x?S?N@
  0009c	68 80 00 00 00	 push	 128			; 00000080H
  000a1	8d 95 76 ff ff
	ff		 lea	 edx, DWORD PTR _MatchRevive$3[ebp+22]
  000a7	52		 push	 edx
  000a8	e8 00 00 00 00	 call	 ??$_snprintf_s@$0IA@@@YAHAAY0IA@DIPBDZZ ; _snprintf_s<128>
  000ad	83 c4 1c	 add	 esp, 28			; 0000001cH

; 2418 : 
; 2419 :         //发送数据
; 2420 : 		WORD wDataSize=sizeof(MatchRevive)-sizeof(MatchRevive.szNotifyContent);

  000b0	b8 16 00 00 00	 mov	 eax, 22			; 00000016H
  000b5	66 89 85 5c ff
	ff ff		 mov	 WORD PTR _wDataSize$2[ebp], ax

; 2421 : 		wDataSize+=CountStringBuffer(MatchRevive.szNotifyContent);

  000bc	8d 85 76 ff ff
	ff		 lea	 eax, DWORD PTR _MatchRevive$3[ebp+22]
  000c2	50		 push	 eax
  000c3	ff 15 00 00 00
	00		 call	 DWORD PTR __imp__lstrlenA@4
  000c9	0f b7 8d 5c ff
	ff ff		 movzx	 ecx, WORD PTR _wDataSize$2[ebp]
  000d0	8d 54 01 01	 lea	 edx, DWORD PTR [ecx+eax+1]
  000d4	66 89 95 5c ff
	ff ff		 mov	 WORD PTR _wDataSize$2[ebp], dx

; 2422 : 		m_pIGameServiceFrame->SendData(pIServerUserItem,MDM_GR_MATCH,SUB_GR_MATCH_REVIVE,&MatchRevive,wDataSize);

  000db	0f b7 85 5c ff
	ff ff		 movzx	 eax, WORD PTR _wDataSize$2[ebp]
  000e2	50		 push	 eax
  000e3	8d 8d 60 ff ff
	ff		 lea	 ecx, DWORD PTR _MatchRevive$3[ebp]
  000e9	51		 push	 ecx
  000ea	6a 0f		 push	 15			; 0000000fH
  000ec	6a 0a		 push	 10			; 0000000aH
  000ee	8b 55 08	 mov	 edx, DWORD PTR _pIServerUserItem$[ebp]
  000f1	52		 push	 edx
  000f2	8b 45 f8	 mov	 eax, DWORD PTR _this$[ebp]
  000f5	8b 88 94 00 00
	00		 mov	 ecx, DWORD PTR [eax+148]
  000fb	8b 55 f8	 mov	 edx, DWORD PTR _this$[ebp]
  000fe	8b 01		 mov	 eax, DWORD PTR [ecx]
  00100	8b 8a 94 00 00
	00		 mov	 ecx, DWORD PTR [edx+148]
  00106	8b 50 1c	 mov	 edx, DWORD PTR [eax+28]
  00109	ff d2		 call	 edx

; 2423 : 	}
; 2424 : 	else

  0010b	eb 4d		 jmp	 SHORT $LN3@SendRevive
$LN2@SendRevive:

; 2425 : 	{
; 2426 : 		//变量定义
; 2427 : 		TCHAR szMessage[128];
; 2428 : 		_sntprintf_s(szMessage,CountArray(szMessage),TEXT("您的比赛币低于 %d，将不能继续游戏。由于您购买了保险卡，系统将免费为您复活一次！"),m_pLockTimeMatch->lMatchCullScore);

  0010d	8b 45 f8	 mov	 eax, DWORD PTR _this$[ebp]
  00110	8b 48 78	 mov	 ecx, DWORD PTR [eax+120]
  00113	8b 51 55	 mov	 edx, DWORD PTR [ecx+85]
  00116	52		 push	 edx
  00117	8b 41 51	 mov	 eax, DWORD PTR [ecx+81]
  0011a	50		 push	 eax
  0011b	68 00 00 00 00	 push	 OFFSET ??_C@_0FA@CPFANEOM@?D?z?$LF?D?$LB?H?H?$PM?$LB?R?$LF?M?S?Z?5?$CFd?$KD?$KM?$LN?$KL?$LC?$LL?D?$NM?$LM?L?P?x?S?N@
  00120	68 80 00 00 00	 push	 128			; 00000080H
  00125	8d 8d dc fe ff
	ff		 lea	 ecx, DWORD PTR _szMessage$1[ebp]
  0012b	51		 push	 ecx
  0012c	e8 00 00 00 00	 call	 ??$_snprintf_s@$0IA@@@YAHAAY0IA@DIPBDZZ ; _snprintf_s<128>
  00131	83 c4 14	 add	 esp, 20			; 00000014H

; 2429 : 
; 2430 : 		//消息通知
; 2431 : 		m_pIGameServiceFrame->SendRoomMessage(pIServerUserItem,szMessage,SMT_CHAT|SMT_EJECT);

  00134	6a 03		 push	 3
  00136	8d 85 dc fe ff
	ff		 lea	 eax, DWORD PTR _szMessage$1[ebp]
  0013c	50		 push	 eax
  0013d	8b 4d 08	 mov	 ecx, DWORD PTR _pIServerUserItem$[ebp]
  00140	51		 push	 ecx
  00141	8b 55 f8	 mov	 edx, DWORD PTR _this$[ebp]
  00144	8b 82 94 00 00
	00		 mov	 eax, DWORD PTR [edx+148]
  0014a	8b 4d f8	 mov	 ecx, DWORD PTR _this$[ebp]
  0014d	8b 10		 mov	 edx, DWORD PTR [eax]
  0014f	8b 89 94 00 00
	00		 mov	 ecx, DWORD PTR [ecx+148]
  00155	8b 42 0c	 mov	 eax, DWORD PTR [edx+12]
  00158	ff d0		 call	 eax
$LN3@SendRevive:

; 2432 : 	}
; 2433 : 
; 2434 : 	return true;

  0015a	b0 01		 mov	 al, 1

; 2435 : }

  0015c	5f		 pop	 edi
  0015d	5e		 pop	 esi
  0015e	5b		 pop	 ebx
  0015f	8b 4d fc	 mov	 ecx, DWORD PTR __$ArrayPad$[ebp]
  00162	33 cd		 xor	 ecx, ebp
  00164	e8 00 00 00 00	 call	 @__security_check_cookie@4
  00169	8b e5		 mov	 esp, ebp
  0016b	5d		 pop	 ebp
  0016c	c2 0c 00	 ret	 12			; 0000000cH
?SendReviveNotify@CLockTimeMatch@@IAE_NPAUIServerUserItem@@E_N@Z ENDP ; CLockTimeMatch::SendReviveNotify
_TEXT	ENDS
; Function compile flags: /Odtp /ZI
; File g:\网狐\happygamewh\服务端\系统模块\服务器组件\比赛服务\locktimematch.cpp
;	COMDAT ?SendSignupSuccessNotify@CLockTimeMatch@@IAE_NPAUIServerUserItem@@@Z
_TEXT	SEGMENT
_this$ = -4						; size = 4
_pIServerUserItem$ = 8					; size = 4
?SendSignupSuccessNotify@CLockTimeMatch@@IAE_NPAUIServerUserItem@@@Z PROC ; CLockTimeMatch::SendSignupSuccessNotify, COMDAT
; _this$ = ecx

; 2518 : {

  00000	55		 push	 ebp
  00001	8b ec		 mov	 ebp, esp
  00003	83 ec 44	 sub	 esp, 68			; 00000044H
  00006	53		 push	 ebx
  00007	56		 push	 esi
  00008	57		 push	 edi
  00009	89 4d fc	 mov	 DWORD PTR _this$[ebp], ecx

; 2519 : 	//报名成功
; 2520 : 	if (m_MatchStatus!=MatchStatus_Free)

  0000c	8b 45 fc	 mov	 eax, DWORD PTR _this$[ebp]
  0000f	0f b6 48 0c	 movzx	 ecx, BYTE PTR [eax+12]
  00013	85 c9		 test	 ecx, ecx
  00015	74 32		 je	 SHORT $LN2@SendSignup

; 2521 : 	{
; 2522 : 		//消息通知
; 2523 : 		m_pIGameServiceFrame->SendRoomMessage(pIServerUserItem, TEXT("恭喜您，报名成功，请等待系统为您分配座位！"),SMT_CHAT);

  00017	6a 01		 push	 1
  00019	68 00 00 00 00	 push	 OFFSET ??_C@_0CL@LKBHCBDE@?$LJ?$KH?O?$LC?D?z?$KD?$KM?$LB?$KI?C?$PL?$LD?I?$LJ?$KG?$KD?$KM?G?k?$LF?H?$LE?$PN?O?$LF?M?$LD?N?$KK?D@
  0001e	8b 45 08	 mov	 eax, DWORD PTR _pIServerUserItem$[ebp]
  00021	50		 push	 eax
  00022	8b 4d fc	 mov	 ecx, DWORD PTR _this$[ebp]
  00025	8b 91 94 00 00
	00		 mov	 edx, DWORD PTR [ecx+148]
  0002b	8b 45 fc	 mov	 eax, DWORD PTR _this$[ebp]
  0002e	8b 12		 mov	 edx, DWORD PTR [edx]
  00030	8b 88 94 00 00
	00		 mov	 ecx, DWORD PTR [eax+148]
  00036	8b 42 0c	 mov	 eax, DWORD PTR [edx+12]
  00039	ff d0		 call	 eax

; 2524 : 
; 2525 : 		//加入分组
; 2526 : 		InsertDistribute(pIServerUserItem);					

  0003b	8b 45 08	 mov	 eax, DWORD PTR _pIServerUserItem$[ebp]
  0003e	50		 push	 eax
  0003f	8b 4d fc	 mov	 ecx, DWORD PTR _this$[ebp]
  00042	e8 00 00 00 00	 call	 ?InsertDistribute@CLockTimeMatch@@IAE_NPAUIServerUserItem@@@Z ; CLockTimeMatch::InsertDistribute

; 2527 : 	}
; 2528 : 	else

  00047	eb 24		 jmp	 SHORT $LN3@SendSignup
$LN2@SendSignup:

; 2529 : 	{
; 2530 : 		//消息通知
; 2531 : 		m_pIGameServiceFrame->SendRoomMessage(pIServerUserItem, TEXT("恭喜您，报名成功，请届时前来参加比赛！"),SMT_CHAT);

  00049	6a 01		 push	 1
  0004b	68 00 00 00 00	 push	 OFFSET ??_C@_0CH@JFAMEAMK@?$LJ?$KH?O?$LC?D?z?$KD?$KM?$LB?$KI?C?$PL?$LD?I?$LJ?$KG?$KD?$KM?G?k?$LN?l?J?$LB?G?$LA?$MA?$LE?$LC?N?$LM@
  00050	8b 45 08	 mov	 eax, DWORD PTR _pIServerUserItem$[ebp]
  00053	50		 push	 eax
  00054	8b 4d fc	 mov	 ecx, DWORD PTR _this$[ebp]
  00057	8b 91 94 00 00
	00		 mov	 edx, DWORD PTR [ecx+148]
  0005d	8b 45 fc	 mov	 eax, DWORD PTR _this$[ebp]
  00060	8b 12		 mov	 edx, DWORD PTR [edx]
  00062	8b 88 94 00 00
	00		 mov	 ecx, DWORD PTR [eax+148]
  00068	8b 42 0c	 mov	 eax, DWORD PTR [edx+12]
  0006b	ff d0		 call	 eax
$LN3@SendSignup:

; 2532 : 	}
; 2533 : 
; 2534 : 	return true;

  0006d	b0 01		 mov	 al, 1

; 2535 : }

  0006f	5f		 pop	 edi
  00070	5e		 pop	 esi
  00071	5b		 pop	 ebx
  00072	8b e5		 mov	 esp, ebp
  00074	5d		 pop	 ebp
  00075	c2 04 00	 ret	 4
?SendSignupSuccessNotify@CLockTimeMatch@@IAE_NPAUIServerUserItem@@@Z ENDP ; CLockTimeMatch::SendSignupSuccessNotify
_TEXT	ENDS
; Function compile flags: /Odtp /ZI
; File g:\网狐\happygamewh\服务端\系统模块\服务器组件\比赛服务\locktimematch.cpp
;	COMDAT ?SendEliminateNotify@CLockTimeMatch@@IAE_NPAUIServerUserItem@@@Z
_TEXT	SEGMENT
_MatchEliminate$ = -160					; size = 24
_szMessage$ = -136					; size = 128
_this$ = -8						; size = 4
__$ArrayPad$ = -4					; size = 4
_pIServerUserItem$ = 8					; size = 4
?SendEliminateNotify@CLockTimeMatch@@IAE_NPAUIServerUserItem@@@Z PROC ; CLockTimeMatch::SendEliminateNotify, COMDAT
; _this$ = ecx

; 2492 : {

  00000	55		 push	 ebp
  00001	8b ec		 mov	 ebp, esp
  00003	81 ec e0 00 00
	00		 sub	 esp, 224		; 000000e0H
  00009	a1 00 00 00 00	 mov	 eax, DWORD PTR ___security_cookie
  0000e	33 c5		 xor	 eax, ebp
  00010	89 45 fc	 mov	 DWORD PTR __$ArrayPad$[ebp], eax
  00013	53		 push	 ebx
  00014	56		 push	 esi
  00015	57		 push	 edi
  00016	89 4d f8	 mov	 DWORD PTR _this$[ebp], ecx

; 2493 : 	//变量定义
; 2494 : 	TCHAR szMessage[128]=TEXT("");

  00019	a0 00 00 00 00	 mov	 al, BYTE PTR ??_C@_00CNPNBAHC@@
  0001e	88 85 78 ff ff
	ff		 mov	 BYTE PTR _szMessage$[ebp], al
  00024	6a 7f		 push	 127			; 0000007fH
  00026	6a 00		 push	 0
  00028	8d 85 79 ff ff
	ff		 lea	 eax, DWORD PTR _szMessage$[ebp+1]
  0002e	50		 push	 eax
  0002f	e8 00 00 00 00	 call	 _memset
  00034	83 c4 0c	 add	 esp, 12			; 0000000cH

; 2495 : 	_sntprintf_s(szMessage,CountArray(szMessage),TEXT("由于您的比赛币低于 %d，您将不能继续游戏！"),m_pLockTimeMatch->lMatchCullScore);

  00037	8b 45 f8	 mov	 eax, DWORD PTR _this$[ebp]
  0003a	8b 48 78	 mov	 ecx, DWORD PTR [eax+120]
  0003d	8b 51 55	 mov	 edx, DWORD PTR [ecx+85]
  00040	52		 push	 edx
  00041	8b 41 51	 mov	 eax, DWORD PTR [ecx+81]
  00044	50		 push	 eax
  00045	68 00 00 00 00	 push	 OFFSET ??_C@_0CK@MEIIMJBH@?S?I?S?Z?D?z?$LF?D?$LB?H?H?$PM?$LB?R?$LF?M?S?Z?5?$CFd?$KD?$KM?D?z?$LN?$KL?$LC?$LL?D?$NM@
  0004a	68 80 00 00 00	 push	 128			; 00000080H
  0004f	8d 8d 78 ff ff
	ff		 lea	 ecx, DWORD PTR _szMessage$[ebp]
  00055	51		 push	 ecx
  00056	e8 00 00 00 00	 call	 ??$_snprintf_s@$0IA@@@YAHAAY0IA@DIPBDZZ ; _snprintf_s<128>
  0005b	83 c4 14	 add	 esp, 20			; 00000014H

; 2496 : 
; 2497 : 	//发送消息
; 2498 : 	m_pIGameServiceFrame->SendGameMessage(pIServerUserItem,szMessage,SMT_EJECT|SMT_CHAT);

  0005e	6a 03		 push	 3
  00060	8d 85 78 ff ff
	ff		 lea	 eax, DWORD PTR _szMessage$[ebp]
  00066	50		 push	 eax
  00067	8b 4d 08	 mov	 ecx, DWORD PTR _pIServerUserItem$[ebp]
  0006a	51		 push	 ecx
  0006b	8b 55 f8	 mov	 edx, DWORD PTR _this$[ebp]
  0006e	8b 82 94 00 00
	00		 mov	 eax, DWORD PTR [edx+148]
  00074	8b 4d f8	 mov	 ecx, DWORD PTR _this$[ebp]
  00077	8b 10		 mov	 edx, DWORD PTR [eax]
  00079	8b 89 94 00 00
	00		 mov	 ecx, DWORD PTR [ecx+148]
  0007f	8b 42 14	 mov	 eax, DWORD PTR [edx+20]
  00082	ff d0		 call	 eax

; 2499 : 
; 2500 : 	//构造结构
; 2501 : 	DBR_GR_MatchEliminate MatchEliminate;
; 2502 : 	MatchEliminate.cbMatchType=MATCH_TYPE_LOCKTIME;

  00084	c6 85 66 ff ff
	ff 00		 mov	 BYTE PTR _MatchEliminate$[ebp+6], 0

; 2503 : 	MatchEliminate.dwMatchID=m_pMatchOption->dwMatchID;

  0008b	8b 45 f8	 mov	 eax, DWORD PTR _this$[ebp]
  0008e	8b 48 74	 mov	 ecx, DWORD PTR [eax+116]
  00091	8b 11		 mov	 edx, DWORD PTR [ecx]
  00093	89 95 68 ff ff
	ff		 mov	 DWORD PTR _MatchEliminate$[ebp+8], edx

; 2504 : 	MatchEliminate.lMatchNo=m_pMatchOption->lMatchNo;

  00099	8b 45 f8	 mov	 eax, DWORD PTR _this$[ebp]
  0009c	8b 48 74	 mov	 ecx, DWORD PTR [eax+116]
  0009f	8b 51 08	 mov	 edx, DWORD PTR [ecx+8]
  000a2	89 95 70 ff ff
	ff		 mov	 DWORD PTR _MatchEliminate$[ebp+16], edx
  000a8	8b 41 0c	 mov	 eax, DWORD PTR [ecx+12]
  000ab	89 85 74 ff ff
	ff		 mov	 DWORD PTR _MatchEliminate$[ebp+20], eax

; 2505 : 	MatchEliminate.dwUserID=pIServerUserItem->GetUserID();

  000b1	8b 45 08	 mov	 eax, DWORD PTR _pIServerUserItem$[ebp]
  000b4	8b 10		 mov	 edx, DWORD PTR [eax]
  000b6	8b 4d 08	 mov	 ecx, DWORD PTR _pIServerUserItem$[ebp]
  000b9	8b 42 5c	 mov	 eax, DWORD PTR [edx+92]
  000bc	ff d0		 call	 eax
  000be	89 85 60 ff ff
	ff		 mov	 DWORD PTR _MatchEliminate$[ebp], eax

; 2506 : 
; 2507 : 	//投递请求
; 2508 : 	m_pIDataBaseEngine->PostDataBaseRequest(MatchEliminate.dwUserID,DBR_GR_MATCH_ELIMINATE,0,&MatchEliminate,sizeof(MatchEliminate));

  000c4	6a 00		 push	 0
  000c6	6a 18		 push	 24			; 00000018H
  000c8	8d 85 60 ff ff
	ff		 lea	 eax, DWORD PTR _MatchEliminate$[ebp]
  000ce	50		 push	 eax
  000cf	6a 00		 push	 0
  000d1	68 61 02 00 00	 push	 609			; 00000261H
  000d6	8b 8d 60 ff ff
	ff		 mov	 ecx, DWORD PTR _MatchEliminate$[ebp]
  000dc	51		 push	 ecx
  000dd	8b 55 f8	 mov	 edx, DWORD PTR _this$[ebp]
  000e0	8b 82 8c 00 00
	00		 mov	 eax, DWORD PTR [edx+140]
  000e6	8b 4d f8	 mov	 ecx, DWORD PTR _this$[ebp]
  000e9	8b 91 8c 00 00
	00		 mov	 edx, DWORD PTR [ecx+140]
  000ef	8b 00		 mov	 eax, DWORD PTR [eax]
  000f1	52		 push	 edx
  000f2	8b 48 14	 mov	 ecx, DWORD PTR [eax+20]
  000f5	ff d1		 call	 ecx
  000f7	83 c4 1c	 add	 esp, 28			; 0000001cH

; 2509 : 
; 2510 : 	//发送数据
; 2511 : 	m_pIGameServiceFrame->SendData(pIServerUserItem,MDM_GR_MATCH,SUB_GR_MATCH_ELIMINATE,NULL,0);

  000fa	6a 00		 push	 0
  000fc	6a 00		 push	 0
  000fe	6a 0e		 push	 14			; 0000000eH
  00100	6a 0a		 push	 10			; 0000000aH
  00102	8b 45 08	 mov	 eax, DWORD PTR _pIServerUserItem$[ebp]
  00105	50		 push	 eax
  00106	8b 4d f8	 mov	 ecx, DWORD PTR _this$[ebp]
  00109	8b 91 94 00 00
	00		 mov	 edx, DWORD PTR [ecx+148]
  0010f	8b 45 f8	 mov	 eax, DWORD PTR _this$[ebp]
  00112	8b 12		 mov	 edx, DWORD PTR [edx]
  00114	8b 88 94 00 00
	00		 mov	 ecx, DWORD PTR [eax+148]
  0011a	8b 42 1c	 mov	 eax, DWORD PTR [edx+28]
  0011d	ff d0		 call	 eax

; 2512 : 
; 2513 : 	return true;

  0011f	b0 01		 mov	 al, 1

; 2514 : }

  00121	5f		 pop	 edi
  00122	5e		 pop	 esi
  00123	5b		 pop	 ebx
  00124	8b 4d fc	 mov	 ecx, DWORD PTR __$ArrayPad$[ebp]
  00127	33 cd		 xor	 ecx, ebp
  00129	e8 00 00 00 00	 call	 @__security_check_cookie@4
  0012e	8b e5		 mov	 esp, ebp
  00130	5d		 pop	 ebp
  00131	c2 04 00	 ret	 4
?SendEliminateNotify@CLockTimeMatch@@IAE_NPAUIServerUserItem@@@Z ENDP ; CLockTimeMatch::SendEliminateNotify
_TEXT	ENDS
; Function compile flags: /Odtp /ZI
; File g:\网狐\happygamewh\服务端\系统模块\服务器组件\比赛服务\locktimematch.cpp
;	COMDAT ?SendDeductFeeNotify@CLockTimeMatch@@IAE_NPAUIServerUserItem@@@Z
_TEXT	SEGMENT
_wDataSize$ = -172					; size = 2
_pszFeeType$1 = -168					; size = 8
_MatchFee$ = -160					; size = 151
_this$ = -8						; size = 4
__$ArrayPad$ = -4					; size = 4
_pIServerUserItem$ = 8					; size = 4
?SendDeductFeeNotify@CLockTimeMatch@@IAE_NPAUIServerUserItem@@@Z PROC ; CLockTimeMatch::SendDeductFeeNotify, COMDAT
; _this$ = ecx

; 2461 : {

  00000	55		 push	 ebp
  00001	8b ec		 mov	 ebp, esp
  00003	81 ec ec 00 00
	00		 sub	 esp, 236		; 000000ecH
  00009	a1 00 00 00 00	 mov	 eax, DWORD PTR ___security_cookie
  0000e	33 c5		 xor	 eax, ebp
  00010	89 45 fc	 mov	 DWORD PTR __$ArrayPad$[ebp], eax
  00013	53		 push	 ebx
  00014	56		 push	 esi
  00015	57		 push	 edi
  00016	89 4d f8	 mov	 DWORD PTR _this$[ebp], ecx

; 2462 : 	//构造结构
; 2463 : 	CMD_GR_Match_Fee MatchFee;
; 2464 : 
; 2465 : 	//设置变量
; 2466 : 	MatchFee.cbSignupMode=SIGNUP_MODE_SIGNUP_FEE;

  00019	c6 85 6c ff ff
	ff 01		 mov	 BYTE PTR _MatchFee$[ebp+12], 1

; 2467 : 	MatchFee.dwMatchID=m_pMatchOption->dwMatchID;

  00020	8b 45 f8	 mov	 eax, DWORD PTR _this$[ebp]
  00023	8b 48 74	 mov	 ecx, DWORD PTR [eax+116]
  00026	8b 11		 mov	 edx, DWORD PTR [ecx]
  00028	89 95 60 ff ff
	ff		 mov	 DWORD PTR _MatchFee$[ebp], edx

; 2468 : 	MatchFee.lMatchNO=m_pMatchOption->lMatchNo;

  0002e	8b 45 f8	 mov	 eax, DWORD PTR _this$[ebp]
  00031	8b 48 74	 mov	 ecx, DWORD PTR [eax+116]
  00034	8b 51 08	 mov	 edx, DWORD PTR [ecx+8]
  00037	89 95 64 ff ff
	ff		 mov	 DWORD PTR _MatchFee$[ebp+4], edx
  0003d	8b 41 0c	 mov	 eax, DWORD PTR [ecx+12]
  00040	89 85 68 ff ff
	ff		 mov	 DWORD PTR _MatchFee$[ebp+8], eax

; 2469 : 	MatchFee.lSignupFee=m_pMatchOption->lSignupFee;

  00046	8b 45 f8	 mov	 eax, DWORD PTR _this$[ebp]
  00049	8b 48 74	 mov	 ecx, DWORD PTR [eax+116]
  0004c	8b 51 38	 mov	 edx, DWORD PTR [ecx+56]
  0004f	89 95 6f ff ff
	ff		 mov	 DWORD PTR _MatchFee$[ebp+15], edx
  00055	8b 41 3c	 mov	 eax, DWORD PTR [ecx+60]
  00058	89 85 73 ff ff
	ff		 mov	 DWORD PTR _MatchFee$[ebp+19], eax

; 2470 : 	MatchFee.cbFeeType=m_pMatchOption->cbFeeType;

  0005e	8b 45 f8	 mov	 eax, DWORD PTR _this$[ebp]
  00061	8b 48 74	 mov	 ecx, DWORD PTR [eax+116]
  00064	8a 51 32	 mov	 dl, BYTE PTR [ecx+50]
  00067	88 95 6d ff ff
	ff		 mov	 BYTE PTR _MatchFee$[ebp+13], dl

; 2471 : 	MatchFee.cbDeductArea=m_pMatchOption->cbDeductArea;	

  0006d	8b 45 f8	 mov	 eax, DWORD PTR _this$[ebp]
  00070	8b 48 74	 mov	 ecx, DWORD PTR [eax+116]
  00073	8a 51 33	 mov	 dl, BYTE PTR [ecx+51]
  00076	88 95 6e ff ff
	ff		 mov	 BYTE PTR _MatchFee$[ebp+14], dl

; 2472 : 
; 2473 : 	ZeroMemory(MatchFee.szNotifyContent,sizeof(MatchFee.szNotifyContent));

  0007c	68 80 00 00 00	 push	 128			; 00000080H
  00081	6a 00		 push	 0
  00083	8d 85 77 ff ff
	ff		 lea	 eax, DWORD PTR _MatchFee$[ebp+23]
  00089	50		 push	 eax
  0008a	e8 00 00 00 00	 call	 _memset
  0008f	83 c4 0c	 add	 esp, 12			; 0000000cH

; 2474 : 
; 2475 : 	//构造提示			
; 2476 : 	if (m_pMatchOption->cbDeductArea==DEDUCT_AREA_SERVER && MatchFee.lSignupFee>0)

  00092	8b 45 f8	 mov	 eax, DWORD PTR _this$[ebp]
  00095	8b 48 74	 mov	 ecx, DWORD PTR [eax+116]
  00098	0f b6 51 33	 movzx	 edx, BYTE PTR [ecx+51]
  0009c	85 d2		 test	 edx, edx
  0009e	75 61		 jne	 SHORT $LN2@SendDeduct
  000a0	83 bd 73 ff ff
	ff 00		 cmp	 DWORD PTR _MatchFee$[ebp+19], 0
  000a7	7c 58		 jl	 SHORT $LN2@SendDeduct
  000a9	7f 09		 jg	 SHORT $LN4@SendDeduct
  000ab	83 bd 6f ff ff
	ff 00		 cmp	 DWORD PTR _MatchFee$[ebp+15], 0
  000b2	76 4d		 jbe	 SHORT $LN2@SendDeduct
$LN4@SendDeduct:

; 2477 : 	{
; 2478 : 		LPCTSTR pszFeeType[]={TEXT("游戏币"),TEXT("元宝")};

  000b4	c7 85 58 ff ff
	ff 00 00 00 00	 mov	 DWORD PTR _pszFeeType$1[ebp], OFFSET ??_C@_06EPCIHMAO@?S?N?O?$LH?$LB?R@
  000be	c7 85 5c ff ff
	ff 00 00 00 00	 mov	 DWORD PTR _pszFeeType$1[ebp+4], OFFSET ??_C@_04FLLPKHFC@?T?$KK?$LB?$KG@

; 2479 : 		_sntprintf_s(MatchFee.szNotifyContent,CountArray(MatchFee.szNotifyContent),TEXT("参赛将扣除报名费 %I64d %s，确认要参赛吗？"),m_pMatchOption->lSignupFee,pszFeeType[m_pMatchOption->cbFeeType-FEE_TYPE_GOLD]);

  000c8	8b 45 f8	 mov	 eax, DWORD PTR _this$[ebp]
  000cb	8b 48 74	 mov	 ecx, DWORD PTR [eax+116]
  000ce	0f b6 51 32	 movzx	 edx, BYTE PTR [ecx+50]
  000d2	8b 84 95 58 ff
	ff ff		 mov	 eax, DWORD PTR _pszFeeType$1[ebp+edx*4]
  000d9	50		 push	 eax
  000da	8b 4d f8	 mov	 ecx, DWORD PTR _this$[ebp]
  000dd	8b 51 74	 mov	 edx, DWORD PTR [ecx+116]
  000e0	8b 42 3c	 mov	 eax, DWORD PTR [edx+60]
  000e3	50		 push	 eax
  000e4	8b 4a 38	 mov	 ecx, DWORD PTR [edx+56]
  000e7	51		 push	 ecx
  000e8	68 00 00 00 00	 push	 OFFSET ??_C@_0CK@KBNEFBOJ@?$LC?N?H?$PM?$LN?$KL?$LP?$NL?$LD?$PN?$LB?$KI?C?$PL?$LH?Q?5?$CFI64d?5?$CFs?$KD?$KM?H?$LH?H?O@
  000ed	68 80 00 00 00	 push	 128			; 00000080H
  000f2	8d 95 77 ff ff
	ff		 lea	 edx, DWORD PTR _MatchFee$[ebp+23]
  000f8	52		 push	 edx
  000f9	e8 00 00 00 00	 call	 ??$_snprintf_s@$0IA@@@YAHAAY0IA@DIPBDZZ ; _snprintf_s<128>
  000fe	83 c4 18	 add	 esp, 24			; 00000018H
$LN2@SendDeduct:

; 2480 : 	}
; 2481 : 
; 2482 : 	//发送消息
; 2483 : 	WORD wDataSize=sizeof(MatchFee)-sizeof(MatchFee.szNotifyContent);

  00101	b8 17 00 00 00	 mov	 eax, 23			; 00000017H
  00106	66 89 85 54 ff
	ff ff		 mov	 WORD PTR _wDataSize$[ebp], ax

; 2484 : 	wDataSize+=CountStringBuffer(MatchFee.szNotifyContent);

  0010d	8d 85 77 ff ff
	ff		 lea	 eax, DWORD PTR _MatchFee$[ebp+23]
  00113	50		 push	 eax
  00114	ff 15 00 00 00
	00		 call	 DWORD PTR __imp__lstrlenA@4
  0011a	0f b7 8d 54 ff
	ff ff		 movzx	 ecx, WORD PTR _wDataSize$[ebp]
  00121	8d 54 01 01	 lea	 edx, DWORD PTR [ecx+eax+1]
  00125	66 89 95 54 ff
	ff ff		 mov	 WORD PTR _wDataSize$[ebp], dx

; 2485 : 	m_pIGameServiceFrame->SendData(pIServerUserItem,MDM_GR_MATCH,SUB_GR_MATCH_FEE,&MatchFee,wDataSize);

  0012c	0f b7 85 54 ff
	ff ff		 movzx	 eax, WORD PTR _wDataSize$[ebp]
  00133	50		 push	 eax
  00134	8d 8d 60 ff ff
	ff		 lea	 ecx, DWORD PTR _MatchFee$[ebp]
  0013a	51		 push	 ecx
  0013b	6a 03		 push	 3
  0013d	6a 0a		 push	 10			; 0000000aH
  0013f	8b 55 08	 mov	 edx, DWORD PTR _pIServerUserItem$[ebp]
  00142	52		 push	 edx
  00143	8b 45 f8	 mov	 eax, DWORD PTR _this$[ebp]
  00146	8b 88 94 00 00
	00		 mov	 ecx, DWORD PTR [eax+148]
  0014c	8b 55 f8	 mov	 edx, DWORD PTR _this$[ebp]
  0014f	8b 01		 mov	 eax, DWORD PTR [ecx]
  00151	8b 8a 94 00 00
	00		 mov	 ecx, DWORD PTR [edx+148]
  00157	8b 50 1c	 mov	 edx, DWORD PTR [eax+28]
  0015a	ff d2		 call	 edx

; 2486 : 
; 2487 : 	return true;

  0015c	b0 01		 mov	 al, 1

; 2488 : }

  0015e	5f		 pop	 edi
  0015f	5e		 pop	 esi
  00160	5b		 pop	 ebx
  00161	8b 4d fc	 mov	 ecx, DWORD PTR __$ArrayPad$[ebp]
  00164	33 cd		 xor	 ecx, ebp
  00166	e8 00 00 00 00	 call	 @__security_check_cookie@4
  0016b	8b e5		 mov	 esp, ebp
  0016d	5d		 pop	 ebp
  0016e	c2 04 00	 ret	 4
?SendDeductFeeNotify@CLockTimeMatch@@IAE_NPAUIServerUserItem@@@Z ENDP ; CLockTimeMatch::SendDeductFeeNotify
_TEXT	ENDS
; Function compile flags: /Odtp /ZI
; File g:\网狐\happygamewh\服务端\系统模块\服务器组件\比赛服务\locktimematch.cpp
;	COMDAT ?SendSafeCardNotify@CLockTimeMatch@@IAE_NPAUIServerUserItem@@@Z
_TEXT	SEGMENT
_wDataSize$ = -160					; size = 2
_MatchSafeCard$ = -156					; size = 148
_this$ = -8						; size = 4
__$ArrayPad$ = -4					; size = 4
_pIServerUserItem$ = 8					; size = 4
?SendSafeCardNotify@CLockTimeMatch@@IAE_NPAUIServerUserItem@@@Z PROC ; CLockTimeMatch::SendSafeCardNotify, COMDAT
; _this$ = ecx

; 2439 : {

  00000	55		 push	 ebp
  00001	8b ec		 mov	 ebp, esp
  00003	81 ec e0 00 00
	00		 sub	 esp, 224		; 000000e0H
  00009	a1 00 00 00 00	 mov	 eax, DWORD PTR ___security_cookie
  0000e	33 c5		 xor	 eax, ebp
  00010	89 45 fc	 mov	 DWORD PTR __$ArrayPad$[ebp], eax
  00013	53		 push	 ebx
  00014	56		 push	 esi
  00015	57		 push	 edi
  00016	89 4d f8	 mov	 DWORD PTR _this$[ebp], ecx

; 2440 : 	//构造结构
; 2441 : 	CMD_GR_Match_SafeCard MatchSafeCard;
; 2442 : 
; 2443 : 	//设置变量
; 2444 : 	MatchSafeCard.dwMatchID=m_pMatchOption->dwMatchID;

  00019	8b 45 f8	 mov	 eax, DWORD PTR _this$[ebp]
  0001c	8b 48 74	 mov	 ecx, DWORD PTR [eax+116]
  0001f	8b 11		 mov	 edx, DWORD PTR [ecx]
  00021	89 95 64 ff ff
	ff		 mov	 DWORD PTR _MatchSafeCard$[ebp], edx

; 2445 : 	MatchSafeCard.lMatchNO=m_pMatchOption->lMatchNo;

  00027	8b 45 f8	 mov	 eax, DWORD PTR _this$[ebp]
  0002a	8b 48 74	 mov	 ecx, DWORD PTR [eax+116]
  0002d	8b 51 08	 mov	 edx, DWORD PTR [ecx+8]
  00030	89 95 68 ff ff
	ff		 mov	 DWORD PTR _MatchSafeCard$[ebp+4], edx
  00036	8b 41 0c	 mov	 eax, DWORD PTR [ecx+12]
  00039	89 85 6c ff ff
	ff		 mov	 DWORD PTR _MatchSafeCard$[ebp+8], eax

; 2446 : 	MatchSafeCard.lSafeCardFee=m_pLockTimeMatch->lSafeCardFee;

  0003f	8b 45 f8	 mov	 eax, DWORD PTR _this$[ebp]
  00042	8b 48 78	 mov	 ecx, DWORD PTR [eax+120]
  00045	8b 51 68	 mov	 edx, DWORD PTR [ecx+104]
  00048	89 95 70 ff ff
	ff		 mov	 DWORD PTR _MatchSafeCard$[ebp+12], edx
  0004e	8b 41 6c	 mov	 eax, DWORD PTR [ecx+108]
  00051	89 85 74 ff ff
	ff		 mov	 DWORD PTR _MatchSafeCard$[ebp+16], eax

; 2447 : 
; 2448 : 	//构造消息
; 2449 : 	_sntprintf_s(MatchSafeCard.szNotifyContent,CountArray(MatchSafeCard.szNotifyContent),TEXT("恭喜您报名成功！本场比赛出售保险卡, 被淘汰可免费复活一次，售价 %I64d 金币，您是否要购买？"),MatchSafeCard.lSafeCardFee);

  00057	8b 85 74 ff ff
	ff		 mov	 eax, DWORD PTR _MatchSafeCard$[ebp+16]
  0005d	50		 push	 eax
  0005e	8b 8d 70 ff ff
	ff		 mov	 ecx, DWORD PTR _MatchSafeCard$[ebp+12]
  00064	51		 push	 ecx
  00065	68 00 00 00 00	 push	 OFFSET ??_C@_0FK@LABKGBIM@?$LJ?$KH?O?$LC?D?z?$LB?$KI?C?$PL?$LD?I?$LJ?$KG?$KD?$KB?$LB?$LO?$LD?$KB?$LB?H?H?$PM?$LD?v?J?$NL?$LB?$KD?O@
  0006a	68 80 00 00 00	 push	 128			; 00000080H
  0006f	8d 95 78 ff ff
	ff		 lea	 edx, DWORD PTR _MatchSafeCard$[ebp+20]
  00075	52		 push	 edx
  00076	e8 00 00 00 00	 call	 ??$_snprintf_s@$0IA@@@YAHAAY0IA@DIPBDZZ ; _snprintf_s<128>
  0007b	83 c4 14	 add	 esp, 20			; 00000014H

; 2450 : 
; 2451 : 	//发送数据
; 2452 : 	WORD wDataSize=sizeof(MatchSafeCard)-sizeof(MatchSafeCard.szNotifyContent);

  0007e	b8 14 00 00 00	 mov	 eax, 20			; 00000014H
  00083	66 89 85 60 ff
	ff ff		 mov	 WORD PTR _wDataSize$[ebp], ax

; 2453 : 	wDataSize+=CountStringBuffer(MatchSafeCard.szNotifyContent);

  0008a	8d 85 78 ff ff
	ff		 lea	 eax, DWORD PTR _MatchSafeCard$[ebp+20]
  00090	50		 push	 eax
  00091	ff 15 00 00 00
	00		 call	 DWORD PTR __imp__lstrlenA@4
  00097	0f b7 8d 60 ff
	ff ff		 movzx	 ecx, WORD PTR _wDataSize$[ebp]
  0009e	8d 54 01 01	 lea	 edx, DWORD PTR [ecx+eax+1]
  000a2	66 89 95 60 ff
	ff ff		 mov	 WORD PTR _wDataSize$[ebp], dx

; 2454 : 	m_pIGameServiceFrame->SendData(pIServerUserItem,MDM_GR_MATCH,SUB_GR_MATCH_SAFECARD,&MatchSafeCard,wDataSize);

  000a9	0f b7 85 60 ff
	ff ff		 movzx	 eax, WORD PTR _wDataSize$[ebp]
  000b0	50		 push	 eax
  000b1	8d 8d 64 ff ff
	ff		 lea	 ecx, DWORD PTR _MatchSafeCard$[ebp]
  000b7	51		 push	 ecx
  000b8	6a 06		 push	 6
  000ba	6a 0a		 push	 10			; 0000000aH
  000bc	8b 55 08	 mov	 edx, DWORD PTR _pIServerUserItem$[ebp]
  000bf	52		 push	 edx
  000c0	8b 45 f8	 mov	 eax, DWORD PTR _this$[ebp]
  000c3	8b 88 94 00 00
	00		 mov	 ecx, DWORD PTR [eax+148]
  000c9	8b 55 f8	 mov	 edx, DWORD PTR _this$[ebp]
  000cc	8b 01		 mov	 eax, DWORD PTR [ecx]
  000ce	8b 8a 94 00 00
	00		 mov	 ecx, DWORD PTR [edx+148]
  000d4	8b 50 1c	 mov	 edx, DWORD PTR [eax+28]
  000d7	ff d2		 call	 edx

; 2455 : 
; 2456 : 	return true;

  000d9	b0 01		 mov	 al, 1

; 2457 : }

  000db	5f		 pop	 edi
  000dc	5e		 pop	 esi
  000dd	5b		 pop	 ebx
  000de	8b 4d fc	 mov	 ecx, DWORD PTR __$ArrayPad$[ebp]
  000e1	33 cd		 xor	 ecx, ebp
  000e3	e8 00 00 00 00	 call	 @__security_check_cookie@4
  000e8	8b e5		 mov	 esp, ebp
  000ea	5d		 pop	 ebp
  000eb	c2 04 00	 ret	 4
?SendSafeCardNotify@CLockTimeMatch@@IAE_NPAUIServerUserItem@@@Z ENDP ; CLockTimeMatch::SendSafeCardNotify
_TEXT	ENDS
; Function compile flags: /Odtp /ZI
; File g:\网狐\happygamewh\服务端\系统模块\服务器组件\比赛服务\locktimematch.cpp
;	COMDAT ?SendMatchUserInitScore@CLockTimeMatch@@IAE_NPAUIServerUserItem@@@Z
_TEXT	SEGMENT
_pUserScore$ = -8					; size = 4
_this$ = -4						; size = 4
_pIServerUserItem$ = 8					; size = 4
?SendMatchUserInitScore@CLockTimeMatch@@IAE_NPAUIServerUserItem@@@Z PROC ; CLockTimeMatch::SendMatchUserInitScore, COMDAT
; _this$ = ecx

; 2383 : {

  00000	55		 push	 ebp
  00001	8b ec		 mov	 ebp, esp
  00003	83 ec 48	 sub	 esp, 72			; 00000048H
  00006	53		 push	 ebx
  00007	56		 push	 esi
  00008	57		 push	 edi
  00009	89 4d fc	 mov	 DWORD PTR _this$[ebp], ecx

; 2384 : 	//获取成绩
; 2385 : 	tagUserInfo *pUserScore=pIServerUserItem->GetUserInfo();

  0000c	8b 45 08	 mov	 eax, DWORD PTR _pIServerUserItem$[ebp]
  0000f	8b 10		 mov	 edx, DWORD PTR [eax]
  00011	8b 4d 08	 mov	 ecx, DWORD PTR _pIServerUserItem$[ebp]
  00014	8b 42 20	 mov	 eax, DWORD PTR [edx+32]
  00017	ff d0		 call	 eax
  00019	89 45 f8	 mov	 DWORD PTR _pUserScore$[ebp], eax

; 2386 : 
; 2387 : 	//设置成绩
; 2388 : 	pUserScore->dwWinCount=0L;

  0001c	8b 45 f8	 mov	 eax, DWORD PTR _pUserScore$[ebp]
  0001f	c7 80 d8 00 00
	00 00 00 00 00	 mov	 DWORD PTR [eax+216], 0

; 2389 : 	pUserScore->dwLostCount=0L;

  00029	8b 45 f8	 mov	 eax, DWORD PTR _pUserScore$[ebp]
  0002c	c7 80 dc 00 00
	00 00 00 00 00	 mov	 DWORD PTR [eax+220], 0

; 2390 : 	pUserScore->dwFleeCount=0L;

  00036	8b 45 f8	 mov	 eax, DWORD PTR _pUserScore$[ebp]
  00039	c7 80 e4 00 00
	00 00 00 00 00	 mov	 DWORD PTR [eax+228], 0

; 2391 : 	pUserScore->dwDrawCount=0L;

  00043	8b 45 f8	 mov	 eax, DWORD PTR _pUserScore$[ebp]
  00046	c7 80 e0 00 00
	00 00 00 00 00	 mov	 DWORD PTR [eax+224], 0

; 2392 : 	pUserScore->lIntegralCount=0L;

  00050	8b 45 f8	 mov	 eax, DWORD PTR _pUserScore$[ebp]
  00053	c7 80 f4 00 00
	00 00 00 00 00	 mov	 DWORD PTR [eax+244], 0
  0005d	c7 80 f8 00 00
	00 00 00 00 00	 mov	 DWORD PTR [eax+248], 0

; 2393 : 	pUserScore->bConsumptionType.lScore = (LONGLONG)m_pLockTimeMatch->lMatchInitScore;

  00067	8b 45 fc	 mov	 eax, DWORD PTR _this$[ebp]
  0006a	8b 48 78	 mov	 ecx, DWORD PTR [eax+120]
  0006d	8b 55 f8	 mov	 edx, DWORD PTR _pUserScore$[ebp]
  00070	8b 41 49	 mov	 eax, DWORD PTR [ecx+73]
  00073	89 82 a8 00 00
	00		 mov	 DWORD PTR [edx+168], eax
  00079	8b 49 4d	 mov	 ecx, DWORD PTR [ecx+77]
  0007c	89 8a ac 00 00
	00		 mov	 DWORD PTR [edx+172], ecx

; 2394 : 
; 2395 : 	//发送分数
; 2396 : 	return SendMatchUserScore(pIServerUserItem);

  00082	8b 45 08	 mov	 eax, DWORD PTR _pIServerUserItem$[ebp]
  00085	50		 push	 eax
  00086	8b 4d fc	 mov	 ecx, DWORD PTR _this$[ebp]
  00089	e8 00 00 00 00	 call	 ?SendMatchUserScore@CLockTimeMatch@@IAE_NPAUIServerUserItem@@@Z ; CLockTimeMatch::SendMatchUserScore

; 2397 : }

  0008e	5f		 pop	 edi
  0008f	5e		 pop	 esi
  00090	5b		 pop	 ebx
  00091	8b e5		 mov	 esp, ebp
  00093	5d		 pop	 ebp
  00094	c2 04 00	 ret	 4
?SendMatchUserInitScore@CLockTimeMatch@@IAE_NPAUIServerUserItem@@@Z ENDP ; CLockTimeMatch::SendMatchUserInitScore
_TEXT	ENDS
; Function compile flags: /Odtp /ZI
; File g:\网狐\happygamewh\服务端\系统模块\服务器组件\比赛服务\locktimematch.cpp
;	COMDAT ?SendMatchUserScore@CLockTimeMatch@@IAE_NPAUIServerUserItem@@@Z
_TEXT	SEGMENT
_pUserInfo$ = -116					; size = 4
_UserScore$ = -112					; size = 104
_this$ = -8						; size = 4
__$ArrayPad$ = -4					; size = 4
_pIServerUserItem$ = 8					; size = 4
?SendMatchUserScore@CLockTimeMatch@@IAE_NPAUIServerUserItem@@@Z PROC ; CLockTimeMatch::SendMatchUserScore, COMDAT
; _this$ = ecx

; 2356 : {

  00000	55		 push	 ebp
  00001	8b ec		 mov	 ebp, esp
  00003	81 ec b4 00 00
	00		 sub	 esp, 180		; 000000b4H
  00009	a1 00 00 00 00	 mov	 eax, DWORD PTR ___security_cookie
  0000e	33 c5		 xor	 eax, ebp
  00010	89 45 fc	 mov	 DWORD PTR __$ArrayPad$[ebp], eax
  00013	53		 push	 ebx
  00014	56		 push	 esi
  00015	57		 push	 edi
  00016	89 4d f8	 mov	 DWORD PTR _this$[ebp], ecx

; 2357 : 	//发送数据
; 2358 : 	CMD_GR_UserScore UserScore;
; 2359 : 	ZeroMemory(&UserScore,sizeof(UserScore));

  00019	6a 68		 push	 104			; 00000068H
  0001b	6a 00		 push	 0
  0001d	8d 45 90	 lea	 eax, DWORD PTR _UserScore$[ebp]
  00020	50		 push	 eax
  00021	e8 00 00 00 00	 call	 _memset
  00026	83 c4 0c	 add	 esp, 12			; 0000000cH

; 2360 : 
; 2361 : 	tagUserInfo * pUserInfo=pIServerUserItem->GetUserInfo();

  00029	8b 45 08	 mov	 eax, DWORD PTR _pIServerUserItem$[ebp]
  0002c	8b 10		 mov	 edx, DWORD PTR [eax]
  0002e	8b 4d 08	 mov	 ecx, DWORD PTR _pIServerUserItem$[ebp]
  00031	8b 42 20	 mov	 eax, DWORD PTR [edx+32]
  00034	ff d0		 call	 eax
  00036	89 45 8c	 mov	 DWORD PTR _pUserInfo$[ebp], eax

; 2362 : 
; 2363 : 	//构造数据
; 2364 : 	UserScore.dwUserID=pUserInfo->dwUserID;

  00039	8b 45 8c	 mov	 eax, DWORD PTR _pUserInfo$[ebp]
  0003c	8b 08		 mov	 ecx, DWORD PTR [eax]
  0003e	89 4d 90	 mov	 DWORD PTR _UserScore$[ebp], ecx

; 2365 : 	UserScore.UserScore.dwWinCount=pUserInfo->dwWinCount;

  00041	8b 45 8c	 mov	 eax, DWORD PTR _pUserInfo$[ebp]
  00044	8b 88 d8 00 00
	00		 mov	 ecx, DWORD PTR [eax+216]
  0004a	89 4d d4	 mov	 DWORD PTR _UserScore$[ebp+68], ecx

; 2366 : 	UserScore.UserScore.dwLostCount=pUserInfo->dwLostCount;

  0004d	8b 45 8c	 mov	 eax, DWORD PTR _pUserInfo$[ebp]
  00050	8b 88 dc 00 00
	00		 mov	 ecx, DWORD PTR [eax+220]
  00056	89 4d d8	 mov	 DWORD PTR _UserScore$[ebp+72], ecx

; 2367 : 	UserScore.UserScore.dwDrawCount=pUserInfo->dwDrawCount;

  00059	8b 45 8c	 mov	 eax, DWORD PTR _pUserInfo$[ebp]
  0005c	8b 88 e0 00 00
	00		 mov	 ecx, DWORD PTR [eax+224]
  00062	89 4d dc	 mov	 DWORD PTR _UserScore$[ebp+76], ecx

; 2368 : 	UserScore.UserScore.dwFleeCount=pUserInfo->dwFleeCount;	

  00065	8b 45 8c	 mov	 eax, DWORD PTR _pUserInfo$[ebp]
  00068	8b 88 e4 00 00
	00		 mov	 ecx, DWORD PTR [eax+228]
  0006e	89 4d e0	 mov	 DWORD PTR _UserScore$[ebp+80], ecx

; 2369 : 	UserScore.UserScore.dwExperience=pUserInfo->dwExperience;

  00071	8b 45 8c	 mov	 eax, DWORD PTR _pUserInfo$[ebp]
  00074	8b 88 ec 00 00
	00		 mov	 ecx, DWORD PTR [eax+236]
  0007a	89 4d f0	 mov	 DWORD PTR _UserScore$[ebp+96], ecx

; 2370 : 	UserScore.UserScore.lLoveLiness=pUserInfo->lLoveLiness;

  0007d	8b 45 8c	 mov	 eax, DWORD PTR _pUserInfo$[ebp]
  00080	8b 88 f0 00 00
	00		 mov	 ecx, DWORD PTR [eax+240]
  00086	89 4d f4	 mov	 DWORD PTR _UserScore$[ebp+100], ecx

; 2371 : 	UserScore.UserScore.lIntegralCount=pUserInfo->lIntegralCount;

  00089	8b 45 8c	 mov	 eax, DWORD PTR _pUserInfo$[ebp]
  0008c	8b 88 f4 00 00
	00		 mov	 ecx, DWORD PTR [eax+244]
  00092	89 4d e4	 mov	 DWORD PTR _UserScore$[ebp+84], ecx
  00095	8b 90 f8 00 00
	00		 mov	 edx, DWORD PTR [eax+248]
  0009b	89 55 e8	 mov	 DWORD PTR _UserScore$[ebp+88], edx

; 2372 : 
; 2373 : 	//构造积分
; 2374 : 	UserScore.UserScore.bConsumptionType.lBeans = pUserInfo->bConsumptionType.lBeans;

  0009e	8b 45 8c	 mov	 eax, DWORD PTR _pUserInfo$[ebp]
  000a1	8b 88 b8 00 00
	00		 mov	 ecx, DWORD PTR [eax+184]
  000a7	89 4d b4	 mov	 DWORD PTR _UserScore$[ebp+36], ecx
  000aa	8b 90 bc 00 00
	00		 mov	 edx, DWORD PTR [eax+188]
  000b0	89 55 b8	 mov	 DWORD PTR _UserScore$[ebp+40], edx

; 2375 : 	UserScore.UserScore.bConsumptionType.lIngot = pUserInfo->bConsumptionType.lIngot;

  000b3	8b 45 8c	 mov	 eax, DWORD PTR _pUserInfo$[ebp]
  000b6	8b 88 b0 00 00
	00		 mov	 ecx, DWORD PTR [eax+176]
  000bc	89 4d ac	 mov	 DWORD PTR _UserScore$[ebp+28], ecx
  000bf	8b 90 b4 00 00
	00		 mov	 edx, DWORD PTR [eax+180]
  000c5	89 55 b0	 mov	 DWORD PTR _UserScore$[ebp+32], edx

; 2376 : 	UserScore.UserScore.bConsumptionType.lScore = pUserInfo->bConsumptionType.lScore;

  000c8	8b 45 8c	 mov	 eax, DWORD PTR _pUserInfo$[ebp]
  000cb	8b 88 a8 00 00
	00		 mov	 ecx, DWORD PTR [eax+168]
  000d1	89 4d a4	 mov	 DWORD PTR _UserScore$[ebp+20], ecx
  000d4	8b 90 ac 00 00
	00		 mov	 edx, DWORD PTR [eax+172]
  000da	89 55 a8	 mov	 DWORD PTR _UserScore$[ebp+24], edx

; 2377 : 
; 2378 : 	return m_pIGameServiceFrame->SendData(BG_ALL_CLIENT,MDM_GR_USER,SUB_GR_USER_SCORE,&UserScore,sizeof(UserScore));

  000dd	6a 68		 push	 104			; 00000068H
  000df	8d 45 90	 lea	 eax, DWORD PTR _UserScore$[ebp]
  000e2	50		 push	 eax
  000e3	6a 65		 push	 101			; 00000065H
  000e5	6a 03		 push	 3
  000e7	68 ff 00 00 00	 push	 255			; 000000ffH
  000ec	8b 4d f8	 mov	 ecx, DWORD PTR _this$[ebp]
  000ef	8b 91 94 00 00
	00		 mov	 edx, DWORD PTR [ecx+148]
  000f5	8b 45 f8	 mov	 eax, DWORD PTR _this$[ebp]
  000f8	8b 12		 mov	 edx, DWORD PTR [edx]
  000fa	8b 88 94 00 00
	00		 mov	 ecx, DWORD PTR [eax+148]
  00100	8b 42 24	 mov	 eax, DWORD PTR [edx+36]
  00103	ff d0		 call	 eax

; 2379 : }

  00105	5f		 pop	 edi
  00106	5e		 pop	 esi
  00107	5b		 pop	 ebx
  00108	8b 4d fc	 mov	 ecx, DWORD PTR __$ArrayPad$[ebp]
  0010b	33 cd		 xor	 ecx, ebp
  0010d	e8 00 00 00 00	 call	 @__security_check_cookie@4
  00112	8b e5		 mov	 esp, ebp
  00114	5d		 pop	 ebp
  00115	c2 04 00	 ret	 4
?SendMatchUserScore@CLockTimeMatch@@IAE_NPAUIServerUserItem@@@Z ENDP ; CLockTimeMatch::SendMatchUserScore
_TEXT	ENDS
; Function compile flags: /Odtp /ZI
; File g:\网狐\happygamewh\服务端\系统模块\服务器组件\比赛服务\locktimematch.cpp
;	COMDAT ?InsertDistribute@CLockTimeMatch@@IAE_NPAUIServerUserItem@@@Z
_TEXT	SEGMENT
tv155 = -97						; size = 1
_MatchNum$1 = -32					; size = 8
_DistributeInfo$ = -24					; size = 20
_this$ = -4						; size = 4
_pIServerUserItem$ = 8					; size = 4
?InsertDistribute@CLockTimeMatch@@IAE_NPAUIServerUserItem@@@Z PROC ; CLockTimeMatch::InsertDistribute, COMDAT
; _this$ = ecx

; 2224 : {

  00000	55		 push	 ebp
  00001	8b ec		 mov	 ebp, esp
  00003	83 ec 64	 sub	 esp, 100		; 00000064H
  00006	53		 push	 ebx
  00007	56		 push	 esi
