; Listing generated by Microsoft (R) Optimizing Compiler Version 19.16.27032.1 

	TITLE	G:\网狐\HappyGameWH\服务端\系统模块\服务器组件\比赛服务\MatchServiceManager.cpp
	.686P
	.XMM
	include listing.inc
	.model	flat

INCLUDELIB MSVCRTD
INCLUDELIB OLDNAMES

CONST	SEGMENT
?IID_IUnknownEx@@3U_GUID@@B DD 05feec21eH		; IID_IUnknownEx
	DW	0dbf3H
	DW	046f0H
	DB	09fH
	DB	057H
	DB	0d1H
	DB	0cdH
	DB	071H
	DB	01cH
	DB	046H
	DB	0deH
?IID_IMatchServiceManager@@3U_GUID@@B DD 07d381e8aH	; IID_IMatchServiceManager
	DW	08c10H
	DW	04443H
	DB	0b5H
	DB	0adH
	DB	075H
	DB	04bH
	DB	0e5H
	DB	050H
	DB	0c5H
	DB	053H
CONST	ENDS
PUBLIC	?__empty_global_delete@@YAXPAX@Z		; __empty_global_delete
PUBLIC	?__empty_global_delete@@YAXPAXI@Z		; __empty_global_delete
PUBLIC	_IsEqualGUID
PUBLIC	_==
PUBLIC	?AfxAssertFailedLine@@YGHPBDH@Z			; AfxAssertFailedLine
PUBLIC	??0IUnknownEx@@QAE@XZ				; IUnknownEx::IUnknownEx
PUBLIC	??0IUnknownEx@@QAE@ABU0@@Z			; IUnknownEx::IUnknownEx
PUBLIC	??4IUnknownEx@@QAEAAU0@ABU0@@Z			; IUnknownEx::operator=
PUBLIC	?GetProductVer@@YAEK@Z				; GetProductVer
PUBLIC	?GetMainVer@@YAEK@Z				; GetMainVer
PUBLIC	?GetSubVer@@YAEK@Z				; GetSubVer
PUBLIC	?GetBuildVer@@YAEK@Z				; GetBuildVer
PUBLIC	?InterfaceVersionCompare@@YA_NKK@Z		; InterfaceVersionCompare
PUBLIC	??0IMatchServiceManager@@QAE@XZ			; IMatchServiceManager::IMatchServiceManager
PUBLIC	??0IMatchServiceManager@@QAE@ABU0@@Z		; IMatchServiceManager::IMatchServiceManager
PUBLIC	??4IMatchServiceManager@@QAEAAU0@ABU0@@Z	; IMatchServiceManager::operator=
PUBLIC	??0CMatchServiceManager@@QAE@XZ			; CMatchServiceManager::CMatchServiceManager
PUBLIC	??1CMatchServiceManager@@UAE@XZ			; CMatchServiceManager::~CMatchServiceManager
PUBLIC	?Release@CMatchServiceManager@@UAEXXZ		; CMatchServiceManager::Release
PUBLIC	?QueryInterface@CMatchServiceManager@@UAEPAXABU_GUID@@K@Z ; CMatchServiceManager::QueryInterface
PUBLIC	?StopService@CMatchServiceManager@@UAE_NXZ	; CMatchServiceManager::StopService
PUBLIC	?StartService@CMatchServiceManager@@UAE_NXZ	; CMatchServiceManager::StartService
PUBLIC	?CreateGameMatch@CMatchServiceManager@@UAE_NE@Z	; CMatchServiceManager::CreateGameMatch
PUBLIC	?BindTableFrame@CMatchServiceManager@@UAE_NPAUITableFrame@@G@Z ; CMatchServiceManager::BindTableFrame
PUBLIC	?InitMatchInterface@CMatchServiceManager@@UAE_NAAUtagMatchManagerParameter@@@Z ; CMatchServiceManager::InitMatchInterface
PUBLIC	?OnEventTimer@CMatchServiceManager@@UAE_NKI@Z	; CMatchServiceManager::OnEventTimer
PUBLIC	?OnEventDataBase@CMatchServiceManager@@UAE_NGPAUIServerUserItem@@PAXGK@Z ; CMatchServiceManager::OnEventDataBase
PUBLIC	?OnEventSocketMatch@CMatchServiceManager@@UAE_NGPAXGPAUIServerUserItem@@K@Z ; CMatchServiceManager::OnEventSocketMatch
PUBLIC	?OnEventUserLogon@CMatchServiceManager@@UAE_NPAUIServerUserItem@@@Z ; CMatchServiceManager::OnEventUserLogon
PUBLIC	?OnEventUserLogout@CMatchServiceManager@@UAE_NPAUIServerUserItem@@@Z ; CMatchServiceManager::OnEventUserLogout
PUBLIC	?OnEventUserLogonFinish@CMatchServiceManager@@UAE_NPAUIServerUserItem@@@Z ; CMatchServiceManager::OnEventUserLogonFinish
PUBLIC	?OnEventEnterMatch@CMatchServiceManager@@UAE_NKPAXK_N@Z ; CMatchServiceManager::OnEventEnterMatch
PUBLIC	?OnEventUserJoinMatch@CMatchServiceManager@@UAE_NPAUIServerUserItem@@EK@Z ; CMatchServiceManager::OnEventUserJoinMatch
PUBLIC	?OnEventUserQuitMatch@CMatchServiceManager@@UAE_NPAUIServerUserItem@@EPAGK@Z ; CMatchServiceManager::OnEventUserQuitMatch
PUBLIC	?GetServerUserItemSink@CMatchServiceManager@@UAEPAUIUnknownEx@@XZ ; CMatchServiceManager::GetServerUserItemSink
PUBLIC	??0CMatchServiceManager@@QAE@ABV0@@Z		; CMatchServiceManager::CMatchServiceManager
PUBLIC	??4CMatchServiceManager@@QAEAAV0@ABV0@@Z	; CMatchServiceManager::operator=
PUBLIC	??_GCMatchServiceManager@@UAEPAXI@Z		; CMatchServiceManager::`scalar deleting destructor'
PUBLIC	??_ECMatchServiceManager@@UAEPAXI@Z		; CMatchServiceManager::`vector deleting destructor'
PUBLIC	_CreateMatchServiceManager
PUBLIC	??_7IUnknownEx@@6B@				; IUnknownEx::`vftable'
PUBLIC	??_7IMatchServiceManager@@6B@			; IMatchServiceManager::`vftable'
PUBLIC	??_7CMatchServiceManager@@6B@			; CMatchServiceManager::`vftable'
PUBLIC	?__LINE__Var@?0???1CMatchServiceManager@@UAE@XZ@4JA ; `CMatchServiceManager::~CMatchServiceManager'::`1'::__LINE__Var
PUBLIC	??_C@_0FA@DODPGKMC@g?3?2?M?x?$LK?$PM?2happygamewh?2?$LH?$PO?N?q?$LG?K?2?O?$LF?M?$LD@ ; `string'
PUBLIC	?__LINE__Var@?0??StopService@CMatchServiceManager@@UAE_NXZ@4JA ; `CMatchServiceManager::StopService'::`1'::__LINE__Var
PUBLIC	?__LINE__Var@?0??StartService@CMatchServiceManager@@UAE_NXZ@4JA ; `CMatchServiceManager::StartService'::`1'::__LINE__Var
PUBLIC	?__LINE__Var@?0??CreateGameMatch@CMatchServiceManager@@UAE_NE@Z@4JA ; `CMatchServiceManager::CreateGameMatch'::`1'::__LINE__Var
PUBLIC	__TI2PAD
PUBLIC	__CTA2PAD
PUBLIC	??_R0PAD@8					; char * `RTTI Type Descriptor'
PUBLIC	__CT??_R0PAD@84
PUBLIC	??_R0PAX@8					; void * `RTTI Type Descriptor'
PUBLIC	__CT??_R0PAX@84
PUBLIC	??_C@_0BB@KOOONENB@?$LG?$KI?J?$LB?H?$PM?$LE?$LE?$LN?$KI?J?$KH?$LA?$NM?$KD?$KB@ ; `string'
PUBLIC	??_C@_0BB@NNMHOGNO@?$LM?$LE?J?$LB?H?$PM?$LE?$LE?$LN?$KI?J?$KH?$LA?$NM?$KD?$KB@ ; `string'
PUBLIC	?__LINE__Var@?0??BindTableFrame@CMatchServiceManager@@UAE_NPAUITableFrame@@G@Z@4JA ; `CMatchServiceManager::BindTableFrame'::`1'::__LINE__Var
PUBLIC	?__LINE__Var@?0??InitMatchInterface@CMatchServiceManager@@UAE_NAAUtagMatchManagerParameter@@@Z@4JA ; `CMatchServiceManager::InitMatchInterface'::`1'::__LINE__Var
PUBLIC	?__LINE__Var@?0??OnEventTimer@CMatchServiceManager@@UAE_NKI@Z@4JA ; `CMatchServiceManager::OnEventTimer'::`1'::__LINE__Var
PUBLIC	?__LINE__Var@?0??OnEventDataBase@CMatchServiceManager@@UAE_NGPAUIServerUserItem@@PAXGK@Z@4JA ; `CMatchServiceManager::OnEventDataBase'::`1'::__LINE__Var
PUBLIC	?__LINE__Var@?0??OnEventSocketMatch@CMatchServiceManager@@UAE_NGPAXGPAUIServerUserItem@@K@Z@4JA ; `CMatchServiceManager::OnEventSocketMatch'::`1'::__LINE__Var
PUBLIC	?__LINE__Var@?0??OnEventUserLogon@CMatchServiceManager@@UAE_NPAUIServerUserItem@@@Z@4JA ; `CMatchServiceManager::OnEventUserLogon'::`1'::__LINE__Var
PUBLIC	?__LINE__Var@?0??OnEventUserLogout@CMatchServiceManager@@UAE_NPAUIServerUserItem@@@Z@4JA ; `CMatchServiceManager::OnEventUserLogout'::`1'::__LINE__Var
PUBLIC	?__LINE__Var@?0??OnEventUserLogonFinish@CMatchServiceManager@@UAE_NPAUIServerUserItem@@@Z@4JA ; `CMatchServiceManager::OnEventUserLogonFinish'::`1'::__LINE__Var
PUBLIC	?__LINE__Var@?0??OnEventEnterMatch@CMatchServiceManager@@UAE_NKPAXK_N@Z@4JA ; `CMatchServiceManager::OnEventEnterMatch'::`1'::__LINE__Var
PUBLIC	?__LINE__Var@?0??OnEventUserJoinMatch@CMatchServiceManager@@UAE_NPAUIServerUserItem@@EK@Z@4JA ; `CMatchServiceManager::OnEventUserJoinMatch'::`1'::__LINE__Var
PUBLIC	?__LINE__Var@?0??OnEventUserQuitMatch@CMatchServiceManager@@UAE_NPAUIServerUserItem@@EPAGK@Z@4JA ; `CMatchServiceManager::OnEventUserQuitMatch'::`1'::__LINE__Var
PUBLIC	?__LINE__Var@?0??GetServerUserItemSink@CMatchServiceManager@@UAEPAUIUnknownEx@@XZ@4JA ; `CMatchServiceManager::GetServerUserItemSink'::`1'::__LINE__Var
PUBLIC	??_C@_08HBOFLKLL@?$LE?$LE?$LN?$KI?J?$KH?$LA?$NM@ ; `string'
PUBLIC	??_C@_0N@DLOPLLLM@?$LN?S?$LP?Z?$LC?i?Q?$KP?J?$KH?$LA?$NM@ ; `string'
PUBLIC	??_R4IUnknownEx@@6B@				; IUnknownEx::`RTTI Complete Object Locator'
PUBLIC	??_R0?AUIUnknownEx@@@8				; IUnknownEx `RTTI Type Descriptor'
PUBLIC	??_R3IUnknownEx@@8				; IUnknownEx::`RTTI Class Hierarchy Descriptor'
PUBLIC	??_R2IUnknownEx@@8				; IUnknownEx::`RTTI Base Class Array'
PUBLIC	??_R1A@?0A@EA@IUnknownEx@@8			; IUnknownEx::`RTTI Base Class Descriptor at (0,-1,0,64)'
PUBLIC	??_R4IMatchServiceManager@@6B@			; IMatchServiceManager::`RTTI Complete Object Locator'
PUBLIC	??_R0?AUIMatchServiceManager@@@8		; IMatchServiceManager `RTTI Type Descriptor'
PUBLIC	??_R3IMatchServiceManager@@8			; IMatchServiceManager::`RTTI Class Hierarchy Descriptor'
PUBLIC	??_R2IMatchServiceManager@@8			; IMatchServiceManager::`RTTI Base Class Array'
PUBLIC	??_R1A@?0A@EA@IMatchServiceManager@@8		; IMatchServiceManager::`RTTI Base Class Descriptor at (0,-1,0,64)'
PUBLIC	??_R4CMatchServiceManager@@6B@			; CMatchServiceManager::`RTTI Complete Object Locator'
PUBLIC	??_R0?AVCMatchServiceManager@@@8		; CMatchServiceManager `RTTI Type Descriptor'
PUBLIC	??_R3CMatchServiceManager@@8			; CMatchServiceManager::`RTTI Class Hierarchy Descriptor'
PUBLIC	??_R2CMatchServiceManager@@8			; CMatchServiceManager::`RTTI Base Class Array'
PUBLIC	??_R1A@?0A@EA@CMatchServiceManager@@8		; CMatchServiceManager::`RTTI Base Class Descriptor at (0,-1,0,64)'
EXTRN	??_M@YGXPAXIIP6EX0@Z@Z:PROC			; `eh vector destructor iterator'
EXTRN	__purecall:PROC
EXTRN	??2@YAPAXI@Z:PROC				; operator new
EXTRN	??3@YAXPAXI@Z:PROC				; operator delete
EXTRN	??_V@YAXPAXI@Z:PROC				; operator delete[]
EXTRN	_memcmp:PROC
EXTRN	__imp__PeekMessageA@20:PROC
EXTRN	__imp__PostQuitMessage@4:PROC
EXTRN	__imp___CrtDbgReport:PROC
EXTRN	??0CLockTimeMatch@@QAE@XZ:PROC			; CLockTimeMatch::CLockTimeMatch
EXTRN	??0CImmediateMatch@@QAE@XZ:PROC			; CImmediateMatch::CImmediateMatch
EXTRN	@__security_check_cookie@4:PROC
EXTRN	__CxxThrowException@8:PROC
EXTRN	___CxxFrameHandler3:PROC
EXTRN	??_7type_info@@6B@:QWORD			; type_info::`vftable'
EXTRN	___security_cookie:DWORD
;	COMDAT ??_R1A@?0A@EA@CMatchServiceManager@@8
rdata$r	SEGMENT
??_R1A@?0A@EA@CMatchServiceManager@@8 DD FLAT:??_R0?AVCMatchServiceManager@@@8 ; CMatchServiceManager::`RTTI Base Class Descriptor at (0,-1,0,64)'
	DD	02H
	DD	00H
	DD	0ffffffffH
	DD	00H
	DD	040H
	DD	FLAT:??_R3CMatchServiceManager@@8
rdata$r	ENDS
;	COMDAT ??_R2CMatchServiceManager@@8
rdata$r	SEGMENT
??_R2CMatchServiceManager@@8 DD FLAT:??_R1A@?0A@EA@CMatchServiceManager@@8 ; CMatchServiceManager::`RTTI Base Class Array'
	DD	FLAT:??_R1A@?0A@EA@IMatchServiceManager@@8
	DD	FLAT:??_R1A@?0A@EA@IUnknownEx@@8
rdata$r	ENDS
;	COMDAT ??_R3CMatchServiceManager@@8
rdata$r	SEGMENT
??_R3CMatchServiceManager@@8 DD 00H			; CMatchServiceManager::`RTTI Class Hierarchy Descriptor'
	DD	00H
	DD	03H
	DD	FLAT:??_R2CMatchServiceManager@@8
rdata$r	ENDS
;	COMDAT ??_R0?AVCMatchServiceManager@@@8
data$r	SEGMENT
??_R0?AVCMatchServiceManager@@@8 DD FLAT:??_7type_info@@6B@ ; CMatchServiceManager `RTTI Type Descriptor'
	DD	00H
	DB	'.?AVCMatchServiceManager@@', 00H
data$r	ENDS
;	COMDAT ??_R4CMatchServiceManager@@6B@
rdata$r	SEGMENT
??_R4CMatchServiceManager@@6B@ DD 00H			; CMatchServiceManager::`RTTI Complete Object Locator'
	DD	00H
	DD	00H
	DD	FLAT:??_R0?AVCMatchServiceManager@@@8
	DD	FLAT:??_R3CMatchServiceManager@@8
rdata$r	ENDS
;	COMDAT ??_R1A@?0A@EA@IMatchServiceManager@@8
rdata$r	SEGMENT
??_R1A@?0A@EA@IMatchServiceManager@@8 DD FLAT:??_R0?AUIMatchServiceManager@@@8 ; IMatchServiceManager::`RTTI Base Class Descriptor at (0,-1,0,64)'
	DD	01H
	DD	00H
	DD	0ffffffffH
	DD	00H
	DD	040H
	DD	FLAT:??_R3IMatchServiceManager@@8
rdata$r	ENDS
;	COMDAT ??_R2IMatchServiceManager@@8
rdata$r	SEGMENT
??_R2IMatchServiceManager@@8 DD FLAT:??_R1A@?0A@EA@IMatchServiceManager@@8 ; IMatchServiceManager::`RTTI Base Class Array'
	DD	FLAT:??_R1A@?0A@EA@IUnknownEx@@8
rdata$r	ENDS
;	COMDAT ??_R3IMatchServiceManager@@8
rdata$r	SEGMENT
??_R3IMatchServiceManager@@8 DD 00H			; IMatchServiceManager::`RTTI Class Hierarchy Descriptor'
	DD	00H
	DD	02H
	DD	FLAT:??_R2IMatchServiceManager@@8
rdata$r	ENDS
;	COMDAT ??_R0?AUIMatchServiceManager@@@8
data$r	SEGMENT
??_R0?AUIMatchServiceManager@@@8 DD FLAT:??_7type_info@@6B@ ; IMatchServiceManager `RTTI Type Descriptor'
	DD	00H
	DB	'.?AUIMatchServiceManager@@', 00H
data$r	ENDS
;	COMDAT ??_R4IMatchServiceManager@@6B@
rdata$r	SEGMENT
??_R4IMatchServiceManager@@6B@ DD 00H			; IMatchServiceManager::`RTTI Complete Object Locator'
	DD	00H
	DD	00H
	DD	FLAT:??_R0?AUIMatchServiceManager@@@8
	DD	FLAT:??_R3IMatchServiceManager@@8
rdata$r	ENDS
;	COMDAT ??_R1A@?0A@EA@IUnknownEx@@8
rdata$r	SEGMENT
??_R1A@?0A@EA@IUnknownEx@@8 DD FLAT:??_R0?AUIUnknownEx@@@8 ; IUnknownEx::`RTTI Base Class Descriptor at (0,-1,0,64)'
	DD	00H
	DD	00H
	DD	0ffffffffH
	DD	00H
	DD	040H
	DD	FLAT:??_R3IUnknownEx@@8
rdata$r	ENDS
;	COMDAT ??_R2IUnknownEx@@8
rdata$r	SEGMENT
??_R2IUnknownEx@@8 DD FLAT:??_R1A@?0A@EA@IUnknownEx@@8	; IUnknownEx::`RTTI Base Class Array'
rdata$r	ENDS
;	COMDAT ??_R3IUnknownEx@@8
rdata$r	SEGMENT
??_R3IUnknownEx@@8 DD 00H				; IUnknownEx::`RTTI Class Hierarchy Descriptor'
	DD	00H
	DD	01H
	DD	FLAT:??_R2IUnknownEx@@8
rdata$r	ENDS
;	COMDAT ??_R0?AUIUnknownEx@@@8
data$r	SEGMENT
??_R0?AUIUnknownEx@@@8 DD FLAT:??_7type_info@@6B@	; IUnknownEx `RTTI Type Descriptor'
	DD	00H
	DB	'.?AUIUnknownEx@@', 00H
data$r	ENDS
;	COMDAT ??_R4IUnknownEx@@6B@
rdata$r	SEGMENT
??_R4IUnknownEx@@6B@ DD 00H				; IUnknownEx::`RTTI Complete Object Locator'
	DD	00H
	DD	00H
	DD	FLAT:??_R0?AUIUnknownEx@@@8
	DD	FLAT:??_R3IUnknownEx@@8
rdata$r	ENDS
;	COMDAT ??_C@_0N@DLOPLLLM@?$LN?S?$LP?Z?$LC?i?Q?$KP?J?$KH?$LA?$NM@
CONST	SEGMENT
??_C@_0N@DLOPLLLM@?$LN?S?$LP?Z?$LC?i?Q?$KP?J?$KH?$LA?$NM@ DB 0bdH, 0d3H, 0bfH
	DB	0daH, 0b2H, 0e9H, 0d1H, 0afH, 0caH, 0a7H, 0b0H, 0dcH, 00H ; `string'
CONST	ENDS
;	COMDAT ??_C@_08HBOFLKLL@?$LE?$LE?$LN?$KI?J?$KH?$LA?$NM@
CONST	SEGMENT
??_C@_08HBOFLKLL@?$LE?$LE?$LN?$KI?J?$KH?$LA?$NM@ DB 0b4H, 0b4H, 0bdH, 0a8H
	DB	0caH, 0a7H, 0b0H, 0dcH, 00H			; `string'
CONST	ENDS
;	COMDAT ?__LINE__Var@?0??GetServerUserItemSink@CMatchServiceManager@@UAEPAUIUnknownEx@@XZ@4JA
_DATA	SEGMENT
?__LINE__Var@?0??GetServerUserItemSink@CMatchServiceManager@@UAEPAUIUnknownEx@@XZ@4JA DD 0ebH ; `CMatchServiceManager::GetServerUserItemSink'::`1'::__LINE__Var
_DATA	ENDS
;	COMDAT ?__LINE__Var@?0??OnEventUserQuitMatch@CMatchServiceManager@@UAE_NPAUIServerUserItem@@EPAGK@Z@4JA
_DATA	SEGMENT
?__LINE__Var@?0??OnEventUserQuitMatch@CMatchServiceManager@@UAE_NPAUIServerUserItem@@EPAGK@Z@4JA DD 0dfH ; `CMatchServiceManager::OnEventUserQuitMatch'::`1'::__LINE__Var
_DATA	ENDS
;	COMDAT ?__LINE__Var@?0??OnEventUserJoinMatch@CMatchServiceManager@@UAE_NPAUIServerUserItem@@EK@Z@4JA
_DATA	SEGMENT
?__LINE__Var@?0??OnEventUserJoinMatch@CMatchServiceManager@@UAE_NPAUIServerUserItem@@EK@Z@4JA DD 0d3H ; `CMatchServiceManager::OnEventUserJoinMatch'::`1'::__LINE__Var
_DATA	ENDS
;	COMDAT ?__LINE__Var@?0??OnEventEnterMatch@CMatchServiceManager@@UAE_NKPAXK_N@Z@4JA
_DATA	SEGMENT
?__LINE__Var@?0??OnEventEnterMatch@CMatchServiceManager@@UAE_NKPAXK_N@Z@4JA DD 0c6H ; `CMatchServiceManager::OnEventEnterMatch'::`1'::__LINE__Var
_DATA	ENDS
;	COMDAT ?__LINE__Var@?0??OnEventUserLogonFinish@CMatchServiceManager@@UAE_NPAUIServerUserItem@@@Z@4JA
_DATA	SEGMENT
?__LINE__Var@?0??OnEventUserLogonFinish@CMatchServiceManager@@UAE_NPAUIServerUserItem@@@Z@4JA DD 0baH ; `CMatchServiceManager::OnEventUserLogonFinish'::`1'::__LINE__Var
_DATA	ENDS
;	COMDAT ?__LINE__Var@?0??OnEventUserLogout@CMatchServiceManager@@UAE_NPAUIServerUserItem@@@Z@4JA
_DATA	SEGMENT
?__LINE__Var@?0??OnEventUserLogout@CMatchServiceManager@@UAE_NPAUIServerUserItem@@@Z@4JA DD 0aeH ; `CMatchServiceManager::OnEventUserLogout'::`1'::__LINE__Var
_DATA	ENDS
;	COMDAT ?__LINE__Var@?0??OnEventUserLogon@CMatchServiceManager@@UAE_NPAUIServerUserItem@@@Z@4JA
_DATA	SEGMENT
?__LINE__Var@?0??OnEventUserLogon@CMatchServiceManager@@UAE_NPAUIServerUserItem@@@Z@4JA DD 0a2H ; `CMatchServiceManager::OnEventUserLogon'::`1'::__LINE__Var
_DATA	ENDS
;	COMDAT ?__LINE__Var@?0??OnEventSocketMatch@CMatchServiceManager@@UAE_NGPAXGPAUIServerUserItem@@K@Z@4JA
_DATA	SEGMENT
?__LINE__Var@?0??OnEventSocketMatch@CMatchServiceManager@@UAE_NGPAXGPAUIServerUserItem@@K@Z@4JA DD 096H ; `CMatchServiceManager::OnEventSocketMatch'::`1'::__LINE__Var
_DATA	ENDS
;	COMDAT ?__LINE__Var@?0??OnEventDataBase@CMatchServiceManager@@UAE_NGPAUIServerUserItem@@PAXGK@Z@4JA
_DATA	SEGMENT
?__LINE__Var@?0??OnEventDataBase@CMatchServiceManager@@UAE_NGPAUIServerUserItem@@PAXGK@Z@4JA DD 089H ; `CMatchServiceManager::OnEventDataBase'::`1'::__LINE__Var
_DATA	ENDS
;	COMDAT ?__LINE__Var@?0??OnEventTimer@CMatchServiceManager@@UAE_NKI@Z@4JA
_DATA	SEGMENT
?__LINE__Var@?0??OnEventTimer@CMatchServiceManager@@UAE_NKI@Z@4JA DD 07dH ; `CMatchServiceManager::OnEventTimer'::`1'::__LINE__Var
_DATA	ENDS
;	COMDAT ?__LINE__Var@?0??InitMatchInterface@CMatchServiceManager@@UAE_NAAUtagMatchManagerParameter@@@Z@4JA
_DATA	SEGMENT
?__LINE__Var@?0??InitMatchInterface@CMatchServiceManager@@UAE_NAAUtagMatchManagerParameter@@@Z@4JA DD 071H ; `CMatchServiceManager::InitMatchInterface'::`1'::__LINE__Var
_DATA	ENDS
;	COMDAT ?__LINE__Var@?0??BindTableFrame@CMatchServiceManager@@UAE_NPAUITableFrame@@G@Z@4JA
_DATA	SEGMENT
?__LINE__Var@?0??BindTableFrame@CMatchServiceManager@@UAE_NPAUITableFrame@@G@Z@4JA DD 064H ; `CMatchServiceManager::BindTableFrame'::`1'::__LINE__Var
_DATA	ENDS
;	COMDAT ??_C@_0BB@NNMHOGNO@?$LM?$LE?J?$LB?H?$PM?$LE?$LE?$LN?$KI?J?$KH?$LA?$NM?$KD?$KB@
CONST	SEGMENT
??_C@_0BB@NNMHOGNO@?$LM?$LE?J?$LB?H?$PM?$LE?$LE?$LN?$KI?J?$KH?$LA?$NM?$KD?$KB@ DB 0bcH
	DB	0b4H, 0caH, 0b1H, 0c8H, 0fcH, 0b4H, 0b4H, 0bdH, 0a8H, 0caH, 0a7H
	DB	0b0H, 0dcH, 0a3H, 0a1H, 00H			; `string'
CONST	ENDS
;	COMDAT ??_C@_0BB@KOOONENB@?$LG?$KI?J?$LB?H?$PM?$LE?$LE?$LN?$KI?J?$KH?$LA?$NM?$KD?$KB@
CONST	SEGMENT
??_C@_0BB@KOOONENB@?$LG?$KI?J?$LB?H?$PM?$LE?$LE?$LN?$KI?J?$KH?$LA?$NM?$KD?$KB@ DB 0b6H
	DB	0a8H, 0caH, 0b1H, 0c8H, 0fcH, 0b4H, 0b4H, 0bdH, 0a8H, 0caH, 0a7H
	DB	0b0H, 0dcH, 0a3H, 0a1H, 00H			; `string'
CONST	ENDS
;	COMDAT __CT??_R0PAX@84
xdata$x	SEGMENT
__CT??_R0PAX@84 DD 01H
	DD	FLAT:??_R0PAX@8
	DD	00H
	DD	0ffffffffH
	ORG $+4
	DD	04H
	DD	00H
xdata$x	ENDS
;	COMDAT ??_R0PAX@8
data$r	SEGMENT
??_R0PAX@8 DD	FLAT:??_7type_info@@6B@			; void * `RTTI Type Descriptor'
	DD	00H
	DB	'.PAX', 00H
data$r	ENDS
;	COMDAT __CT??_R0PAD@84
xdata$x	SEGMENT
__CT??_R0PAD@84 DD 01H
	DD	FLAT:??_R0PAD@8
	DD	00H
	DD	0ffffffffH
	ORG $+4
	DD	04H
	DD	00H
xdata$x	ENDS
;	COMDAT ??_R0PAD@8
data$r	SEGMENT
??_R0PAD@8 DD	FLAT:??_7type_info@@6B@			; char * `RTTI Type Descriptor'
	DD	00H
	DB	'.PAD', 00H
data$r	ENDS
;	COMDAT __CTA2PAD
xdata$x	SEGMENT
__CTA2PAD DD	02H
	DD	FLAT:__CT??_R0PAD@84
	DD	FLAT:__CT??_R0PAX@84
xdata$x	ENDS
;	COMDAT __TI2PAD
xdata$x	SEGMENT
__TI2PAD DD	00H
	DD	00H
	DD	00H
	DD	FLAT:__CTA2PAD
xdata$x	ENDS
;	COMDAT ?__LINE__Var@?0??CreateGameMatch@CMatchServiceManager@@UAE_NE@Z@4JA
_DATA	SEGMENT
?__LINE__Var@?0??CreateGameMatch@CMatchServiceManager@@UAE_NE@Z@4JA DD 044H ; `CMatchServiceManager::CreateGameMatch'::`1'::__LINE__Var
_DATA	ENDS
;	COMDAT ?__LINE__Var@?0??StartService@CMatchServiceManager@@UAE_NXZ@4JA
_DATA	SEGMENT
?__LINE__Var@?0??StartService@CMatchServiceManager@@UAE_NXZ@4JA DD 02dH ; `CMatchServiceManager::StartService'::`1'::__LINE__Var
_DATA	ENDS
;	COMDAT ?__LINE__Var@?0??StopService@CMatchServiceManager@@UAE_NXZ@4JA
_DATA	SEGMENT
?__LINE__Var@?0??StopService@CMatchServiceManager@@UAE_NXZ@4JA DD 01eH ; `CMatchServiceManager::StopService'::`1'::__LINE__Var
_DATA	ENDS
;	COMDAT ??_C@_0FA@DODPGKMC@g?3?2?M?x?$LK?$PM?2happygamewh?2?$LH?$PO?N?q?$LG?K?2?O?$LF?M?$LD@
CONST	SEGMENT
??_C@_0FA@DODPGKMC@g?3?2?M?x?$LK?$PM?2happygamewh?2?$LH?$PO?N?q?$LG?K?2?O?$LF?M?$LD@ DB 'g'
	DB	':\', 0cdH, 0f8H, 0baH, 0fcH, '\happygamewh\', 0b7H, 0feH, 0ceH
	DB	0f1H, 0b6H, 0cbH, '\', 0cfH, 0b5H, 0cdH, 0b3H, 0c4H, 0a3H, 0bfH
	DB	0e9H, '\', 0b7H, 0feH, 0ceH, 0f1H, 0c6H, 0f7H, 0d7H, 0e9H, 0bcH
	DB	0feH, '\', 0b1H, 0c8H, 0c8H, 0fcH, 0b7H, 0feH, 0ceH, 0f1H, '\m'
	DB	'atchservicemanager.cpp', 00H		; `string'
CONST	ENDS
;	COMDAT ?__LINE__Var@?0???1CMatchServiceManager@@UAE@XZ@4JA
_DATA	SEGMENT
?__LINE__Var@?0???1CMatchServiceManager@@UAE@XZ@4JA DD 017H ; `CMatchServiceManager::~CMatchServiceManager'::`1'::__LINE__Var
_DATA	ENDS
;	COMDAT ??_7CMatchServiceManager@@6B@
CONST	SEGMENT
??_7CMatchServiceManager@@6B@ DD FLAT:??_R4CMatchServiceManager@@6B@ ; CMatchServiceManager::`vftable'
	DD	FLAT:?Release@CMatchServiceManager@@UAEXXZ
	DD	FLAT:?QueryInterface@CMatchServiceManager@@UAEPAXABU_GUID@@K@Z
	DD	FLAT:?StopService@CMatchServiceManager@@UAE_NXZ
	DD	FLAT:?StartService@CMatchServiceManager@@UAE_NXZ
	DD	FLAT:?CreateGameMatch@CMatchServiceManager@@UAE_NE@Z
	DD	FLAT:?BindTableFrame@CMatchServiceManager@@UAE_NPAUITableFrame@@G@Z
	DD	FLAT:?InitMatchInterface@CMatchServiceManager@@UAE_NAAUtagMatchManagerParameter@@@Z
	DD	FLAT:?OnEventTimer@CMatchServiceManager@@UAE_NKI@Z
	DD	FLAT:?OnEventDataBase@CMatchServiceManager@@UAE_NGPAUIServerUserItem@@PAXGK@Z
	DD	FLAT:?OnEventSocketMatch@CMatchServiceManager@@UAE_NGPAXGPAUIServerUserItem@@K@Z
	DD	FLAT:?OnEventUserLogon@CMatchServiceManager@@UAE_NPAUIServerUserItem@@@Z
	DD	FLAT:?OnEventUserLogout@CMatchServiceManager@@UAE_NPAUIServerUserItem@@@Z
	DD	FLAT:?OnEventUserLogonFinish@CMatchServiceManager@@UAE_NPAUIServerUserItem@@@Z
	DD	FLAT:?OnEventEnterMatch@CMatchServiceManager@@UAE_NKPAXK_N@Z
	DD	FLAT:?OnEventUserJoinMatch@CMatchServiceManager@@UAE_NPAUIServerUserItem@@EK@Z
	DD	FLAT:?OnEventUserQuitMatch@CMatchServiceManager@@UAE_NPAUIServerUserItem@@EPAGK@Z
	DD	FLAT:?GetServerUserItemSink@CMatchServiceManager@@UAEPAUIUnknownEx@@XZ
	DD	FLAT:??_ECMatchServiceManager@@UAEPAXI@Z
CONST	ENDS
;	COMDAT ??_7IMatchServiceManager@@6B@
CONST	SEGMENT
??_7IMatchServiceManager@@6B@ DD FLAT:??_R4IMatchServiceManager@@6B@ ; IMatchServiceManager::`vftable'
	DD	FLAT:__purecall
	DD	FLAT:__purecall
	DD	FLAT:__purecall
	DD	FLAT:__purecall
	DD	FLAT:__purecall
	DD	FLAT:__purecall
	DD	FLAT:__purecall
	DD	FLAT:__purecall
	DD	FLAT:__purecall
	DD	FLAT:__purecall
	DD	FLAT:__purecall
	DD	FLAT:__purecall
	DD	FLAT:__purecall
	DD	FLAT:__purecall
	DD	FLAT:__purecall
	DD	FLAT:__purecall
	DD	FLAT:__purecall
CONST	ENDS
;	COMDAT ??_7IUnknownEx@@6B@
CONST	SEGMENT
??_7IUnknownEx@@6B@ DD FLAT:??_R4IUnknownEx@@6B@	; IUnknownEx::`vftable'
	DD	FLAT:__purecall
	DD	FLAT:__purecall
CONST	ENDS
;	COMDAT xdata$x
xdata$x	SEGMENT
__catchsym$_CreateMatchServiceManager$6 DD 040H
	DD	00H
	DD	00H
	DD	FLAT:__catch$_CreateMatchServiceManager$2
__catchsym$_CreateMatchServiceManager$5 DD 040H
	DD	00H
	DD	00H
	DD	FLAT:__catch$_CreateMatchServiceManager$0
__ehfuncinfo$_CreateMatchServiceManager DD 019930522H
	DD	05H
	DD	FLAT:__unwindtable$_CreateMatchServiceManager
	DD	02H
	DD	FLAT:__tryblocktable$_CreateMatchServiceManager
	DD	2 DUP(00H)
	DD	00H
	DD	01H
__tryblocktable$_CreateMatchServiceManager DD 00H
	DD	01H
	DD	02H
	DD	01H
	DD	FLAT:__catchsym$_CreateMatchServiceManager$5
	DD	03H
	DD	03H
	DD	04H
	DD	01H
	DD	FLAT:__catchsym$_CreateMatchServiceManager$6
__unwindtable$_CreateMatchServiceManager DD 0ffffffffH
	DD	00H
	DD	00H
	DD	FLAT:__unwindfunclet$_CreateMatchServiceManager$4
	DD	0ffffffffH
	DD	00H
	DD	0ffffffffH
	DD	00H
	DD	0ffffffffH
	DD	00H
xdata$x	ENDS
;	COMDAT xdata$x
xdata$x	SEGMENT
__ehfuncinfo$??_ECMatchServiceManager@@UAEPAXI@Z DD 019930522H
	DD	00H
	DD	00H
	DD	2 DUP(00H)
	DD	2 DUP(00H)
	DD	00H
	DD	05H
xdata$x	ENDS
;	COMDAT xdata$x
xdata$x	SEGMENT
__catchsym$?CreateGameMatch@CMatchServiceManager@@UAE_NE@Z$4 DD 040H
	DD	00H
	DD	00H
	DD	FLAT:__catch$?CreateGameMatch@CMatchServiceManager@@UAE_NE@Z$0
__tryblocktable$?CreateGameMatch@CMatchServiceManager@@UAE_NE@Z DD 00H
	DD	02H
	DD	03H
	DD	01H
	DD	FLAT:__catchsym$?CreateGameMatch@CMatchServiceManager@@UAE_NE@Z$4
__unwindtable$?CreateGameMatch@CMatchServiceManager@@UAE_NE@Z DD 0ffffffffH
	DD	00H
	DD	00H
	DD	FLAT:__unwindfunclet$?CreateGameMatch@CMatchServiceManager@@UAE_NE@Z$2
	DD	00H
	DD	FLAT:__unwindfunclet$?CreateGameMatch@CMatchServiceManager@@UAE_NE@Z$3
	DD	0ffffffffH
	DD	00H
__ehfuncinfo$?CreateGameMatch@CMatchServiceManager@@UAE_NE@Z DD 019930522H
	DD	04H
	DD	FLAT:__unwindtable$?CreateGameMatch@CMatchServiceManager@@UAE_NE@Z
	DD	01H
	DD	FLAT:__tryblocktable$?CreateGameMatch@CMatchServiceManager@@UAE_NE@Z
	DD	2 DUP(00H)
	DD	00H
	DD	01H
xdata$x	ENDS
;	COMDAT xdata$x
xdata$x	SEGMENT
__catchsym$??1CMatchServiceManager@@UAE@XZ$2 DD 040H
	DD	00H
	DD	00H
	DD	FLAT:__catch$??1CMatchServiceManager@@UAE@XZ$0
__unwindtable$??1CMatchServiceManager@@UAE@XZ DD 0ffffffffH
	DD	00H
	DD	0ffffffffH
	DD	00H
__tryblocktable$??1CMatchServiceManager@@UAE@XZ DD 00H
	DD	00H
	DD	01H
	DD	01H
	DD	FLAT:__catchsym$??1CMatchServiceManager@@UAE@XZ$2
__ehfuncinfo$??1CMatchServiceManager@@UAE@XZ DD 019930522H
	DD	02H
	DD	FLAT:__unwindtable$??1CMatchServiceManager@@UAE@XZ
	DD	01H
	DD	FLAT:__tryblocktable$??1CMatchServiceManager@@UAE@XZ
	DD	2 DUP(00H)
	DD	00H
	DD	05H
xdata$x	ENDS
; Function compile flags: /Odtp /ZI
; File g:\网狐\happygamewh\服务端\系统模块\服务器组件\比赛服务\matchservicemanager.cpp
;	COMDAT _CreateMatchServiceManager
_TEXT	SEGMENT
tv75 = -124						; size = 4
tv143 = -120						; size = 4
tv144 = -116						; size = 4
tv140 = -116						; size = 4
tv129 = -116						; size = 4
$T2 = -112						; size = 4
$T3 = -108						; size = 4
$T4 = -104						; size = 4
$T5 = -100						; size = 4
$T6 = -96						; size = 4
$T7 = -92						; size = 4
_pObject$8 = -24					; size = 4
_pMatchServiceManager$ = -20				; size = 4
__$EHRec$ = -16						; size = 16
_Guid$ = 8						; size = 4
_dwInterfaceVer$ = 12					; size = 4
_CreateMatchServiceManager PROC				; COMDAT

; 247  : DECLARE_CREATE_MODULE(MatchServiceManager);

  00000	55		 push	 ebp
  00001	8b ec		 mov	 ebp, esp
  00003	6a ff		 push	 -1
  00005	68 00 00 00 00	 push	 __ehhandler$_CreateMatchServiceManager
  0000a	64 a1 00 00 00
	00		 mov	 eax, DWORD PTR fs:0
  00010	50		 push	 eax
  00011	51		 push	 ecx
  00012	83 ec 6c	 sub	 esp, 108		; 0000006cH
  00015	53		 push	 ebx
  00016	56		 push	 esi
  00017	57		 push	 edi
  00018	a1 00 00 00 00	 mov	 eax, DWORD PTR ___security_cookie
  0001d	33 c5		 xor	 eax, ebp
  0001f	50		 push	 eax
  00020	8d 45 f4	 lea	 eax, DWORD PTR __$EHRec$[ebp+4]
  00023	64 a3 00 00 00
	00		 mov	 DWORD PTR fs:0, eax
  00029	89 65 f0	 mov	 DWORD PTR __$EHRec$[ebp], esp
  0002c	c7 45 ec 00 00
	00 00		 mov	 DWORD PTR _pMatchServiceManager$[ebp], 0
  00033	c7 45 fc 00 00
	00 00		 mov	 DWORD PTR __$EHRec$[ebp+12], 0
  0003a	6a 10		 push	 16			; 00000010H
  0003c	e8 00 00 00 00	 call	 ??2@YAPAXI@Z		; operator new
  00041	83 c4 04	 add	 esp, 4
  00044	89 45 8c	 mov	 DWORD PTR tv140[ebp], eax
  00047	8b 45 8c	 mov	 eax, DWORD PTR tv140[ebp]
  0004a	89 45 a0	 mov	 DWORD PTR $T6[ebp], eax
  0004d	c6 45 fc 01	 mov	 BYTE PTR __$EHRec$[ebp+12], 1
  00051	83 7d a0 00	 cmp	 DWORD PTR $T6[ebp], 0
  00055	74 13		 je	 SHORT $LN7@CreateMatc
  00057	8b 4d a0	 mov	 ecx, DWORD PTR $T6[ebp]
  0005a	e8 00 00 00 00	 call	 ??0CMatchServiceManager@@QAE@XZ ; CMatchServiceManager::CMatchServiceManager
  0005f	89 45 88	 mov	 DWORD PTR tv143[ebp], eax
  00062	8b 4d 88	 mov	 ecx, DWORD PTR tv143[ebp]
  00065	89 4d 84	 mov	 DWORD PTR tv75[ebp], ecx
  00068	eb 07		 jmp	 SHORT $LN8@CreateMatc
$LN7@CreateMatc:
  0006a	c7 45 84 00 00
	00 00		 mov	 DWORD PTR tv75[ebp], 0
$LN8@CreateMatc:
  00071	8b 55 84	 mov	 edx, DWORD PTR tv75[ebp]
  00074	89 55 a4	 mov	 DWORD PTR $T7[ebp], edx
  00077	c6 45 fc 00	 mov	 BYTE PTR __$EHRec$[ebp+12], 0
  0007b	8b 45 a4	 mov	 eax, DWORD PTR $T7[ebp]
  0007e	89 45 ec	 mov	 DWORD PTR _pMatchServiceManager$[ebp], eax
  00081	83 7d ec 00	 cmp	 DWORD PTR _pMatchServiceManager$[ebp], 0
  00085	75 15		 jne	 SHORT $LN3@CreateMatc
  00087	c7 45 9c 00 00
	00 00		 mov	 DWORD PTR $T5[ebp], OFFSET ??_C@_08HBOFLKLL@?$LE?$LE?$LN?$KI?J?$KH?$LA?$NM@
  0008e	68 00 00 00 00	 push	 OFFSET __TI2PAD
  00093	8d 45 9c	 lea	 eax, DWORD PTR $T5[ebp]
  00096	50		 push	 eax
  00097	e8 00 00 00 00	 call	 __CxxThrowException@8
$LN3@CreateMatc:
  0009c	8b 45 0c	 mov	 eax, DWORD PTR _dwInterfaceVer$[ebp]
  0009f	50		 push	 eax
  000a0	8b 4d 08	 mov	 ecx, DWORD PTR _Guid$[ebp]
  000a3	51		 push	 ecx
  000a4	8b 55 ec	 mov	 edx, DWORD PTR _pMatchServiceManager$[ebp]
  000a7	8b 02		 mov	 eax, DWORD PTR [edx]
  000a9	8b 4d ec	 mov	 ecx, DWORD PTR _pMatchServiceManager$[ebp]
  000ac	8b 50 04	 mov	 edx, DWORD PTR [eax+4]
  000af	ff d2		 call	 edx
  000b1	89 45 8c	 mov	 DWORD PTR tv144[ebp], eax
  000b4	8b 45 8c	 mov	 eax, DWORD PTR tv144[ebp]
  000b7	89 45 e8	 mov	 DWORD PTR _pObject$8[ebp], eax
  000ba	83 7d e8 00	 cmp	 DWORD PTR _pObject$8[ebp], 0
  000be	75 15		 jne	 SHORT $LN4@CreateMatc
  000c0	c7 45 98 00 00
	00 00		 mov	 DWORD PTR $T4[ebp], OFFSET ??_C@_0N@DLOPLLLM@?$LN?S?$LP?Z?$LC?i?Q?$KP?J?$KH?$LA?$NM@
  000c7	68 00 00 00 00	 push	 OFFSET __TI2PAD
  000cc	8d 45 98	 lea	 eax, DWORD PTR $T4[ebp]
  000cf	50		 push	 eax
  000d0	e8 00 00 00 00	 call	 __CxxThrowException@8
$LN4@CreateMatc:
  000d5	8b 45 e8	 mov	 eax, DWORD PTR _pObject$8[ebp]
  000d8	e9 83 00 00 00	 jmp	 $LN6@CreateMatc
__catch$_CreateMatchServiceManager$0:
  000dd	b8 00 00 00 00	 mov	 eax, $LN18@CreateMatc
  000e2	c3		 ret	 0
  000e3	c7 45 fc ff ff
	ff ff		 mov	 DWORD PTR __$EHRec$[ebp+12], -1
  000ea	eb 07		 jmp	 SHORT __tryend$_CreateMatchServiceManager$1
$LN18@CreateMatc:
  000ec	c7 45 fc ff ff
	ff ff		 mov	 DWORD PTR __$EHRec$[ebp+12], -1
__tryend$_CreateMatchServiceManager$1:
  000f3	c7 45 fc 03 00
	00 00		 mov	 DWORD PTR __$EHRec$[ebp+12], 3
  000fa	8b 45 ec	 mov	 eax, DWORD PTR _pMatchServiceManager$[ebp]
  000fd	89 45 90	 mov	 DWORD PTR $T2[ebp], eax
  00100	8b 4d 90	 mov	 ecx, DWORD PTR $T2[ebp]
  00103	89 4d 94	 mov	 DWORD PTR $T3[ebp], ecx
  00106	83 7d 94 00	 cmp	 DWORD PTR $T3[ebp], 0
  0010a	74 14		 je	 SHORT $LN9@CreateMatc
  0010c	6a 01		 push	 1
  0010e	8b 55 94	 mov	 edx, DWORD PTR $T3[ebp]
  00111	8b 02		 mov	 eax, DWORD PTR [edx]
  00113	8b 4d 94	 mov	 ecx, DWORD PTR $T3[ebp]
  00116	8b 50 44	 mov	 edx, DWORD PTR [eax+68]
  00119	ff d2		 call	 edx
  0011b	89 45 8c	 mov	 DWORD PTR tv129[ebp], eax
  0011e	eb 07		 jmp	 SHORT $LN10@CreateMatc
$LN9@CreateMatc:
  00120	c7 45 8c 00 00
	00 00		 mov	 DWORD PTR tv129[ebp], 0
$LN10@CreateMatc:
  00127	eb 1e		 jmp	 SHORT $LN14@CreateMatc
__catch$_CreateMatchServiceManager$2:
  00129	33 c0		 xor	 eax, eax
  0012b	75 14		 jne	 SHORT $LN11@CreateMatc
  0012d	68 f7 00 00 00	 push	 247			; 000000f7H
  00132	68 00 00 00 00	 push	 OFFSET ??_C@_0FA@DODPGKMC@g?3?2?M?x?$LK?$PM?2happygamewh?2?$LH?$PO?N?q?$LG?K?2?O?$LF?M?$LD@
  00137	e8 00 00 00 00	 call	 ?AfxAssertFailedLine@@YGHPBDH@Z ; AfxAssertFailedLine
  0013c	85 c0		 test	 eax, eax
  0013e	74 01		 je	 SHORT $LN11@CreateMatc
  00140	cc		 int	 3
$LN11@CreateMatc:
  00141	b8 00 00 00 00	 mov	 eax, $LN20@CreateMatc
  00146	c3		 ret	 0
$LN14@CreateMatc:
  00147	c7 45 fc ff ff
	ff ff		 mov	 DWORD PTR __$EHRec$[ebp+12], -1
  0014e	eb 07		 jmp	 SHORT __tryend$_CreateMatchServiceManager$3
$LN20@CreateMatc:
  00150	c7 45 fc ff ff
	ff ff		 mov	 DWORD PTR __$EHRec$[ebp+12], -1
__tryend$_CreateMatchServiceManager$3:
  00157	c7 45 ec 00 00
	00 00		 mov	 DWORD PTR _pMatchServiceManager$[ebp], 0
  0015e	33 c0		 xor	 eax, eax
$LN6@CreateMatc:
  00160	8b 4d f4	 mov	 ecx, DWORD PTR __$EHRec$[ebp+4]
  00163	64 89 0d 00 00
	00 00		 mov	 DWORD PTR fs:0, ecx
  0016a	59		 pop	 ecx
  0016b	5f		 pop	 edi
  0016c	5e		 pop	 esi
  0016d	5b		 pop	 ebx
  0016e	8b e5		 mov	 esp, ebp
  00170	5d		 pop	 ebp
  00171	c3		 ret	 0
_TEXT	ENDS
;	COMDAT text$x
text$x	SEGMENT
__unwindfunclet$_CreateMatchServiceManager$4:
  00000	6a 10		 push	 16			; 00000010H
  00002	8b 45 a0	 mov	 eax, DWORD PTR $T6[ebp]
  00005	50		 push	 eax
  00006	e8 00 00 00 00	 call	 ??3@YAXPAXI@Z		; operator delete
  0000b	83 c4 08	 add	 esp, 8
  0000e	c3		 ret	 0
__ehhandler$_CreateMatchServiceManager:
  0000f	8b 54 24 08	 mov	 edx, DWORD PTR [esp+8]
  00013	8d 42 0c	 lea	 eax, DWORD PTR [edx+12]
  00016	8b 4a 80	 mov	 ecx, DWORD PTR [edx-128]
  00019	33 c8		 xor	 ecx, eax
  0001b	e8 00 00 00 00	 call	 @__security_check_cookie@4
  00020	b8 00 00 00 00	 mov	 eax, OFFSET __ehfuncinfo$_CreateMatchServiceManager
  00025	e9 00 00 00 00	 jmp	 ___CxxFrameHandler3
text$x	ENDS
_CreateMatchServiceManager ENDP
; Function compile flags: /Odtp /ZI
;	COMDAT ??_ECMatchServiceManager@@UAEPAXI@Z
_TEXT	SEGMENT
_this$ = -16						; size = 4
__$EHRec$ = -12						; size = 12
___flags$ = 8						; size = 4
??_ECMatchServiceManager@@UAEPAXI@Z PROC		; CMatchServiceManager::`vector deleting destructor', COMDAT
; _this$ = ecx
  00000	55		 push	 ebp
  00001	8b ec		 mov	 ebp, esp
  00003	6a ff		 push	 -1
  00005	68 00 00 00 00	 push	 __ehhandler$??_ECMatchServiceManager@@UAEPAXI@Z
  0000a	64 a1 00 00 00
	00		 mov	 eax, DWORD PTR fs:0
  00010	50		 push	 eax
  00011	83 ec 44	 sub	 esp, 68			; 00000044H
  00014	53		 push	 ebx
  00015	56		 push	 esi
  00016	57		 push	 edi
  00017	a1 00 00 00 00	 mov	 eax, DWORD PTR ___security_cookie
  0001c	33 c5		 xor	 eax, ebp
  0001e	50		 push	 eax
  0001f	8d 45 f4	 lea	 eax, DWORD PTR __$EHRec$[ebp]
  00022	64 a3 00 00 00
	00		 mov	 DWORD PTR fs:0, eax
  00028	89 4d f0	 mov	 DWORD PTR _this$[ebp], ecx
  0002b	8b 45 08	 mov	 eax, DWORD PTR ___flags$[ebp]
  0002e	83 e0 02	 and	 eax, 2
  00031	74 43		 je	 SHORT $LN2@vector
  00033	68 00 00 00 00	 push	 OFFSET ??1CMatchServiceManager@@UAE@XZ ; CMatchServiceManager::~CMatchServiceManager
  00038	8b 45 f0	 mov	 eax, DWORD PTR _this$[ebp]
  0003b	8b 48 fc	 mov	 ecx, DWORD PTR [eax-4]
  0003e	51		 push	 ecx
  0003f	6a 10		 push	 16			; 00000010H
  00041	8b 55 f0	 mov	 edx, DWORD PTR _this$[ebp]
  00044	52		 push	 edx
  00045	e8 00 00 00 00	 call	 ??_M@YGXPAXIIP6EX0@Z@Z
  0004a	8b 45 08	 mov	 eax, DWORD PTR ___flags$[ebp]
  0004d	83 e0 01	 and	 eax, 1
  00050	74 1c		 je	 SHORT $LN3@vector
  00052	8b 45 f0	 mov	 eax, DWORD PTR _this$[ebp]
  00055	8b 48 fc	 mov	 ecx, DWORD PTR [eax-4]
  00058	c1 e1 04	 shl	 ecx, 4
  0005b	83 c1 04	 add	 ecx, 4
  0005e	51		 push	 ecx
  0005f	8b 55 f0	 mov	 edx, DWORD PTR _this$[ebp]
  00062	83 ea 04	 sub	 edx, 4
  00065	52		 push	 edx
  00066	e8 00 00 00 00	 call	 ??_V@YAXPAXI@Z		; operator delete[]
  0006b	83 c4 08	 add	 esp, 8
$LN3@vector:
  0006e	8b 45 f0	 mov	 eax, DWORD PTR _this$[ebp]
  00071	83 e8 04	 sub	 eax, 4
  00074	eb 21		 jmp	 SHORT $LN5@vector
$LN2@vector:
  00076	8b 4d f0	 mov	 ecx, DWORD PTR _this$[ebp]
  00079	e8 00 00 00 00	 call	 ??1CMatchServiceManager@@UAE@XZ ; CMatchServiceManager::~CMatchServiceManager
  0007e	8b 45 08	 mov	 eax, DWORD PTR ___flags$[ebp]
  00081	83 e0 01	 and	 eax, 1
  00084	74 0e		 je	 SHORT $LN4@vector
  00086	6a 10		 push	 16			; 00000010H
  00088	8b 45 f0	 mov	 eax, DWORD PTR _this$[ebp]
  0008b	50		 push	 eax
  0008c	e8 00 00 00 00	 call	 ??3@YAXPAXI@Z		; operator delete
  00091	83 c4 08	 add	 esp, 8
$LN4@vector:
  00094	8b 45 f0	 mov	 eax, DWORD PTR _this$[ebp]
$LN5@vector:
  00097	8b 4d f4	 mov	 ecx, DWORD PTR __$EHRec$[ebp]
  0009a	64 89 0d 00 00
	00 00		 mov	 DWORD PTR fs:0, ecx
  000a1	59		 pop	 ecx
  000a2	5f		 pop	 edi
  000a3	5e		 pop	 esi
  000a4	5b		 pop	 ebx
  000a5	8b e5		 mov	 esp, ebp
  000a7	5d		 pop	 ebp
  000a8	c2 04 00	 ret	 4
_TEXT	ENDS
;	COMDAT text$x
text$x	SEGMENT
__ehhandler$??_ECMatchServiceManager@@UAEPAXI@Z:
  00000	8b 54 24 08	 mov	 edx, DWORD PTR [esp+8]
  00004	8d 42 0c	 lea	 eax, DWORD PTR [edx+12]
  00007	8b 4a ac	 mov	 ecx, DWORD PTR [edx-84]
  0000a	33 c8		 xor	 ecx, eax
  0000c	e8 00 00 00 00	 call	 @__security_check_cookie@4
  00011	b8 00 00 00 00	 mov	 eax, OFFSET __ehfuncinfo$??_ECMatchServiceManager@@UAEPAXI@Z
  00016	e9 00 00 00 00	 jmp	 ___CxxFrameHandler3
text$x	ENDS
??_ECMatchServiceManager@@UAEPAXI@Z ENDP		; CMatchServiceManager::`vector deleting destructor'
; Function compile flags: /Odtp /ZI
;	COMDAT ??_GCMatchServiceManager@@UAEPAXI@Z
_TEXT	SEGMENT
_this$ = -4						; size = 4
___flags$ = 8						; size = 4
??_GCMatchServiceManager@@UAEPAXI@Z PROC		; CMatchServiceManager::`scalar deleting destructor', COMDAT
; _this$ = ecx
  00000	55		 push	 ebp
  00001	8b ec		 mov	 ebp, esp
  00003	83 ec 44	 sub	 esp, 68			; 00000044H
  00006	53		 push	 ebx
  00007	56		 push	 esi
  00008	57		 push	 edi
  00009	89 4d fc	 mov	 DWORD PTR _this$[ebp], ecx
  0000c	8b 4d fc	 mov	 ecx, DWORD PTR _this$[ebp]
  0000f	e8 00 00 00 00	 call	 ??1CMatchServiceManager@@UAE@XZ ; CMatchServiceManager::~CMatchServiceManager
  00014	8b 45 08	 mov	 eax, DWORD PTR ___flags$[ebp]
  00017	83 e0 01	 and	 eax, 1
  0001a	74 0e		 je	 SHORT $LN2@scalar
  0001c	6a 10		 push	 16			; 00000010H
  0001e	8b 45 fc	 mov	 eax, DWORD PTR _this$[ebp]
  00021	50		 push	 eax
  00022	e8 00 00 00 00	 call	 ??3@YAXPAXI@Z		; operator delete
  00027	83 c4 08	 add	 esp, 8
$LN2@scalar:
  0002a	8b 45 fc	 mov	 eax, DWORD PTR _this$[ebp]
  0002d	5f		 pop	 edi
  0002e	5e		 pop	 esi
  0002f	5b		 pop	 ebx
  00030	8b e5		 mov	 esp, ebp
  00032	5d		 pop	 ebp
  00033	c2 04 00	 ret	 4
??_GCMatchServiceManager@@UAEPAXI@Z ENDP		; CMatchServiceManager::`scalar deleting destructor'
_TEXT	ENDS
; Function compile flags: /Odtp /ZI
;	COMDAT ??4CMatchServiceManager@@QAEAAV0@ABV0@@Z
_TEXT	SEGMENT
_this$ = -4						; size = 4
___that$ = 8						; size = 4
??4CMatchServiceManager@@QAEAAV0@ABV0@@Z PROC		; CMatchServiceManager::operator=, COMDAT
; _this$ = ecx
  00000	55		 push	 ebp
  00001	8b ec		 mov	 ebp, esp
  00003	83 ec 44	 sub	 esp, 68			; 00000044H
  00006	53		 push	 ebx
  00007	56		 push	 esi
  00008	57		 push	 edi
  00009	89 4d fc	 mov	 DWORD PTR _this$[ebp], ecx
  0000c	8b 45 08	 mov	 eax, DWORD PTR ___that$[ebp]
  0000f	50		 push	 eax
  00010	8b 4d fc	 mov	 ecx, DWORD PTR _this$[ebp]
  00013	e8 00 00 00 00	 call	 ??4IMatchServiceManager@@QAEAAU0@ABU0@@Z
  00018	8b 45 fc	 mov	 eax, DWORD PTR _this$[ebp]
  0001b	8b 4d 08	 mov	 ecx, DWORD PTR ___that$[ebp]
  0001e	8a 51 04	 mov	 dl, BYTE PTR [ecx+4]
  00021	88 50 04	 mov	 BYTE PTR [eax+4], dl
  00024	8b 45 fc	 mov	 eax, DWORD PTR _this$[ebp]
  00027	8b 4d 08	 mov	 ecx, DWORD PTR ___that$[ebp]
  0002a	8b 51 08	 mov	 edx, DWORD PTR [ecx+8]
  0002d	89 50 08	 mov	 DWORD PTR [eax+8], edx
  00030	8b 45 fc	 mov	 eax, DWORD PTR _this$[ebp]
  00033	8b 4d 08	 mov	 ecx, DWORD PTR ___that$[ebp]
  00036	8b 51 0c	 mov	 edx, DWORD PTR [ecx+12]
  00039	89 50 0c	 mov	 DWORD PTR [eax+12], edx
  0003c	8b 45 fc	 mov	 eax, DWORD PTR _this$[ebp]
  0003f	5f		 pop	 edi
  00040	5e		 pop	 esi
  00041	5b		 pop	 ebx
  00042	8b e5		 mov	 esp, ebp
  00044	5d		 pop	 ebp
  00045	c2 04 00	 ret	 4
??4CMatchServiceManager@@QAEAAV0@ABV0@@Z ENDP		; CMatchServiceManager::operator=
_TEXT	ENDS
; Function compile flags: /Odtp /ZI
;	COMDAT ??0CMatchServiceManager@@QAE@ABV0@@Z
_TEXT	SEGMENT
_this$ = -4						; size = 4
___that$ = 8						; size = 4
??0CMatchServiceManager@@QAE@ABV0@@Z PROC		; CMatchServiceManager::CMatchServiceManager, COMDAT
; _this$ = ecx
  00000	55		 push	 ebp
  00001	8b ec		 mov	 ebp, esp
  00003	83 ec 44	 sub	 esp, 68			; 00000044H
  00006	53		 push	 ebx
  00007	56		 push	 esi
  00008	57		 push	 edi
  00009	89 4d fc	 mov	 DWORD PTR _this$[ebp], ecx
  0000c	8b 45 08	 mov	 eax, DWORD PTR ___that$[ebp]
  0000f	50		 push	 eax
  00010	8b 4d fc	 mov	 ecx, DWORD PTR _this$[ebp]
  00013	e8 00 00 00 00	 call	 ??0IMatchServiceManager@@QAE@ABU0@@Z
  00018	8b 45 fc	 mov	 eax, DWORD PTR _this$[ebp]
  0001b	c7 00 00 00 00
	00		 mov	 DWORD PTR [eax], OFFSET ??_7CMatchServiceManager@@6B@
  00021	8b 45 fc	 mov	 eax, DWORD PTR _this$[ebp]
  00024	8b 4d 08	 mov	 ecx, DWORD PTR ___that$[ebp]
  00027	8a 51 04	 mov	 dl, BYTE PTR [ecx+4]
  0002a	88 50 04	 mov	 BYTE PTR [eax+4], dl
  0002d	8b 45 fc	 mov	 eax, DWORD PTR _this$[ebp]
  00030	8b 4d 08	 mov	 ecx, DWORD PTR ___that$[ebp]
  00033	8b 51 08	 mov	 edx, DWORD PTR [ecx+8]
  00036	89 50 08	 mov	 DWORD PTR [eax+8], edx
  00039	8b 45 fc	 mov	 eax, DWORD PTR _this$[ebp]
  0003c	8b 4d 08	 mov	 ecx, DWORD PTR ___that$[ebp]
  0003f	8b 51 0c	 mov	 edx, DWORD PTR [ecx+12]
  00042	89 50 0c	 mov	 DWORD PTR [eax+12], edx
  00045	8b 45 fc	 mov	 eax, DWORD PTR _this$[ebp]
  00048	5f		 pop	 edi
  00049	5e		 pop	 esi
  0004a	5b		 pop	 ebx
  0004b	8b e5		 mov	 esp, ebp
  0004d	5d		 pop	 ebp
  0004e	c2 04 00	 ret	 4
??0CMatchServiceManager@@QAE@ABV0@@Z ENDP		; CMatchServiceManager::CMatchServiceManager
_TEXT	ENDS
; Function compile flags: /Odtp /ZI
; File g:\网狐\happygamewh\服务端\系统模块\服务器组件\比赛服务\matchservicemanager.cpp
;	COMDAT ?GetServerUserItemSink@CMatchServiceManager@@UAEPAUIUnknownEx@@XZ
_TEXT	SEGMENT
tv90 = -72						; size = 4
_this$ = -4						; size = 4
?GetServerUserItemSink@CMatchServiceManager@@UAEPAUIUnknownEx@@XZ PROC ; CMatchServiceManager::GetServerUserItemSink, COMDAT
; _this$ = ecx

; 235  : {

  00000	55		 push	 ebp
  00001	8b ec		 mov	 ebp, esp
  00003	83 ec 48	 sub	 esp, 72			; 00000048H
  00006	53		 push	 ebx
  00007	56		 push	 esi
  00008	57		 push	 edi
  00009	89 4d fc	 mov	 DWORD PTR _this$[ebp], ecx

; 236  : 	ASSERT(m_pIGameMatchItem!=NULL);

  0000c	8b 45 fc	 mov	 eax, DWORD PTR _this$[ebp]
  0000f	83 78 08 00	 cmp	 DWORD PTR [eax+8], 0
  00013	75 19		 jne	 SHORT $LN4@GetServerU
  00015	8b 0d 00 00 00
	00		 mov	 ecx, DWORD PTR ?__LINE__Var@?0??GetServerUserItemSink@CMatchServiceManager@@UAEPAUIUnknownEx@@XZ@4JA
  0001b	83 c1 01	 add	 ecx, 1
  0001e	51		 push	 ecx
  0001f	68 00 00 00 00	 push	 OFFSET ??_C@_0FA@DODPGKMC@g?3?2?M?x?$LK?$PM?2happygamewh?2?$LH?$PO?N?q?$LG?K?2?O?$LF?M?$LD@
  00024	e8 00 00 00 00	 call	 ?AfxAssertFailedLine@@YGHPBDH@Z ; AfxAssertFailedLine
  00029	85 c0		 test	 eax, eax
  0002b	74 01		 je	 SHORT $LN4@GetServerU
  0002d	cc		 int	 3
$LN4@GetServerU:

; 237  : 	if(m_pIGameMatchItem!=NULL)

  0002e	8b 45 fc	 mov	 eax, DWORD PTR _this$[ebp]
  00031	83 78 08 00	 cmp	 DWORD PTR [eax+8], 0
  00035	74 37		 je	 SHORT $LN2@GetServerU

; 238  : 	{
; 239  : 		return QUERY_OBJECT_PTR_INTERFACE(m_pIGameMatchItem,IUnknownEx);

  00037	8b 45 fc	 mov	 eax, DWORD PTR _this$[ebp]
  0003a	83 78 08 00	 cmp	 DWORD PTR [eax+8], 0
  0003e	75 09		 jne	 SHORT $LN5@GetServerU
  00040	c7 45 b8 00 00
	00 00		 mov	 DWORD PTR tv90[ebp], 0
  00047	eb 20		 jmp	 SHORT $LN6@GetServerU
$LN5@GetServerU:
  00049	68 00 01 01 06	 push	 100729088		; 06010100H
  0004e	68 00 00 00 00	 push	 OFFSET ?IID_IUnknownEx@@3U_GUID@@B
  00053	8b 4d fc	 mov	 ecx, DWORD PTR _this$[ebp]
  00056	8b 51 08	 mov	 edx, DWORD PTR [ecx+8]
  00059	8b 45 fc	 mov	 eax, DWORD PTR _this$[ebp]
  0005c	8b 12		 mov	 edx, DWORD PTR [edx]
  0005e	8b 48 08	 mov	 ecx, DWORD PTR [eax+8]
  00061	8b 42 04	 mov	 eax, DWORD PTR [edx+4]
  00064	ff d0		 call	 eax
  00066	89 45 b8	 mov	 DWORD PTR tv90[ebp], eax
$LN6@GetServerU:
  00069	8b 45 b8	 mov	 eax, DWORD PTR tv90[ebp]
  0006c	eb 02		 jmp	 SHORT $LN1@GetServerU
$LN2@GetServerU:

; 240  : 	}
; 241  : 	return NULL;

  0006e	33 c0		 xor	 eax, eax
$LN1@GetServerU:

; 242  : }

  00070	5f		 pop	 edi
  00071	5e		 pop	 esi
  00072	5b		 pop	 ebx
  00073	8b e5		 mov	 esp, ebp
  00075	5d		 pop	 ebp
  00076	c3		 ret	 0
?GetServerUserItemSink@CMatchServiceManager@@UAEPAUIUnknownEx@@XZ ENDP ; CMatchServiceManager::GetServerUserItemSink
_TEXT	ENDS
; Function compile flags: /Odtp /ZI
; File g:\网狐\happygamewh\服务端\系统模块\服务器组件\比赛服务\matchservicemanager.cpp
;	COMDAT ?OnEventUserQuitMatch@CMatchServiceManager@@UAE_NPAUIServerUserItem@@EPAGK@Z
_TEXT	SEGMENT
_this$ = -4						; size = 4
_pIServerUserItem$ = 8					; size = 4
_cbReason$ = 12						; size = 1
_pBestRank$ = 16					; size = 4
_dwContextID$ = 20					; size = 4
?OnEventUserQuitMatch@CMatchServiceManager@@UAE_NPAUIServerUserItem@@EPAGK@Z PROC ; CMatchServiceManager::OnEventUserQuitMatch, COMDAT
; _this$ = ecx

; 223  : {

  00000	55		 push	 ebp
  00001	8b ec		 mov	 ebp, esp
  00003	83 ec 44	 sub	 esp, 68			; 00000044H
  00006	53		 push	 ebx
  00007	56		 push	 esi
  00008	57		 push	 edi
  00009	89 4d fc	 mov	 DWORD PTR _this$[ebp], ecx

; 224  : 	ASSERT(m_pIGameMatchItem!=NULL);

  0000c	8b 45 fc	 mov	 eax, DWORD PTR _this$[ebp]
  0000f	83 78 08 00	 cmp	 DWORD PTR [eax+8], 0
  00013	75 19		 jne	 SHORT $LN4@OnEventUse
  00015	8b 0d 00 00 00
	00		 mov	 ecx, DWORD PTR ?__LINE__Var@?0??OnEventUserQuitMatch@CMatchServiceManager@@UAE_NPAUIServerUserItem@@EPAGK@Z@4JA
  0001b	83 c1 01	 add	 ecx, 1
  0001e	51		 push	 ecx
  0001f	68 00 00 00 00	 push	 OFFSET ??_C@_0FA@DODPGKMC@g?3?2?M?x?$LK?$PM?2happygamewh?2?$LH?$PO?N?q?$LG?K?2?O?$LF?M?$LD@
  00024	e8 00 00 00 00	 call	 ?AfxAssertFailedLine@@YGHPBDH@Z ; AfxAssertFailedLine
  00029	85 c0		 test	 eax, eax
  0002b	74 01		 je	 SHORT $LN4@OnEventUse
  0002d	cc		 int	 3
$LN4@OnEventUse:

; 225  : 	if(m_pIGameMatchItem!=NULL)

  0002e	8b 45 fc	 mov	 eax, DWORD PTR _this$[ebp]
  00031	83 78 08 00	 cmp	 DWORD PTR [eax+8], 0
  00035	74 26		 je	 SHORT $LN2@OnEventUse

; 226  : 	{
; 227  : 		return m_pIGameMatchItem->OnEventUserQuitMatch(pIServerUserItem,cbReason,pBestRank,dwContextID);	

  00037	8b 45 14	 mov	 eax, DWORD PTR _dwContextID$[ebp]
  0003a	50		 push	 eax
  0003b	8b 4d 10	 mov	 ecx, DWORD PTR _pBestRank$[ebp]
  0003e	51		 push	 ecx
  0003f	0f b6 55 0c	 movzx	 edx, BYTE PTR _cbReason$[ebp]
  00043	52		 push	 edx
  00044	8b 45 08	 mov	 eax, DWORD PTR _pIServerUserItem$[ebp]
  00047	50		 push	 eax
  00048	8b 4d fc	 mov	 ecx, DWORD PTR _this$[ebp]
  0004b	8b 51 08	 mov	 edx, DWORD PTR [ecx+8]
  0004e	8b 45 fc	 mov	 eax, DWORD PTR _this$[ebp]
  00051	8b 12		 mov	 edx, DWORD PTR [edx]
  00053	8b 48 08	 mov	 ecx, DWORD PTR [eax+8]
  00056	8b 42 34	 mov	 eax, DWORD PTR [edx+52]
  00059	ff d0		 call	 eax
  0005b	eb 02		 jmp	 SHORT $LN1@OnEventUse
$LN2@OnEventUse:

; 228  : 	}
; 229  : 
; 230  : 	return true;

  0005d	b0 01		 mov	 al, 1
$LN1@OnEventUse:

; 231  : }

  0005f	5f		 pop	 edi
  00060	5e		 pop	 esi
  00061	5b		 pop	 ebx
  00062	8b e5		 mov	 esp, ebp
  00064	5d		 pop	 ebp
  00065	c2 10 00	 ret	 16			; 00000010H
?OnEventUserQuitMatch@CMatchServiceManager@@UAE_NPAUIServerUserItem@@EPAGK@Z ENDP ; CMatchServiceManager::OnEventUserQuitMatch
_TEXT	ENDS
; Function compile flags: /Odtp /ZI
; File g:\网狐\happygamewh\服务端\系统模块\服务器组件\比赛服务\matchservicemanager.cpp
;	COMDAT ?OnEventUserJoinMatch@CMatchServiceManager@@UAE_NPAUIServerUserItem@@EK@Z
_TEXT	SEGMENT
_this$ = -4						; size = 4
_pIServerUserItem$ = 8					; size = 4
_cbReason$ = 12						; size = 1
_dwSocketID$ = 16					; size = 4
?OnEventUserJoinMatch@CMatchServiceManager@@UAE_NPAUIServerUserItem@@EK@Z PROC ; CMatchServiceManager::OnEventUserJoinMatch, COMDAT
; _this$ = ecx

; 211  : {

  00000	55		 push	 ebp
  00001	8b ec		 mov	 ebp, esp
  00003	83 ec 44	 sub	 esp, 68			; 00000044H
  00006	53		 push	 ebx
  00007	56		 push	 esi
  00008	57		 push	 edi
  00009	89 4d fc	 mov	 DWORD PTR _this$[ebp], ecx

; 212  : 	ASSERT(m_pIGameMatchItem!=NULL);

  0000c	8b 45 fc	 mov	 eax, DWORD PTR _this$[ebp]
  0000f	83 78 08 00	 cmp	 DWORD PTR [eax+8], 0
  00013	75 19		 jne	 SHORT $LN4@OnEventUse
  00015	8b 0d 00 00 00
	00		 mov	 ecx, DWORD PTR ?__LINE__Var@?0??OnEventUserJoinMatch@CMatchServiceManager@@UAE_NPAUIServerUserItem@@EK@Z@4JA
  0001b	83 c1 01	 add	 ecx, 1
  0001e	51		 push	 ecx
  0001f	68 00 00 00 00	 push	 OFFSET ??_C@_0FA@DODPGKMC@g?3?2?M?x?$LK?$PM?2happygamewh?2?$LH?$PO?N?q?$LG?K?2?O?$LF?M?$LD@
  00024	e8 00 00 00 00	 call	 ?AfxAssertFailedLine@@YGHPBDH@Z ; AfxAssertFailedLine
  00029	85 c0		 test	 eax, eax
  0002b	74 01		 je	 SHORT $LN4@OnEventUse
  0002d	cc		 int	 3
$LN4@OnEventUse:

; 213  : 	if(m_pIGameMatchItem!=NULL)

  0002e	8b 45 fc	 mov	 eax, DWORD PTR _this$[ebp]
  00031	83 78 08 00	 cmp	 DWORD PTR [eax+8], 0
  00035	74 22		 je	 SHORT $LN2@OnEventUse

; 214  : 	{
; 215  : 		return m_pIGameMatchItem->OnEventUserJoinMatch(pIServerUserItem,cbReason,dwSocketID);	

  00037	8b 45 10	 mov	 eax, DWORD PTR _dwSocketID$[ebp]
  0003a	50		 push	 eax
  0003b	0f b6 4d 0c	 movzx	 ecx, BYTE PTR _cbReason$[ebp]
  0003f	51		 push	 ecx
  00040	8b 55 08	 mov	 edx, DWORD PTR _pIServerUserItem$[ebp]
  00043	52		 push	 edx
  00044	8b 45 fc	 mov	 eax, DWORD PTR _this$[ebp]
  00047	8b 48 08	 mov	 ecx, DWORD PTR [eax+8]
  0004a	8b 55 fc	 mov	 edx, DWORD PTR _this$[ebp]
  0004d	8b 01		 mov	 eax, DWORD PTR [ecx]
  0004f	8b 4a 08	 mov	 ecx, DWORD PTR [edx+8]
  00052	8b 50 30	 mov	 edx, DWORD PTR [eax+48]
  00055	ff d2		 call	 edx
  00057	eb 02		 jmp	 SHORT $LN1@OnEventUse
$LN2@OnEventUse:

; 216  : 	}
; 217  : 
; 218  : 	return true;

  00059	b0 01		 mov	 al, 1
$LN1@OnEventUse:

; 219  : }

  0005b	5f		 pop	 edi
  0005c	5e		 pop	 esi
  0005d	5b		 pop	 ebx
  0005e	8b e5		 mov	 esp, ebp
  00060	5d		 pop	 ebp
  00061	c2 0c 00	 ret	 12			; 0000000cH
?OnEventUserJoinMatch@CMatchServiceManager@@UAE_NPAUIServerUserItem@@EK@Z ENDP ; CMatchServiceManager::OnEventUserJoinMatch
_TEXT	ENDS
; Function compile flags: /Odtp /ZI
; File g:\网狐\happygamewh\服务端\系统模块\服务器组件\比赛服务\matchservicemanager.cpp
;	COMDAT ?OnEventEnterMatch@CMatchServiceManager@@UAE_NKPAXK_N@Z
_TEXT	SEGMENT
_this$ = -4						; size = 4
_dwSocketID$ = 8					; size = 4
_pData$ = 12						; size = 4
_dwUserIP$ = 16						; size = 4
_bIsMobile$ = 20					; size = 1
?OnEventEnterMatch@CMatchServiceManager@@UAE_NKPAXK_N@Z PROC ; CMatchServiceManager::OnEventEnterMatch, COMDAT
; _this$ = ecx

; 198  : {

  00000	55		 push	 ebp
  00001	8b ec		 mov	 ebp, esp
  00003	83 ec 44	 sub	 esp, 68			; 00000044H
  00006	53		 push	 ebx
  00007	56		 push	 esi
  00008	57		 push	 edi
  00009	89 4d fc	 mov	 DWORD PTR _this$[ebp], ecx

; 199  : 	ASSERT(m_pIGameMatchItem!=NULL);

  0000c	8b 45 fc	 mov	 eax, DWORD PTR _this$[ebp]
  0000f	83 78 08 00	 cmp	 DWORD PTR [eax+8], 0
  00013	75 19		 jne	 SHORT $LN4@OnEventEnt
  00015	8b 0d 00 00 00
	00		 mov	 ecx, DWORD PTR ?__LINE__Var@?0??OnEventEnterMatch@CMatchServiceManager@@UAE_NKPAXK_N@Z@4JA
  0001b	83 c1 01	 add	 ecx, 1
  0001e	51		 push	 ecx
  0001f	68 00 00 00 00	 push	 OFFSET ??_C@_0FA@DODPGKMC@g?3?2?M?x?$LK?$PM?2happygamewh?2?$LH?$PO?N?q?$LG?K?2?O?$LF?M?$LD@
  00024	e8 00 00 00 00	 call	 ?AfxAssertFailedLine@@YGHPBDH@Z ; AfxAssertFailedLine
  00029	85 c0		 test	 eax, eax
  0002b	74 01		 je	 SHORT $LN4@OnEventEnt
  0002d	cc		 int	 3
$LN4@OnEventEnt:

; 200  : 	if(m_pIGameMatchItem!=NULL)

  0002e	8b 45 fc	 mov	 eax, DWORD PTR _this$[ebp]
  00031	83 78 08 00	 cmp	 DWORD PTR [eax+8], 0
  00035	74 26		 je	 SHORT $LN2@OnEventEnt

; 201  : 	{
; 202  : 		return m_pIGameMatchItem->OnEventEnterMatch(dwSocketID, pData, dwUserIP, bIsMobile);	

  00037	0f b6 45 14	 movzx	 eax, BYTE PTR _bIsMobile$[ebp]
  0003b	50		 push	 eax
  0003c	8b 4d 10	 mov	 ecx, DWORD PTR _dwUserIP$[ebp]
  0003f	51		 push	 ecx
  00040	8b 55 0c	 mov	 edx, DWORD PTR _pData$[ebp]
  00043	52		 push	 edx
  00044	8b 45 08	 mov	 eax, DWORD PTR _dwSocketID$[ebp]
  00047	50		 push	 eax
  00048	8b 4d fc	 mov	 ecx, DWORD PTR _this$[ebp]
  0004b	8b 51 08	 mov	 edx, DWORD PTR [ecx+8]
  0004e	8b 45 fc	 mov	 eax, DWORD PTR _this$[ebp]
  00051	8b 12		 mov	 edx, DWORD PTR [edx]
  00053	8b 48 08	 mov	 ecx, DWORD PTR [eax+8]
  00056	8b 42 2c	 mov	 eax, DWORD PTR [edx+44]
  00059	ff d0		 call	 eax
  0005b	eb 02		 jmp	 SHORT $LN1@OnEventEnt
$LN2@OnEventEnt:

; 203  : 	}
; 204  : 
; 205  : 	return true;

  0005d	b0 01		 mov	 al, 1
$LN1@OnEventEnt:

; 206  : 	
; 207  : }

  0005f	5f		 pop	 edi
  00060	5e		 pop	 esi
  00061	5b		 pop	 ebx
  00062	8b e5		 mov	 esp, ebp
  00064	5d		 pop	 ebp
  00065	c2 10 00	 ret	 16			; 00000010H
?OnEventEnterMatch@CMatchServiceManager@@UAE_NKPAXK_N@Z ENDP ; CMatchServiceManager::OnEventEnterMatch
_TEXT	ENDS
; Function compile flags: /Odtp /ZI
; File g:\网狐\happygamewh\服务端\系统模块\服务器组件\比赛服务\matchservicemanager.cpp
;	COMDAT ?OnEventUserLogonFinish@CMatchServiceManager@@UAE_NPAUIServerUserItem@@@Z
_TEXT	SEGMENT
_this$ = -4						; size = 4
_pIServerUserItem$ = 8					; size = 4
?OnEventUserLogonFinish@CMatchServiceManager@@UAE_NPAUIServerUserItem@@@Z PROC ; CMatchServiceManager::OnEventUserLogonFinish, COMDAT
; _this$ = ecx

; 186  : {

  00000	55		 push	 ebp
  00001	8b ec		 mov	 ebp, esp
  00003	83 ec 44	 sub	 esp, 68			; 00000044H
  00006	53		 push	 ebx
  00007	56		 push	 esi
  00008	57		 push	 edi
  00009	89 4d fc	 mov	 DWORD PTR _this$[ebp], ecx

; 187  : 	ASSERT(m_pIGameMatchItem!=NULL);

  0000c	8b 45 fc	 mov	 eax, DWORD PTR _this$[ebp]
  0000f	83 78 08 00	 cmp	 DWORD PTR [eax+8], 0
  00013	75 19		 jne	 SHORT $LN4@OnEventUse
  00015	8b 0d 00 00 00
	00		 mov	 ecx, DWORD PTR ?__LINE__Var@?0??OnEventUserLogonFinish@CMatchServiceManager@@UAE_NPAUIServerUserItem@@@Z@4JA
  0001b	83 c1 01	 add	 ecx, 1
  0001e	51		 push	 ecx
  0001f	68 00 00 00 00	 push	 OFFSET ??_C@_0FA@DODPGKMC@g?3?2?M?x?$LK?$PM?2happygamewh?2?$LH?$PO?N?q?$LG?K?2?O?$LF?M?$LD@
  00024	e8 00 00 00 00	 call	 ?AfxAssertFailedLine@@YGHPBDH@Z ; AfxAssertFailedLine
  00029	85 c0		 test	 eax, eax
  0002b	74 01		 je	 SHORT $LN4@OnEventUse
  0002d	cc		 int	 3
$LN4@OnEventUse:

; 188  : 	if(m_pIGameMatchItem!=NULL)

  0002e	8b 45 fc	 mov	 eax, DWORD PTR _this$[ebp]
  00031	83 78 08 00	 cmp	 DWORD PTR [eax+8], 0
  00035	74 19		 je	 SHORT $LN2@OnEventUse

; 189  : 	{
; 190  : 		return m_pIGameMatchItem->OnEventUserLogonFinish(pIServerUserItem);	

  00037	8b 45 08	 mov	 eax, DWORD PTR _pIServerUserItem$[ebp]
  0003a	50		 push	 eax
  0003b	8b 4d fc	 mov	 ecx, DWORD PTR _this$[ebp]
  0003e	8b 51 08	 mov	 edx, DWORD PTR [ecx+8]
  00041	8b 45 fc	 mov	 eax, DWORD PTR _this$[ebp]
  00044	8b 12		 mov	 edx, DWORD PTR [edx]
  00046	8b 48 08	 mov	 ecx, DWORD PTR [eax+8]
  00049	8b 42 28	 mov	 eax, DWORD PTR [edx+40]
  0004c	ff d0		 call	 eax
  0004e	eb 02		 jmp	 SHORT $LN1@OnEventUse
$LN2@OnEventUse:

; 191  : 	}
; 192  : 
; 193  : 	return true;

  00050	b0 01		 mov	 al, 1
$LN1@OnEventUse:

; 194  : }

  00052	5f		 pop	 edi
  00053	5e		 pop	 esi
  00054	5b		 pop	 ebx
  00055	8b e5		 mov	 esp, ebp
  00057	5d		 pop	 ebp
  00058	c2 04 00	 ret	 4
?OnEventUserLogonFinish@CMatchServiceManager@@UAE_NPAUIServerUserItem@@@Z ENDP ; CMatchServiceManager::OnEventUserLogonFinish
_TEXT	ENDS
; Function compile flags: /Odtp /ZI
; File g:\网狐\happygamewh\服务端\系统模块\服务器组件\比赛服务\matchservicemanager.cpp
;	COMDAT ?OnEventUserLogout@CMatchServiceManager@@UAE_NPAUIServerUserItem@@@Z
_TEXT	SEGMENT
_this$ = -4						; size = 4
_pIServerUserItem$ = 8					; size = 4
?OnEventUserLogout@CMatchServiceManager@@UAE_NPAUIServerUserItem@@@Z PROC ; CMatchServiceManager::OnEventUserLogout, COMDAT
; _this$ = ecx

; 174  : {

  00000	55		 push	 ebp
  00001	8b ec		 mov	 ebp, esp
  00003	83 ec 44	 sub	 esp, 68			; 00000044H
  00006	53		 push	 ebx
  00007	56		 push	 esi
  00008	57		 push	 edi
  00009	89 4d fc	 mov	 DWORD PTR _this$[ebp], ecx

; 175  : 	ASSERT(m_pIGameMatchItem!=NULL);

  0000c	8b 45 fc	 mov	 eax, DWORD PTR _this$[ebp]
  0000f	83 78 08 00	 cmp	 DWORD PTR [eax+8], 0
  00013	75 19		 jne	 SHORT $LN4@OnEventUse
  00015	8b 0d 00 00 00
	00		 mov	 ecx, DWORD PTR ?__LINE__Var@?0??OnEventUserLogout@CMatchServiceManager@@UAE_NPAUIServerUserItem@@@Z@4JA
  0001b	83 c1 01	 add	 ecx, 1
  0001e	51		 push	 ecx
  0001f	68 00 00 00 00	 push	 OFFSET ??_C@_0FA@DODPGKMC@g?3?2?M?x?$LK?$PM?2happygamewh?2?$LH?$PO?N?q?$LG?K?2?O?$LF?M?$LD@
  00024	e8 00 00 00 00	 call	 ?AfxAssertFailedLine@@YGHPBDH@Z ; AfxAssertFailedLine
  00029	85 c0		 test	 eax, eax
  0002b	74 01		 je	 SHORT $LN4@OnEventUse
  0002d	cc		 int	 3
$LN4@OnEventUse:

; 176  : 	if(m_pIGameMatchItem!=NULL)

  0002e	8b 45 fc	 mov	 eax, DWORD PTR _this$[ebp]
  00031	83 78 08 00	 cmp	 DWORD PTR [eax+8], 0
  00035	74 19		 je	 SHORT $LN2@OnEventUse

; 177  : 	{
; 178  : 		return m_pIGameMatchItem->OnEventUserLogout(pIServerUserItem);	

  00037	8b 45 08	 mov	 eax, DWORD PTR _pIServerUserItem$[ebp]
  0003a	50		 push	 eax
  0003b	8b 4d fc	 mov	 ecx, DWORD PTR _this$[ebp]
  0003e	8b 51 08	 mov	 edx, DWORD PTR [ecx+8]
  00041	8b 45 fc	 mov	 eax, DWORD PTR _this$[ebp]
  00044	8b 12		 mov	 edx, DWORD PTR [edx]
  00046	8b 48 08	 mov	 ecx, DWORD PTR [eax+8]
  00049	8b 42 24	 mov	 eax, DWORD PTR [edx+36]
  0004c	ff d0		 call	 eax
  0004e	eb 02		 jmp	 SHORT $LN1@OnEventUse
$LN2@OnEventUse:

; 179  : 	}
; 180  : 
; 181  : 	return true;

  00050	b0 01		 mov	 al, 1
$LN1@OnEventUse:

; 182  : }

  00052	5f		 pop	 edi
  00053	5e		 pop	 esi
  00054	5b		 pop	 ebx
  00055	8b e5		 mov	 esp, ebp
  00057	5d		 pop	 ebp
  00058	c2 04 00	 ret	 4
?OnEventUserLogout@CMatchServiceManager@@UAE_NPAUIServerUserItem@@@Z ENDP ; CMatchServiceManager::OnEventUserLogout
_TEXT	ENDS
; Function compile flags: /Odtp /ZI
; File g:\网狐\happygamewh\服务端\系统模块\服务器组件\比赛服务\matchservicemanager.cpp
;	COMDAT ?OnEventUserLogon@CMatchServiceManager@@UAE_NPAUIServerUserItem@@@Z
_TEXT	SEGMENT
_this$ = -4						; size = 4
_pIServerUserItem$ = 8					; size = 4
?OnEventUserLogon@CMatchServiceManager@@UAE_NPAUIServerUserItem@@@Z PROC ; CMatchServiceManager::OnEventUserLogon, COMDAT
; _this$ = ecx

; 162  : {

  00000	55		 push	 ebp
  00001	8b ec		 mov	 ebp, esp
  00003	83 ec 44	 sub	 esp, 68			; 00000044H
  00006	53		 push	 ebx
  00007	56		 push	 esi
  00008	57		 push	 edi
  00009	89 4d fc	 mov	 DWORD PTR _this$[ebp], ecx

; 163  : 	ASSERT(m_pIGameMatchItem!=NULL);

  0000c	8b 45 fc	 mov	 eax, DWORD PTR _this$[ebp]
  0000f	83 78 08 00	 cmp	 DWORD PTR [eax+8], 0
  00013	75 19		 jne	 SHORT $LN4@OnEventUse
  00015	8b 0d 00 00 00
	00		 mov	 ecx, DWORD PTR ?__LINE__Var@?0??OnEventUserLogon@CMatchServiceManager@@UAE_NPAUIServerUserItem@@@Z@4JA
  0001b	83 c1 01	 add	 ecx, 1
  0001e	51		 push	 ecx
  0001f	68 00 00 00 00	 push	 OFFSET ??_C@_0FA@DODPGKMC@g?3?2?M?x?$LK?$PM?2happygamewh?2?$LH?$PO?N?q?$LG?K?2?O?$LF?M?$LD@
  00024	e8 00 00 00 00	 call	 ?AfxAssertFailedLine@@YGHPBDH@Z ; AfxAssertFailedLine
  00029	85 c0		 test	 eax, eax
  0002b	74 01		 je	 SHORT $LN4@OnEventUse
  0002d	cc		 int	 3
$LN4@OnEventUse:

; 164  : 	if(m_pIGameMatchItem!=NULL)

  0002e	8b 45 fc	 mov	 eax, DWORD PTR _this$[ebp]
  00031	83 78 08 00	 cmp	 DWORD PTR [eax+8], 0
  00035	74 19		 je	 SHORT $LN2@OnEventUse

; 165  : 	{
; 166  : 		return m_pIGameMatchItem->OnEventUserLogon(pIServerUserItem);	

  00037	8b 45 08	 mov	 eax, DWORD PTR _pIServerUserItem$[ebp]
  0003a	50		 push	 eax
  0003b	8b 4d fc	 mov	 ecx, DWORD PTR _this$[ebp]
  0003e	8b 51 08	 mov	 edx, DWORD PTR [ecx+8]
  00041	8b 45 fc	 mov	 eax, DWORD PTR _this$[ebp]
  00044	8b 12		 mov	 edx, DWORD PTR [edx]
  00046	8b 48 08	 mov	 ecx, DWORD PTR [eax+8]
  00049	8b 42 20	 mov	 eax, DWORD PTR [edx+32]
  0004c	ff d0		 call	 eax
  0004e	eb 02		 jmp	 SHORT $LN1@OnEventUse
$LN2@OnEventUse:

; 167  : 	}
; 168  : 
; 169  : 	return true;

  00050	b0 01		 mov	 al, 1
$LN1@OnEventUse:

; 170  : }

  00052	5f		 pop	 edi
  00053	5e		 pop	 esi
  00054	5b		 pop	 ebx
  00055	8b e5		 mov	 esp, ebp
  00057	5d		 pop	 ebp
  00058	c2 04 00	 ret	 4
?OnEventUserLogon@CMatchServiceManager@@UAE_NPAUIServerUserItem@@@Z ENDP ; CMatchServiceManager::OnEventUserLogon
_TEXT	ENDS
; Function compile flags: /Odtp /ZI
; File g:\网狐\happygamewh\服务端\系统模块\服务器组件\比赛服务\matchservicemanager.cpp
;	COMDAT ?OnEventSocketMatch@CMatchServiceManager@@UAE_NGPAXGPAUIServerUserItem@@K@Z
_TEXT	SEGMENT
_this$ = -4						; size = 4
_wSubCmdID$ = 8						; size = 2
_pData$ = 12						; size = 4
_wDataSize$ = 16					; size = 2
_pIServerUserItem$ = 20					; size = 4
_dwSocketID$ = 24					; size = 4
?OnEventSocketMatch@CMatchServiceManager@@UAE_NGPAXGPAUIServerUserItem@@K@Z PROC ; CMatchServiceManager::OnEventSocketMatch, COMDAT
; _this$ = ecx

; 150  : {

  00000	55		 push	 ebp
  00001	8b ec		 mov	 ebp, esp
  00003	83 ec 44	 sub	 esp, 68			; 00000044H
  00006	53		 push	 ebx
  00007	56		 push	 esi
  00008	57		 push	 edi
  00009	89 4d fc	 mov	 DWORD PTR _this$[ebp], ecx

; 151  : 	ASSERT(m_pIGameMatchItem!=NULL);

  0000c	8b 45 fc	 mov	 eax, DWORD PTR _this$[ebp]
  0000f	83 78 08 00	 cmp	 DWORD PTR [eax+8], 0
  00013	75 19		 jne	 SHORT $LN4@OnEventSoc
  00015	8b 0d 00 00 00
	00		 mov	 ecx, DWORD PTR ?__LINE__Var@?0??OnEventSocketMatch@CMatchServiceManager@@UAE_NGPAXGPAUIServerUserItem@@K@Z@4JA
  0001b	83 c1 01	 add	 ecx, 1
  0001e	51		 push	 ecx
  0001f	68 00 00 00 00	 push	 OFFSET ??_C@_0FA@DODPGKMC@g?3?2?M?x?$LK?$PM?2happygamewh?2?$LH?$PO?N?q?$LG?K?2?O?$LF?M?$LD@
  00024	e8 00 00 00 00	 call	 ?AfxAssertFailedLine@@YGHPBDH@Z ; AfxAssertFailedLine
  00029	85 c0		 test	 eax, eax
  0002b	74 01		 je	 SHORT $LN4@OnEventSoc
  0002d	cc		 int	 3
$LN4@OnEventSoc:

; 152  : 	if(m_pIGameMatchItem!=NULL)

  0002e	8b 45 fc	 mov	 eax, DWORD PTR _this$[ebp]
  00031	83 78 08 00	 cmp	 DWORD PTR [eax+8], 0
  00035	74 2b		 je	 SHORT $LN2@OnEventSoc

; 153  : 	{
; 154  : 		return m_pIGameMatchItem->OnEventSocketMatch(wSubCmdID,pData,wDataSize,pIServerUserItem,dwSocketID);	

  00037	8b 45 18	 mov	 eax, DWORD PTR _dwSocketID$[ebp]
  0003a	50		 push	 eax
  0003b	8b 4d 14	 mov	 ecx, DWORD PTR _pIServerUserItem$[ebp]
  0003e	51		 push	 ecx
  0003f	0f b7 55 10	 movzx	 edx, WORD PTR _wDataSize$[ebp]
  00043	52		 push	 edx
  00044	8b 45 0c	 mov	 eax, DWORD PTR _pData$[ebp]
  00047	50		 push	 eax
  00048	0f b7 4d 08	 movzx	 ecx, WORD PTR _wSubCmdID$[ebp]
  0004c	51		 push	 ecx
  0004d	8b 55 fc	 mov	 edx, DWORD PTR _this$[ebp]
  00050	8b 42 08	 mov	 eax, DWORD PTR [edx+8]
  00053	8b 4d fc	 mov	 ecx, DWORD PTR _this$[ebp]
  00056	8b 10		 mov	 edx, DWORD PTR [eax]
  00058	8b 49 08	 mov	 ecx, DWORD PTR [ecx+8]
  0005b	8b 42 1c	 mov	 eax, DWORD PTR [edx+28]
  0005e	ff d0		 call	 eax
  00060	eb 02		 jmp	 SHORT $LN1@OnEventSoc
$LN2@OnEventSoc:

; 155  : 	}
; 156  : 
; 157  : 	return true;

  00062	b0 01		 mov	 al, 1
$LN1@OnEventSoc:

; 158  : }

  00064	5f		 pop	 edi
  00065	5e		 pop	 esi
  00066	5b		 pop	 ebx
  00067	8b e5		 mov	 esp, ebp
  00069	5d		 pop	 ebp
  0006a	c2 14 00	 ret	 20			; 00000014H
?OnEventSocketMatch@CMatchServiceManager@@UAE_NGPAXGPAUIServerUserItem@@K@Z ENDP ; CMatchServiceManager::OnEventSocketMatch
_TEXT	ENDS
; Function compile flags: /Odtp /ZI
; File g:\网狐\happygamewh\服务端\系统模块\服务器组件\比赛服务\matchservicemanager.cpp
;	COMDAT ?OnEventDataBase@CMatchServiceManager@@UAE_NGPAUIServerUserItem@@PAXGK@Z
_TEXT	SEGMENT
_this$ = -4						; size = 4
_wRequestID$ = 8					; size = 2
_pIServerUserItem$ = 12					; size = 4
_pData$ = 16						; size = 4
_wDataSize$ = 20					; size = 2
_dwContextID$ = 24					; size = 4
?OnEventDataBase@CMatchServiceManager@@UAE_NGPAUIServerUserItem@@PAXGK@Z PROC ; CMatchServiceManager::OnEventDataBase, COMDAT
; _this$ = ecx

; 137  : {

  00000	55		 push	 ebp
  00001	8b ec		 mov	 ebp, esp
  00003	83 ec 44	 sub	 esp, 68			; 00000044H
  00006	53		 push	 ebx
  00007	56		 push	 esi
  00008	57		 push	 edi
  00009	89 4d fc	 mov	 DWORD PTR _this$[ebp], ecx

; 138  : 	ASSERT(m_pIGameMatchItem!=NULL);

  0000c	8b 45 fc	 mov	 eax, DWORD PTR _this$[ebp]
  0000f	83 78 08 00	 cmp	 DWORD PTR [eax+8], 0
  00013	75 19		 jne	 SHORT $LN4@OnEventDat
  00015	8b 0d 00 00 00
	00		 mov	 ecx, DWORD PTR ?__LINE__Var@?0??OnEventDataBase@CMatchServiceManager@@UAE_NGPAUIServerUserItem@@PAXGK@Z@4JA
  0001b	83 c1 01	 add	 ecx, 1
  0001e	51		 push	 ecx
  0001f	68 00 00 00 00	 push	 OFFSET ??_C@_0FA@DODPGKMC@g?3?2?M?x?$LK?$PM?2happygamewh?2?$LH?$PO?N?q?$LG?K?2?O?$LF?M?$LD@
  00024	e8 00 00 00 00	 call	 ?AfxAssertFailedLine@@YGHPBDH@Z ; AfxAssertFailedLine
  00029	85 c0		 test	 eax, eax
  0002b	74 01		 je	 SHORT $LN4@OnEventDat
  0002d	cc		 int	 3
$LN4@OnEventDat:

; 139  : 	if(m_pIGameMatchItem!=NULL)

  0002e	8b 45 fc	 mov	 eax, DWORD PTR _this$[ebp]
  00031	83 78 08 00	 cmp	 DWORD PTR [eax+8], 0
  00035	74 2b		 je	 SHORT $LN2@OnEventDat

; 140  : 	{
; 141  : 		return m_pIGameMatchItem->OnEventDataBase(wRequestID,pIServerUserItem,pData,wDataSize,dwContextID);	

  00037	8b 45 18	 mov	 eax, DWORD PTR _dwContextID$[ebp]
  0003a	50		 push	 eax
  0003b	0f b7 4d 14	 movzx	 ecx, WORD PTR _wDataSize$[ebp]
  0003f	51		 push	 ecx
  00040	8b 55 10	 mov	 edx, DWORD PTR _pData$[ebp]
  00043	52		 push	 edx
  00044	8b 45 0c	 mov	 eax, DWORD PTR _pIServerUserItem$[ebp]
  00047	50		 push	 eax
  00048	0f b7 4d 08	 movzx	 ecx, WORD PTR _wRequestID$[ebp]
  0004c	51		 push	 ecx
  0004d	8b 55 fc	 mov	 edx, DWORD PTR _this$[ebp]
  00050	8b 42 08	 mov	 eax, DWORD PTR [edx+8]
  00053	8b 4d fc	 mov	 ecx, DWORD PTR _this$[ebp]
  00056	8b 10		 mov	 edx, DWORD PTR [eax]
  00058	8b 49 08	 mov	 ecx, DWORD PTR [ecx+8]
  0005b	8b 42 18	 mov	 eax, DWORD PTR [edx+24]
  0005e	ff d0		 call	 eax
  00060	eb 02		 jmp	 SHORT $LN1@OnEventDat
$LN2@OnEventDat:

; 142  : 	}
; 143  : 
; 144  : 	return true;

  00062	b0 01		 mov	 al, 1
$LN1@OnEventDat:

; 145  : }

  00064	5f		 pop	 edi
  00065	5e		 pop	 esi
  00066	5b		 pop	 ebx
  00067	8b e5		 mov	 esp, ebp
  00069	5d		 pop	 ebp
  0006a	c2 14 00	 ret	 20			; 00000014H
?OnEventDataBase@CMatchServiceManager@@UAE_NGPAUIServerUserItem@@PAXGK@Z ENDP ; CMatchServiceManager::OnEventDataBase
_TEXT	ENDS
; Function compile flags: /Odtp /ZI
; File g:\网狐\happygamewh\服务端\系统模块\服务器组件\比赛服务\matchservicemanager.cpp
;	COMDAT ?OnEventTimer@CMatchServiceManager@@UAE_NKI@Z
_TEXT	SEGMENT
_this$ = -4						; size = 4
_dwTimerID$ = 8						; size = 4
_dwBindParameter$ = 12					; size = 4
?OnEventTimer@CMatchServiceManager@@UAE_NKI@Z PROC	; CMatchServiceManager::OnEventTimer, COMDAT
; _this$ = ecx

; 125  : {

  00000	55		 push	 ebp
  00001	8b ec		 mov	 ebp, esp
  00003	83 ec 44	 sub	 esp, 68			; 00000044H
  00006	53		 push	 ebx
  00007	56		 push	 esi
  00008	57		 push	 edi
  00009	89 4d fc	 mov	 DWORD PTR _this$[ebp], ecx

; 126  : 	ASSERT(m_pIGameMatchItem!=NULL);

  0000c	8b 45 fc	 mov	 eax, DWORD PTR _this$[ebp]
  0000f	83 78 08 00	 cmp	 DWORD PTR [eax+8], 0
  00013	75 19		 jne	 SHORT $LN4@OnEventTim
  00015	8b 0d 00 00 00
	00		 mov	 ecx, DWORD PTR ?__LINE__Var@?0??OnEventTimer@CMatchServiceManager@@UAE_NKI@Z@4JA
  0001b	83 c1 01	 add	 ecx, 1
  0001e	51		 push	 ecx
  0001f	68 00 00 00 00	 push	 OFFSET ??_C@_0FA@DODPGKMC@g?3?2?M?x?$LK?$PM?2happygamewh?2?$LH?$PO?N?q?$LG?K?2?O?$LF?M?$LD@
  00024	e8 00 00 00 00	 call	 ?AfxAssertFailedLine@@YGHPBDH@Z ; AfxAssertFailedLine
  00029	85 c0		 test	 eax, eax
  0002b	74 01		 je	 SHORT $LN4@OnEventTim
  0002d	cc		 int	 3
$LN4@OnEventTim:

; 127  : 	if(m_pIGameMatchItem!=NULL)

  0002e	8b 45 fc	 mov	 eax, DWORD PTR _this$[ebp]
  00031	83 78 08 00	 cmp	 DWORD PTR [eax+8], 0
  00035	74 1d		 je	 SHORT $LN2@OnEventTim

; 128  : 	{
; 129  : 		return m_pIGameMatchItem->OnEventTimer(dwTimerID,dwBindParameter);	

  00037	8b 45 0c	 mov	 eax, DWORD PTR _dwBindParameter$[ebp]
  0003a	50		 push	 eax
  0003b	8b 4d 08	 mov	 ecx, DWORD PTR _dwTimerID$[ebp]
  0003e	51		 push	 ecx
  0003f	8b 55 fc	 mov	 edx, DWORD PTR _this$[ebp]
  00042	8b 42 08	 mov	 eax, DWORD PTR [edx+8]
  00045	8b 4d fc	 mov	 ecx, DWORD PTR _this$[ebp]
  00048	8b 10		 mov	 edx, DWORD PTR [eax]
  0004a	8b 49 08	 mov	 ecx, DWORD PTR [ecx+8]
  0004d	8b 42 14	 mov	 eax, DWORD PTR [edx+20]
  00050	ff d0		 call	 eax
  00052	eb 02		 jmp	 SHORT $LN1@OnEventTim
$LN2@OnEventTim:

; 130  : 	}
; 131  : 
; 132  : 	return true;

  00054	b0 01		 mov	 al, 1
$LN1@OnEventTim:

; 133  : }

  00056	5f		 pop	 edi
  00057	5e		 pop	 esi
  00058	5b		 pop	 ebx
  00059	8b e5		 mov	 esp, ebp
  0005b	5d		 pop	 ebp
  0005c	c2 08 00	 ret	 8
?OnEventTimer@CMatchServiceManager@@UAE_NKI@Z ENDP	; CMatchServiceManager::OnEventTimer
_TEXT	ENDS
; Function compile flags: /Odtp /ZI
; File g:\网狐\happygamewh\服务端\系统模块\服务器组件\比赛服务\matchservicemanager.cpp
;	COMDAT ?InitMatchInterface@CMatchServiceManager@@UAE_NAAUtagMatchManagerParameter@@@Z
_TEXT	SEGMENT
_this$ = -4						; size = 4
_MatchManagerParameter$ = 8				; size = 4
?InitMatchInterface@CMatchServiceManager@@UAE_NAAUtagMatchManagerParameter@@@Z PROC ; CMatchServiceManager::InitMatchInterface, COMDAT
; _this$ = ecx

; 113  : {

  00000	55		 push	 ebp
  00001	8b ec		 mov	 ebp, esp
  00003	83 ec 44	 sub	 esp, 68			; 00000044H
  00006	53		 push	 ebx
  00007	56		 push	 esi
  00008	57		 push	 edi
  00009	89 4d fc	 mov	 DWORD PTR _this$[ebp], ecx

; 114  : 	ASSERT(m_pIGameMatchItem!=NULL);

  0000c	8b 45 fc	 mov	 eax, DWORD PTR _this$[ebp]
  0000f	83 78 08 00	 cmp	 DWORD PTR [eax+8], 0
  00013	75 19		 jne	 SHORT $LN4@InitMatchI
  00015	8b 0d 00 00 00
	00		 mov	 ecx, DWORD PTR ?__LINE__Var@?0??InitMatchInterface@CMatchServiceManager@@UAE_NAAUtagMatchManagerParameter@@@Z@4JA
  0001b	83 c1 01	 add	 ecx, 1
  0001e	51		 push	 ecx
  0001f	68 00 00 00 00	 push	 OFFSET ??_C@_0FA@DODPGKMC@g?3?2?M?x?$LK?$PM?2happygamewh?2?$LH?$PO?N?q?$LG?K?2?O?$LF?M?$LD@
  00024	e8 00 00 00 00	 call	 ?AfxAssertFailedLine@@YGHPBDH@Z ; AfxAssertFailedLine
  00029	85 c0		 test	 eax, eax
  0002b	74 01		 je	 SHORT $LN4@InitMatchI
  0002d	cc		 int	 3
$LN4@InitMatchI:

; 115  : 	if(m_pIGameMatchItem!=NULL)

  0002e	8b 45 fc	 mov	 eax, DWORD PTR _this$[ebp]
  00031	83 78 08 00	 cmp	 DWORD PTR [eax+8], 0
  00035	74 19		 je	 SHORT $LN2@InitMatchI

; 116  : 	{
; 117  : 		return m_pIGameMatchItem->InitMatchInterface(MatchManagerParameter);

  00037	8b 45 08	 mov	 eax, DWORD PTR _MatchManagerParameter$[ebp]
  0003a	50		 push	 eax
  0003b	8b 4d fc	 mov	 ecx, DWORD PTR _this$[ebp]
  0003e	8b 51 08	 mov	 edx, DWORD PTR [ecx+8]
  00041	8b 45 fc	 mov	 eax, DWORD PTR _this$[ebp]
  00044	8b 12		 mov	 edx, DWORD PTR [edx]
  00046	8b 48 08	 mov	 ecx, DWORD PTR [eax+8]
  00049	8b 42 10	 mov	 eax, DWORD PTR [edx+16]
  0004c	ff d0		 call	 eax
  0004e	eb 02		 jmp	 SHORT $LN1@InitMatchI
$LN2@InitMatchI:

; 118  : 	}
; 119  : 
; 120  : 	return true;

  00050	b0 01		 mov	 al, 1
$LN1@InitMatchI:

; 121  : }

  00052	5f		 pop	 edi
  00053	5e		 pop	 esi
  00054	5b		 pop	 ebx
  00055	8b e5		 mov	 esp, ebp
  00057	5d		 pop	 ebp
  00058	c2 04 00	 ret	 4
?InitMatchInterface@CMatchServiceManager@@UAE_NAAUtagMatchManagerParameter@@@Z ENDP ; CMatchServiceManager::InitMatchInterface
_TEXT	ENDS
; Function compile flags: /Odtp /ZI
; File g:\网狐\happygamewh\服务端\系统模块\服务器组件\比赛服务\matchservicemanager.cpp
;	COMDAT ?BindTableFrame@CMatchServiceManager@@UAE_NPAUITableFrame@@G@Z
_TEXT	SEGMENT
_this$ = -4						; size = 4
_pTableFrame$ = 8					; size = 4
_wTableID$ = 12						; size = 2
?BindTableFrame@CMatchServiceManager@@UAE_NPAUITableFrame@@G@Z PROC ; CMatchServiceManager::BindTableFrame, COMDAT
; _this$ = ecx

; 100  : {

  00000	55		 push	 ebp
  00001	8b ec		 mov	 ebp, esp
  00003	83 ec 44	 sub	 esp, 68			; 00000044H
  00006	53		 push	 ebx
  00007	56		 push	 esi
  00008	57		 push	 edi
  00009	89 4d fc	 mov	 DWORD PTR _this$[ebp], ecx

; 101  : 	ASSERT(m_pIGameMatchItem!=NULL);

  0000c	8b 45 fc	 mov	 eax, DWORD PTR _this$[ebp]
  0000f	83 78 08 00	 cmp	 DWORD PTR [eax+8], 0
  00013	75 19		 jne	 SHORT $LN4@BindTableF
  00015	8b 0d 00 00 00
	00		 mov	 ecx, DWORD PTR ?__LINE__Var@?0??BindTableFrame@CMatchServiceManager@@UAE_NPAUITableFrame@@G@Z@4JA
  0001b	83 c1 01	 add	 ecx, 1
  0001e	51		 push	 ecx
  0001f	68 00 00 00 00	 push	 OFFSET ??_C@_0FA@DODPGKMC@g?3?2?M?x?$LK?$PM?2happygamewh?2?$LH?$PO?N?q?$LG?K?2?O?$LF?M?$LD@
  00024	e8 00 00 00 00	 call	 ?AfxAssertFailedLine@@YGHPBDH@Z ; AfxAssertFailedLine
  00029	85 c0		 test	 eax, eax
  0002b	74 01		 je	 SHORT $LN4@BindTableF
  0002d	cc		 int	 3
$LN4@BindTableF:

; 102  : 	if(m_pIGameMatchItem!=NULL)

  0002e	8b 45 fc	 mov	 eax, DWORD PTR _this$[ebp]
  00031	83 78 08 00	 cmp	 DWORD PTR [eax+8], 0
  00035	74 1e		 je	 SHORT $LN2@BindTableF

; 103  : 	{
; 104  : 		return m_pIGameMatchItem->BindTableFrame(pTableFrame,wTableID);	

  00037	0f b7 45 0c	 movzx	 eax, WORD PTR _wTableID$[ebp]
  0003b	50		 push	 eax
  0003c	8b 4d 08	 mov	 ecx, DWORD PTR _pTableFrame$[ebp]
  0003f	51		 push	 ecx
  00040	8b 55 fc	 mov	 edx, DWORD PTR _this$[ebp]
  00043	8b 42 08	 mov	 eax, DWORD PTR [edx+8]
  00046	8b 4d fc	 mov	 ecx, DWORD PTR _this$[ebp]
  00049	8b 10		 mov	 edx, DWORD PTR [eax]
  0004b	8b 49 08	 mov	 ecx, DWORD PTR [ecx+8]
  0004e	8b 42 0c	 mov	 eax, DWORD PTR [edx+12]
  00051	ff d0		 call	 eax
  00053	eb 02		 jmp	 SHORT $LN1@BindTableF
$LN2@BindTableF:

; 105  : 	}
; 106  : 
; 107  : 	return true;

  00055	b0 01		 mov	 al, 1
$LN1@BindTableF:

; 108  : }

  00057	5f		 pop	 edi
  00058	5e		 pop	 esi
  00059	5b		 pop	 ebx
  0005a	8b e5		 mov	 esp, ebp
  0005c	5d		 pop	 ebp
  0005d	c2 08 00	 ret	 8
?BindTableFrame@CMatchServiceManager@@UAE_NPAUITableFrame@@G@Z ENDP ; CMatchServiceManager::BindTableFrame
_TEXT	ENDS
; Function compile flags: /Odtp /ZI
; File g:\网狐\happygamewh\服务端\系统模块\服务器组件\比赛服务\matchservicemanager.cpp
;	COMDAT ?CreateGameMatch@CMatchServiceManager@@UAE_NE@Z
_TEXT	SEGMENT
tv145 = -124						; size = 4
tv91 = -124						; size = 4
tv173 = -120						; size = 4
tv169 = -120						; size = 4
tv170 = -116						; size = 4
tv166 = -116						; size = 4
tv159 = -116						; size = 4
$T2 = -109						; size = 1
$T3 = -108						; size = 4
$T4 = -104						; size = 4
$T5 = -100						; size = 4
$T6 = -96						; size = 4
$T7 = -92						; size = 4
$T8 = -88						; size = 4
_this$ = -20						; size = 4
__$EHRec$ = -16						; size = 16
_cbMatchType$ = 8					; size = 1
?CreateGameMatch@CMatchServiceManager@@UAE_NE@Z PROC	; CMatchServiceManager::CreateGameMatch, COMDAT
; _this$ = ecx

; 68   : {

  00000	55		 push	 ebp
  00001	8b ec		 mov	 ebp, esp
  00003	6a ff		 push	 -1
  00005	68 00 00 00 00	 push	 __ehhandler$?CreateGameMatch@CMatchServiceManager@@UAE_NE@Z
  0000a	64 a1 00 00 00
	00		 mov	 eax, DWORD PTR fs:0
  00010	50		 push	 eax
  00011	51		 push	 ecx
  00012	83 ec 6c	 sub	 esp, 108		; 0000006cH
  00015	53		 push	 ebx
  00016	56		 push	 esi
  00017	57		 push	 edi
  00018	a1 00 00 00 00	 mov	 eax, DWORD PTR ___security_cookie
  0001d	33 c5		 xor	 eax, ebp
  0001f	50		 push	 eax
  00020	8d 45 f4	 lea	 eax, DWORD PTR __$EHRec$[ebp+4]
  00023	64 a3 00 00 00
	00		 mov	 DWORD PTR fs:0, eax
  00029	89 65 f0	 mov	 DWORD PTR __$EHRec$[ebp], esp
  0002c	89 4d ec	 mov	 DWORD PTR _this$[ebp], ecx

; 69   : 	//接口判断
; 70   : 	ASSERT(m_pIGameMatchItem==NULL);

  0002f	8b 45 ec	 mov	 eax, DWORD PTR _this$[ebp]
  00032	83 78 08 00	 cmp	 DWORD PTR [eax+8], 0
  00036	74 19		 je	 SHORT $LN9@CreateGame
  00038	8b 0d 00 00 00
	00		 mov	 ecx, DWORD PTR ?__LINE__Var@?0??CreateGameMatch@CMatchServiceManager@@UAE_NE@Z@4JA
  0003e	83 c1 02	 add	 ecx, 2
  00041	51		 push	 ecx
  00042	68 00 00 00 00	 push	 OFFSET ??_C@_0FA@DODPGKMC@g?3?2?M?x?$LK?$PM?2happygamewh?2?$LH?$PO?N?q?$LG?K?2?O?$LF?M?$LD@
  00047	e8 00 00 00 00	 call	 ?AfxAssertFailedLine@@YGHPBDH@Z ; AfxAssertFailedLine
  0004c	85 c0		 test	 eax, eax
  0004e	74 01		 je	 SHORT $LN9@CreateGame
  00050	cc		 int	 3
$LN9@CreateGame:

; 71   : 	if(m_pIGameMatchItem!=NULL) return false;

  00051	8b 45 ec	 mov	 eax, DWORD PTR _this$[ebp]
  00054	83 78 08 00	 cmp	 DWORD PTR [eax+8], 0
  00058	74 07		 je	 SHORT $LN2@CreateGame
  0005a	32 c0		 xor	 al, al
  0005c	e9 4e 01 00 00	 jmp	 $LN8@CreateGame
$LN2@CreateGame:

; 72   : 
; 73   : 	try

  00061	c7 45 fc 00 00
	00 00		 mov	 DWORD PTR __$EHRec$[ebp+12], 0

; 74   : 	{
; 75   : 		//定时赛
; 76   : 		if(cbMatchType==MATCH_TYPE_LOCKTIME)

  00068	0f b6 45 08	 movzx	 eax, BYTE PTR _cbMatchType$[ebp]
  0006c	85 c0		 test	 eax, eax
  0006e	75 6b		 jne	 SHORT $LN4@CreateGame

; 77   : 		{
; 78   : 			m_pIGameMatchItem = new CLockTimeMatch();

  00070	68 a4 00 00 00	 push	 164			; 000000a4H
  00075	e8 00 00 00 00	 call	 ??2@YAPAXI@Z		; operator new
  0007a	83 c4 04	 add	 esp, 4
  0007d	89 45 8c	 mov	 DWORD PTR tv166[ebp], eax
  00080	8b 45 8c	 mov	 eax, DWORD PTR tv166[ebp]
  00083	89 45 a4	 mov	 DWORD PTR $T7[ebp], eax
  00086	c6 45 fc 01	 mov	 BYTE PTR __$EHRec$[ebp+12], 1
  0008a	83 7d a4 00	 cmp	 DWORD PTR $T7[ebp], 0
  0008e	74 13		 je	 SHORT $LN10@CreateGame
  00090	8b 4d a4	 mov	 ecx, DWORD PTR $T7[ebp]
  00093	e8 00 00 00 00	 call	 ??0CLockTimeMatch@@QAE@XZ ; CLockTimeMatch::CLockTimeMatch
  00098	89 45 88	 mov	 DWORD PTR tv169[ebp], eax
  0009b	8b 4d 88	 mov	 ecx, DWORD PTR tv169[ebp]
  0009e	89 4d 84	 mov	 DWORD PTR tv91[ebp], ecx
  000a1	eb 07		 jmp	 SHORT $LN11@CreateGame
$LN10@CreateGame:
  000a3	c7 45 84 00 00
	00 00		 mov	 DWORD PTR tv91[ebp], 0
$LN11@CreateGame:
  000aa	8b 55 84	 mov	 edx, DWORD PTR tv91[ebp]
  000ad	89 55 a8	 mov	 DWORD PTR $T8[ebp], edx
  000b0	c6 45 fc 00	 mov	 BYTE PTR __$EHRec$[ebp+12], 0
  000b4	8b 45 ec	 mov	 eax, DWORD PTR _this$[ebp]
  000b7	8b 4d a8	 mov	 ecx, DWORD PTR $T8[ebp]
  000ba	89 48 08	 mov	 DWORD PTR [eax+8], ecx

; 79   : 			if(m_pIGameMatchItem==NULL) throw TEXT("定时赛创建失败！");

  000bd	8b 45 ec	 mov	 eax, DWORD PTR _this$[ebp]
  000c0	83 78 08 00	 cmp	 DWORD PTR [eax+8], 0
  000c4	75 15		 jne	 SHORT $LN4@CreateGame
  000c6	c7 45 a0 00 00
	00 00		 mov	 DWORD PTR $T6[ebp], OFFSET ??_C@_0BB@KOOONENB@?$LG?$KI?J?$LB?H?$PM?$LE?$LE?$LN?$KI?J?$KH?$LA?$NM?$KD?$KB@
  000cd	68 00 00 00 00	 push	 OFFSET __TI2PAD
  000d2	8d 45 a0	 lea	 eax, DWORD PTR $T6[ebp]
  000d5	50		 push	 eax
  000d6	e8 00 00 00 00	 call	 __CxxThrowException@8
$LN4@CreateGame:

; 80   : 		}
; 81   : 
; 82   : 		//即时赛
; 83   : 		if(cbMatchType==MATCH_TYPE_IMMEDIATE)

  000db	0f b6 45 08	 movzx	 eax, BYTE PTR _cbMatchType$[ebp]
  000df	83 f8 01	 cmp	 eax, 1
  000e2	75 6b		 jne	 SHORT $LN6@CreateGame

; 84   : 		{
; 85   : 			m_pIGameMatchItem = new CImmediateMatch();

  000e4	68 f0 01 00 00	 push	 496			; 000001f0H
  000e9	e8 00 00 00 00	 call	 ??2@YAPAXI@Z		; operator new
  000ee	83 c4 04	 add	 esp, 4
  000f1	89 45 8c	 mov	 DWORD PTR tv170[ebp], eax
  000f4	8b 45 8c	 mov	 eax, DWORD PTR tv170[ebp]
  000f7	89 45 98	 mov	 DWORD PTR $T4[ebp], eax
  000fa	c6 45 fc 02	 mov	 BYTE PTR __$EHRec$[ebp+12], 2
  000fe	83 7d 98 00	 cmp	 DWORD PTR $T4[ebp], 0
  00102	74 13		 je	 SHORT $LN12@CreateGame
  00104	8b 4d 98	 mov	 ecx, DWORD PTR $T4[ebp]
  00107	e8 00 00 00 00	 call	 ??0CImmediateMatch@@QAE@XZ ; CImmediateMatch::CImmediateMatch
  0010c	89 45 88	 mov	 DWORD PTR tv173[ebp], eax
  0010f	8b 4d 88	 mov	 ecx, DWORD PTR tv173[ebp]
  00112	89 4d 84	 mov	 DWORD PTR tv145[ebp], ecx
  00115	eb 07		 jmp	 SHORT $LN13@CreateGame
$LN12@CreateGame:
  00117	c7 45 84 00 00
	00 00		 mov	 DWORD PTR tv145[ebp], 0
$LN13@CreateGame:
  0011e	8b 55 84	 mov	 edx, DWORD PTR tv145[ebp]
  00121	89 55 9c	 mov	 DWORD PTR $T5[ebp], edx
  00124	c6 45 fc 00	 mov	 BYTE PTR __$EHRec$[ebp+12], 0
  00128	8b 45 ec	 mov	 eax, DWORD PTR _this$[ebp]
  0012b	8b 4d 9c	 mov	 ecx, DWORD PTR $T5[ebp]
  0012e	89 48 08	 mov	 DWORD PTR [eax+8], ecx

; 86   : 			if(m_pIGameMatchItem==NULL) throw TEXT("即时赛创建失败！");

  00131	8b 45 ec	 mov	 eax, DWORD PTR _this$[ebp]
  00134	83 78 08 00	 cmp	 DWORD PTR [eax+8], 0
  00138	75 15		 jne	 SHORT $LN6@CreateGame
  0013a	c7 45 94 00 00
	00 00		 mov	 DWORD PTR $T3[ebp], OFFSET ??_C@_0BB@NNMHOGNO@?$LM?$LE?J?$LB?H?$PM?$LE?$LE?$LN?$KI?J?$KH?$LA?$NM?$KD?$KB@
  00141	68 00 00 00 00	 push	 OFFSET __TI2PAD
  00146	8d 45 94	 lea	 eax, DWORD PTR $T3[ebp]
  00149	50		 push	 eax
  0014a	e8 00 00 00 00	 call	 __CxxThrowException@8
$LN6@CreateGame:

; 87   : 		}
; 88   : 	}

  0014f	eb 2d		 jmp	 SHORT $LN17@CreateGame
__catch$?CreateGameMatch@CMatchServiceManager@@UAE_NE@Z$0:

; 89   : 	catch(...)
; 90   : 	{
; 91   : 		ASSERT(FALSE);

  00151	33 c0		 xor	 eax, eax
  00153	75 19		 jne	 SHORT $LN14@CreateGame
  00155	8b 0d 00 00 00
	00		 mov	 ecx, DWORD PTR ?__LINE__Var@?0??CreateGameMatch@CMatchServiceManager@@UAE_NE@Z@4JA
  0015b	83 c1 17	 add	 ecx, 23			; 00000017H
  0015e	51		 push	 ecx
  0015f	68 00 00 00 00	 push	 OFFSET ??_C@_0FA@DODPGKMC@g?3?2?M?x?$LK?$PM?2happygamewh?2?$LH?$PO?N?q?$LG?K?2?O?$LF?M?$LD@
  00164	e8 00 00 00 00	 call	 ?AfxAssertFailedLine@@YGHPBDH@Z ; AfxAssertFailedLine
  00169	85 c0		 test	 eax, eax
  0016b	74 01		 je	 SHORT $LN14@CreateGame
  0016d	cc		 int	 3
$LN14@CreateGame:

; 92   : 		return false;

  0016e	c6 45 93 00	 mov	 BYTE PTR $T2[ebp], 0
  00172	b8 00 00 00 00	 mov	 eax, $LN22@CreateGame
  00177	c3		 ret	 0

; 93   : 	}

  00178	b8 00 00 00 00	 mov	 eax, $LN17@CreateGame
  0017d	c3		 ret	 0
$LN17@CreateGame:
  0017e	c7 45 fc ff ff
	ff ff		 mov	 DWORD PTR __$EHRec$[ebp+12], -1
  00185	eb 0c		 jmp	 SHORT $LN21@CreateGame
$LN22@CreateGame:
  00187	c7 45 fc ff ff
	ff ff		 mov	 DWORD PTR __$EHRec$[ebp+12], -1

; 92   : 		return false;

  0018e	8a 45 93	 mov	 al, BYTE PTR $T2[ebp]
  00191	eb 1c		 jmp	 SHORT $LN8@CreateGame
$LN21@CreateGame:

; 94   : 
; 95   : 	return m_pIGameMatchItem!=NULL;

  00193	8b 45 ec	 mov	 eax, DWORD PTR _this$[ebp]
  00196	83 78 08 00	 cmp	 DWORD PTR [eax+8], 0
  0019a	74 09		 je	 SHORT $LN15@CreateGame
  0019c	c7 45 8c 01 00
	00 00		 mov	 DWORD PTR tv159[ebp], 1
  001a3	eb 07		 jmp	 SHORT $LN16@CreateGame
$LN15@CreateGame:
  001a5	c7 45 8c 00 00
	00 00		 mov	 DWORD PTR tv159[ebp], 0
$LN16@CreateGame:
  001ac	8a 45 8c	 mov	 al, BYTE PTR tv159[ebp]
$LN8@CreateGame:

; 96   : }

  001af	8b 4d f4	 mov	 ecx, DWORD PTR __$EHRec$[ebp+4]
  001b2	64 89 0d 00 00
	00 00		 mov	 DWORD PTR fs:0, ecx
  001b9	59		 pop	 ecx
  001ba	5f		 pop	 edi
  001bb	5e		 pop	 esi
  001bc	5b		 pop	 ebx
  001bd	8b e5		 mov	 esp, ebp
  001bf	5d		 pop	 ebp
  001c0	c2 04 00	 ret	 4
_TEXT	ENDS
;	COMDAT text$x
text$x	SEGMENT
__unwindfunclet$?CreateGameMatch@CMatchServiceManager@@UAE_NE@Z$2:
  00000	68 a4 00 00 00	 push	 164			; 000000a4H
  00005	8b 45 a4	 mov	 eax, DWORD PTR $T7[ebp]
  00008	50		 push	 eax
  00009	e8 00 00 00 00	 call	 ??3@YAXPAXI@Z		; operator delete
  0000e	83 c4 08	 add	 esp, 8
  00011	c3		 ret	 0
__unwindfunclet$?CreateGameMatch@CMatchServiceManager@@UAE_NE@Z$3:
  00012	68 f0 01 00 00	 push	 496			; 000001f0H
  00017	8b 45 98	 mov	 eax, DWORD PTR $T4[ebp]
  0001a	50		 push	 eax
  0001b	e8 00 00 00 00	 call	 ??3@YAXPAXI@Z		; operator delete
  00020	83 c4 08	 add	 esp, 8
  00023	c3		 ret	 0
__ehhandler$?CreateGameMatch@CMatchServiceManager@@UAE_NE@Z:
  00024	8b 54 24 08	 mov	 edx, DWORD PTR [esp+8]
  00028	8d 42 0c	 lea	 eax, DWORD PTR [edx+12]
  0002b	8b 4a 80	 mov	 ecx, DWORD PTR [edx-128]
  0002e	33 c8		 xor	 ecx, eax
  00030	e8 00 00 00 00	 call	 @__security_check_cookie@4
  00035	b8 00 00 00 00	 mov	 eax, OFFSET __ehfuncinfo$?CreateGameMatch@CMatchServiceManager@@UAE_NE@Z
  0003a	e9 00 00 00 00	 jmp	 ___CxxFrameHandler3
text$x	ENDS
?CreateGameMatch@CMatchServiceManager@@UAE_NE@Z ENDP	; CMatchServiceManager::CreateGameMatch
; Function compile flags: /Odtp /ZI
; File g:\网狐\happygamewh\服务端\系统模块\服务器组件\比赛服务\matchservicemanager.cpp
;	COMDAT ?StartService@CMatchServiceManager@@UAE_NXZ
_TEXT	SEGMENT
_this$ = -4						; size = 4
?StartService@CMatchServiceManager@@UAE_NXZ PROC	; CMatchServiceManager::StartService, COMDAT
; _this$ = ecx

; 45   : {

  00000	55		 push	 ebp
  00001	8b ec		 mov	 ebp, esp
  00003	83 ec 44	 sub	 esp, 68			; 00000044H
  00006	53		 push	 ebx
  00007	56		 push	 esi
  00008	57		 push	 edi
  00009	89 4d fc	 mov	 DWORD PTR _this$[ebp], ecx

; 46   : 	//状态判断
; 47   : 	ASSERT(m_bIsService==false);

  0000c	8b 45 fc	 mov	 eax, DWORD PTR _this$[ebp]
  0000f	0f b6 48 04	 movzx	 ecx, BYTE PTR [eax+4]
  00013	85 c9		 test	 ecx, ecx
  00015	74 19		 je	 SHORT $LN5@StartServi
  00017	8b 15 00 00 00
	00		 mov	 edx, DWORD PTR ?__LINE__Var@?0??StartService@CMatchServiceManager@@UAE_NXZ@4JA
  0001d	83 c2 02	 add	 edx, 2
  00020	52		 push	 edx
  00021	68 00 00 00 00	 push	 OFFSET ??_C@_0FA@DODPGKMC@g?3?2?M?x?$LK?$PM?2happygamewh?2?$LH?$PO?N?q?$LG?K?2?O?$LF?M?$LD@
  00026	e8 00 00 00 00	 call	 ?AfxAssertFailedLine@@YGHPBDH@Z ; AfxAssertFailedLine
  0002b	85 c0		 test	 eax, eax
  0002d	74 01		 je	 SHORT $LN5@StartServi
  0002f	cc		 int	 3
$LN5@StartServi:

; 48   : 	if(m_bIsService==true) return false;

  00030	8b 45 fc	 mov	 eax, DWORD PTR _this$[ebp]
  00033	0f b6 48 04	 movzx	 ecx, BYTE PTR [eax+4]
  00037	83 f9 01	 cmp	 ecx, 1
  0003a	75 04		 jne	 SHORT $LN2@StartServi
  0003c	32 c0		 xor	 al, al
  0003e	eb 25		 jmp	 SHORT $LN1@StartServi
$LN2@StartServi:

; 49   : 
; 50   : 	//设置状态
; 51   : 	m_bIsService=true;

  00040	8b 45 fc	 mov	 eax, DWORD PTR _this$[ebp]
  00043	c6 40 04 01	 mov	 BYTE PTR [eax+4], 1

; 52   : 
; 53   : 	//启动通知
; 54   : 	if(m_pIGameMatchItem!=NULL) m_pIGameMatchItem->OnStartService();

  00047	8b 45 fc	 mov	 eax, DWORD PTR _this$[ebp]
  0004a	83 78 08 00	 cmp	 DWORD PTR [eax+8], 0
  0004e	74 13		 je	 SHORT $LN3@StartServi
  00050	8b 45 fc	 mov	 eax, DWORD PTR _this$[ebp]
  00053	8b 48 08	 mov	 ecx, DWORD PTR [eax+8]
  00056	8b 55 fc	 mov	 edx, DWORD PTR _this$[ebp]
  00059	8b 01		 mov	 eax, DWORD PTR [ecx]
  0005b	8b 4a 08	 mov	 ecx, DWORD PTR [edx+8]
  0005e	8b 50 08	 mov	 edx, DWORD PTR [eax+8]
  00061	ff d2		 call	 edx
$LN3@StartServi:

; 55   : 
; 56   : 	return true;

  00063	b0 01		 mov	 al, 1
$LN1@StartServi:

; 57   : }

  00065	5f		 pop	 edi
  00066	5e		 pop	 esi
  00067	5b		 pop	 ebx
  00068	8b e5		 mov	 esp, ebp
  0006a	5d		 pop	 ebp
  0006b	c3		 ret	 0
?StartService@CMatchServiceManager@@UAE_NXZ ENDP	; CMatchServiceManager::StartService
_TEXT	ENDS
; Function compile flags: /Odtp /ZI
; File g:\网狐\happygamewh\服务端\系统模块\服务器组件\比赛服务\matchservicemanager.cpp
;	COMDAT ?StopService@CMatchServiceManager@@UAE_NXZ
_TEXT	SEGMENT
_this$ = -4						; size = 4
?StopService@CMatchServiceManager@@UAE_NXZ PROC		; CMatchServiceManager::StopService, COMDAT
; _this$ = ecx

; 30   : {

  00000	55		 push	 ebp
  00001	8b ec		 mov	 ebp, esp
  00003	83 ec 44	 sub	 esp, 68			; 00000044H
  00006	53		 push	 ebx
  00007	56		 push	 esi
  00008	57		 push	 edi
  00009	89 4d fc	 mov	 DWORD PTR _this$[ebp], ecx

; 31   : 	//状态判断
; 32   : 	ASSERT(m_bIsService==true);

  0000c	8b 45 fc	 mov	 eax, DWORD PTR _this$[ebp]
  0000f	0f b6 48 04	 movzx	 ecx, BYTE PTR [eax+4]
  00013	83 f9 01	 cmp	 ecx, 1
  00016	74 19		 je	 SHORT $LN5@StopServic
  00018	8b 15 00 00 00
	00		 mov	 edx, DWORD PTR ?__LINE__Var@?0??StopService@CMatchServiceManager@@UAE_NXZ@4JA
  0001e	83 c2 02	 add	 edx, 2
  00021	52		 push	 edx
  00022	68 00 00 00 00	 push	 OFFSET ??_C@_0FA@DODPGKMC@g?3?2?M?x?$LK?$PM?2happygamewh?2?$LH?$PO?N?q?$LG?K?2?O?$LF?M?$LD@
  00027	e8 00 00 00 00	 call	 ?AfxAssertFailedLine@@YGHPBDH@Z ; AfxAssertFailedLine
  0002c	85 c0		 test	 eax, eax
  0002e	74 01		 je	 SHORT $LN5@StopServic
  00030	cc		 int	 3
$LN5@StopServic:

; 33   : 
; 34   : 	//设置状态
; 35   : 	m_bIsService=false;

  00031	8b 45 fc	 mov	 eax, DWORD PTR _this$[ebp]
  00034	c6 40 04 00	 mov	 BYTE PTR [eax+4], 0

; 36   : 
; 37   : 	//释放指针
; 38   : 	if(m_pIGameMatchItem!=NULL) SafeRelease(m_pIGameMatchItem);

  00038	8b 45 fc	 mov	 eax, DWORD PTR _this$[ebp]
  0003b	83 78 08 00	 cmp	 DWORD PTR [eax+8], 0
  0003f	74 25		 je	 SHORT $LN2@StopServic
  00041	8b 45 fc	 mov	 eax, DWORD PTR _this$[ebp]
  00044	83 78 08 00	 cmp	 DWORD PTR [eax+8], 0
  00048	74 1c		 je	 SHORT $LN2@StopServic
  0004a	8b 45 fc	 mov	 eax, DWORD PTR _this$[ebp]
  0004d	8b 48 08	 mov	 ecx, DWORD PTR [eax+8]
  00050	8b 55 fc	 mov	 edx, DWORD PTR _this$[ebp]
  00053	8b 01		 mov	 eax, DWORD PTR [ecx]
  00055	8b 4a 08	 mov	 ecx, DWORD PTR [edx+8]
  00058	8b 10		 mov	 edx, DWORD PTR [eax]
  0005a	ff d2		 call	 edx
  0005c	8b 45 fc	 mov	 eax, DWORD PTR _this$[ebp]
  0005f	c7 40 08 00 00
	00 00		 mov	 DWORD PTR [eax+8], 0
$LN2@StopServic:

; 39   : 
; 40   : 	return true;

  00066	b0 01		 mov	 al, 1

; 41   : }

  00068	5f		 pop	 edi
  00069	5e		 pop	 esi
  0006a	5b		 pop	 ebx
  0006b	8b e5		 mov	 esp, ebp
  0006d	5d		 pop	 ebp
  0006e	c3		 ret	 0
?StopService@CMatchServiceManager@@UAE_NXZ ENDP		; CMatchServiceManager::StopService
_TEXT	ENDS
; Function compile flags: /Odtp /ZI
; File g:\网狐\happygamewh\服务端\系统模块\服务器组件\比赛服务\matchservicemanager.cpp
;	COMDAT ?QueryInterface@CMatchServiceManager@@UAEPAXABU_GUID@@K@Z
_TEXT	SEGMENT
_this$ = -4						; size = 4
_Guid$ = 8						; size = 4
_dwQueryVer$ = 12					; size = 4
?QueryInterface@CMatchServiceManager@@UAEPAXABU_GUID@@K@Z PROC ; CMatchServiceManager::QueryInterface, COMDAT
; _this$ = ecx

; 60   : {

  00000	55		 push	 ebp
  00001	8b ec		 mov	 ebp, esp
  00003	83 ec 44	 sub	 esp, 68			; 00000044H
  00006	53		 push	 ebx
  00007	56		 push	 esi
  00008	57		 push	 edi
  00009	89 4d fc	 mov	 DWORD PTR _this$[ebp], ecx

; 61   : 	QUERYINTERFACE(IMatchServiceManager,Guid,dwQueryVer);	

  0000c	68 00 00 00 00	 push	 OFFSET ?IID_IMatchServiceManager@@3U_GUID@@B
  00011	8b 45 08	 mov	 eax, DWORD PTR _Guid$[ebp]
  00014	50		 push	 eax
  00015	e8 00 00 00 00	 call	 _==
  0001a	83 c4 08	 add	 esp, 8
  0001d	0f b6 c8	 movzx	 ecx, al
  00020	85 c9		 test	 ecx, ecx
  00022	74 1d		 je	 SHORT $LN2@QueryInter
  00024	68 00 01 01 06	 push	 100729088		; 06010100H
  00029	8b 45 0c	 mov	 eax, DWORD PTR _dwQueryVer$[ebp]
  0002c	50		 push	 eax
  0002d	e8 00 00 00 00	 call	 ?InterfaceVersionCompare@@YA_NKK@Z ; InterfaceVersionCompare
  00032	83 c4 08	 add	 esp, 8
  00035	0f b6 c8	 movzx	 ecx, al
  00038	85 c9		 test	 ecx, ecx
  0003a	74 05		 je	 SHORT $LN2@QueryInter
  0003c	8b 45 fc	 mov	 eax, DWORD PTR _this$[ebp]
  0003f	eb 37		 jmp	 SHORT $LN1@QueryInter
$LN2@QueryInter:

; 62   : 	QUERYINTERFACE_IUNKNOWNEX(IMatchServiceManager,Guid,dwQueryVer);

  00041	68 00 00 00 00	 push	 OFFSET ?IID_IUnknownEx@@3U_GUID@@B
  00046	8b 45 08	 mov	 eax, DWORD PTR _Guid$[ebp]
  00049	50		 push	 eax
  0004a	e8 00 00 00 00	 call	 _==
  0004f	83 c4 08	 add	 esp, 8
  00052	0f b6 c8	 movzx	 ecx, al
  00055	85 c9		 test	 ecx, ecx
  00057	74 1d		 je	 SHORT $LN3@QueryInter
  00059	68 00 01 01 06	 push	 100729088		; 06010100H
  0005e	8b 45 0c	 mov	 eax, DWORD PTR _dwQueryVer$[ebp]
  00061	50		 push	 eax
  00062	e8 00 00 00 00	 call	 ?InterfaceVersionCompare@@YA_NKK@Z ; InterfaceVersionCompare
  00067	83 c4 08	 add	 esp, 8
  0006a	0f b6 c8	 movzx	 ecx, al
  0006d	85 c9		 test	 ecx, ecx
  0006f	74 05		 je	 SHORT $LN3@QueryInter
  00071	8b 45 fc	 mov	 eax, DWORD PTR _this$[ebp]
  00074	eb 02		 jmp	 SHORT $LN1@QueryInter
$LN3@QueryInter:

; 63   : 	return NULL;

  00076	33 c0		 xor	 eax, eax
$LN1@QueryInter:

; 64   : }

  00078	5f		 pop	 edi
  00079	5e		 pop	 esi
  0007a	5b		 pop	 ebx
  0007b	8b e5		 mov	 esp, ebp
  0007d	5d		 pop	 ebp
  0007e	c2 08 00	 ret	 8
?QueryInterface@CMatchServiceManager@@UAEPAXABU_GUID@@K@Z ENDP ; CMatchServiceManager::QueryInterface
_TEXT	ENDS
; Function compile flags: /Odtp /ZI
; File g:\网狐\happygamewh\服务端\系统模块\服务器组件\比赛服务\matchservicemanager.h
;	COMDAT ?Release@CMatchServiceManager@@UAEXXZ
_TEXT	SEGMENT
tv70 = -80						; size = 4
$T1 = -76						; size = 4
$T2 = -72						; size = 4
_this$ = -4						; size = 4
?Release@CMatchServiceManager@@UAEXXZ PROC		; CMatchServiceManager::Release, COMDAT
; _this$ = ecx

; 36   : 	virtual VOID  Release() { delete this; }

  00000	55		 push	 ebp
  00001	8b ec		 mov	 ebp, esp
  00003	83 ec 50	 sub	 esp, 80			; 00000050H
  00006	53		 push	 ebx
  00007	56		 push	 esi
  00008	57		 push	 edi
  00009	89 4d fc	 mov	 DWORD PTR _this$[ebp], ecx
  0000c	8b 45 fc	 mov	 eax, DWORD PTR _this$[ebp]
  0000f	89 45 b4	 mov	 DWORD PTR $T1[ebp], eax
  00012	8b 4d b4	 mov	 ecx, DWORD PTR $T1[ebp]
  00015	89 4d b8	 mov	 DWORD PTR $T2[ebp], ecx
  00018	83 7d b8 00	 cmp	 DWORD PTR $T2[ebp], 0
  0001c	74 14		 je	 SHORT $LN3@Release
  0001e	6a 01		 push	 1
  00020	8b 55 b8	 mov	 edx, DWORD PTR $T2[ebp]
  00023	8b 02		 mov	 eax, DWORD PTR [edx]
  00025	8b 4d b8	 mov	 ecx, DWORD PTR $T2[ebp]
  00028	8b 50 44	 mov	 edx, DWORD PTR [eax+68]
  0002b	ff d2		 call	 edx
  0002d	89 45 b0	 mov	 DWORD PTR tv70[ebp], eax
  00030	eb 07		 jmp	 SHORT $LN1@Release
$LN3@Release:
  00032	c7 45 b0 00 00
	00 00		 mov	 DWORD PTR tv70[ebp], 0
$LN1@Release:
  00039	5f		 pop	 edi
  0003a	5e		 pop	 esi
  0003b	5b		 pop	 ebx
  0003c	8b e5		 mov	 esp, ebp
  0003e	5d		 pop	 ebp
  0003f	c3		 ret	 0
?Release@CMatchServiceManager@@UAEXXZ ENDP		; CMatchServiceManager::Release
_TEXT	ENDS
; Function compile flags: /Odtp /ZI
; File g:\网狐\happygamewh\服务端\系统模块\服务器组件\比赛服务\matchservicemanager.cpp
;	COMDAT ??1CMatchServiceManager@@UAE@XZ
_TEXT	SEGMENT
$T2 = -88						; size = 4
_this$ = -20						; size = 4
__$EHRec$ = -16						; size = 16
??1CMatchServiceManager@@UAE@XZ PROC			; CMatchServiceManager::~CMatchServiceManager, COMDAT
; _this$ = ecx

; 23   : {	

  00000	55		 push	 ebp
  00001	8b ec		 mov	 ebp, esp
  00003	6a ff		 push	 -1
  00005	68 00 00 00 00	 push	 __ehhandler$??1CMatchServiceManager@@UAE@XZ
  0000a	64 a1 00 00 00
	00		 mov	 eax, DWORD PTR fs:0
  00010	50		 push	 eax
  00011	51		 push	 ecx
  00012	83 ec 48	 sub	 esp, 72			; 00000048H
  00015	53		 push	 ebx
  00016	56		 push	 esi
  00017	57		 push	 edi
  00018	a1 00 00 00 00	 mov	 eax, DWORD PTR ___security_cookie
  0001d	33 c5		 xor	 eax, ebp
  0001f	50		 push	 eax
  00020	8d 45 f4	 lea	 eax, DWORD PTR __$EHRec$[ebp+4]
  00023	64 a3 00 00 00
	00		 mov	 DWORD PTR fs:0, eax
  00029	89 65 f0	 mov	 DWORD PTR __$EHRec$[ebp], esp
  0002c	89 4d ec	 mov	 DWORD PTR _this$[ebp], ecx
  0002f	8b 45 ec	 mov	 eax, DWORD PTR _this$[ebp]
  00032	c7 00 00 00 00
	00		 mov	 DWORD PTR [eax], OFFSET ??_7CMatchServiceManager@@6B@

; 24   : 	//释放指针
; 25   : 	if(m_pIGameMatchItem!=NULL) SafeDelete(m_pIGameMatchItem);

  00038	8b 45 ec	 mov	 eax, DWORD PTR _this$[ebp]
  0003b	83 78 08 00	 cmp	 DWORD PTR [eax+8], 0
  0003f	74 5d		 je	 SHORT $LN4@CMatchServ
  00041	c7 45 fc 00 00
	00 00		 mov	 DWORD PTR __$EHRec$[ebp+12], 0
  00048	8b 45 ec	 mov	 eax, DWORD PTR _this$[ebp]
  0004b	8b 48 08	 mov	 ecx, DWORD PTR [eax+8]
  0004e	89 4d a8	 mov	 DWORD PTR $T2[ebp], ecx
  00051	6a 04		 push	 4
  00053	8b 55 a8	 mov	 edx, DWORD PTR $T2[ebp]
  00056	52		 push	 edx
  00057	e8 00 00 00 00	 call	 ??3@YAXPAXI@Z		; operator delete
  0005c	83 c4 08	 add	 esp, 8
  0005f	eb 23		 jmp	 SHORT $LN6@CMatchServ
__catch$??1CMatchServiceManager@@UAE@XZ$0:
  00061	33 c0		 xor	 eax, eax
  00063	75 19		 jne	 SHORT $LN5@CMatchServ
  00065	8b 0d 00 00 00
	00		 mov	 ecx, DWORD PTR ?__LINE__Var@?0???1CMatchServiceManager@@UAE@XZ@4JA
  0006b	83 c1 02	 add	 ecx, 2
  0006e	51		 push	 ecx
  0006f	68 00 00 00 00	 push	 OFFSET ??_C@_0FA@DODPGKMC@g?3?2?M?x?$LK?$PM?2happygamewh?2?$LH?$PO?N?q?$LG?K?2?O?$LF?M?$LD@
  00074	e8 00 00 00 00	 call	 ?AfxAssertFailedLine@@YGHPBDH@Z ; AfxAssertFailedLine
  00079	85 c0		 test	 eax, eax
  0007b	74 01		 je	 SHORT $LN5@CMatchServ
  0007d	cc		 int	 3
$LN5@CMatchServ:
  0007e	b8 00 00 00 00	 mov	 eax, $LN9@CMatchServ
  00083	c3		 ret	 0
$LN6@CMatchServ:
  00084	c7 45 fc ff ff
	ff ff		 mov	 DWORD PTR __$EHRec$[ebp+12], -1
  0008b	eb 07		 jmp	 SHORT __tryend$??1CMatchServiceManager@@UAE@XZ$1
$LN9@CMatchServ:
  0008d	c7 45 fc ff ff
	ff ff		 mov	 DWORD PTR __$EHRec$[ebp+12], -1
__tryend$??1CMatchServiceManager@@UAE@XZ$1:
  00094	8b 45 ec	 mov	 eax, DWORD PTR _this$[ebp]
  00097	c7 40 08 00 00
	00 00		 mov	 DWORD PTR [eax+8], 0
$LN4@CMatchServ:

; 26   : }

  0009e	8b 4d f4	 mov	 ecx, DWORD PTR __$EHRec$[ebp+4]
  000a1	64 89 0d 00 00
	00 00		 mov	 DWORD PTR fs:0, ecx
  000a8	59		 pop	 ecx
  000a9	5f		 pop	 edi
  000aa	5e		 pop	 esi
  000ab	5b		 pop	 ebx
  000ac	8b e5		 mov	 esp, ebp
  000ae	5d		 pop	 ebp
  000af	c3		 ret	 0
_TEXT	ENDS
;	COMDAT text$x
text$x	SEGMENT
__ehhandler$??1CMatchServiceManager@@UAE@XZ:
  00000	8b 54 24 08	 mov	 edx, DWORD PTR [esp+8]
  00004	8d 42 0c	 lea	 eax, DWORD PTR [edx+12]
  00007	8b 4a a4	 mov	 ecx, DWORD PTR [edx-92]
  0000a	33 c8		 xor	 ecx, eax
  0000c	e8 00 00 00 00	 call	 @__security_check_cookie@4
  00011	b8 00 00 00 00	 mov	 eax, OFFSET __ehfuncinfo$??1CMatchServiceManager@@UAE@XZ
  00016	e9 00 00 00 00	 jmp	 ___CxxFrameHandler3
text$x	ENDS
??1CMatchServiceManager@@UAE@XZ ENDP			; CMatchServiceManager::~CMatchServiceManager
; Function compile flags: /Odtp /ZI
; File g:\网狐\happygamewh\服务端\系统模块\服务器组件\比赛服务\matchservicemanager.cpp
;	COMDAT ??0CMatchServiceManager@@QAE@XZ
_TEXT	SEGMENT
_this$ = -4						; size = 4
??0CMatchServiceManager@@QAE@XZ PROC			; CMatchServiceManager::CMatchServiceManager, COMDAT
; _this$ = ecx

; 11   : {

  00000	55		 push	 ebp
  00001	8b ec		 mov	 ebp, esp
  00003	83 ec 44	 sub	 esp, 68			; 00000044H
  00006	53		 push	 ebx
  00007	56		 push	 esi
  00008	57		 push	 edi
  00009	89 4d fc	 mov	 DWORD PTR _this$[ebp], ecx
  0000c	8b 4d fc	 mov	 ecx, DWORD PTR _this$[ebp]
  0000f	e8 00 00 00 00	 call	 ??0IMatchServiceManager@@QAE@XZ
  00014	8b 45 fc	 mov	 eax, DWORD PTR _this$[ebp]
  00017	c7 00 00 00 00
	00		 mov	 DWORD PTR [eax], OFFSET ??_7CMatchServiceManager@@6B@

; 12   : 	//状态变量
; 13   : 	m_bIsService=false;

  0001d	8b 45 fc	 mov	 eax, DWORD PTR _this$[ebp]
  00020	c6 40 04 00	 mov	 BYTE PTR [eax+4], 0

; 14   : 
; 15   : 	//设置变量
; 16   : 	m_pIGameMatchItem=NULL;

  00024	8b 45 fc	 mov	 eax, DWORD PTR _this$[ebp]
  00027	c7 40 08 00 00
	00 00		 mov	 DWORD PTR [eax+8], 0

; 17   : 
; 18   : 	return;
; 19   : }

  0002e	8b 45 fc	 mov	 eax, DWORD PTR _this$[ebp]
  00031	5f		 pop	 edi
  00032	5e		 pop	 esi
  00033	5b		 pop	 ebx
  00034	8b e5		 mov	 esp, ebp
  00036	5d		 pop	 ebp
  00037	c3		 ret	 0
??0CMatchServiceManager@@QAE@XZ ENDP			; CMatchServiceManager::CMatchServiceManager
_TEXT	ENDS
; Function compile flags: /Odtp /ZI
;	COMDAT ??4IMatchServiceManager@@QAEAAU0@ABU0@@Z
_TEXT	SEGMENT
_this$ = -4						; size = 4
___that$ = 8						; size = 4
??4IMatchServiceManager@@QAEAAU0@ABU0@@Z PROC		; IMatchServiceManager::operator=, COMDAT
; _this$ = ecx
  00000	55		 push	 ebp
  00001	8b ec		 mov	 ebp, esp
  00003	83 ec 44	 sub	 esp, 68			; 00000044H
  00006	53		 push	 ebx
  00007	56		 push	 esi
  00008	57		 push	 edi
  00009	89 4d fc	 mov	 DWORD PTR _this$[ebp], ecx
  0000c	8b 45 08	 mov	 eax, DWORD PTR ___that$[ebp]
  0000f	50		 push	 eax
  00010	8b 4d fc	 mov	 ecx, DWORD PTR _this$[ebp]
  00013	e8 00 00 00 00	 call	 ??4IUnknownEx@@QAEAAU0@ABU0@@Z
  00018	8b 45 fc	 mov	 eax, DWORD PTR _this$[ebp]
  0001b	5f		 pop	 edi
  0001c	5e		 pop	 esi
  0001d	5b		 pop	 ebx
  0001e	8b e5		 mov	 esp, ebp
  00020	5d		 pop	 ebp
  00021	c2 04 00	 ret	 4
??4IMatchServiceManager@@QAEAAU0@ABU0@@Z ENDP		; IMatchServiceManager::operator=
_TEXT	ENDS
; Function compile flags: /Odtp /ZI
;	COMDAT ??0IMatchServiceManager@@QAE@ABU0@@Z
_TEXT	SEGMENT
_this$ = -4						; size = 4
___that$ = 8						; size = 4
??0IMatchServiceManager@@QAE@ABU0@@Z PROC		; IMatchServiceManager::IMatchServiceManager, COMDAT
; _this$ = ecx
  00000	55		 push	 ebp
  00001	8b ec		 mov	 ebp, esp
  00003	83 ec 44	 sub	 esp, 68			; 00000044H
  00006	53		 push	 ebx
  00007	56		 push	 esi
  00008	57		 push	 edi
  00009	89 4d fc	 mov	 DWORD PTR _this$[ebp], ecx
  0000c	8b 45 08	 mov	 eax, DWORD PTR ___that$[ebp]
  0000f	50		 push	 eax
  00010	8b 4d fc	 mov	 ecx, DWORD PTR _this$[ebp]
  00013	e8 00 00 00 00	 call	 ??0IUnknownEx@@QAE@ABU0@@Z
  00018	8b 45 fc	 mov	 eax, DWORD PTR _this$[ebp]
  0001b	c7 00 00 00 00
	00		 mov	 DWORD PTR [eax], OFFSET ??_7IMatchServiceManager@@6B@
  00021	8b 45 fc	 mov	 eax, DWORD PTR _this$[ebp]
  00024	5f		 pop	 edi
  00025	5e		 pop	 esi
  00026	5b		 pop	 ebx
  00027	8b e5		 mov	 esp, ebp
  00029	5d		 pop	 ebp
  0002a	c2 04 00	 ret	 4
??0IMatchServiceManager@@QAE@ABU0@@Z ENDP		; IMatchServiceManager::IMatchServiceManager
_TEXT	ENDS
; Function compile flags: /Odtp /ZI
;	COMDAT ??0IMatchServiceManager@@QAE@XZ
_TEXT	SEGMENT
_this$ = -4						; size = 4
??0IMatchServiceManager@@QAE@XZ PROC			; IMatchServiceManager::IMatchServiceManager, COMDAT
; _this$ = ecx
  00000	55		 push	 ebp
  00001	8b ec		 mov	 ebp, esp
  00003	83 ec 44	 sub	 esp, 68			; 00000044H
  00006	53		 push	 ebx
  00007	56		 push	 esi
  00008	57		 push	 edi
  00009	89 4d fc	 mov	 DWORD PTR _this$[ebp], ecx
  0000c	8b 4d fc	 mov	 ecx, DWORD PTR _this$[ebp]
  0000f	e8 00 00 00 00	 call	 ??0IUnknownEx@@QAE@XZ
  00014	8b 45 fc	 mov	 eax, DWORD PTR _this$[ebp]
  00017	c7 00 00 00 00
	00		 mov	 DWORD PTR [eax], OFFSET ??_7IMatchServiceManager@@6B@
  0001d	8b 45 fc	 mov	 eax, DWORD PTR _this$[ebp]
  00020	5f		 pop	 edi
  00021	5e		 pop	 esi
  00022	5b		 pop	 ebx
  00023	8b e5		 mov	 esp, ebp
  00025	5d		 pop	 ebp
  00026	c3		 ret	 0
??0IMatchServiceManager@@QAE@XZ ENDP			; IMatchServiceManager::IMatchServiceManager
_TEXT	ENDS
; Function compile flags: /Odtp /ZI
; File g:\网狐\happygamewh\服务端\系统模块\全局定义\module.h
;	COMDAT ?InterfaceVersionCompare@@YA_NKK@Z
_TEXT	SEGMENT
_dwQueryVer$ = 8					; size = 4
_dwInterfaceVer$ = 12					; size = 4
?InterfaceVersionCompare@@YA_NKK@Z PROC			; InterfaceVersionCompare, COMDAT

; 68   : {

  00000	55		 push	 ebp
  00001	8b ec		 mov	 ebp, esp
  00003	83 ec 40	 sub	 esp, 64			; 00000040H
  00006	53		 push	 ebx
  00007	56		 push	 esi
  00008	57		 push	 edi

; 69   : 	if (GetSubVer(dwQueryVer)>GetSubVer(dwInterfaceVer)) return false;

  00009	8b 45 08	 mov	 eax, DWORD PTR _dwQueryVer$[ebp]
  0000c	50		 push	 eax
  0000d	e8 00 00 00 00	 call	 ?GetSubVer@@YAEK@Z	; GetSubVer
  00012	83 c4 04	 add	 esp, 4
  00015	0f b6 f0	 movzx	 esi, al
  00018	8b 4d 0c	 mov	 ecx, DWORD PTR _dwInterfaceVer$[ebp]
  0001b	51		 push	 ecx
  0001c	e8 00 00 00 00	 call	 ?GetSubVer@@YAEK@Z	; GetSubVer
  00021	83 c4 04	 add	 esp, 4
  00024	0f b6 d0	 movzx	 edx, al
  00027	3b f2		 cmp	 esi, edx
  00029	7e 04		 jle	 SHORT $LN2@InterfaceV
  0002b	32 c0		 xor	 al, al
  0002d	eb 74		 jmp	 SHORT $LN1@InterfaceV
$LN2@InterfaceV:

; 70   : 	if (GetMainVer(dwQueryVer)!=GetMainVer(dwInterfaceVer)) return false;

  0002f	8b 45 08	 mov	 eax, DWORD PTR _dwQueryVer$[ebp]
  00032	50		 push	 eax
  00033	e8 00 00 00 00	 call	 ?GetMainVer@@YAEK@Z	; GetMainVer
  00038	83 c4 04	 add	 esp, 4
  0003b	0f b6 f0	 movzx	 esi, al
  0003e	8b 4d 0c	 mov	 ecx, DWORD PTR _dwInterfaceVer$[ebp]
  00041	51		 push	 ecx
  00042	e8 00 00 00 00	 call	 ?GetMainVer@@YAEK@Z	; GetMainVer
  00047	83 c4 04	 add	 esp, 4
  0004a	0f b6 d0	 movzx	 edx, al
  0004d	3b f2		 cmp	 esi, edx
  0004f	74 04		 je	 SHORT $LN3@InterfaceV
  00051	32 c0		 xor	 al, al
  00053	eb 4e		 jmp	 SHORT $LN1@InterfaceV
$LN3@InterfaceV:

; 71   : 	if (GetBuildVer(dwQueryVer)!=GetBuildVer(dwInterfaceVer)) return false;

  00055	8b 45 08	 mov	 eax, DWORD PTR _dwQueryVer$[ebp]
  00058	50		 push	 eax
  00059	e8 00 00 00 00	 call	 ?GetBuildVer@@YAEK@Z	; GetBuildVer
  0005e	83 c4 04	 add	 esp, 4
  00061	0f b6 f0	 movzx	 esi, al
  00064	8b 4d 0c	 mov	 ecx, DWORD PTR _dwInterfaceVer$[ebp]
  00067	51		 push	 ecx
  00068	e8 00 00 00 00	 call	 ?GetBuildVer@@YAEK@Z	; GetBuildVer
  0006d	83 c4 04	 add	 esp, 4
  00070	0f b6 d0	 movzx	 edx, al
  00073	3b f2		 cmp	 esi, edx
  00075	74 04		 je	 SHORT $LN4@InterfaceV
  00077	32 c0		 xor	 al, al
  00079	eb 28		 jmp	 SHORT $LN1@InterfaceV
$LN4@InterfaceV:

; 72   : 	if (GetProductVer(dwQueryVer)!=GetProductVer(dwInterfaceVer)) return false;

  0007b	8b 45 08	 mov	 eax, DWORD PTR _dwQueryVer$[ebp]
  0007e	50		 push	 eax
  0007f	e8 00 00 00 00	 call	 ?GetProductVer@@YAEK@Z	; GetProductVer
  00084	83 c4 04	 add	 esp, 4
  00087	0f b6 f0	 movzx	 esi, al
  0008a	8b 4d 0c	 mov	 ecx, DWORD PTR _dwInterfaceVer$[ebp]
  0008d	51		 push	 ecx
  0008e	e8 00 00 00 00	 call	 ?GetProductVer@@YAEK@Z	; GetProductVer
  00093	83 c4 04	 add	 esp, 4
  00096	0f b6 d0	 movzx	 edx, al
  00099	3b f2		 cmp	 esi, edx
  0009b	74 04		 je	 SHORT $LN5@InterfaceV
  0009d	32 c0		 xor	 al, al
  0009f	eb 02		 jmp	 SHORT $LN1@InterfaceV
$LN5@InterfaceV:

; 73   : 	return true;

  000a1	b0 01		 mov	 al, 1
$LN1@InterfaceV:

; 74   : };

  000a3	5f		 pop	 edi
  000a4	5e		 pop	 esi
  000a5	5b		 pop	 ebx
  000a6	8b e5		 mov	 esp, ebp
  000a8	5d		 pop	 ebp
  000a9	c3		 ret	 0
?InterfaceVersionCompare@@YA_NKK@Z ENDP			; InterfaceVersionCompare
_TEXT	ENDS
; Function compile flags: /Odtp /ZI
; File g:\网狐\happygamewh\服务端\系统模块\全局定义\module.h
;	COMDAT ?GetBuildVer@@YAEK@Z
_TEXT	SEGMENT
_dwVersion$ = 8						; size = 4
?GetBuildVer@@YAEK@Z PROC				; GetBuildVer, COMDAT

; 62   : {

  00000	55		 push	 ebp
  00001	8b ec		 mov	 ebp, esp
  00003	83 ec 40	 sub	 esp, 64			; 00000040H
  00006	53		 push	 ebx
  00007	56		 push	 esi
  00008	57		 push	 edi

; 63   : 	return ((BYTE *)&dwVersion)[0];

  00009	b8 01 00 00 00	 mov	 eax, 1
  0000e	6b c8 00	 imul	 ecx, eax, 0
  00011	8a 44 0d 08	 mov	 al, BYTE PTR _dwVersion$[ebp+ecx]

; 64   : }

  00015	5f		 pop	 edi
  00016	5e		 pop	 esi
  00017	5b		 pop	 ebx
  00018	8b e5		 mov	 esp, ebp
  0001a	5d		 pop	 ebp
  0001b	c3		 ret	 0
?GetBuildVer@@YAEK@Z ENDP				; GetBuildVer
_TEXT	ENDS
; Function compile flags: /Odtp /ZI
; File g:\网狐\happygamewh\服务端\系统模块\全局定义\module.h
;	COMDAT ?GetSubVer@@YAEK@Z
_TEXT	SEGMENT
_dwVersion$ = 8						; size = 4
?GetSubVer@@YAEK@Z PROC					; GetSubVer, COMDAT

; 56   : {

  00000	55		 push	 ebp
  00001	8b ec		 mov	 ebp, esp
  00003	83 ec 40	 sub	 esp, 64			; 00000040H
  00006	53		 push	 ebx
  00007	56		 push	 esi
  00008	57		 push	 edi

; 57   : 	return ((BYTE *)&dwVersion)[1];

  00009	b8 01 00 00 00	 mov	 eax, 1
  0000e	c1 e0 00	 shl	 eax, 0
  00011	8a 44 05 08	 mov	 al, BYTE PTR _dwVersion$[ebp+eax]

; 58   : }

  00015	5f		 pop	 edi
  00016	5e		 pop	 esi
  00017	5b		 pop	 ebx
  00018	8b e5		 mov	 esp, ebp
  0001a	5d		 pop	 ebp
  0001b	c3		 ret	 0
?GetSubVer@@YAEK@Z ENDP					; GetSubVer
_TEXT	ENDS
; Function compile flags: /Odtp /ZI
; File g:\网狐\happygamewh\服务端\系统模块\全局定义\module.h
;	COMDAT ?GetMainVer@@YAEK@Z
_TEXT	SEGMENT
_dwVersion$ = 8						; size = 4
?GetMainVer@@YAEK@Z PROC				; GetMainVer, COMDAT

; 50   : {

  00000	55		 push	 ebp
  00001	8b ec		 mov	 ebp, esp
  00003	83 ec 40	 sub	 esp, 64			; 00000040H
  00006	53		 push	 ebx
  00007	56		 push	 esi
  00008	57		 push	 edi

; 51   : 	return ((BYTE *)&dwVersion)[2];

  00009	b8 01 00 00 00	 mov	 eax, 1
  0000e	d1 e0		 shl	 eax, 1
  00010	8a 44 05 08	 mov	 al, BYTE PTR _dwVersion$[ebp+eax]

; 52   : }

  00014	5f		 pop	 edi
  00015	5e		 pop	 esi
  00016	5b		 pop	 ebx
  00017	8b e5		 mov	 esp, ebp
  00019	5d		 pop	 ebp
  0001a	c3		 ret	 0
?GetMainVer@@YAEK@Z ENDP				; GetMainVer
_TEXT	ENDS
; Function compile flags: /Odtp /ZI
; File g:\网狐\happygamewh\服务端\系统模块\全局定义\module.h
;	COMDAT ?GetProductVer@@YAEK@Z
_TEXT	SEGMENT
_dwVersion$ = 8						; size = 4
?GetProductVer@@YAEK@Z PROC				; GetProductVer, COMDAT

; 44   : {

  00000	55		 push	 ebp
  00001	8b ec		 mov	 ebp, esp
  00003	83 ec 40	 sub	 esp, 64			; 00000040H
  00006	53		 push	 ebx
  00007	56		 push	 esi
  00008	57		 push	 edi

; 45   : 	return ((BYTE *)&dwVersion)[3];

  00009	b8 01 00 00 00	 mov	 eax, 1
  0000e	6b c8 03	 imul	 ecx, eax, 3
  00011	8a 44 0d 08	 mov	 al, BYTE PTR _dwVersion$[ebp+ecx]

; 46   : }

  00015	5f		 pop	 edi
  00016	5e		 pop	 esi
  00017	5b		 pop	 ebx
  00018	8b e5		 mov	 esp, ebp
  0001a	5d		 pop	 ebp
  0001b	c3		 ret	 0
?GetProductVer@@YAEK@Z ENDP				; GetProductVer
_TEXT	ENDS
; Function compile flags: /Odtp /ZI
;	COMDAT ??4IUnknownEx@@QAEAAU0@ABU0@@Z
_TEXT	SEGMENT
_this$ = -4						; size = 4
___that$ = 8						; size = 4
??4IUnknownEx@@QAEAAU0@ABU0@@Z PROC			; IUnknownEx::operator=, COMDAT
; _this$ = ecx
  00000	55		 push	 ebp
  00001	8b ec		 mov	 ebp, esp
  00003	83 ec 44	 sub	 esp, 68			; 00000044H
  00006	53		 push	 ebx
  00007	56		 push	 esi
  00008	57		 push	 edi
  00009	89 4d fc	 mov	 DWORD PTR _this$[ebp], ecx
  0000c	8b 45 fc	 mov	 eax, DWORD PTR _this$[ebp]
  0000f	5f		 pop	 edi
  00010	5e		 pop	 esi
  00011	5b		 pop	 ebx
  00012	8b e5		 mov	 esp, ebp
  00014	5d		 pop	 ebp
  00015	c2 04 00	 ret	 4
??4IUnknownEx@@QAEAAU0@ABU0@@Z ENDP			; IUnknownEx::operator=
_TEXT	ENDS
; Function compile flags: /Odtp /ZI
;	COMDAT ??0IUnknownEx@@QAE@ABU0@@Z
_TEXT	SEGMENT
_this$ = -4						; size = 4
___that$ = 8						; size = 4
??0IUnknownEx@@QAE@ABU0@@Z PROC				; IUnknownEx::IUnknownEx, COMDAT
; _this$ = ecx
  00000	55		 push	 ebp
  00001	8b ec		 mov	 ebp, esp
  00003	83 ec 44	 sub	 esp, 68			; 00000044H
  00006	53		 push	 ebx
  00007	56		 push	 esi
  00008	57		 push	 edi
  00009	89 4d fc	 mov	 DWORD PTR _this$[ebp], ecx
  0000c	8b 45 fc	 mov	 eax, DWORD PTR _this$[ebp]
  0000f	c7 00 00 00 00
	00		 mov	 DWORD PTR [eax], OFFSET ??_7IUnknownEx@@6B@
  00015	8b 45 fc	 mov	 eax, DWORD PTR _this$[ebp]
  00018	5f		 pop	 edi
  00019	5e		 pop	 esi
  0001a	5b		 pop	 ebx
  0001b	8b e5		 mov	 esp, ebp
  0001d	5d		 pop	 ebp
  0001e	c2 04 00	 ret	 4
??0IUnknownEx@@QAE@ABU0@@Z ENDP				; IUnknownEx::IUnknownEx
_TEXT	ENDS
; Function compile flags: /Odtp /ZI
;	COMDAT ??0IUnknownEx@@QAE@XZ
_TEXT	SEGMENT
_this$ = -4						; size = 4
??0IUnknownEx@@QAE@XZ PROC				; IUnknownEx::IUnknownEx, COMDAT
; _this$ = ecx
  00000	55		 push	 ebp
  00001	8b ec		 mov	 ebp, esp
  00003	83 ec 44	 sub	 esp, 68			; 00000044H
  00006	53		 push	 ebx
  00007	56		 push	 esi
  00008	57		 push	 edi
  00009	89 4d fc	 mov	 DWORD PTR _this$[ebp], ecx
  0000c	8b 45 fc	 mov	 eax, DWORD PTR _this$[ebp]
  0000f	c7 00 00 00 00
	00		 mov	 DWORD PTR [eax], OFFSET ??_7IUnknownEx@@6B@
  00015	8b 45 fc	 mov	 eax, DWORD PTR _this$[ebp]
  00018	5f		 pop	 edi
  00019	5e		 pop	 esi
  0001a	5b		 pop	 ebx
  0001b	8b e5		 mov	 esp, ebp
  0001d	5d		 pop	 ebp
  0001e	c3		 ret	 0
??0IUnknownEx@@QAE@XZ ENDP				; IUnknownEx::IUnknownEx
_TEXT	ENDS
; Function compile flags: /Odtp /ZI
; File c:\program files (x86)\microsoft visual studio\2017\community\vc\tools\msvc\14.16.27023\atlmfc\include\afx.h
;	COMDAT ?AfxAssertFailedLine@@YGHPBDH@Z
_TEXT	SEGMENT
_bResult$ = -36						; size = 4
_bQuit$ = -32						; size = 4
_msg$ = -28						; size = 28
_lpszFileName$ = 8					; size = 4
_nLine$ = 12						; size = 4
?AfxAssertFailedLine@@YGHPBDH@Z PROC			; AfxAssertFailedLine, COMDAT

; 312  : {

  00000	55		 push	 ebp
  00001	8b ec		 mov	 ebp, esp
  00003	83 ec 64	 sub	 esp, 100		; 00000064H
  00006	53		 push	 ebx
  00007	56		 push	 esi
  00008	57		 push	 edi

; 313  : 	// we remove WM_QUIT because if it is in the queue then the message box
; 314  : 	// won't display
; 315  : 	MSG msg;
; 316  : 	BOOL bQuit = PeekMessage(&msg, NULL, WM_QUIT, WM_QUIT, PM_REMOVE);

  00009	6a 01		 push	 1
  0000b	6a 12		 push	 18			; 00000012H
  0000d	6a 12		 push	 18			; 00000012H
  0000f	6a 00		 push	 0
  00011	8d 45 e4	 lea	 eax, DWORD PTR _msg$[ebp]
  00014	50		 push	 eax
  00015	ff 15 00 00 00
	00		 call	 DWORD PTR __imp__PeekMessageA@20
  0001b	89 45 e0	 mov	 DWORD PTR _bQuit$[ebp], eax

; 317  : 	BOOL bResult = _CrtDbgReport(_CRT_ASSERT, lpszFileName, nLine, NULL, NULL);

  0001e	6a 00		 push	 0
  00020	6a 00		 push	 0
  00022	8b 45 0c	 mov	 eax, DWORD PTR _nLine$[ebp]
  00025	50		 push	 eax
  00026	8b 4d 08	 mov	 ecx, DWORD PTR _lpszFileName$[ebp]
  00029	51		 push	 ecx
  0002a	6a 02		 push	 2
  0002c	ff 15 00 00 00
	00		 call	 DWORD PTR __imp___CrtDbgReport
  00032	83 c4 14	 add	 esp, 20			; 00000014H
  00035	89 45 dc	 mov	 DWORD PTR _bResult$[ebp], eax

; 318  : 	if (bQuit)

  00038	83 7d e0 00	 cmp	 DWORD PTR _bQuit$[ebp], 0
  0003c	74 0a		 je	 SHORT $LN2@AfxAssertF

; 319  : 		PostQuitMessage((int)msg.wParam);

  0003e	8b 45 ec	 mov	 eax, DWORD PTR _msg$[ebp+8]
  00041	50		 push	 eax
  00042	ff 15 00 00 00
	00		 call	 DWORD PTR __imp__PostQuitMessage@4
$LN2@AfxAssertF:

; 320  : 	return bResult;

  00048	8b 45 dc	 mov	 eax, DWORD PTR _bResult$[ebp]

; 321  : }

  0004b	5f		 pop	 edi
  0004c	5e		 pop	 esi
  0004d	5b		 pop	 ebx
  0004e	8b e5		 mov	 esp, ebp
  00050	5d		 pop	 ebp
  00051	c2 08 00	 ret	 8
?AfxAssertFailedLine@@YGHPBDH@Z ENDP			; AfxAssertFailedLine
_TEXT	ENDS
; Function compile flags: /Odtp /ZI
; File c:\program files (x86)\windows kits\10\include\10.0.17763.0\shared\guiddef.h
;	COMDAT _==
_TEXT	SEGMENT
tv68 = -68						; size = 4
_guidOne$ = 8						; size = 4
_guidOther$ = 12					; size = 4
_==	PROC						; COMDAT

; 193  : {

  00000	55		 push	 ebp
  00001	8b ec		 mov	 ebp, esp
  00003	83 ec 44	 sub	 esp, 68			; 00000044H
  00006	53		 push	 ebx
  00007	56		 push	 esi
  00008	57		 push	 edi

; 194  :     return !!IsEqualGUID(guidOne,guidOther);

  00009	8b 45 0c	 mov	 eax, DWORD PTR _guidOther$[ebp]
  0000c	50		 push	 eax
  0000d	8b 4d 08	 mov	 ecx, DWORD PTR _guidOne$[ebp]
  00010	51		 push	 ecx
  00011	e8 00 00 00 00	 call	 _IsEqualGUID
  00016	83 c4 08	 add	 esp, 8
  00019	85 c0		 test	 eax, eax
  0001b	74 09		 je	 SHORT $LN3@
  0001d	c7 45 bc 01 00
	00 00		 mov	 DWORD PTR tv68[ebp], 1
  00024	eb 07		 jmp	 SHORT $LN4@
$LN3@:
  00026	c7 45 bc 00 00
	00 00		 mov	 DWORD PTR tv68[ebp], 0
$LN4@:
  0002d	8a 45 bc	 mov	 al, BYTE PTR tv68[ebp]

; 195  : }

  00030	5f		 pop	 edi
  00031	5e		 pop	 esi
  00032	5b		 pop	 ebx
  00033	8b e5		 mov	 esp, ebp
  00035	5d		 pop	 ebp
  00036	c3		 ret	 0
_==	ENDP
_TEXT	ENDS
; Function compile flags: /Odtp /ZI
; File c:\program files (x86)\windows kits\10\include\10.0.17763.0\shared\guiddef.h
;	COMDAT _IsEqualGUID
_TEXT	SEGMENT
tv69 = -68						; size = 4
_rguid1$ = 8						; size = 4
_rguid2$ = 12						; size = 4
_IsEqualGUID PROC					; COMDAT

; 160  : {

  00000	55		 push	 ebp
  00001	8b ec		 mov	 ebp, esp
  00003	83 ec 44	 sub	 esp, 68			; 00000044H
  00006	53		 push	 ebx
  00007	56		 push	 esi
  00008	57		 push	 edi

; 161  :     return !memcmp(&rguid1, &rguid2, sizeof(GUID));

  00009	6a 10		 push	 16			; 00000010H
  0000b	8b 45 0c	 mov	 eax, DWORD PTR _rguid2$[ebp]
  0000e	50		 push	 eax
  0000f	8b 4d 08	 mov	 ecx, DWORD PTR _rguid1$[ebp]
  00012	51		 push	 ecx
  00013	e8 00 00 00 00	 call	 _memcmp
  00018	83 c4 0c	 add	 esp, 12			; 0000000cH
  0001b	85 c0		 test	 eax, eax
  0001d	75 09		 jne	 SHORT $LN3@IsEqualGUI
  0001f	c7 45 bc 01 00
	00 00		 mov	 DWORD PTR tv69[ebp], 1
  00026	eb 07		 jmp	 SHORT $LN4@IsEqualGUI
$LN3@IsEqualGUI:
  00028	c7 45 bc 00 00
	00 00		 mov	 DWORD PTR tv69[ebp], 0
$LN4@IsEqualGUI:
  0002f	8b 45 bc	 mov	 eax, DWORD PTR tv69[ebp]

; 162  : }

  00032	5f		 pop	 edi
  00033	5e		 pop	 esi
  00034	5b		 pop	 ebx
  00035	8b e5		 mov	 esp, ebp
  00037	5d		 pop	 ebp
  00038	c3		 ret	 0
_IsEqualGUID ENDP
_TEXT	ENDS
; Function compile flags: /Odtp /ZI
; File g:\网狐\happygamewh\服务端\系统模块\服务器组件\比赛服务\matchservicemanager.cpp
;	COMDAT ?__empty_global_delete@@YAXPAXI@Z
_TEXT	SEGMENT
___formal$ = 8						; size = 4
___formal$ = 12						; size = 4
?__empty_global_delete@@YAXPAXI@Z PROC			; __empty_global_delete, COMDAT

  00000	55		 push	 ebp
  00001	8b ec		 mov	 ebp, esp
  00003	83 ec 40	 sub	 esp, 64			; 00000040H
  00006	53		 push	 ebx
  00007	56		 push	 esi
  00008	57		 push	 edi
  00009	5f		 pop	 edi
  0000a	5e		 pop	 esi
  0000b	5b		 pop	 ebx
  0000c	8b e5		 mov	 esp, ebp
  0000e	5d		 pop	 ebp
  0000f	c3		 ret	 0
?__empty_global_delete@@YAXPAXI@Z ENDP			; __empty_global_delete
_TEXT	ENDS
; Function compile flags: /Odtp /ZI
; File g:\网狐\happygamewh\服务端\系统模块\服务器组件\比赛服务\matchservicemanager.cpp
;	COMDAT ?__empty_global_delete@@YAXPAX@Z
_TEXT	SEGMENT
___formal$ = 8						; size = 4
?__empty_global_delete@@YAXPAX@Z PROC			; __empty_global_delete, COMDAT

  00000	55		 push	 ebp
  00001	8b ec		 mov	 ebp, esp
  00003	83 ec 40	 sub	 esp, 64			; 00000040H
  00006	53		 push	 ebx
  00007	56		 push	 esi
  00008	57		 push	 edi
  00009	5f		 pop	 edi
  0000a	5e		 pop	 esi
  0000b	5b		 pop	 ebx
  0000c	8b e5		 mov	 esp, ebp
  0000e	5d		 pop	 ebp
  0000f	c3		 ret	 0
?__empty_global_delete@@YAXPAX@Z ENDP			; __empty_global_delete
_TEXT	ENDS
END
