; Listing generated by Microsoft (R) Optimizing Compiler Version 19.16.27032.1 

	TITLE	G:\网狐\HappyGameWH\服务端\系统模块\服务器组件\游戏服务\GameService.cpp
	.686P
	.XMM
	include listing.inc
	.model	flat

INCLUDELIB MSVCRTD
INCLUDELIB OLDNAMES

PUBLIC	_ExtRawDllMain@12
PUBLIC	__afxForceEXTDLL
PUBLIC	__pRawDllMain
_BSS	SEGMENT
__afxForceEXTDLL DD 01H DUP (?)
_BSS	ENDS
CONST	SEGMENT
__pRawDllMain DD FLAT:_ExtRawDllMain@12
?IID_ITraceServiceManager@@3U_GUID@@B DD 08bfc36dbH	; IID_ITraceServiceManager
	DW	05ba2H
	DW	042baH
	DB	081H
	DB	0b0H
	DB	087H
	DB	0b0H
	DB	01cH
	DB	09eH
	DB	0afH
	DB	0feH
?IID_IAsynchronismEngine@@3U_GUID@@B DD 0c7a13074H	; IID_IAsynchronismEngine
	DW	075c5H
	DW	04b8eH
	DB	0b5H
	DB	04bH
	DB	0eeH
	DB	0eH
	DB	0ecH
	DB	0feH
	DB	0b9H
	DB	0ebH
?IID_IDataBase@@3U_GUID@@B DD 0a2e38a78H		; IID_IDataBase
	DW	01e4fH
	DW	04de4H
	DB	0a5H
	DB	0d1H
	DB	0b9H
	DB	019H
	DB	09bH
	DB	0ceH
	DB	041H
	DB	0aeH
?IID_IDataBaseEngine@@3U_GUID@@B DD 047b5a119H		; IID_IDataBaseEngine
	DW	01676H
	DW	049a3H
	DB	0beH
	DB	0aeH
	DB	0caH
	DB	027H
	DB	0ebH
	DB	059H
	DB	097H
	DB	022H
?IID_IUDPNetworkEngine@@3U_GUID@@B DD 08d138a9bH	; IID_IUDPNetworkEngine
	DW	0a97dH
	DW	04d51H
	DB	09dH
	DB	06cH
	DB	0d8H
	DB	06eH
	DB	0a1H
	DB	084H
	DB	045H
	DB	02eH
?IID_ITCPNetworkEngine@@3U_GUID@@B DD 07747f683H	; IID_ITCPNetworkEngine
	DW	0c0daH
	DW	04588H
	DB	089H
	DB	0ccH
	DB	015H
	DB	093H
	DB	0acH
	DB	0c0H
	DB	044H
	DB	0c8H
?IID_ITCPSocketService@@3U_GUID@@B DD 0709a4449H	; IID_ITCPSocketService
	DW	0ad77H
	DW	04b3dH
	DB	0b4H
	DB	0d6H
	DB	08dH
	DB	0bH
	DB	028H
	DB	065H
	DB	0ecH
	DB	0aeH
?IID_IWEBSocketService@@3U_GUID@@B DD 091052ff2H	; IID_IWEBSocketService
	DW	0eb29H
	DW	040b9H
	DB	0b2H
	DB	0a2H
	DB	08aH
	DB	0a2H
	DB	098H
	DB	036H
	DB	02cH
	DB	084H
?IID_ITimerEngine@@3U_GUID@@B DD 0496401aeH		; IID_ITimerEngine
	DW	06fb0H
	DW	04e9fH
	DB	090H
	DB	098H
	DB	044H
	DB	09dH
	DB	09cH
	DB	0b2H
	DB	0bdH
	DB	097H
?IID_IAttemperEngine@@3U_GUID@@B DD 0b070b2cH		; IID_IAttemperEngine
	DW	09d72H
	DW	042d2H
	DB	0a5H
	DB	070H
	DB	0baH
	DB	02cH
	DB	0bfH
	DB	06fH
	DB	0bbH
	DB	01cH
?IID_IGameServiceManager@@3U_GUID@@B DD 04b2b9d8fH	; IID_IGameServiceManager
	DW	0ce1bH
	DW	044f3H
	DB	0a5H
	DB	022H
	DB	065H
	DB	01aH
	DB	065H
	DB	0c9H
	DB	0aH
	DB	025H
?IID_IAndroidUserItemSink@@3U_GUID@@B DD 01e8a1918H	; IID_IAndroidUserItemSink
	DW	0572bH
	DW	0453bH
	DB	0bcH
	DB	0bH
	DB	06bH
	DB	061H
	DB	070H
	DB	0a3H
	DB	03cH
	DB	0caH
CONST	ENDS
PUBLIC	??_H@YGXPAXIIP6EPAX0@Z@Z			; `vector constructor iterator'
PUBLIC	?__empty_global_delete@@YAXPAX@Z		; __empty_global_delete
PUBLIC	?__empty_global_delete@@YAXPAXI@Z		; __empty_global_delete
PUBLIC	_wmemcpy
PUBLIC	?GetHead@CSimpleList@@QBEPAXXZ			; CSimpleList::GetHead
PUBLIC	??B?$CTypedSimpleList@PAUCRuntimeClass@@@@QAEPAUCRuntimeClass@@XZ ; CTypedSimpleList<CRuntimeClass *>::operator CRuntimeClass *
PUBLIC	??B?$CTypedSimpleList@PAVCOleObjectFactory@@@@QAEPAVCOleObjectFactory@@XZ ; CTypedSimpleList<COleObjectFactory *>::operator COleObjectFactory *
PUBLIC	??$_Maklocstr@_W@std@@YAPA_WPBDPA_WABU_Cvtvec@@@Z ; std::_Maklocstr<wchar_t>
PUBLIC	?_Maklocwcs@std@@YAPA_WPB_W@Z			; std::_Maklocwcs
PUBLIC	??$_Getvals@_W@?$time_get@DV?$istreambuf_iterator@DU?$char_traits@D@std@@@std@@@std@@IAEX_WABV_Locinfo@1@@Z ; std::time_get<char,std::istreambuf_iterator<char,std::char_traits<char> > >::_Getvals<wchar_t>
PUBLIC	??$_Getvals@_W@?$time_get@_WV?$istreambuf_iterator@_WU?$char_traits@_W@std@@@std@@@std@@IAEX_WABV_Locinfo@1@@Z ; std::time_get<wchar_t,std::istreambuf_iterator<wchar_t,std::char_traits<wchar_t> > >::_Getvals<wchar_t>
PUBLIC	_DllMain@12
PUBLIC	??$_Maklocstr@D@std@@YAPADPBDPADABU_Cvtvec@@@Z	; std::_Maklocstr<char>
PUBLIC	??_C@_0GI@LKBGDILM@c?3?2program?5files?5?$CIx86?$CJ?2microsof@ ; `string'
PUBLIC	?__LINE__Var@?0??_Maklocwcs@std@@YAPA_WPB_W@Z@4JA ; `std::_Maklocwcs'::`1'::__LINE__Var
PUBLIC	??_C@_0GI@DJFLDKBN@c?3?2program?5files?5?$CIx86?$CJ?2microsof@ ; `string'
PUBLIC	??_C@_0N@LPFKKEBD@?3AM?3am?3PM?3pm@		; `string'
PUBLIC	??_C@_1BK@MHIKGOKE@?$AA?3?$AAA?$AAM?$AA?3?$AAa?$AAm?$AA?3?$AAP?$AAM?$AA?3?$AAp?$AAm@ ; `string'
EXTRN	_memcpy:PROC
EXTRN	__imp__wcslen:PROC
EXTRN	_strlen:PROC
EXTRN	__imp___calloc_dbg:PROC
EXTRN	??2CObject@@SGPAXI@Z:PROC			; CObject::operator new
EXTRN	?AfxGetModuleState@@YGPAVAFX_MODULE_STATE@@XZ:PROC ; AfxGetModuleState
EXTRN	??0CDynLinkLibrary@@QAE@AAUAFX_EXTENSION_MODULE@@H@Z:PROC ; CDynLinkLibrary::CDynLinkLibrary
EXTRN	?AfxInitExtensionModule@@YGHAAUAFX_EXTENSION_MODULE@@PAUHINSTANCE__@@@Z:PROC ; AfxInitExtensionModule
EXTRN	?AfxTermExtensionModule@@YGXAAUAFX_EXTENSION_MODULE@@H@Z:PROC ; AfxTermExtensionModule
EXTRN	?_Xbad_alloc@std@@YAXXZ:PROC			; std::_Xbad_alloc
EXTRN	__Mbrtowc:PROC
EXTRN	__imp_?_Getcvt@_Locinfo@std@@QBE?AU_Cvtvec@@XZ:PROC
EXTRN	__imp_?_Getdays@_Locinfo@std@@QBEPBDXZ:PROC
EXTRN	__imp_?_Getmonths@_Locinfo@std@@QBEPBDXZ:PROC
EXTRN	__imp_?_W_Getdays@_Locinfo@std@@QBEPBGXZ:PROC
EXTRN	__imp_?_W_Getmonths@_Locinfo@std@@QBEPBGXZ:PROC
EXTRN	@__security_check_cookie@4:PROC
EXTRN	___security_cookie:DWORD
_BSS	SEGMENT
?GameServiceDLL@@3UAFX_EXTENSION_MODULE@@A DB 014H DUP (?) ; GameServiceDLL
_BSS	ENDS
;	COMDAT ??_C@_1BK@MHIKGOKE@?$AA?3?$AAA?$AAM?$AA?3?$AAa?$AAm?$AA?3?$AAP?$AAM?$AA?3?$AAp?$AAm@
CONST	SEGMENT
??_C@_1BK@MHIKGOKE@?$AA?3?$AAA?$AAM?$AA?3?$AAa?$AAm?$AA?3?$AAP?$AAM?$AA?3?$AAp?$AAm@ DB ':'
	DB	00H, 'A', 00H, 'M', 00H, ':', 00H, 'a', 00H, 'm', 00H, ':', 00H
	DB	'P', 00H, 'M', 00H, ':', 00H, 'p', 00H, 'm', 00H, 00H, 00H ; `string'
CONST	ENDS
;	COMDAT ??_C@_0N@LPFKKEBD@?3AM?3am?3PM?3pm@
CONST	SEGMENT
??_C@_0N@LPFKKEBD@?3AM?3am?3PM?3pm@ DB ':AM:am:PM:pm', 00H ; `string'
CONST	ENDS
;	COMDAT ??_C@_0GI@DJFLDKBN@c?3?2program?5files?5?$CIx86?$CJ?2microsof@
CONST	SEGMENT
??_C@_0GI@DJFLDKBN@c?3?2program?5files?5?$CIx86?$CJ?2microsof@ DB 'c:\pro'
	DB	'gram files (x86)\microsoft visual studio\2017\community\vc\to'
	DB	'ols\msvc\14.16.27023\include\xlocnum', 00H	; `string'
CONST	ENDS
;	COMDAT ?__LINE__Var@?0??_Maklocwcs@std@@YAPA_WPB_W@Z@4JA
_DATA	SEGMENT
?__LINE__Var@?0??_Maklocwcs@std@@YAPA_WPB_W@Z@4JA DD 061H ; `std::_Maklocwcs'::`1'::__LINE__Var
_DATA	ENDS
;	COMDAT ??_C@_0GI@LKBGDILM@c?3?2program?5files?5?$CIx86?$CJ?2microsof@
CONST	SEGMENT
??_C@_0GI@LKBGDILM@c?3?2program?5files?5?$CIx86?$CJ?2microsof@ DB 'c:\pro'
	DB	'gram files (x86)\microsoft visual studio\2017\community\vc\to'
	DB	'ols\msvc\14.16.27023\include\xlocale', 00H	; `string'
CONST	ENDS
; Function compile flags: /Odtp /ZI
; File c:\program files (x86)\microsoft visual studio\2017\community\vc\tools\msvc\14.16.27023\include\xlocale
;	COMDAT ??$_Maklocstr@D@std@@YAPADPBDPADABU_Cvtvec@@@Z
_TEXT	SEGMENT
__Ptrnext$1 = -12					; size = 4
__Ptrdest$ = -8						; size = 4
__Count$ = -4						; size = 4
__Ptr$ = 8						; size = 4
___formal$ = 12						; size = 4
___formal$ = 16						; size = 4
??$_Maklocstr@D@std@@YAPADPBDPADABU_Cvtvec@@@Z PROC	; std::_Maklocstr<char>, COMDAT

; 664  : 	{	// convert C string to _Elem sequence using _Cvtvec

  00000	55		 push	 ebp
  00001	8b ec		 mov	 ebp, esp
  00003	83 ec 4c	 sub	 esp, 76			; 0000004cH
  00006	53		 push	 ebx
  00007	56		 push	 esi
  00008	57		 push	 edi

; 665  : 	size_t _Count = _CSTD strlen(_Ptr) + 1;

  00009	8b 45 08	 mov	 eax, DWORD PTR __Ptr$[ebp]
  0000c	50		 push	 eax
  0000d	e8 00 00 00 00	 call	 _strlen
  00012	83 c4 04	 add	 esp, 4
  00015	83 c0 01	 add	 eax, 1
  00018	89 45 fc	 mov	 DWORD PTR __Count$[ebp], eax

; 666  : 
; 667  : 	_Elem *_Ptrdest = (_Elem *)_calloc_dbg(_Count, sizeof (_Elem),

  0001b	68 9c 02 00 00	 push	 668			; 0000029cH
  00020	68 00 00 00 00	 push	 OFFSET ??_C@_0GI@LKBGDILM@c?3?2program?5files?5?$CIx86?$CJ?2microsof@
  00025	6a 02		 push	 2
  00027	6a 01		 push	 1
  00029	8b 45 fc	 mov	 eax, DWORD PTR __Count$[ebp]
  0002c	50		 push	 eax
  0002d	ff 15 00 00 00
	00		 call	 DWORD PTR __imp___calloc_dbg
  00033	83 c4 14	 add	 esp, 20			; 00000014H
  00036	89 45 f8	 mov	 DWORD PTR __Ptrdest$[ebp], eax

; 668  : 		_CRT_BLOCK, __FILE__, __LINE__);
; 669  : 
; 670  : 	if (!_Ptrdest)

  00039	83 7d f8 00	 cmp	 DWORD PTR __Ptrdest$[ebp], 0
  0003d	75 05		 jne	 SHORT $LN5@Maklocstr

; 671  : 		_Xbad_alloc();

  0003f	e8 00 00 00 00	 call	 ?_Xbad_alloc@std@@YAXXZ	; std::_Xbad_alloc
$LN5@Maklocstr:

; 672  : 
; 673  : 	for (_Elem *_Ptrnext = _Ptrdest; 0 < _Count; --_Count, ++_Ptrnext, ++_Ptr)

  00044	8b 45 f8	 mov	 eax, DWORD PTR __Ptrdest$[ebp]
  00047	89 45 f4	 mov	 DWORD PTR __Ptrnext$1[ebp], eax
  0004a	eb 1b		 jmp	 SHORT $LN4@Maklocstr
$LN2@Maklocstr:
  0004c	8b 45 fc	 mov	 eax, DWORD PTR __Count$[ebp]
  0004f	83 e8 01	 sub	 eax, 1
  00052	89 45 fc	 mov	 DWORD PTR __Count$[ebp], eax
  00055	8b 4d f4	 mov	 ecx, DWORD PTR __Ptrnext$1[ebp]
  00058	83 c1 01	 add	 ecx, 1
  0005b	89 4d f4	 mov	 DWORD PTR __Ptrnext$1[ebp], ecx
  0005e	8b 55 08	 mov	 edx, DWORD PTR __Ptr$[ebp]
  00061	83 c2 01	 add	 edx, 1
  00064	89 55 08	 mov	 DWORD PTR __Ptr$[ebp], edx
$LN4@Maklocstr:
  00067	83 7d fc 00	 cmp	 DWORD PTR __Count$[ebp], 0
  0006b	76 0c		 jbe	 SHORT $LN3@Maklocstr

; 674  : 		*_Ptrnext = (_Elem)(unsigned char)*_Ptr;

  0006d	8b 45 f4	 mov	 eax, DWORD PTR __Ptrnext$1[ebp]
  00070	8b 4d 08	 mov	 ecx, DWORD PTR __Ptr$[ebp]
  00073	8a 11		 mov	 dl, BYTE PTR [ecx]
  00075	88 10		 mov	 BYTE PTR [eax], dl
  00077	eb d3		 jmp	 SHORT $LN2@Maklocstr
$LN3@Maklocstr:

; 675  : 
; 676  : 	return (_Ptrdest);

  00079	8b 45 f8	 mov	 eax, DWORD PTR __Ptrdest$[ebp]
$LN6@Maklocstr:

; 677  : 	}

  0007c	5f		 pop	 edi
  0007d	5e		 pop	 esi
  0007e	5b		 pop	 ebx
  0007f	8b e5		 mov	 esp, ebp
  00081	5d		 pop	 ebp
  00082	c3		 ret	 0
??$_Maklocstr@D@std@@YAPADPBDPADABU_Cvtvec@@@Z ENDP	; std::_Maklocstr<char>
_TEXT	ENDS
; Function compile flags: /Odtp /ZI
; File g:\网狐\happygamewh\服务端\系统模块\服务器组件\游戏服务\gameservice.cpp
;	COMDAT _DllMain@12
_TEXT	SEGMENT
tv81 = -76						; size = 4
$T1 = -72						; size = 4
$T2 = -68						; size = 4
_hInstance$ = 8						; size = 4
_dwReason$ = 12						; size = 4
_lpReserved$ = 16					; size = 4
_DllMain@12 PROC					; COMDAT

; 14   : {

  00000	55		 push	 ebp
  00001	8b ec		 mov	 ebp, esp
  00003	83 ec 4c	 sub	 esp, 76			; 0000004cH
  00006	53		 push	 ebx
  00007	56		 push	 esi
  00008	57		 push	 edi

; 15   : 	if (dwReason==DLL_PROCESS_ATTACH)

  00009	83 7d 0c 01	 cmp	 DWORD PTR _dwReason$[ebp], 1
  0000d	75 49		 jne	 SHORT $LN2@DllMain

; 16   : 	{
; 17   : 		if (!AfxInitExtensionModule(GameServiceDLL, hInstance)) return 0;

  0000f	8b 45 08	 mov	 eax, DWORD PTR _hInstance$[ebp]
  00012	50		 push	 eax
  00013	68 00 00 00 00	 push	 OFFSET ?GameServiceDLL@@3UAFX_EXTENSION_MODULE@@A
  00018	e8 00 00 00 00	 call	 ?AfxInitExtensionModule@@YGHAAUAFX_EXTENSION_MODULE@@PAUHINSTANCE__@@@Z ; AfxInitExtensionModule
  0001d	85 c0		 test	 eax, eax
  0001f	75 04		 jne	 SHORT $LN4@DllMain
  00021	33 c0		 xor	 eax, eax
  00023	eb 4a		 jmp	 SHORT $LN1@DllMain
$LN4@DllMain:

; 18   : 		new CDynLinkLibrary(GameServiceDLL);

  00025	6a 40		 push	 64			; 00000040H
  00027	e8 00 00 00 00	 call	 ??2CObject@@SGPAXI@Z	; CObject::operator new
  0002c	89 45 b8	 mov	 DWORD PTR $T1[ebp], eax
  0002f	83 7d b8 00	 cmp	 DWORD PTR $T1[ebp], 0
  00033	74 14		 je	 SHORT $LN7@DllMain
  00035	6a 00		 push	 0
  00037	68 00 00 00 00	 push	 OFFSET ?GameServiceDLL@@3UAFX_EXTENSION_MODULE@@A
  0003c	8b 4d b8	 mov	 ecx, DWORD PTR $T1[ebp]
  0003f	e8 00 00 00 00	 call	 ??0CDynLinkLibrary@@QAE@AAUAFX_EXTENSION_MODULE@@H@Z ; CDynLinkLibrary::CDynLinkLibrary
  00044	89 45 b4	 mov	 DWORD PTR tv81[ebp], eax
  00047	eb 07		 jmp	 SHORT $LN8@DllMain
$LN7@DllMain:
  00049	c7 45 b4 00 00
	00 00		 mov	 DWORD PTR tv81[ebp], 0
$LN8@DllMain:
  00050	8b 45 b4	 mov	 eax, DWORD PTR tv81[ebp]
  00053	89 45 bc	 mov	 DWORD PTR $T2[ebp], eax
  00056	eb 12		 jmp	 SHORT $LN3@DllMain
$LN2@DllMain:

; 19   : 	}
; 20   : 	else if (dwReason==DLL_PROCESS_DETACH)

  00058	83 7d 0c 00	 cmp	 DWORD PTR _dwReason$[ebp], 0
  0005c	75 0c		 jne	 SHORT $LN3@DllMain

; 21   : 	{
; 22   : 		AfxTermExtensionModule(GameServiceDLL);

  0005e	6a 00		 push	 0
  00060	68 00 00 00 00	 push	 OFFSET ?GameServiceDLL@@3UAFX_EXTENSION_MODULE@@A
  00065	e8 00 00 00 00	 call	 ?AfxTermExtensionModule@@YGXAAUAFX_EXTENSION_MODULE@@H@Z ; AfxTermExtensionModule
$LN3@DllMain:

; 23   : 	}
; 24   : 
; 25   : 	return 1;

  0006a	b8 01 00 00 00	 mov	 eax, 1
$LN1@DllMain:

; 26   : }

  0006f	5f		 pop	 edi
  00070	5e		 pop	 esi
  00071	5b		 pop	 ebx
  00072	8b e5		 mov	 esp, ebp
  00074	5d		 pop	 ebp
  00075	c2 0c 00	 ret	 12			; 0000000cH
_DllMain@12 ENDP
_TEXT	ENDS
; Function compile flags: /Odtp /ZI
; File c:\program files (x86)\microsoft visual studio\2017\community\vc\tools\msvc\14.16.27023\include\xloctime
;	COMDAT ??$_Getvals@_W@?$time_get@_WV?$istreambuf_iterator@_WU?$char_traits@_W@std@@@std@@@std@@IAEX_WABV_Locinfo@1@@Z
_TEXT	SEGMENT
$T1 = -116						; size = 44
_this$ = -8						; size = 4
__$ArrayPad$ = -4					; size = 4
___formal$ = 8						; size = 2
__Lobj$ = 12						; size = 4
??$_Getvals@_W@?$time_get@_WV?$istreambuf_iterator@_WU?$char_traits@_W@std@@@std@@@std@@IAEX_WABV_Locinfo@1@@Z PROC ; std::time_get<wchar_t,std::istreambuf_iterator<wchar_t,std::char_traits<wchar_t> > >::_Getvals<wchar_t>, COMDAT
; _this$ = ecx

; 216  : 		{	// get values

  00000	55		 push	 ebp
  00001	8b ec		 mov	 ebp, esp
  00003	83 ec 74	 sub	 esp, 116		; 00000074H
  00006	a1 00 00 00 00	 mov	 eax, DWORD PTR ___security_cookie
  0000b	33 c5		 xor	 eax, ebp
  0000d	89 45 fc	 mov	 DWORD PTR __$ArrayPad$[ebp], eax
  00010	53		 push	 ebx
  00011	56		 push	 esi
  00012	57		 push	 edi
  00013	89 4d f8	 mov	 DWORD PTR _this$[ebp], ecx

; 217  : 		_Cvt = _Lobj._Getcvt();

  00016	8d 45 8c	 lea	 eax, DWORD PTR $T1[ebp]
  00019	50		 push	 eax
  0001a	8b 4d 0c	 mov	 ecx, DWORD PTR __Lobj$[ebp]
  0001d	ff 15 00 00 00
	00		 call	 DWORD PTR __imp_?_Getcvt@_Locinfo@std@@QBE?AU_Cvtvec@@XZ
  00023	8b 7d f8	 mov	 edi, DWORD PTR _this$[ebp]
  00026	83 c7 18	 add	 edi, 24			; 00000018H
  00029	b9 0b 00 00 00	 mov	 ecx, 11			; 0000000bH
  0002e	8b f0		 mov	 esi, eax
  00030	f3 a5		 rep movsd

; 218  : 
; 219  : 		if (is_same_v<_Elem2, wchar_t>)

  00032	b8 01 00 00 00	 mov	 eax, 1
  00037	85 c0		 test	 eax, eax
  00039	74 45		 je	 SHORT $LN2@Getvals

; 220  : 			{
; 221  : 			_Days = (const _Elem *)_Maklocwcs((const wchar_t *)_Lobj._W_Getdays());

  0003b	8b 4d 0c	 mov	 ecx, DWORD PTR __Lobj$[ebp]
  0003e	ff 15 00 00 00
	00		 call	 DWORD PTR __imp_?_W_Getdays@_Locinfo@std@@QBEPBGXZ
  00044	50		 push	 eax
  00045	e8 00 00 00 00	 call	 ?_Maklocwcs@std@@YAPA_WPB_W@Z ; std::_Maklocwcs
  0004a	83 c4 04	 add	 esp, 4
  0004d	8b 4d f8	 mov	 ecx, DWORD PTR _this$[ebp]
  00050	89 41 08	 mov	 DWORD PTR [ecx+8], eax

; 222  : 			_Months = (const _Elem *)_Maklocwcs((const wchar_t *)_Lobj._W_Getmonths());

  00053	8b 4d 0c	 mov	 ecx, DWORD PTR __Lobj$[ebp]
  00056	ff 15 00 00 00
	00		 call	 DWORD PTR __imp_?_W_Getmonths@_Locinfo@std@@QBEPBGXZ
  0005c	50		 push	 eax
  0005d	e8 00 00 00 00	 call	 ?_Maklocwcs@std@@YAPA_WPB_W@Z ; std::_Maklocwcs
  00062	83 c4 04	 add	 esp, 4
  00065	8b 4d f8	 mov	 ecx, DWORD PTR _this$[ebp]
  00068	89 41 0c	 mov	 DWORD PTR [ecx+12], eax

; 223  : 			_Ampm = (const _Elem *)_Maklocwcs(L":AM:am:PM:pm");

  0006b	68 00 00 00 00	 push	 OFFSET ??_C@_1BK@MHIKGOKE@?$AA?3?$AAA?$AAM?$AA?3?$AAa?$AAm?$AA?3?$AAP?$AAM?$AA?3?$AAp?$AAm@
  00070	e8 00 00 00 00	 call	 ?_Maklocwcs@std@@YAPA_WPB_W@Z ; std::_Maklocwcs
  00075	83 c4 04	 add	 esp, 4
  00078	8b 4d f8	 mov	 ecx, DWORD PTR _this$[ebp]
  0007b	89 41 10	 mov	 DWORD PTR [ecx+16], eax

; 224  : 			}
; 225  : 		else

  0007e	eb 5e		 jmp	 SHORT $LN1@Getvals
$LN2@Getvals:

; 226  : 			{
; 227  : 			_Days = _Maklocstr(_Lobj._Getdays(), static_cast<_Elem *>(nullptr), _Cvt);

  00080	8b 45 f8	 mov	 eax, DWORD PTR _this$[ebp]
  00083	83 c0 18	 add	 eax, 24			; 00000018H
  00086	50		 push	 eax
  00087	6a 00		 push	 0
  00089	8b 4d 0c	 mov	 ecx, DWORD PTR __Lobj$[ebp]
  0008c	ff 15 00 00 00
	00		 call	 DWORD PTR __imp_?_Getdays@_Locinfo@std@@QBEPBDXZ
  00092	50		 push	 eax
  00093	e8 00 00 00 00	 call	 ??$_Maklocstr@_W@std@@YAPA_WPBDPA_WABU_Cvtvec@@@Z ; std::_Maklocstr<wchar_t>
  00098	83 c4 0c	 add	 esp, 12			; 0000000cH
  0009b	8b 4d f8	 mov	 ecx, DWORD PTR _this$[ebp]
  0009e	89 41 08	 mov	 DWORD PTR [ecx+8], eax

; 228  : 			_Months = _Maklocstr(_Lobj._Getmonths(), static_cast<_Elem *>(nullptr), _Cvt);

  000a1	8b 45 f8	 mov	 eax, DWORD PTR _this$[ebp]
  000a4	83 c0 18	 add	 eax, 24			; 00000018H
  000a7	50		 push	 eax
  000a8	6a 00		 push	 0
  000aa	8b 4d 0c	 mov	 ecx, DWORD PTR __Lobj$[ebp]
  000ad	ff 15 00 00 00
	00		 call	 DWORD PTR __imp_?_Getmonths@_Locinfo@std@@QBEPBDXZ
  000b3	50		 push	 eax
  000b4	e8 00 00 00 00	 call	 ??$_Maklocstr@_W@std@@YAPA_WPBDPA_WABU_Cvtvec@@@Z ; std::_Maklocstr<wchar_t>
  000b9	83 c4 0c	 add	 esp, 12			; 0000000cH
  000bc	8b 4d f8	 mov	 ecx, DWORD PTR _this$[ebp]
  000bf	89 41 0c	 mov	 DWORD PTR [ecx+12], eax

; 229  : 			_Ampm = _Maklocstr(":AM:am:PM:pm", static_cast<_Elem *>(nullptr), _Cvt);

  000c2	8b 45 f8	 mov	 eax, DWORD PTR _this$[ebp]
  000c5	83 c0 18	 add	 eax, 24			; 00000018H
  000c8	50		 push	 eax
  000c9	6a 00		 push	 0
  000cb	68 00 00 00 00	 push	 OFFSET ??_C@_0N@LPFKKEBD@?3AM?3am?3PM?3pm@
  000d0	e8 00 00 00 00	 call	 ??$_Maklocstr@_W@std@@YAPA_WPBDPA_WABU_Cvtvec@@@Z ; std::_Maklocstr<wchar_t>
  000d5	83 c4 0c	 add	 esp, 12			; 0000000cH
  000d8	8b 4d f8	 mov	 ecx, DWORD PTR _this$[ebp]
  000db	89 41 10	 mov	 DWORD PTR [ecx+16], eax
$LN1@Getvals:

; 230  : 			}
; 231  : 		}

  000de	5f		 pop	 edi
  000df	5e		 pop	 esi
  000e0	5b		 pop	 ebx
  000e1	8b 4d fc	 mov	 ecx, DWORD PTR __$ArrayPad$[ebp]
  000e4	33 cd		 xor	 ecx, ebp
  000e6	e8 00 00 00 00	 call	 @__security_check_cookie@4
  000eb	8b e5		 mov	 esp, ebp
  000ed	5d		 pop	 ebp
  000ee	c2 08 00	 ret	 8
??$_Getvals@_W@?$time_get@_WV?$istreambuf_iterator@_WU?$char_traits@_W@std@@@std@@@std@@IAEX_WABV_Locinfo@1@@Z ENDP ; std::time_get<wchar_t,std::istreambuf_iterator<wchar_t,std::char_traits<wchar_t> > >::_Getvals<wchar_t>
_TEXT	ENDS
; Function compile flags: /Odtp /ZI
; File c:\program files (x86)\microsoft visual studio\2017\community\vc\tools\msvc\14.16.27023\include\xloctime
;	COMDAT ??$_Getvals@_W@?$time_get@DV?$istreambuf_iterator@DU?$char_traits@D@std@@@std@@@std@@IAEX_WABV_Locinfo@1@@Z
_TEXT	SEGMENT
$T1 = -116						; size = 44
_this$ = -8						; size = 4
__$ArrayPad$ = -4					; size = 4
___formal$ = 8						; size = 2
__Lobj$ = 12						; size = 4
??$_Getvals@_W@?$time_get@DV?$istreambuf_iterator@DU?$char_traits@D@std@@@std@@@std@@IAEX_WABV_Locinfo@1@@Z PROC ; std::time_get<char,std::istreambuf_iterator<char,std::char_traits<char> > >::_Getvals<wchar_t>, COMDAT
; _this$ = ecx

; 216  : 		{	// get values

  00000	55		 push	 ebp
  00001	8b ec		 mov	 ebp, esp
  00003	83 ec 74	 sub	 esp, 116		; 00000074H
  00006	a1 00 00 00 00	 mov	 eax, DWORD PTR ___security_cookie
  0000b	33 c5		 xor	 eax, ebp
  0000d	89 45 fc	 mov	 DWORD PTR __$ArrayPad$[ebp], eax
  00010	53		 push	 ebx
  00011	56		 push	 esi
  00012	57		 push	 edi
  00013	89 4d f8	 mov	 DWORD PTR _this$[ebp], ecx

; 217  : 		_Cvt = _Lobj._Getcvt();

  00016	8d 45 8c	 lea	 eax, DWORD PTR $T1[ebp]
  00019	50		 push	 eax
  0001a	8b 4d 0c	 mov	 ecx, DWORD PTR __Lobj$[ebp]
  0001d	ff 15 00 00 00
	00		 call	 DWORD PTR __imp_?_Getcvt@_Locinfo@std@@QBE?AU_Cvtvec@@XZ
  00023	8b 7d f8	 mov	 edi, DWORD PTR _this$[ebp]
  00026	83 c7 18	 add	 edi, 24			; 00000018H
  00029	b9 0b 00 00 00	 mov	 ecx, 11			; 0000000bH
  0002e	8b f0		 mov	 esi, eax
  00030	f3 a5		 rep movsd

; 218  : 
; 219  : 		if (is_same_v<_Elem2, wchar_t>)

  00032	b8 01 00 00 00	 mov	 eax, 1
  00037	85 c0		 test	 eax, eax
  00039	74 45		 je	 SHORT $LN2@Getvals

; 220  : 			{
; 221  : 			_Days = (const _Elem *)_Maklocwcs((const wchar_t *)_Lobj._W_Getdays());

  0003b	8b 4d 0c	 mov	 ecx, DWORD PTR __Lobj$[ebp]
  0003e	ff 15 00 00 00
	00		 call	 DWORD PTR __imp_?_W_Getdays@_Locinfo@std@@QBEPBGXZ
  00044	50		 push	 eax
  00045	e8 00 00 00 00	 call	 ?_Maklocwcs@std@@YAPA_WPB_W@Z ; std::_Maklocwcs
  0004a	83 c4 04	 add	 esp, 4
  0004d	8b 4d f8	 mov	 ecx, DWORD PTR _this$[ebp]
  00050	89 41 08	 mov	 DWORD PTR [ecx+8], eax

; 222  : 			_Months = (const _Elem *)_Maklocwcs((const wchar_t *)_Lobj._W_Getmonths());

  00053	8b 4d 0c	 mov	 ecx, DWORD PTR __Lobj$[ebp]
  00056	ff 15 00 00 00
	00		 call	 DWORD PTR __imp_?_W_Getmonths@_Locinfo@std@@QBEPBGXZ
  0005c	50		 push	 eax
  0005d	e8 00 00 00 00	 call	 ?_Maklocwcs@std@@YAPA_WPB_W@Z ; std::_Maklocwcs
  00062	83 c4 04	 add	 esp, 4
  00065	8b 4d f8	 mov	 ecx, DWORD PTR _this$[ebp]
  00068	89 41 0c	 mov	 DWORD PTR [ecx+12], eax

; 223  : 			_Ampm = (const _Elem *)_Maklocwcs(L":AM:am:PM:pm");

  0006b	68 00 00 00 00	 push	 OFFSET ??_C@_1BK@MHIKGOKE@?$AA?3?$AAA?$AAM?$AA?3?$AAa?$AAm?$AA?3?$AAP?$AAM?$AA?3?$AAp?$AAm@
  00070	e8 00 00 00 00	 call	 ?_Maklocwcs@std@@YAPA_WPB_W@Z ; std::_Maklocwcs
  00075	83 c4 04	 add	 esp, 4
  00078	8b 4d f8	 mov	 ecx, DWORD PTR _this$[ebp]
  0007b	89 41 10	 mov	 DWORD PTR [ecx+16], eax

; 224  : 			}
; 225  : 		else

  0007e	eb 5e		 jmp	 SHORT $LN1@Getvals
$LN2@Getvals:

; 226  : 			{
; 227  : 			_Days = _Maklocstr(_Lobj._Getdays(), static_cast<_Elem *>(nullptr), _Cvt);

  00080	8b 45 f8	 mov	 eax, DWORD PTR _this$[ebp]
  00083	83 c0 18	 add	 eax, 24			; 00000018H
  00086	50		 push	 eax
  00087	6a 00		 push	 0
  00089	8b 4d 0c	 mov	 ecx, DWORD PTR __Lobj$[ebp]
  0008c	ff 15 00 00 00
	00		 call	 DWORD PTR __imp_?_Getdays@_Locinfo@std@@QBEPBDXZ
  00092	50		 push	 eax
  00093	e8 00 00 00 00	 call	 ??$_Maklocstr@D@std@@YAPADPBDPADABU_Cvtvec@@@Z ; std::_Maklocstr<char>
  00098	83 c4 0c	 add	 esp, 12			; 0000000cH
  0009b	8b 4d f8	 mov	 ecx, DWORD PTR _this$[ebp]
  0009e	89 41 08	 mov	 DWORD PTR [ecx+8], eax

; 228  : 			_Months = _Maklocstr(_Lobj._Getmonths(), static_cast<_Elem *>(nullptr), _Cvt);

  000a1	8b 45 f8	 mov	 eax, DWORD PTR _this$[ebp]
  000a4	83 c0 18	 add	 eax, 24			; 00000018H
  000a7	50		 push	 eax
  000a8	6a 00		 push	 0
  000aa	8b 4d 0c	 mov	 ecx, DWORD PTR __Lobj$[ebp]
  000ad	ff 15 00 00 00
	00		 call	 DWORD PTR __imp_?_Getmonths@_Locinfo@std@@QBEPBDXZ
  000b3	50		 push	 eax
  000b4	e8 00 00 00 00	 call	 ??$_Maklocstr@D@std@@YAPADPBDPADABU_Cvtvec@@@Z ; std::_Maklocstr<char>
  000b9	83 c4 0c	 add	 esp, 12			; 0000000cH
  000bc	8b 4d f8	 mov	 ecx, DWORD PTR _this$[ebp]
  000bf	89 41 0c	 mov	 DWORD PTR [ecx+12], eax

; 229  : 			_Ampm = _Maklocstr(":AM:am:PM:pm", static_cast<_Elem *>(nullptr), _Cvt);

  000c2	8b 45 f8	 mov	 eax, DWORD PTR _this$[ebp]
  000c5	83 c0 18	 add	 eax, 24			; 00000018H
  000c8	50		 push	 eax
  000c9	6a 00		 push	 0
  000cb	68 00 00 00 00	 push	 OFFSET ??_C@_0N@LPFKKEBD@?3AM?3am?3PM?3pm@
  000d0	e8 00 00 00 00	 call	 ??$_Maklocstr@D@std@@YAPADPBDPADABU_Cvtvec@@@Z ; std::_Maklocstr<char>
  000d5	83 c4 0c	 add	 esp, 12			; 0000000cH
  000d8	8b 4d f8	 mov	 ecx, DWORD PTR _this$[ebp]
  000db	89 41 10	 mov	 DWORD PTR [ecx+16], eax
$LN1@Getvals:

; 230  : 			}
; 231  : 		}

  000de	5f		 pop	 edi
  000df	5e		 pop	 esi
  000e0	5b		 pop	 ebx
  000e1	8b 4d fc	 mov	 ecx, DWORD PTR __$ArrayPad$[ebp]
  000e4	33 cd		 xor	 ecx, ebp
  000e6	e8 00 00 00 00	 call	 @__security_check_cookie@4
  000eb	8b e5		 mov	 esp, ebp
  000ed	5d		 pop	 ebp
  000ee	c2 08 00	 ret	 8
??$_Getvals@_W@?$time_get@DV?$istreambuf_iterator@DU?$char_traits@D@std@@@std@@@std@@IAEX_WABV_Locinfo@1@@Z ENDP ; std::time_get<char,std::istreambuf_iterator<char,std::char_traits<char> > >::_Getvals<wchar_t>
_TEXT	ENDS
; Function compile flags: /Odtp /ZI
; File c:\program files (x86)\microsoft visual studio\2017\community\vc\tools\msvc\14.16.27023\include\xlocnum
;	COMDAT ?_Maklocwcs@std@@YAPA_WPB_W@Z
_TEXT	SEGMENT
__Ptrdest$ = -8						; size = 4
__Count$ = -4						; size = 4
__Ptr$ = 8						; size = 4
?_Maklocwcs@std@@YAPA_WPB_W@Z PROC			; std::_Maklocwcs, COMDAT

; 97   : 	{	// copy NTWCS to allocated storage

  00000	55		 push	 ebp
  00001	8b ec		 mov	 ebp, esp
  00003	83 ec 48	 sub	 esp, 72			; 00000048H
  00006	53		 push	 ebx
  00007	56		 push	 esi
  00008	57		 push	 edi

; 98   : 	const size_t _Count = _CSTD wcslen(_Ptr) + 1;

  00009	8b 45 08	 mov	 eax, DWORD PTR __Ptr$[ebp]
  0000c	50		 push	 eax
  0000d	ff 15 00 00 00
	00		 call	 DWORD PTR __imp__wcslen
  00013	83 c4 04	 add	 esp, 4
  00016	83 c0 01	 add	 eax, 1
  00019	89 45 fc	 mov	 DWORD PTR __Count$[ebp], eax

; 99   : 
; 100  : 	wchar_t *_Ptrdest = (wchar_t *)_calloc_dbg(_Count, sizeof (wchar_t),

  0001c	a1 00 00 00 00	 mov	 eax, DWORD PTR ?__LINE__Var@?0??_Maklocwcs@std@@YAPA_WPB_W@Z@4JA
  00021	83 c0 04	 add	 eax, 4
  00024	50		 push	 eax
  00025	68 00 00 00 00	 push	 OFFSET ??_C@_0GI@DJFLDKBN@c?3?2program?5files?5?$CIx86?$CJ?2microsof@
  0002a	6a 02		 push	 2
  0002c	6a 02		 push	 2
  0002e	8b 4d fc	 mov	 ecx, DWORD PTR __Count$[ebp]
  00031	51		 push	 ecx
  00032	ff 15 00 00 00
	00		 call	 DWORD PTR __imp___calloc_dbg
  00038	83 c4 14	 add	 esp, 20			; 00000014H
  0003b	89 45 f8	 mov	 DWORD PTR __Ptrdest$[ebp], eax

; 101  : 		_CRT_BLOCK, __FILE__, __LINE__);
; 102  : 
; 103  : 	if (!_Ptrdest)

  0003e	83 7d f8 00	 cmp	 DWORD PTR __Ptrdest$[ebp], 0
  00042	75 05		 jne	 SHORT $LN2@Maklocwcs

; 104  : 		_Xbad_alloc();

  00044	e8 00 00 00 00	 call	 ?_Xbad_alloc@std@@YAXXZ	; std::_Xbad_alloc
$LN2@Maklocwcs:

; 105  : 	_CSTD wmemcpy(_Ptrdest, _Ptr, _Count);

  00049	8b 45 fc	 mov	 eax, DWORD PTR __Count$[ebp]
  0004c	50		 push	 eax
  0004d	8b 4d 08	 mov	 ecx, DWORD PTR __Ptr$[ebp]
  00050	51		 push	 ecx
  00051	8b 55 f8	 mov	 edx, DWORD PTR __Ptrdest$[ebp]
  00054	52		 push	 edx
  00055	e8 00 00 00 00	 call	 _wmemcpy
  0005a	83 c4 0c	 add	 esp, 12			; 0000000cH

; 106  : 	return (_Ptrdest);

  0005d	8b 45 f8	 mov	 eax, DWORD PTR __Ptrdest$[ebp]
$LN3@Maklocwcs:

; 107  : 	}

  00060	5f		 pop	 edi
  00061	5e		 pop	 esi
  00062	5b		 pop	 ebx
  00063	8b e5		 mov	 esp, ebp
  00065	5d		 pop	 ebp
  00066	c3		 ret	 0
?_Maklocwcs@std@@YAPA_WPB_W@Z ENDP			; std::_Maklocwcs
_TEXT	ENDS
; Function compile flags: /Odtp /ZI
; File c:\program files (x86)\microsoft visual studio\2017\community\vc\tools\msvc\14.16.27023\include\xlocale
;	COMDAT ??$_Maklocstr@_W@std@@YAPA_WPBDPA_WABU_Cvtvec@@@Z
_TEXT	SEGMENT
__Mbst2$ = -48						; size = 8
__Ptrnext$ = -40					; size = 4
__Ptrdest$ = -36					; size = 4
__Mbst1$ = -32						; size = 8
__Wc$ = -24						; size = 2
__Bytes$ = -20						; size = 4
__Ptr1$ = -16						; size = 4
__Wchars$ = -12						; size = 4
__Count1$ = -8						; size = 4
__Count$ = -4						; size = 4
__Ptr$ = 8						; size = 4
___formal$ = 12						; size = 4
__Cvt$ = 16						; size = 4
??$_Maklocstr@_W@std@@YAPA_WPBDPA_WABU_Cvtvec@@@Z PROC	; std::_Maklocstr<wchar_t>, COMDAT

; 682  : 	{	// convert C string to wchar_t sequence using _Cvtvec

  00000	55		 push	 ebp
  00001	8b ec		 mov	 ebp, esp
  00003	83 ec 70	 sub	 esp, 112		; 00000070H
  00006	53		 push	 ebx
  00007	56		 push	 esi
  00008	57		 push	 edi

; 683  : 	size_t _Count, _Count1;
; 684  : 	size_t _Wchars;
; 685  : 	const char *_Ptr1;
; 686  : 	int _Bytes;
; 687  : 	wchar_t _Wc;
; 688  : 	mbstate_t _Mbst1 = {};

  00009	33 c0		 xor	 eax, eax
  0000b	89 45 e0	 mov	 DWORD PTR __Mbst1$[ebp], eax
  0000e	89 45 e4	 mov	 DWORD PTR __Mbst1$[ebp+4], eax

; 689  : 
; 690  : 	_Count1 = _CSTD strlen(_Ptr) + 1;

  00011	8b 45 08	 mov	 eax, DWORD PTR __Ptr$[ebp]
  00014	50		 push	 eax
  00015	e8 00 00 00 00	 call	 _strlen
  0001a	83 c4 04	 add	 esp, 4
  0001d	83 c0 01	 add	 eax, 1
  00020	89 45 f8	 mov	 DWORD PTR __Count1$[ebp], eax

; 691  : 	for (_Count = _Count1, _Wchars = 0, _Ptr1 = _Ptr; 0 < _Count;

  00023	8b 45 f8	 mov	 eax, DWORD PTR __Count1$[ebp]
  00026	89 45 fc	 mov	 DWORD PTR __Count$[ebp], eax
  00029	c7 45 f4 00 00
	00 00		 mov	 DWORD PTR __Wchars$[ebp], 0
  00030	8b 4d 08	 mov	 ecx, DWORD PTR __Ptr$[ebp]
  00033	89 4d f0	 mov	 DWORD PTR __Ptr1$[ebp], ecx
  00036	eb 1b		 jmp	 SHORT $LN4@Maklocstr
$LN2@Maklocstr:

; 692  : 		_Count -= _Bytes, _Ptr1 += _Bytes, ++_Wchars)

  00038	8b 45 fc	 mov	 eax, DWORD PTR __Count$[ebp]
  0003b	2b 45 ec	 sub	 eax, DWORD PTR __Bytes$[ebp]
  0003e	89 45 fc	 mov	 DWORD PTR __Count$[ebp], eax
  00041	8b 4d f0	 mov	 ecx, DWORD PTR __Ptr1$[ebp]
  00044	03 4d ec	 add	 ecx, DWORD PTR __Bytes$[ebp]
  00047	89 4d f0	 mov	 DWORD PTR __Ptr1$[ebp], ecx
  0004a	8b 55 f4	 mov	 edx, DWORD PTR __Wchars$[ebp]
  0004d	83 c2 01	 add	 edx, 1
  00050	89 55 f4	 mov	 DWORD PTR __Wchars$[ebp], edx
$LN4@Maklocstr:

; 691  : 	for (_Count = _Count1, _Wchars = 0, _Ptr1 = _Ptr; 0 < _Count;

  00053	83 7d fc 00	 cmp	 DWORD PTR __Count$[ebp], 0
  00057	76 29		 jbe	 SHORT $LN3@Maklocstr

; 693  : 		if ((_Bytes = _Mbrtowc(&_Wc, _Ptr1, _Count, &_Mbst1, &_Cvt)) <= 0)

  00059	8b 45 10	 mov	 eax, DWORD PTR __Cvt$[ebp]
  0005c	50		 push	 eax
  0005d	8d 4d e0	 lea	 ecx, DWORD PTR __Mbst1$[ebp]
  00060	51		 push	 ecx
  00061	8b 55 fc	 mov	 edx, DWORD PTR __Count$[ebp]
  00064	52		 push	 edx
  00065	8b 45 f0	 mov	 eax, DWORD PTR __Ptr1$[ebp]
  00068	50		 push	 eax
  00069	8d 4d e8	 lea	 ecx, DWORD PTR __Wc$[ebp]
  0006c	51		 push	 ecx
  0006d	e8 00 00 00 00	 call	 __Mbrtowc
  00072	83 c4 14	 add	 esp, 20			; 00000014H
  00075	89 45 ec	 mov	 DWORD PTR __Bytes$[ebp], eax
  00078	83 7d ec 00	 cmp	 DWORD PTR __Bytes$[ebp], 0
  0007c	7f 02		 jg	 SHORT $LN8@Maklocstr

; 694  : 			break;

  0007e	eb 02		 jmp	 SHORT $LN3@Maklocstr
$LN8@Maklocstr:

; 695  : 	++_Wchars;	// count terminating nul

  00080	eb b6		 jmp	 SHORT $LN2@Maklocstr
$LN3@Maklocstr:
  00082	8b 45 f4	 mov	 eax, DWORD PTR __Wchars$[ebp]
  00085	83 c0 01	 add	 eax, 1
  00088	89 45 f4	 mov	 DWORD PTR __Wchars$[ebp], eax

; 696  : 
; 697  : 	wchar_t *_Ptrdest = (wchar_t *)_calloc_dbg(_Wchars, sizeof (wchar_t),

  0008b	68 ba 02 00 00	 push	 698			; 000002baH
  00090	68 00 00 00 00	 push	 OFFSET ??_C@_0GI@LKBGDILM@c?3?2program?5files?5?$CIx86?$CJ?2microsof@
  00095	6a 02		 push	 2
  00097	6a 02		 push	 2
  00099	8b 45 f4	 mov	 eax, DWORD PTR __Wchars$[ebp]
  0009c	50		 push	 eax
  0009d	ff 15 00 00 00
	00		 call	 DWORD PTR __imp___calloc_dbg
  000a3	83 c4 14	 add	 esp, 20			; 00000014H
  000a6	89 45 dc	 mov	 DWORD PTR __Ptrdest$[ebp], eax

; 698  : 		_CRT_BLOCK, __FILE__, __LINE__);
; 699  : 
; 700  : 	if (!_Ptrdest)

  000a9	83 7d dc 00	 cmp	 DWORD PTR __Ptrdest$[ebp], 0
  000ad	75 05		 jne	 SHORT $LN9@Maklocstr

; 701  : 		_Xbad_alloc();

  000af	e8 00 00 00 00	 call	 ?_Xbad_alloc@std@@YAXXZ	; std::_Xbad_alloc
$LN9@Maklocstr:

; 702  : 	wchar_t *_Ptrnext = _Ptrdest;

  000b4	8b 45 dc	 mov	 eax, DWORD PTR __Ptrdest$[ebp]
  000b7	89 45 d8	 mov	 DWORD PTR __Ptrnext$[ebp], eax

; 703  : 	mbstate_t _Mbst2 = {};

  000ba	33 c0		 xor	 eax, eax
  000bc	89 45 d0	 mov	 DWORD PTR __Mbst2$[ebp], eax
  000bf	89 45 d4	 mov	 DWORD PTR __Mbst2$[ebp+4], eax

; 704  : 
; 705  : 	for (; 0 < _Wchars;

  000c2	eb 24		 jmp	 SHORT $LN7@Maklocstr
$LN5@Maklocstr:

; 706  : 		_Count -= _Bytes, _Ptr += _Bytes, --_Wchars, ++_Ptrnext)

  000c4	8b 45 fc	 mov	 eax, DWORD PTR __Count$[ebp]
  000c7	2b 45 ec	 sub	 eax, DWORD PTR __Bytes$[ebp]
  000ca	89 45 fc	 mov	 DWORD PTR __Count$[ebp], eax
  000cd	8b 4d 08	 mov	 ecx, DWORD PTR __Ptr$[ebp]
  000d0	03 4d ec	 add	 ecx, DWORD PTR __Bytes$[ebp]
  000d3	89 4d 08	 mov	 DWORD PTR __Ptr$[ebp], ecx
  000d6	8b 55 f4	 mov	 edx, DWORD PTR __Wchars$[ebp]
  000d9	83 ea 01	 sub	 edx, 1
  000dc	89 55 f4	 mov	 DWORD PTR __Wchars$[ebp], edx
  000df	8b 45 d8	 mov	 eax, DWORD PTR __Ptrnext$[ebp]
  000e2	83 c0 02	 add	 eax, 2
  000e5	89 45 d8	 mov	 DWORD PTR __Ptrnext$[ebp], eax
$LN7@Maklocstr:

; 704  : 
; 705  : 	for (; 0 < _Wchars;

  000e8	83 7d f4 00	 cmp	 DWORD PTR __Wchars$[ebp], 0
  000ec	76 29		 jbe	 SHORT $LN6@Maklocstr

; 707  : 		if ((_Bytes = _Mbrtowc(_Ptrnext, _Ptr, _Count1, &_Mbst2, &_Cvt)) <= 0)

  000ee	8b 45 10	 mov	 eax, DWORD PTR __Cvt$[ebp]
  000f1	50		 push	 eax
  000f2	8d 4d d0	 lea	 ecx, DWORD PTR __Mbst2$[ebp]
  000f5	51		 push	 ecx
  000f6	8b 55 f8	 mov	 edx, DWORD PTR __Count1$[ebp]
  000f9	52		 push	 edx
  000fa	8b 45 08	 mov	 eax, DWORD PTR __Ptr$[ebp]
  000fd	50		 push	 eax
  000fe	8b 4d d8	 mov	 ecx, DWORD PTR __Ptrnext$[ebp]
  00101	51		 push	 ecx
  00102	e8 00 00 00 00	 call	 __Mbrtowc
  00107	83 c4 14	 add	 esp, 20			; 00000014H
  0010a	89 45 ec	 mov	 DWORD PTR __Bytes$[ebp], eax
  0010d	83 7d ec 00	 cmp	 DWORD PTR __Bytes$[ebp], 0
  00111	7f 02		 jg	 SHORT $LN10@Maklocstr

; 708  : 			break;

  00113	eb 02		 jmp	 SHORT $LN6@Maklocstr
$LN10@Maklocstr:

; 709  : 	*_Ptrnext = L'\0';

  00115	eb ad		 jmp	 SHORT $LN5@Maklocstr
$LN6@Maklocstr:
  00117	33 c0		 xor	 eax, eax
  00119	8b 4d d8	 mov	 ecx, DWORD PTR __Ptrnext$[ebp]
  0011c	66 89 01	 mov	 WORD PTR [ecx], ax

; 710  : 
; 711  : 	return (_Ptrdest);

  0011f	8b 45 dc	 mov	 eax, DWORD PTR __Ptrdest$[ebp]
$LN11@Maklocstr:

; 712  : 	}

  00122	5f		 pop	 edi
  00123	5e		 pop	 esi
  00124	5b		 pop	 ebx
  00125	8b e5		 mov	 esp, ebp
  00127	5d		 pop	 ebp
  00128	c3		 ret	 0
??$_Maklocstr@_W@std@@YAPA_WPBDPA_WABU_Cvtvec@@@Z ENDP	; std::_Maklocstr<wchar_t>
_TEXT	ENDS
; Function compile flags: /Odtp /ZI
; File c:\program files (x86)\microsoft visual studio\2017\community\vc\tools\msvc\14.16.27023\atlmfc\include\afxdllx.h
;	COMDAT _ExtRawDllMain@12
_TEXT	SEGMENT
_pModuleState$1 = -4					; size = 4
___formal$ = 8						; size = 4
_dwReason$ = 12						; size = 4
___formal$ = 16						; size = 4
_ExtRawDllMain@12 PROC					; COMDAT

; 50   : {

  00000	55		 push	 ebp
  00001	8b ec		 mov	 ebp, esp
  00003	83 ec 44	 sub	 esp, 68			; 00000044H
  00006	53		 push	 ebx
  00007	56		 push	 esi
  00008	57		 push	 edi

; 51   : 	if (dwReason == DLL_PROCESS_ATTACH)

  00009	83 7d 0c 01	 cmp	 DWORD PTR _dwReason$[ebp], 1
  0000d	75 3e		 jne	 SHORT $LN2@ExtRawDllM

; 52   : 	{
; 53   : 		// save critical data pointers before running the constructors
; 54   : 		AFX_MODULE_STATE* pModuleState = AfxGetModuleState();

  0000f	e8 00 00 00 00	 call	 ?AfxGetModuleState@@YGPAVAFX_MODULE_STATE@@XZ ; AfxGetModuleState
  00014	89 45 fc	 mov	 DWORD PTR _pModuleState$1[ebp], eax

; 55   : 		pModuleState->m_pClassInit = pModuleState->m_classList;

  00017	8b 4d fc	 mov	 ecx, DWORD PTR _pModuleState$1[ebp]
  0001a	83 c1 20	 add	 ecx, 32			; 00000020H
  0001d	e8 00 00 00 00	 call	 ??B?$CTypedSimpleList@PAUCRuntimeClass@@@@QAEPAUCRuntimeClass@@XZ ; CTypedSimpleList<CRuntimeClass *>::operator CRuntimeClass *
  00022	8b 4d fc	 mov	 ecx, DWORD PTR _pModuleState$1[ebp]
  00025	89 41 1c	 mov	 DWORD PTR [ecx+28], eax

; 56   : 		pModuleState->m_pFactoryInit = pModuleState->m_factoryList;

  00028	8b 4d fc	 mov	 ecx, DWORD PTR _pModuleState$1[ebp]
  0002b	83 c1 2c	 add	 ecx, 44			; 0000002cH
  0002e	e8 00 00 00 00	 call	 ??B?$CTypedSimpleList@PAVCOleObjectFactory@@@@QAEPAVCOleObjectFactory@@XZ ; CTypedSimpleList<COleObjectFactory *>::operator COleObjectFactory *
  00033	8b 4d fc	 mov	 ecx, DWORD PTR _pModuleState$1[ebp]
  00036	89 41 28	 mov	 DWORD PTR [ecx+40], eax

; 57   : 		pModuleState->m_classList.m_pHead = NULL;

  00039	8b 45 fc	 mov	 eax, DWORD PTR _pModuleState$1[ebp]
  0003c	c7 40 20 00 00
	00 00		 mov	 DWORD PTR [eax+32], 0

; 58   : 		pModuleState->m_factoryList.m_pHead = NULL;

  00043	8b 45 fc	 mov	 eax, DWORD PTR _pModuleState$1[ebp]
  00046	c7 40 2c 00 00
	00 00		 mov	 DWORD PTR [eax+44], 0
$LN2@ExtRawDllM:

; 59   : 	}
; 60   : 	return TRUE;    // ok

  0004d	b8 01 00 00 00	 mov	 eax, 1

; 61   : }

  00052	5f		 pop	 edi
  00053	5e		 pop	 esi
  00054	5b		 pop	 ebx
  00055	8b e5		 mov	 esp, ebp
  00057	5d		 pop	 ebp
  00058	c2 0c 00	 ret	 12			; 0000000cH
_ExtRawDllMain@12 ENDP
_TEXT	ENDS
; Function compile flags: /Odtp /ZI
; File c:\program files (x86)\microsoft visual studio\2017\community\vc\tools\msvc\14.16.27023\atlmfc\include\afxtls_.h
;	COMDAT ??B?$CTypedSimpleList@PAVCOleObjectFactory@@@@QAEPAVCOleObjectFactory@@XZ
_TEXT	SEGMENT
_this$ = -4						; size = 4
??B?$CTypedSimpleList@PAVCOleObjectFactory@@@@QAEPAVCOleObjectFactory@@XZ PROC ; CTypedSimpleList<COleObjectFactory *>::operator COleObjectFactory *, COMDAT
; _this$ = ecx

; 96   : { 

  00000	55		 push	 ebp
  00001	8b ec		 mov	 ebp, esp
  00003	83 ec 44	 sub	 esp, 68			; 00000044H
  00006	53		 push	 ebx
  00007	56		 push	 esi
  00008	57		 push	 edi
  00009	89 4d fc	 mov	 DWORD PTR _this$[ebp], ecx

; 97   : 	return (TYPE)CSimpleList::GetHead(); 

  0000c	8b 4d fc	 mov	 ecx, DWORD PTR _this$[ebp]
  0000f	e8 00 00 00 00	 call	 ?GetHead@CSimpleList@@QBEPAXXZ ; CSimpleList::GetHead

; 98   : }

  00014	5f		 pop	 edi
  00015	5e		 pop	 esi
  00016	5b		 pop	 ebx
  00017	8b e5		 mov	 esp, ebp
  00019	5d		 pop	 ebp
  0001a	c3		 ret	 0
??B?$CTypedSimpleList@PAVCOleObjectFactory@@@@QAEPAVCOleObjectFactory@@XZ ENDP ; CTypedSimpleList<COleObjectFactory *>::operator COleObjectFactory *
_TEXT	ENDS
; Function compile flags: /Odtp /ZI
; File c:\program files (x86)\microsoft visual studio\2017\community\vc\tools\msvc\14.16.27023\atlmfc\include\afxtls_.h
;	COMDAT ??B?$CTypedSimpleList@PAUCRuntimeClass@@@@QAEPAUCRuntimeClass@@XZ
_TEXT	SEGMENT
_this$ = -4						; size = 4
??B?$CTypedSimpleList@PAUCRuntimeClass@@@@QAEPAUCRuntimeClass@@XZ PROC ; CTypedSimpleList<CRuntimeClass *>::operator CRuntimeClass *, COMDAT
; _this$ = ecx

; 96   : { 

  00000	55		 push	 ebp
  00001	8b ec		 mov	 ebp, esp
  00003	83 ec 44	 sub	 esp, 68			; 00000044H
  00006	53		 push	 ebx
  00007	56		 push	 esi
  00008	57		 push	 edi
  00009	89 4d fc	 mov	 DWORD PTR _this$[ebp], ecx

; 97   : 	return (TYPE)CSimpleList::GetHead(); 

  0000c	8b 4d fc	 mov	 ecx, DWORD PTR _this$[ebp]
  0000f	e8 00 00 00 00	 call	 ?GetHead@CSimpleList@@QBEPAXXZ ; CSimpleList::GetHead

; 98   : }

  00014	5f		 pop	 edi
  00015	5e		 pop	 esi
  00016	5b		 pop	 ebx
  00017	8b e5		 mov	 esp, ebp
  00019	5d		 pop	 ebp
  0001a	c3		 ret	 0
??B?$CTypedSimpleList@PAUCRuntimeClass@@@@QAEPAUCRuntimeClass@@XZ ENDP ; CTypedSimpleList<CRuntimeClass *>::operator CRuntimeClass *
_TEXT	ENDS
; Function compile flags: /Odtp /ZI
; File c:\program files (x86)\microsoft visual studio\2017\community\vc\tools\msvc\14.16.27023\atlmfc\include\afxtls_.h
;	COMDAT ?GetHead@CSimpleList@@QBEPAXXZ
_TEXT	SEGMENT
_this$ = -4						; size = 4
?GetHead@CSimpleList@@QBEPAXXZ PROC			; CSimpleList::GetHead, COMDAT
; _this$ = ecx

; 74   : 	{ return m_pHead; }

  00000	55		 push	 ebp
  00001	8b ec		 mov	 ebp, esp
  00003	83 ec 44	 sub	 esp, 68			; 00000044H
  00006	53		 push	 ebx
  00007	56		 push	 esi
  00008	57		 push	 edi
  00009	89 4d fc	 mov	 DWORD PTR _this$[ebp], ecx
  0000c	8b 45 fc	 mov	 eax, DWORD PTR _this$[ebp]
  0000f	8b 00		 mov	 eax, DWORD PTR [eax]
  00011	5f		 pop	 edi
  00012	5e		 pop	 esi
  00013	5b		 pop	 ebx
  00014	8b e5		 mov	 esp, ebp
  00016	5d		 pop	 ebp
  00017	c3		 ret	 0
?GetHead@CSimpleList@@QBEPAXXZ ENDP			; CSimpleList::GetHead
_TEXT	ENDS
; Function compile flags: /Odtp /ZI
; File c:\program files (x86)\windows kits\10\include\10.0.17763.0\ucrt\wchar.h
;	COMDAT _wmemcpy
_TEXT	SEGMENT
__S1$ = 8						; size = 4
__S2$ = 12						; size = 4
__N$ = 16						; size = 4
_wmemcpy PROC						; COMDAT

; 230  :     {

  00000	55		 push	 ebp
  00001	8b ec		 mov	 ebp, esp
  00003	83 ec 40	 sub	 esp, 64			; 00000040H
  00006	53		 push	 ebx
  00007	56		 push	 esi
  00008	57		 push	 edi

; 231  :         #pragma warning(push)
; 232  :         #pragma warning(disable : 4995 4996 6386)
; 233  :         return (wchar_t*)memcpy(_S1, _S2, _N*sizeof(wchar_t));

  00009	8b 45 10	 mov	 eax, DWORD PTR __N$[ebp]
  0000c	d1 e0		 shl	 eax, 1
  0000e	50		 push	 eax
  0000f	8b 4d 0c	 mov	 ecx, DWORD PTR __S2$[ebp]
  00012	51		 push	 ecx
  00013	8b 55 08	 mov	 edx, DWORD PTR __S1$[ebp]
  00016	52		 push	 edx
  00017	e8 00 00 00 00	 call	 _memcpy
  0001c	83 c4 0c	 add	 esp, 12			; 0000000cH

; 234  :         #pragma warning(pop)
; 235  :     }

  0001f	5f		 pop	 edi
  00020	5e		 pop	 esi
  00021	5b		 pop	 ebx
  00022	8b e5		 mov	 esp, ebp
  00024	5d		 pop	 ebp
  00025	c3		 ret	 0
_wmemcpy ENDP
_TEXT	ENDS
; Function compile flags: /Odtp /ZI
; File g:\网狐\happygamewh\服务端\系统模块\服务器组件\游戏服务\gameservice.cpp
;	COMDAT ?__empty_global_delete@@YAXPAXI@Z
_TEXT	SEGMENT
___formal$ = 8						; size = 4
___formal$ = 12						; size = 4
?__empty_global_delete@@YAXPAXI@Z PROC			; __empty_global_delete, COMDAT

  00000	55		 push	 ebp
  00001	8b ec		 mov	 ebp, esp
  00003	83 ec 40	 sub	 esp, 64			; 00000040H
  00006	53		 push	 ebx
  00007	56		 push	 esi
  00008	57		 push	 edi
  00009	5f		 pop	 edi
  0000a	5e		 pop	 esi
  0000b	5b		 pop	 ebx
  0000c	8b e5		 mov	 esp, ebp
  0000e	5d		 pop	 ebp
  0000f	c3		 ret	 0
?__empty_global_delete@@YAXPAXI@Z ENDP			; __empty_global_delete
_TEXT	ENDS
; Function compile flags: /Odtp /ZI
; File g:\网狐\happygamewh\服务端\系统模块\服务器组件\游戏服务\gameservice.cpp
;	COMDAT ?__empty_global_delete@@YAXPAX@Z
_TEXT	SEGMENT
___formal$ = 8						; size = 4
?__empty_global_delete@@YAXPAX@Z PROC			; __empty_global_delete, COMDAT

  00000	55		 push	 ebp
  00001	8b ec		 mov	 ebp, esp
  00003	83 ec 40	 sub	 esp, 64			; 00000040H
  00006	53		 push	 ebx
  00007	56		 push	 esi
  00008	57		 push	 edi
  00009	5f		 pop	 edi
  0000a	5e		 pop	 esi
  0000b	5b		 pop	 ebx
  0000c	8b e5		 mov	 esp, ebp
  0000e	5d		 pop	 ebp
  0000f	c3		 ret	 0
?__empty_global_delete@@YAXPAX@Z ENDP			; __empty_global_delete
_TEXT	ENDS
; Function compile flags: /Odtp /ZI
;	COMDAT ??_H@YGXPAXIIP6EPAX0@Z@Z
_TEXT	SEGMENT
tv66 = -68						; size = 4
___t$ = 8						; size = 4
___s$ = 12						; size = 4
___n$ = 16						; size = 4
___f$ = 20						; size = 4
??_H@YGXPAXIIP6EPAX0@Z@Z PROC				; `vector constructor iterator', COMDAT
  00000	55		 push	 ebp
  00001	8b ec		 mov	 ebp, esp
  00003	83 ec 44	 sub	 esp, 68			; 00000044H
  00006	53		 push	 ebx
  00007	56		 push	 esi
  00008	57		 push	 edi
$LN2@vector:
  00009	8b 45 10	 mov	 eax, DWORD PTR ___n$[ebp]
  0000c	89 45 bc	 mov	 DWORD PTR tv66[ebp], eax
  0000f	8b 4d 10	 mov	 ecx, DWORD PTR ___n$[ebp]
  00012	83 e9 01	 sub	 ecx, 1
  00015	89 4d 10	 mov	 DWORD PTR ___n$[ebp], ecx
  00018	83 7d bc 00	 cmp	 DWORD PTR tv66[ebp], 0
  0001c	76 11		 jbe	 SHORT $LN1@vector
  0001e	8b 4d 08	 mov	 ecx, DWORD PTR ___t$[ebp]
  00021	ff 55 14	 call	 DWORD PTR ___f$[ebp]
  00024	8b 45 08	 mov	 eax, DWORD PTR ___t$[ebp]
  00027	03 45 0c	 add	 eax, DWORD PTR ___s$[ebp]
  0002a	89 45 08	 mov	 DWORD PTR ___t$[ebp], eax
  0002d	eb da		 jmp	 SHORT $LN2@vector
$LN1@vector:
  0002f	5f		 pop	 edi
  00030	5e		 pop	 esi
  00031	5b		 pop	 ebx
  00032	8b e5		 mov	 esp, ebp
  00034	5d		 pop	 ebp
  00035	c2 10 00	 ret	 16			; 00000010H
??_H@YGXPAXIIP6EPAX0@Z@Z ENDP				; `vector constructor iterator'
_TEXT	ENDS
END
