; Listing generated by Microsoft (R) Optimizing Compiler Version 19.16.27032.1 

	TITLE	G:\网狐\HappyGameWH\服务端\系统模块\服务器组件\游戏服务\GamePropertyManager.cpp
	.686P
	.XMM
	include listing.inc
	.model	flat

INCLUDELIB MSVCRTD
INCLUDELIB OLDNAMES

CONST	SEGMENT
?piecewise_construct@std@@3Upiecewise_construct_t@1@B	ORG $+1 ; std::piecewise_construct
	ORG $+3
?IID_ITraceServiceManager@@3U_GUID@@B DD 08bfc36dbH	; IID_ITraceServiceManager
	DW	05ba2H
	DW	042baH
	DB	081H
	DB	0b0H
	DB	087H
	DB	0b0H
	DB	01cH
	DB	09eH
	DB	0afH
	DB	0feH
?IID_IAsynchronismEngine@@3U_GUID@@B DD 0c7a13074H	; IID_IAsynchronismEngine
	DW	075c5H
	DW	04b8eH
	DB	0b5H
	DB	04bH
	DB	0eeH
	DB	0eH
	DB	0ecH
	DB	0feH
	DB	0b9H
	DB	0ebH
?IID_IDataBase@@3U_GUID@@B DD 0a2e38a78H		; IID_IDataBase
	DW	01e4fH
	DW	04de4H
	DB	0a5H
	DB	0d1H
	DB	0b9H
	DB	019H
	DB	09bH
	DB	0ceH
	DB	041H
	DB	0aeH
?IID_IDataBaseEngine@@3U_GUID@@B DD 047b5a119H		; IID_IDataBaseEngine
	DW	01676H
	DW	049a3H
	DB	0beH
	DB	0aeH
	DB	0caH
	DB	027H
	DB	0ebH
	DB	059H
	DB	097H
	DB	022H
?IID_IUDPNetworkEngine@@3U_GUID@@B DD 08d138a9bH	; IID_IUDPNetworkEngine
	DW	0a97dH
	DW	04d51H
	DB	09dH
	DB	06cH
	DB	0d8H
	DB	06eH
	DB	0a1H
	DB	084H
	DB	045H
	DB	02eH
?IID_ITCPNetworkEngine@@3U_GUID@@B DD 07747f683H	; IID_ITCPNetworkEngine
	DW	0c0daH
	DW	04588H
	DB	089H
	DB	0ccH
	DB	015H
	DB	093H
	DB	0acH
	DB	0c0H
	DB	044H
	DB	0c8H
?IID_ITCPSocketService@@3U_GUID@@B DD 0709a4449H	; IID_ITCPSocketService
	DW	0ad77H
	DW	04b3dH
	DB	0b4H
	DB	0d6H
	DB	08dH
	DB	0bH
	DB	028H
	DB	065H
	DB	0ecH
	DB	0aeH
?IID_IWEBSocketService@@3U_GUID@@B DD 091052ff2H	; IID_IWEBSocketService
	DW	0eb29H
	DW	040b9H
	DB	0b2H
	DB	0a2H
	DB	08aH
	DB	0a2H
	DB	098H
	DB	036H
	DB	02cH
	DB	084H
?IID_ITimerEngine@@3U_GUID@@B DD 0496401aeH		; IID_ITimerEngine
	DW	06fb0H
	DW	04e9fH
	DB	090H
	DB	098H
	DB	044H
	DB	09dH
	DB	09cH
	DB	0b2H
	DB	0bdH
	DB	097H
?IID_IAttemperEngine@@3U_GUID@@B DD 0b070b2cH		; IID_IAttemperEngine
	DW	09d72H
	DW	042d2H
	DB	0a5H
	DB	070H
	DB	0baH
	DB	02cH
	DB	0bfH
	DB	06fH
	DB	0bbH
	DB	01cH
?IID_IGameServiceManager@@3U_GUID@@B DD 04b2b9d8fH	; IID_IGameServiceManager
	DW	0ce1bH
	DW	044f3H
	DB	0a5H
	DB	022H
	DB	065H
	DB	01aH
	DB	065H
	DB	0c9H
	DB	0aH
	DB	025H
?IID_IAndroidUserItemSink@@3U_GUID@@B DD 01e8a1918H	; IID_IAndroidUserItemSink
	DW	0572bH
	DW	0453bH
	DB	0bcH
	DB	0bH
	DB	06bH
	DB	061H
	DB	070H
	DB	0a3H
	DB	03cH
	DB	0caH
CONST	ENDS
PUBLIC	??_H@YGXPAXIIP6EPAX0@Z@Z			; `vector constructor iterator'
PUBLIC	?__empty_global_delete@@YAXPAX@Z		; __empty_global_delete
PUBLIC	?__empty_global_delete@@YAXPAXI@Z		; __empty_global_delete
PUBLIC	??2@YAPAXIPAX@Z					; operator new
PUBLIC	?AfxAssertFailedLine@@YGHPBDH@Z			; AfxAssertFailedLine
PUBLIC	_wmemcpy
PUBLIC	??0_Container_proxy@std@@QAE@XZ			; std::_Container_proxy::_Container_proxy
PUBLIC	??0_Container_base12@std@@QAE@XZ		; std::_Container_base12::_Container_base12
PUBLIC	?_Getpfirst@_Container_base12@std@@QBEPAPAU_Iterator_base12@2@XZ ; std::_Container_base12::_Getpfirst
PUBLIC	?_Orphan_all@_Container_base12@std@@QAEXXZ	; std::_Container_base12::_Orphan_all
PUBLIC	??0_Iterator_base12@std@@QAE@XZ			; std::_Iterator_base12::_Iterator_base12
PUBLIC	??0_Iterator_base12@std@@QAE@ABU01@@Z		; std::_Iterator_base12::_Iterator_base12
PUBLIC	??4_Iterator_base12@std@@QAEAAU01@ABU01@@Z	; std::_Iterator_base12::operator=
PUBLIC	??1_Iterator_base12@std@@QAE@XZ			; std::_Iterator_base12::~_Iterator_base12
PUBLIC	?_Adopt@_Iterator_base12@std@@QAEXPBU_Container_base12@2@@Z ; std::_Iterator_base12::_Adopt
PUBLIC	?_Clrcont@_Iterator_base12@std@@QAEXXZ		; std::_Iterator_base12::_Clrcont
PUBLIC	?_Getcont@_Iterator_base12@std@@QBEPBU_Container_base12@2@XZ ; std::_Iterator_base12::_Getcont
PUBLIC	?_Getpnext@_Iterator_base12@std@@QAEPAPAU12@XZ	; std::_Iterator_base12::_Getpnext
PUBLIC	?_Orphan_me@_Iterator_base12@std@@QAEXXZ	; std::_Iterator_base12::_Orphan_me
PUBLIC	??0?$tuple@$$V@std@@QAE@XZ			; std::tuple<>::tuple<>
PUBLIC	??0?$tuple@$$V@std@@QAE@ABV01@@Z		; std::tuple<>::tuple<>
PUBLIC	?max@?$numeric_limits@H@std@@SAHXZ		; std::numeric_limits<int>::max
PUBLIC	?_Allocate@_Default_allocate_traits@std@@SAPAXI@Z ; std::_Default_allocate_traits::_Allocate
PUBLIC	?_Adjust_manually_vector_aligned@std@@YAXAAPAXAAI@Z ; std::_Adjust_manually_vector_aligned
PUBLIC	??$_Maklocstr@_W@std@@YAPA_WPBDPA_WABU_Cvtvec@@@Z ; std::_Maklocstr<wchar_t>
PUBLIC	??$_Min_value@I@std@@YAABIABI0@Z		; std::_Min_value<unsigned int>
PUBLIC	?_Maklocwcs@std@@YAPA_WPB_W@Z			; std::_Maklocwcs
PUBLIC	??$_Getvals@_W@?$time_get@DV?$istreambuf_iterator@DU?$char_traits@D@std@@@std@@@std@@IAEX_WABV_Locinfo@1@@Z ; std::time_get<char,std::istreambuf_iterator<char,std::char_traits<char> > >::_Getvals<wchar_t>
PUBLIC	??$_Getvals@_W@?$time_get@_WV?$istreambuf_iterator@_WU?$char_traits@_W@std@@@std@@@std@@IAEX_WABV_Locinfo@1@@Z ; std::time_get<wchar_t,std::istreambuf_iterator<wchar_t,std::char_traits<wchar_t> > >::_Getvals<wchar_t>
PUBLIC	??0?$CWHArray@UtagPropertyInfo@@ABU1@@@QAE@XZ	; CWHArray<tagPropertyInfo,tagPropertyInfo const &>::CWHArray<tagPropertyInfo,tagPropertyInfo const &>
PUBLIC	??1?$CWHArray@UtagPropertyInfo@@ABU1@@@UAE@XZ	; CWHArray<tagPropertyInfo,tagPropertyInfo const &>::~CWHArray<tagPropertyInfo,tagPropertyInfo const &>
PUBLIC	?GetCount@?$CWHArray@UtagPropertyInfo@@ABU1@@@QBEHXZ ; CWHArray<tagPropertyInfo,tagPropertyInfo const &>::GetCount
PUBLIC	?GetData@?$CWHArray@UtagPropertyInfo@@ABU1@@@QAEPAUtagPropertyInfo@@XZ ; CWHArray<tagPropertyInfo,tagPropertyInfo const &>::GetData
PUBLIC	?ElementAt@?$CWHArray@UtagPropertyInfo@@ABU1@@@QAEAAUtagPropertyInfo@@H@Z ; CWHArray<tagPropertyInfo,tagPropertyInfo const &>::ElementAt
PUBLIC	?SetSize@?$CWHArray@UtagPropertyInfo@@ABU1@@@QAEXH@Z ; CWHArray<tagPropertyInfo,tagPropertyInfo const &>::SetSize
PUBLIC	??A?$CWHArray@UtagPropertyInfo@@ABU1@@@QAEAAUtagPropertyInfo@@H@Z ; CWHArray<tagPropertyInfo,tagPropertyInfo const &>::operator[]
PUBLIC	?AllocMemory@?$CWHArray@UtagPropertyInfo@@ABU1@@@QAEXH@Z ; CWHArray<tagPropertyInfo,tagPropertyInfo const &>::AllocMemory
PUBLIC	??0?$CWHArray@UtagPropertyInfo@@ABU1@@@QAE@ABV0@@Z ; CWHArray<tagPropertyInfo,tagPropertyInfo const &>::CWHArray<tagPropertyInfo,tagPropertyInfo const &>
PUBLIC	??4?$CWHArray@UtagPropertyInfo@@ABU1@@@QAEAAV0@ABV0@@Z ; CWHArray<tagPropertyInfo,tagPropertyInfo const &>::operator=
PUBLIC	??_G?$CWHArray@UtagPropertyInfo@@ABU1@@@UAEPAXI@Z ; CWHArray<tagPropertyInfo,tagPropertyInfo const &>::`scalar deleting destructor'
PUBLIC	??0CGamePropertyManager@@QAE@XZ			; CGamePropertyManager::CGamePropertyManager
PUBLIC	??1CGamePropertyManager@@UAE@XZ			; CGamePropertyManager::~CGamePropertyManager
PUBLIC	?SetGamePropertyInfo@CGamePropertyManager@@QAE_NQAUtagPropertyInfo@@G@Z ; CGamePropertyManager::SetGamePropertyInfo
PUBLIC	?SetGamePropertyBuff@CGamePropertyManager@@QAE_NKQBUtagPropertyBuff@@G@Z ; CGamePropertyManager::SetGamePropertyBuff
PUBLIC	?ClearUserBuff@CGamePropertyManager@@QAE_NK@Z	; CGamePropertyManager::ClearUserBuff
PUBLIC	?SearchPropertyItem@CGamePropertyManager@@QAEPAUtagPropertyInfo@@G@Z ; CGamePropertyManager::SearchPropertyItem
PUBLIC	?SearchValidPropertyBuff@CGamePropertyManager@@SAPAUtagPropertyBuff@@KW4PROP_KIND@@@Z ; CGamePropertyManager::SearchValidPropertyBuff
PUBLIC	??0CGamePropertyManager@@QAE@ABV0@@Z		; CGamePropertyManager::CGamePropertyManager
PUBLIC	??4CGamePropertyManager@@QAEAAV0@ABV0@@Z	; CGamePropertyManager::operator=
PUBLIC	??_GCGamePropertyManager@@UAEPAXI@Z		; CGamePropertyManager::`scalar deleting destructor'
PUBLIC	??_ECGamePropertyManager@@UAEPAXI@Z		; CGamePropertyManager::`vector deleting destructor'
PUBLIC	?IsValid@@YA_NUtagPropertyBuff@@@Z		; IsValid
PUBLIC	??0?$allocator@U?$_Tree_node@U?$pair@$$CBKV?$vector@UtagPropertyBuff@@V?$allocator@UtagPropertyBuff@@@std@@@std@@@std@@PAX@std@@@std@@QAE@XZ ; std::allocator<std::_Tree_node<std::pair<unsigned long const ,std::vector<tagPropertyBuff,std::allocator<tagPropertyBuff> > >,void *> >::allocator<std::_Tree_node<std::pair<unsigned long const ,std::vector<tagPropertyBuff,std::allocator<tagPropertyBuff> > >,void *> >
PUBLIC	?deallocate@?$allocator@U?$_Tree_node@U?$pair@$$CBKV?$vector@UtagPropertyBuff@@V?$allocator@UtagPropertyBuff@@@std@@@std@@@std@@PAX@std@@@std@@QAEXQAU?$_Tree_node@U?$pair@$$CBKV?$vector@UtagPropertyBuff@@V?$allocator@UtagPropertyBuff@@@std@@@std@@@std@@PAX@2@I@Z ; std::allocator<std::_Tree_node<std::pair<unsigned long const ,std::vector<tagPropertyBuff,std::allocator<tagPropertyBuff> > >,void *> >::deallocate
PUBLIC	?allocate@?$allocator@U?$_Tree_node@U?$pair@$$CBKV?$vector@UtagPropertyBuff@@V?$allocator@UtagPropertyBuff@@@std@@@std@@@std@@PAX@std@@@std@@QAEPAU?$_Tree_node@U?$pair@$$CBKV?$vector@UtagPropertyBuff@@V?$allocator@UtagPropertyBuff@@@std@@@std@@@std@@PAX@2@I@Z ; std::allocator<std::_Tree_node<std::pair<unsigned long const ,std::vector<tagPropertyBuff,std::allocator<tagPropertyBuff> > >,void *> >::allocate
PUBLIC	?deallocate@?$_Default_allocator_traits@V?$allocator@U?$_Tree_node@U?$pair@$$CBKV?$vector@UtagPropertyBuff@@V?$allocator@UtagPropertyBuff@@@std@@@std@@@std@@PAX@std@@@std@@@std@@SAXAAV?$allocator@U?$_Tree_node@U?$pair@$$CBKV?$vector@UtagPropertyBuff@@V?$allocator@UtagPropertyBuff@@@std@@@std@@@std@@PAX@std@@@2@QAU?$_Tree_node@U?$pair@$$CBKV?$vector@UtagPropertyBuff@@V?$allocator@UtagPropertyBuff@@@std@@@std@@@std@@PAX@2@I@Z ; std::_Default_allocator_traits<std::allocator<std::_Tree_node<std::pair<unsigned long const ,std::vector<tagPropertyBuff,std::allocator<tagPropertyBuff> > >,void *> > >::deallocate
PUBLIC	?max_size@?$_Default_allocator_traits@V?$allocator@U?$_Tree_node@U?$pair@$$CBKV?$vector@UtagPropertyBuff@@V?$allocator@UtagPropertyBuff@@@std@@@std@@@std@@PAX@std@@@std@@@std@@SAIABV?$allocator@U?$_Tree_node@U?$pair@$$CBKV?$vector@UtagPropertyBuff@@V?$allocator@UtagPropertyBuff@@@std@@@std@@@std@@PAX@std@@@2@@Z ; std::_Default_allocator_traits<std::allocator<std::_Tree_node<std::pair<unsigned long const ,std::vector<tagPropertyBuff,std::allocator<tagPropertyBuff> > >,void *> > >::max_size
PUBLIC	??0?$_Tree_comp_alloc@V?$_Tmap_traits@KV?$vector@UtagPropertyBuff@@V?$allocator@UtagPropertyBuff@@@std@@@std@@U?$less@K@2@V?$allocator@U?$pair@$$CBKV?$vector@UtagPropertyBuff@@V?$allocator@UtagPropertyBuff@@@std@@@std@@@std@@@2@$0A@@std@@@std@@QAE@ABU?$less@K@1@@Z ; std::_Tree_comp_alloc<std::_Tmap_traits<unsigned long,std::vector<tagPropertyBuff,std::allocator<tagPropertyBuff> >,std::less<unsigned long>,std::allocator<std::pair<unsigned long const ,std::vector<tagPropertyBuff,std::allocator<tagPropertyBuff> > > >,0> >::_Tree_comp_alloc<std::_Tmap_traits<unsigned long,std::vector<tagPropertyBuff,std::allocator<tagPropertyBuff> >,std::less<unsigned long>,std::allocator<std::pair<unsigned long const ,std::vector<tagPropertyBuff,std::allocator<tagPropertyBuff> > > >,0> >
PUBLIC	?_Construct@?$_Tree_comp_alloc@V?$_Tmap_traits@KV?$vector@UtagPropertyBuff@@V?$allocator@UtagPropertyBuff@@@std@@@std@@U?$less@K@2@V?$allocator@U?$pair@$$CBKV?$vector@UtagPropertyBuff@@V?$allocator@UtagPropertyBuff@@@std@@@std@@@std@@@2@$0A@@std@@@std@@QAEXXZ ; std::_Tree_comp_alloc<std::_Tmap_traits<unsigned long,std::vector<tagPropertyBuff,std::allocator<tagPropertyBuff> >,std::less<unsigned long>,std::allocator<std::pair<unsigned long const ,std::vector<tagPropertyBuff,std::allocator<tagPropertyBuff> > > >,0> >::_Construct
PUBLIC	??1?$_Tree_comp_alloc@V?$_Tmap_traits@KV?$vector@UtagPropertyBuff@@V?$allocator@UtagPropertyBuff@@@std@@@std@@U?$less@K@2@V?$allocator@U?$pair@$$CBKV?$vector@UtagPropertyBuff@@V?$allocator@UtagPropertyBuff@@@std@@@std@@@std@@@2@$0A@@std@@@std@@QAE@XZ ; std::_Tree_comp_alloc<std::_Tmap_traits<unsigned long,std::vector<tagPropertyBuff,std::allocator<tagPropertyBuff> >,std::less<unsigned long>,std::allocator<std::pair<unsigned long const ,std::vector<tagPropertyBuff,std::allocator<tagPropertyBuff> > > >,0> >::~_Tree_comp_alloc<std::_Tmap_traits<unsigned long,std::vector<tagPropertyBuff,std::allocator<tagPropertyBuff> >,std::less<unsigned long>,std::allocator<std::pair<unsigned long const ,std::vector<tagPropertyBuff,std::allocator<tagPropertyBuff> > > >,0> >
PUBLIC	?_Alloc_proxy@?$_Tree_comp_alloc@V?$_Tmap_traits@KV?$vector@UtagPropertyBuff@@V?$allocator@UtagPropertyBuff@@@std@@@std@@U?$less@K@2@V?$allocator@U?$pair@$$CBKV?$vector@UtagPropertyBuff@@V?$allocator@UtagPropertyBuff@@@std@@@std@@@std@@@2@$0A@@std@@@std@@QAEXXZ ; std::_Tree_comp_alloc<std::_Tmap_traits<unsigned long,std::vector<tagPropertyBuff,std::allocator<tagPropertyBuff> >,std::less<unsigned long>,std::allocator<std::pair<unsigned long const ,std::vector<tagPropertyBuff,std::allocator<tagPropertyBuff> > > >,0> >::_Alloc_proxy
PUBLIC	?_Free_proxy@?$_Tree_comp_alloc@V?$_Tmap_traits@KV?$vector@UtagPropertyBuff@@V?$allocator@UtagPropertyBuff@@@std@@@std@@U?$less@K@2@V?$allocator@U?$pair@$$CBKV?$vector@UtagPropertyBuff@@V?$allocator@UtagPropertyBuff@@@std@@@std@@@std@@@2@$0A@@std@@@std@@QAEXXZ ; std::_Tree_comp_alloc<std::_Tmap_traits<unsigned long,std::vector<tagPropertyBuff,std::allocator<tagPropertyBuff> >,std::less<unsigned long>,std::allocator<std::pair<unsigned long const ,std::vector<tagPropertyBuff,std::allocator<tagPropertyBuff> > > >,0> >::_Free_proxy
PUBLIC	?_Getpfirst@?$_Tree_comp_alloc@V?$_Tmap_traits@KV?$vector@UtagPropertyBuff@@V?$allocator@UtagPropertyBuff@@@std@@@std@@U?$less@K@2@V?$allocator@U?$pair@$$CBKV?$vector@UtagPropertyBuff@@V?$allocator@UtagPropertyBuff@@@std@@@std@@@std@@@2@$0A@@std@@@std@@QBEPAPAU_Iterator_base12@2@XZ ; std::_Tree_comp_alloc<std::_Tmap_traits<unsigned long,std::vector<tagPropertyBuff,std::allocator<tagPropertyBuff> >,std::less<unsigned long>,std::allocator<std::pair<unsigned long const ,std::vector<tagPropertyBuff,std::allocator<tagPropertyBuff> > > >,0> >::_Getpfirst
PUBLIC	?_Myproxy@?$_Tree_comp_alloc@V?$_Tmap_traits@KV?$vector@UtagPropertyBuff@@V?$allocator@UtagPropertyBuff@@@std@@@std@@U?$less@K@2@V?$allocator@U?$pair@$$CBKV?$vector@UtagPropertyBuff@@V?$allocator@UtagPropertyBuff@@@std@@@std@@@std@@@2@$0A@@std@@@std@@QAEAAPAU_Container_proxy@2@XZ ; std::_Tree_comp_alloc<std::_Tmap_traits<unsigned long,std::vector<tagPropertyBuff,std::allocator<tagPropertyBuff> >,std::less<unsigned long>,std::allocator<std::pair<unsigned long const ,std::vector<tagPropertyBuff,std::allocator<tagPropertyBuff> > > >,0> >::_Myproxy
PUBLIC	?_Orphan_all@?$_Tree_comp_alloc@V?$_Tmap_traits@KV?$vector@UtagPropertyBuff@@V?$allocator@UtagPropertyBuff@@@std@@@std@@U?$less@K@2@V?$allocator@U?$pair@$$CBKV?$vector@UtagPropertyBuff@@V?$allocator@UtagPropertyBuff@@@std@@@std@@@std@@@2@$0A@@std@@@std@@QAEXXZ ; std::_Tree_comp_alloc<std::_Tmap_traits<unsigned long,std::vector<tagPropertyBuff,std::allocator<tagPropertyBuff> >,std::less<unsigned long>,std::allocator<std::pair<unsigned long const ,std::vector<tagPropertyBuff,std::allocator<tagPropertyBuff> > > >,0> >::_Orphan_all
PUBLIC	?_Buyheadnode@?$_Tree_comp_alloc@V?$_Tmap_traits@KV?$vector@UtagPropertyBuff@@V?$allocator@UtagPropertyBuff@@@std@@@std@@U?$less@K@2@V?$allocator@U?$pair@$$CBKV?$vector@UtagPropertyBuff@@V?$allocator@UtagPropertyBuff@@@std@@@std@@@std@@@2@$0A@@std@@@std@@QAEPAU?$_Tree_node@U?$pair@$$CBKV?$vector@UtagPropertyBuff@@V?$allocator@UtagPropertyBuff@@@std@@@std@@@std@@PAX@2@XZ ; std::_Tree_comp_alloc<std::_Tmap_traits<unsigned long,std::vector<tagPropertyBuff,std::allocator<tagPropertyBuff> >,std::less<unsigned long>,std::allocator<std::pair<unsigned long const ,std::vector<tagPropertyBuff,std::allocator<tagPropertyBuff> > > >,0> >::_Buyheadnode
PUBLIC	?_Freeheadnode@?$_Tree_comp_alloc@V?$_Tmap_traits@KV?$vector@UtagPropertyBuff@@V?$allocator@UtagPropertyBuff@@@std@@@std@@U?$less@K@2@V?$allocator@U?$pair@$$CBKV?$vector@UtagPropertyBuff@@V?$allocator@UtagPropertyBuff@@@std@@@std@@@std@@@2@$0A@@std@@@std@@QAEXPAU?$_Tree_node@U?$pair@$$CBKV?$vector@UtagPropertyBuff@@V?$allocator@UtagPropertyBuff@@@std@@@std@@@std@@PAX@2@@Z ; std::_Tree_comp_alloc<std::_Tmap_traits<unsigned long,std::vector<tagPropertyBuff,std::allocator<tagPropertyBuff> >,std::less<unsigned long>,std::allocator<std::pair<unsigned long const ,std::vector<tagPropertyBuff,std::allocator<tagPropertyBuff> > > >,0> >::_Freeheadnode
PUBLIC	?_Buynode0@?$_Tree_comp_alloc@V?$_Tmap_traits@KV?$vector@UtagPropertyBuff@@V?$allocator@UtagPropertyBuff@@@std@@@std@@U?$less@K@2@V?$allocator@U?$pair@$$CBKV?$vector@UtagPropertyBuff@@V?$allocator@UtagPropertyBuff@@@std@@@std@@@std@@@2@$0A@@std@@@std@@QAEPAU?$_Tree_node@U?$pair@$$CBKV?$vector@UtagPropertyBuff@@V?$allocator@UtagPropertyBuff@@@std@@@std@@@std@@PAX@2@XZ ; std::_Tree_comp_alloc<std::_Tmap_traits<unsigned long,std::vector<tagPropertyBuff,std::allocator<tagPropertyBuff> >,std::less<unsigned long>,std::allocator<std::pair<unsigned long const ,std::vector<tagPropertyBuff,std::allocator<tagPropertyBuff> > > >,0> >::_Buynode0
PUBLIC	?_Freenode0@?$_Tree_comp_alloc@V?$_Tmap_traits@KV?$vector@UtagPropertyBuff@@V?$allocator@UtagPropertyBuff@@@std@@@std@@U?$less@K@2@V?$allocator@U?$pair@$$CBKV?$vector@UtagPropertyBuff@@V?$allocator@UtagPropertyBuff@@@std@@@std@@@std@@@2@$0A@@std@@@std@@QAEXPAU?$_Tree_node@U?$pair@$$CBKV?$vector@UtagPropertyBuff@@V?$allocator@UtagPropertyBuff@@@std@@@std@@@std@@PAX@2@@Z ; std::_Tree_comp_alloc<std::_Tmap_traits<unsigned long,std::vector<tagPropertyBuff,std::allocator<tagPropertyBuff> >,std::less<unsigned long>,std::allocator<std::pair<unsigned long const ,std::vector<tagPropertyBuff,std::allocator<tagPropertyBuff> > > >,0> >::_Freenode0
PUBLIC	?_Getcomp@?$_Tree_comp_alloc@V?$_Tmap_traits@KV?$vector@UtagPropertyBuff@@V?$allocator@UtagPropertyBuff@@@std@@@std@@U?$less@K@2@V?$allocator@U?$pair@$$CBKV?$vector@UtagPropertyBuff@@V?$allocator@UtagPropertyBuff@@@std@@@std@@@std@@@2@$0A@@std@@@std@@QAEAAU?$less@K@2@XZ ; std::_Tree_comp_alloc<std::_Tmap_traits<unsigned long,std::vector<tagPropertyBuff,std::allocator<tagPropertyBuff> >,std::less<unsigned long>,std::allocator<std::pair<unsigned long const ,std::vector<tagPropertyBuff,std::allocator<tagPropertyBuff> > > >,0> >::_Getcomp
PUBLIC	?_Getcomp@?$_Tree_comp_alloc@V?$_Tmap_traits@KV?$vector@UtagPropertyBuff@@V?$allocator@UtagPropertyBuff@@@std@@@std@@U?$less@K@2@V?$allocator@U?$pair@$$CBKV?$vector@UtagPropertyBuff@@V?$allocator@UtagPropertyBuff@@@std@@@std@@@std@@@2@$0A@@std@@@std@@QBEABU?$less@K@2@XZ ; std::_Tree_comp_alloc<std::_Tmap_traits<unsigned long,std::vector<tagPropertyBuff,std::allocator<tagPropertyBuff> >,std::less<unsigned long>,std::allocator<std::pair<unsigned long const ,std::vector<tagPropertyBuff,std::allocator<tagPropertyBuff> > > >,0> >::_Getcomp
PUBLIC	?_Getal@?$_Tree_comp_alloc@V?$_Tmap_traits@KV?$vector@UtagPropertyBuff@@V?$allocator@UtagPropertyBuff@@@std@@@std@@U?$less@K@2@V?$allocator@U?$pair@$$CBKV?$vector@UtagPropertyBuff@@V?$allocator@UtagPropertyBuff@@@std@@@std@@@std@@@2@$0A@@std@@@std@@QAEAAV?$allocator@U?$_Tree_node@U?$pair@$$CBKV?$vector@UtagPropertyBuff@@V?$allocator@UtagPropertyBuff@@@std@@@std@@@std@@PAX@std@@@2@XZ ; std::_Tree_comp_alloc<std::_Tmap_traits<unsigned long,std::vector<tagPropertyBuff,std::allocator<tagPropertyBuff> >,std::less<unsigned long>,std::allocator<std::pair<unsigned long const ,std::vector<tagPropertyBuff,std::allocator<tagPropertyBuff> > > >,0> >::_Getal
PUBLIC	?_Getal@?$_Tree_comp_alloc@V?$_Tmap_traits@KV?$vector@UtagPropertyBuff@@V?$allocator@UtagPropertyBuff@@@std@@@std@@U?$less@K@2@V?$allocator@U?$pair@$$CBKV?$vector@UtagPropertyBuff@@V?$allocator@UtagPropertyBuff@@@std@@@std@@@std@@@2@$0A@@std@@@std@@QBEABV?$allocator@U?$_Tree_node@U?$pair@$$CBKV?$vector@UtagPropertyBuff@@V?$allocator@UtagPropertyBuff@@@std@@@std@@@std@@PAX@std@@@2@XZ ; std::_Tree_comp_alloc<std::_Tmap_traits<unsigned long,std::vector<tagPropertyBuff,std::allocator<tagPropertyBuff> >,std::less<unsigned long>,std::allocator<std::pair<unsigned long const ,std::vector<tagPropertyBuff,std::allocator<tagPropertyBuff> > > >,0> >::_Getal
PUBLIC	?_Get_data@?$_Tree_comp_alloc@V?$_Tmap_traits@KV?$vector@UtagPropertyBuff@@V?$allocator@UtagPropertyBuff@@@std@@@std@@U?$less@K@2@V?$allocator@U?$pair@$$CBKV?$vector@UtagPropertyBuff@@V?$allocator@UtagPropertyBuff@@@std@@@std@@@std@@@2@$0A@@std@@@std@@QAEAAV?$_Tree_val@U?$_Tree_simple_types@U?$pair@$$CBKV?$vector@UtagPropertyBuff@@V?$allocator@UtagPropertyBuff@@@std@@@std@@@std@@@std@@@2@XZ ; std::_Tree_comp_alloc<std::_Tmap_traits<unsigned long,std::vector<tagPropertyBuff,std::allocator<tagPropertyBuff> >,std::less<unsigned long>,std::allocator<std::pair<unsigned long const ,std::vector<tagPropertyBuff,std::allocator<tagPropertyBuff> > > >,0> >::_Get_data
PUBLIC	?_Get_data@?$_Tree_comp_alloc@V?$_Tmap_traits@KV?$vector@UtagPropertyBuff@@V?$allocator@UtagPropertyBuff@@@std@@@std@@U?$less@K@2@V?$allocator@U?$pair@$$CBKV?$vector@UtagPropertyBuff@@V?$allocator@UtagPropertyBuff@@@std@@@std@@@std@@@2@$0A@@std@@@std@@QBEABV?$_Tree_val@U?$_Tree_simple_types@U?$pair@$$CBKV?$vector@UtagPropertyBuff@@V?$allocator@UtagPropertyBuff@@@std@@@std@@@std@@@std@@@2@XZ ; std::_Tree_comp_alloc<std::_Tmap_traits<unsigned long,std::vector<tagPropertyBuff,std::allocator<tagPropertyBuff> >,std::less<unsigned long>,std::allocator<std::pair<unsigned long const ,std::vector<tagPropertyBuff,std::allocator<tagPropertyBuff> > > >,0> >::_Get_data
PUBLIC	??R?$less@K@std@@QBE_NABK0@Z			; std::less<unsigned long>::operator()
PUBLIC	??0?$_Tree_val@U?$_Tree_simple_types@U?$pair@$$CBKV?$vector@UtagPropertyBuff@@V?$allocator@UtagPropertyBuff@@@std@@@std@@@std@@@std@@@std@@QAE@XZ ; std::_Tree_val<std::_Tree_simple_types<std::pair<unsigned long const ,std::vector<tagPropertyBuff,std::allocator<tagPropertyBuff> > > > >::_Tree_val<std::_Tree_simple_types<std::pair<unsigned long const ,std::vector<tagPropertyBuff,std::allocator<tagPropertyBuff> > > > >
PUBLIC	?_Max@?$_Tree_val@U?$_Tree_simple_types@U?$pair@$$CBKV?$vector@UtagPropertyBuff@@V?$allocator@UtagPropertyBuff@@@std@@@std@@@std@@@std@@@std@@SAPAU?$_Tree_node@U?$pair@$$CBKV?$vector@UtagPropertyBuff@@V?$allocator@UtagPropertyBuff@@@std@@@std@@@std@@PAX@2@PAU32@@Z ; std::_Tree_val<std::_Tree_simple_types<std::pair<unsigned long const ,std::vector<tagPropertyBuff,std::allocator<tagPropertyBuff> > > > >::_Max
PUBLIC	?_Min@?$_Tree_val@U?$_Tree_simple_types@U?$pair@$$CBKV?$vector@UtagPropertyBuff@@V?$allocator@UtagPropertyBuff@@@std@@@std@@@std@@@std@@@std@@SAPAU?$_Tree_node@U?$pair@$$CBKV?$vector@UtagPropertyBuff@@V?$allocator@UtagPropertyBuff@@@std@@@std@@@std@@PAX@2@PAU32@@Z ; std::_Tree_val<std::_Tree_simple_types<std::pair<unsigned long const ,std::vector<tagPropertyBuff,std::allocator<tagPropertyBuff> > > > >::_Min
PUBLIC	?_Root@?$_Tree_val@U?$_Tree_simple_types@U?$pair@$$CBKV?$vector@UtagPropertyBuff@@V?$allocator@UtagPropertyBuff@@@std@@@std@@@std@@@std@@@std@@QBEAAPAU?$_Tree_node@U?$pair@$$CBKV?$vector@UtagPropertyBuff@@V?$allocator@UtagPropertyBuff@@@std@@@std@@@std@@PAX@2@XZ ; std::_Tree_val<std::_Tree_simple_types<std::pair<unsigned long const ,std::vector<tagPropertyBuff,std::allocator<tagPropertyBuff> > > > >::_Root
PUBLIC	?_Lmost@?$_Tree_val@U?$_Tree_simple_types@U?$pair@$$CBKV?$vector@UtagPropertyBuff@@V?$allocator@UtagPropertyBuff@@@std@@@std@@@std@@@std@@@std@@QBEAAPAU?$_Tree_node@U?$pair@$$CBKV?$vector@UtagPropertyBuff@@V?$allocator@UtagPropertyBuff@@@std@@@std@@@std@@PAX@2@XZ ; std::_Tree_val<std::_Tree_simple_types<std::pair<unsigned long const ,std::vector<tagPropertyBuff,std::allocator<tagPropertyBuff> > > > >::_Lmost
PUBLIC	?_Rmost@?$_Tree_val@U?$_Tree_simple_types@U?$pair@$$CBKV?$vector@UtagPropertyBuff@@V?$allocator@UtagPropertyBuff@@@std@@@std@@@std@@@std@@@std@@QBEAAPAU?$_Tree_node@U?$pair@$$CBKV?$vector@UtagPropertyBuff@@V?$allocator@UtagPropertyBuff@@@std@@@std@@@std@@PAX@2@XZ ; std::_Tree_val<std::_Tree_simple_types<std::pair<unsigned long const ,std::vector<tagPropertyBuff,std::allocator<tagPropertyBuff> > > > >::_Rmost
PUBLIC	?_Lrotate@?$_Tree_val@U?$_Tree_simple_types@U?$pair@$$CBKV?$vector@UtagPropertyBuff@@V?$allocator@UtagPropertyBuff@@@std@@@std@@@std@@@std@@@std@@QAEXPAU?$_Tree_node@U?$pair@$$CBKV?$vector@UtagPropertyBuff@@V?$allocator@UtagPropertyBuff@@@std@@@std@@@std@@PAX@2@@Z ; std::_Tree_val<std::_Tree_simple_types<std::pair<unsigned long const ,std::vector<tagPropertyBuff,std::allocator<tagPropertyBuff> > > > >::_Lrotate
PUBLIC	?_Rrotate@?$_Tree_val@U?$_Tree_simple_types@U?$pair@$$CBKV?$vector@UtagPropertyBuff@@V?$allocator@UtagPropertyBuff@@@std@@@std@@@std@@@std@@@std@@QAEXPAU?$_Tree_node@U?$pair@$$CBKV?$vector@UtagPropertyBuff@@V?$allocator@UtagPropertyBuff@@@std@@@std@@@std@@PAX@2@@Z ; std::_Tree_val<std::_Tree_simple_types<std::pair<unsigned long const ,std::vector<tagPropertyBuff,std::allocator<tagPropertyBuff> > > > >::_Rrotate
PUBLIC	?_Extract@?$_Tree_val@U?$_Tree_simple_types@U?$pair@$$CBKV?$vector@UtagPropertyBuff@@V?$allocator@UtagPropertyBuff@@@std@@@std@@@std@@@std@@@std@@QAEPAU?$_Tree_node@U?$pair@$$CBKV?$vector@UtagPropertyBuff@@V?$allocator@UtagPropertyBuff@@@std@@@std@@@std@@PAX@2@V?$_Tree_const_iterator@V?$_Tree_val@U?$_Tree_simple_types@U?$pair@$$CBKV?$vector@UtagPropertyBuff@@V?$allocator@UtagPropertyBuff@@@std@@@std@@@std@@@std@@@std@@@2@@Z ; std::_Tree_val<std::_Tree_simple_types<std::pair<unsigned long const ,std::vector<tagPropertyBuff,std::allocator<tagPropertyBuff> > > > >::_Extract
PUBLIC	?_Get_first@?$_Compressed_pair@V?$allocator@U?$_Tree_node@U?$pair@$$CBKV?$vector@UtagPropertyBuff@@V?$allocator@UtagPropertyBuff@@@std@@@std@@@std@@PAX@std@@@std@@V?$_Tree_val@U?$_Tree_simple_types@U?$pair@$$CBKV?$vector@UtagPropertyBuff@@V?$allocator@UtagPropertyBuff@@@std@@@std@@@std@@@std@@@2@$00@std@@QAEAAV?$allocator@U?$_Tree_node@U?$pair@$$CBKV?$vector@UtagPropertyBuff@@V?$allocator@UtagPropertyBuff@@@std@@@std@@@std@@PAX@std@@@2@XZ ; std::_Compressed_pair<std::allocator<std::_Tree_node<std::pair<unsigned long const ,std::vector<tagPropertyBuff,std::allocator<tagPropertyBuff> > >,void *> >,std::_Tree_val<std::_Tree_simple_types<std::pair<unsigned long const ,std::vector<tagPropertyBuff,std::allocator<tagPropertyBuff> > > > >,1>::_Get_first
PUBLIC	?_Get_first@?$_Compressed_pair@V?$allocator@U?$_Tree_node@U?$pair@$$CBKV?$vector@UtagPropertyBuff@@V?$allocator@UtagPropertyBuff@@@std@@@std@@@std@@PAX@std@@@std@@V?$_Tree_val@U?$_Tree_simple_types@U?$pair@$$CBKV?$vector@UtagPropertyBuff@@V?$allocator@UtagPropertyBuff@@@std@@@std@@@std@@@std@@@2@$00@std@@QBEABV?$allocator@U?$_Tree_node@U?$pair@$$CBKV?$vector@UtagPropertyBuff@@V?$allocator@UtagPropertyBuff@@@std@@@std@@@std@@PAX@std@@@2@XZ ; std::_Compressed_pair<std::allocator<std::_Tree_node<std::pair<unsigned long const ,std::vector<tagPropertyBuff,std::allocator<tagPropertyBuff> > >,void *> >,std::_Tree_val<std::_Tree_simple_types<std::pair<unsigned long const ,std::vector<tagPropertyBuff,std::allocator<tagPropertyBuff> > > > >,1>::_Get_first
PUBLIC	?_Get_second@?$_Compressed_pair@V?$allocator@U?$_Tree_node@U?$pair@$$CBKV?$vector@UtagPropertyBuff@@V?$allocator@UtagPropertyBuff@@@std@@@std@@@std@@PAX@std@@@std@@V?$_Tree_val@U?$_Tree_simple_types@U?$pair@$$CBKV?$vector@UtagPropertyBuff@@V?$allocator@UtagPropertyBuff@@@std@@@std@@@std@@@std@@@2@$00@std@@QAEAAV?$_Tree_val@U?$_Tree_simple_types@U?$pair@$$CBKV?$vector@UtagPropertyBuff@@V?$allocator@UtagPropertyBuff@@@std@@@std@@@std@@@std@@@2@XZ ; std::_Compressed_pair<std::allocator<std::_Tree_node<std::pair<unsigned long const ,std::vector<tagPropertyBuff,std::allocator<tagPropertyBuff> > >,void *> >,std::_Tree_val<std::_Tree_simple_types<std::pair<unsigned long const ,std::vector<tagPropertyBuff,std::allocator<tagPropertyBuff> > > > >,1>::_Get_second
PUBLIC	?_Get_second@?$_Compressed_pair@V?$allocator@U?$_Tree_node@U?$pair@$$CBKV?$vector@UtagPropertyBuff@@V?$allocator@UtagPropertyBuff@@@std@@@std@@@std@@PAX@std@@@std@@V?$_Tree_val@U?$_Tree_simple_types@U?$pair@$$CBKV?$vector@UtagPropertyBuff@@V?$allocator@UtagPropertyBuff@@@std@@@std@@@std@@@std@@@2@$00@std@@QBEABV?$_Tree_val@U?$_Tree_simple_types@U?$pair@$$CBKV?$vector@UtagPropertyBuff@@V?$allocator@UtagPropertyBuff@@@std@@@std@@@std@@@std@@@2@XZ ; std::_Compressed_pair<std::allocator<std::_Tree_node<std::pair<unsigned long const ,std::vector<tagPropertyBuff,std::allocator<tagPropertyBuff> > >,void *> >,std::_Tree_val<std::_Tree_simple_types<std::pair<unsigned long const ,std::vector<tagPropertyBuff,std::allocator<tagPropertyBuff> > > > >,1>::_Get_second
PUBLIC	?_Get_first@?$_Compressed_pair@U?$less@K@std@@V?$_Compressed_pair@V?$allocator@U?$_Tree_node@U?$pair@$$CBKV?$vector@UtagPropertyBuff@@V?$allocator@UtagPropertyBuff@@@std@@@std@@@std@@PAX@std@@@std@@V?$_Tree_val@U?$_Tree_simple_types@U?$pair@$$CBKV?$vector@UtagPropertyBuff@@V?$allocator@UtagPropertyBuff@@@std@@@std@@@std@@@std@@@2@$00@2@$00@std@@QAEAAU?$less@K@2@XZ ; std::_Compressed_pair<std::less<unsigned long>,std::_Compressed_pair<std::allocator<std::_Tree_node<std::pair<unsigned long const ,std::vector<tagPropertyBuff,std::allocator<tagPropertyBuff> > >,void *> >,std::_Tree_val<std::_Tree_simple_types<std::pair<unsigned long const ,std::vector<tagPropertyBuff,std::allocator<tagPropertyBuff> > > > >,1>,1>::_Get_first
PUBLIC	?_Get_first@?$_Compressed_pair@U?$less@K@std@@V?$_Compressed_pair@V?$allocator@U?$_Tree_node@U?$pair@$$CBKV?$vector@UtagPropertyBuff@@V?$allocator@UtagPropertyBuff@@@std@@@std@@@std@@PAX@std@@@std@@V?$_Tree_val@U?$_Tree_simple_types@U?$pair@$$CBKV?$vector@UtagPropertyBuff@@V?$allocator@UtagPropertyBuff@@@std@@@std@@@std@@@std@@@2@$00@2@$00@std@@QBEABU?$less@K@2@XZ ; std::_Compressed_pair<std::less<unsigned long>,std::_Compressed_pair<std::allocator<std::_Tree_node<std::pair<unsigned long const ,std::vector<tagPropertyBuff,std::allocator<tagPropertyBuff> > >,void *> >,std::_Tree_val<std::_Tree_simple_types<std::pair<unsigned long const ,std::vector<tagPropertyBuff,std::allocator<tagPropertyBuff> > > > >,1>,1>::_Get_first
PUBLIC	?_Get_second@?$_Compressed_pair@U?$less@K@std@@V?$_Compressed_pair@V?$allocator@U?$_Tree_node@U?$pair@$$CBKV?$vector@UtagPropertyBuff@@V?$allocator@UtagPropertyBuff@@@std@@@std@@@std@@PAX@std@@@std@@V?$_Tree_val@U?$_Tree_simple_types@U?$pair@$$CBKV?$vector@UtagPropertyBuff@@V?$allocator@UtagPropertyBuff@@@std@@@std@@@std@@@std@@@2@$00@2@$00@std@@QAEAAV?$_Compressed_pair@V?$allocator@U?$_Tree_node@U?$pair@$$CBKV?$vector@UtagPropertyBuff@@V?$allocator@UtagPropertyBuff@@@std@@@std@@@std@@PAX@std@@@std@@V?$_Tree_val@U?$_Tree_simple_types@U?$pair@$$CBKV?$vector@UtagPropertyBuff@@V?$allocator@UtagPropertyBuff@@@std@@@std@@@std@@@std@@@2@$00@2@XZ ; std::_Compressed_pair<std::less<unsigned long>,std::_Compressed_pair<std::allocator<std::_Tree_node<std::pair<unsigned long const ,std::vector<tagPropertyBuff,std::allocator<tagPropertyBuff> > >,void *> >,std::_Tree_val<std::_Tree_simple_types<std::pair<unsigned long const ,std::vector<tagPropertyBuff,std::allocator<tagPropertyBuff> > > > >,1>,1>::_Get_second
PUBLIC	?_Get_second@?$_Compressed_pair@U?$less@K@std@@V?$_Compressed_pair@V?$allocator@U?$_Tree_node@U?$pair@$$CBKV?$vector@UtagPropertyBuff@@V?$allocator@UtagPropertyBuff@@@std@@@std@@@std@@PAX@std@@@std@@V?$_Tree_val@U?$_Tree_simple_types@U?$pair@$$CBKV?$vector@UtagPropertyBuff@@V?$allocator@UtagPropertyBuff@@@std@@@std@@@std@@@std@@@2@$00@2@$00@std@@QBEABV?$_Compressed_pair@V?$allocator@U?$_Tree_node@U?$pair@$$CBKV?$vector@UtagPropertyBuff@@V?$allocator@UtagPropertyBuff@@@std@@@std@@@std@@PAX@std@@@std@@V?$_Tree_val@U?$_Tree_simple_types@U?$pair@$$CBKV?$vector@UtagPropertyBuff@@V?$allocator@UtagPropertyBuff@@@std@@@std@@@std@@@std@@@2@$00@2@XZ ; std::_Compressed_pair<std::less<unsigned long>,std::_Compressed_pair<std::allocator<std::_Tree_node<std::pair<unsigned long const ,std::vector<tagPropertyBuff,std::allocator<tagPropertyBuff> > >,void *> >,std::_Tree_val<std::_Tree_simple_types<std::pair<unsigned long const ,std::vector<tagPropertyBuff,std::allocator<tagPropertyBuff> > > > >,1>,1>::_Get_second
PUBLIC	??0?$_Tree@V?$_Tmap_traits@KV?$vector@UtagPropertyBuff@@V?$allocator@UtagPropertyBuff@@@std@@@std@@U?$less@K@2@V?$allocator@U?$pair@$$CBKV?$vector@UtagPropertyBuff@@V?$allocator@UtagPropertyBuff@@@std@@@std@@@std@@@2@$0A@@std@@@std@@QAE@ABU?$less@K@1@@Z ; std::_Tree<std::_Tmap_traits<unsigned long,std::vector<tagPropertyBuff,std::allocator<tagPropertyBuff> >,std::less<unsigned long>,std::allocator<std::pair<unsigned long const ,std::vector<tagPropertyBuff,std::allocator<tagPropertyBuff> > > >,0> >::_Tree<std::_Tmap_traits<unsigned long,std::vector<tagPropertyBuff,std::allocator<tagPropertyBuff> >,std::less<unsigned long>,std::allocator<std::pair<unsigned long const ,std::vector<tagPropertyBuff,std::allocator<tagPropertyBuff> > > >,0> >
PUBLIC	??1?$_Tree@V?$_Tmap_traits@KV?$vector@UtagPropertyBuff@@V?$allocator@UtagPropertyBuff@@@std@@@std@@U?$less@K@2@V?$allocator@U?$pair@$$CBKV?$vector@UtagPropertyBuff@@V?$allocator@UtagPropertyBuff@@@std@@@std@@@std@@@2@$0A@@std@@@std@@QAE@XZ ; std::_Tree<std::_Tmap_traits<unsigned long,std::vector<tagPropertyBuff,std::allocator<tagPropertyBuff> >,std::less<unsigned long>,std::allocator<std::pair<unsigned long const ,std::vector<tagPropertyBuff,std::allocator<tagPropertyBuff> > > >,0> >::~_Tree<std::_Tmap_traits<unsigned long,std::vector<tagPropertyBuff,std::allocator<tagPropertyBuff> >,std::less<unsigned long>,std::allocator<std::pair<unsigned long const ,std::vector<tagPropertyBuff,std::allocator<tagPropertyBuff> > > >,0> >
PUBLIC	?begin@?$_Tree@V?$_Tmap_traits@KV?$vector@UtagPropertyBuff@@V?$allocator@UtagPropertyBuff@@@std@@@std@@U?$less@K@2@V?$allocator@U?$pair@$$CBKV?$vector@UtagPropertyBuff@@V?$allocator@UtagPropertyBuff@@@std@@@std@@@std@@@2@$0A@@std@@@std@@QAE?AV?$_Tree_iterator@V?$_Tree_val@U?$_Tree_simple_types@U?$pair@$$CBKV?$vector@UtagPropertyBuff@@V?$allocator@UtagPropertyBuff@@@std@@@std@@@std@@@std@@@std@@@2@XZ ; std::_Tree<std::_Tmap_traits<unsigned long,std::vector<tagPropertyBuff,std::allocator<tagPropertyBuff> >,std::less<unsigned long>,std::allocator<std::pair<unsigned long const ,std::vector<tagPropertyBuff,std::allocator<tagPropertyBuff> > > >,0> >::begin
PUBLIC	?end@?$_Tree@V?$_Tmap_traits@KV?$vector@UtagPropertyBuff@@V?$allocator@UtagPropertyBuff@@@std@@@std@@U?$less@K@2@V?$allocator@U?$pair@$$CBKV?$vector@UtagPropertyBuff@@V?$allocator@UtagPropertyBuff@@@std@@@std@@@std@@@2@$0A@@std@@@std@@QAE?AV?$_Tree_iterator@V?$_Tree_val@U?$_Tree_simple_types@U?$pair@$$CBKV?$vector@UtagPropertyBuff@@V?$allocator@UtagPropertyBuff@@@std@@@std@@@std@@@std@@@std@@@2@XZ ; std::_Tree<std::_Tmap_traits<unsigned long,std::vector<tagPropertyBuff,std::allocator<tagPropertyBuff> >,std::less<unsigned long>,std::allocator<std::pair<unsigned long const ,std::vector<tagPropertyBuff,std::allocator<tagPropertyBuff> > > >,0> >::end
PUBLIC	?size@?$_Tree@V?$_Tmap_traits@KV?$vector@UtagPropertyBuff@@V?$allocator@UtagPropertyBuff@@@std@@@std@@U?$less@K@2@V?$allocator@U?$pair@$$CBKV?$vector@UtagPropertyBuff@@V?$allocator@UtagPropertyBuff@@@std@@@std@@@std@@@2@$0A@@std@@@std@@QBEIXZ ; std::_Tree<std::_Tmap_traits<unsigned long,std::vector<tagPropertyBuff,std::allocator<tagPropertyBuff> >,std::less<unsigned long>,std::allocator<std::pair<unsigned long const ,std::vector<tagPropertyBuff,std::allocator<tagPropertyBuff> > > >,0> >::size
PUBLIC	?max_size@?$_Tree@V?$_Tmap_traits@KV?$vector@UtagPropertyBuff@@V?$allocator@UtagPropertyBuff@@@std@@@std@@U?$less@K@2@V?$allocator@U?$pair@$$CBKV?$vector@UtagPropertyBuff@@V?$allocator@UtagPropertyBuff@@@std@@@std@@@std@@@2@$0A@@std@@@std@@QBEIXZ ; std::_Tree<std::_Tmap_traits<unsigned long,std::vector<tagPropertyBuff,std::allocator<tagPropertyBuff> >,std::less<unsigned long>,std::allocator<std::pair<unsigned long const ,std::vector<tagPropertyBuff,std::allocator<tagPropertyBuff> > > >,0> >::max_size
PUBLIC	?erase@?$_Tree@V?$_Tmap_traits@KV?$vector@UtagPropertyBuff@@V?$allocator@UtagPropertyBuff@@@std@@@std@@U?$less@K@2@V?$allocator@U?$pair@$$CBKV?$vector@UtagPropertyBuff@@V?$allocator@UtagPropertyBuff@@@std@@@std@@@std@@@2@$0A@@std@@@std@@QAE?AV?$_Tree_iterator@V?$_Tree_val@U?$_Tree_simple_types@U?$pair@$$CBKV?$vector@UtagPropertyBuff@@V?$allocator@UtagPropertyBuff@@@std@@@std@@@std@@@std@@@std@@@2@V?$_Tree_const_iterator@V?$_Tree_val@U?$_Tree_simple_types@U?$pair@$$CBKV?$vector@UtagPropertyBuff@@V?$allocator@UtagPropertyBuff@@@std@@@std@@@std@@@std@@@std@@@2@@Z ; std::_Tree<std::_Tmap_traits<unsigned long,std::vector<tagPropertyBuff,std::allocator<tagPropertyBuff> >,std::less<unsigned long>,std::allocator<std::pair<unsigned long const ,std::vector<tagPropertyBuff,std::allocator<tagPropertyBuff> > > >,0> >::erase
PUBLIC	?erase@?$_Tree@V?$_Tmap_traits@KV?$vector@UtagPropertyBuff@@V?$allocator@UtagPropertyBuff@@@std@@@std@@U?$less@K@2@V?$allocator@U?$pair@$$CBKV?$vector@UtagPropertyBuff@@V?$allocator@UtagPropertyBuff@@@std@@@std@@@std@@@2@$0A@@std@@@std@@QAE?AV?$_Tree_iterator@V?$_Tree_val@U?$_Tree_simple_types@U?$pair@$$CBKV?$vector@UtagPropertyBuff@@V?$allocator@UtagPropertyBuff@@@std@@@std@@@std@@@std@@@std@@@2@V?$_Tree_const_iterator@V?$_Tree_val@U?$_Tree_simple_types@U?$pair@$$CBKV?$vector@UtagPropertyBuff@@V?$allocator@UtagPropertyBuff@@@std@@@std@@@std@@@std@@@std@@@2@0@Z ; std::_Tree<std::_Tmap_traits<unsigned long,std::vector<tagPropertyBuff,std::allocator<tagPropertyBuff> >,std::less<unsigned long>,std::allocator<std::pair<unsigned long const ,std::vector<tagPropertyBuff,std::allocator<tagPropertyBuff> > > >,0> >::erase
PUBLIC	?clear@?$_Tree@V?$_Tmap_traits@KV?$vector@UtagPropertyBuff@@V?$allocator@UtagPropertyBuff@@@std@@@std@@U?$less@K@2@V?$allocator@U?$pair@$$CBKV?$vector@UtagPropertyBuff@@V?$allocator@UtagPropertyBuff@@@std@@@std@@@std@@@2@$0A@@std@@@std@@QAEXXZ ; std::_Tree<std::_Tmap_traits<unsigned long,std::vector<tagPropertyBuff,std::allocator<tagPropertyBuff> >,std::less<unsigned long>,std::allocator<std::pair<unsigned long const ,std::vector<tagPropertyBuff,std::allocator<tagPropertyBuff> > > >,0> >::clear
PUBLIC	?lower_bound@?$_Tree@V?$_Tmap_traits@KV?$vector@UtagPropertyBuff@@V?$allocator@UtagPropertyBuff@@@std@@@std@@U?$less@K@2@V?$allocator@U?$pair@$$CBKV?$vector@UtagPropertyBuff@@V?$allocator@UtagPropertyBuff@@@std@@@std@@@std@@@2@$0A@@std@@@std@@QAE?AV?$_Tree_iterator@V?$_Tree_val@U?$_Tree_simple_types@U?$pair@$$CBKV?$vector@UtagPropertyBuff@@V?$allocator@UtagPropertyBuff@@@std@@@std@@@std@@@std@@@std@@@2@ABK@Z ; std::_Tree<std::_Tmap_traits<unsigned long,std::vector<tagPropertyBuff,std::allocator<tagPropertyBuff> >,std::less<unsigned long>,std::allocator<std::pair<unsigned long const ,std::vector<tagPropertyBuff,std::allocator<tagPropertyBuff> > > >,0> >::lower_bound
PUBLIC	?_Destroy_if_node@?$_Tree@V?$_Tmap_traits@KV?$vector@UtagPropertyBuff@@V?$allocator@UtagPropertyBuff@@@std@@@std@@U?$less@K@2@V?$allocator@U?$pair@$$CBKV?$vector@UtagPropertyBuff@@V?$allocator@UtagPropertyBuff@@@std@@@std@@@std@@@2@$0A@@std@@@std@@IAEXPAU?$_Tree_node@U?$pair@$$CBKV?$vector@UtagPropertyBuff@@V?$allocator@UtagPropertyBuff@@@std@@@std@@@std@@PAX@2@@Z ; std::_Tree<std::_Tmap_traits<unsigned long,std::vector<tagPropertyBuff,std::allocator<tagPropertyBuff> >,std::less<unsigned long>,std::allocator<std::pair<unsigned long const ,std::vector<tagPropertyBuff,std::allocator<tagPropertyBuff> > > >,0> >::_Destroy_if_node
PUBLIC	?_Erase@?$_Tree@V?$_Tmap_traits@KV?$vector@UtagPropertyBuff@@V?$allocator@UtagPropertyBuff@@@std@@@std@@U?$less@K@2@V?$allocator@U?$pair@$$CBKV?$vector@UtagPropertyBuff@@V?$allocator@UtagPropertyBuff@@@std@@@std@@@std@@@2@$0A@@std@@@std@@IAEXPAU?$_Tree_node@U?$pair@$$CBKV?$vector@UtagPropertyBuff@@V?$allocator@UtagPropertyBuff@@@std@@@std@@@std@@PAX@2@@Z ; std::_Tree<std::_Tmap_traits<unsigned long,std::vector<tagPropertyBuff,std::allocator<tagPropertyBuff> >,std::less<unsigned long>,std::allocator<std::pair<unsigned long const ,std::vector<tagPropertyBuff,std::allocator<tagPropertyBuff> > > >,0> >::_Erase
PUBLIC	?_Compare@?$_Tree@V?$_Tmap_traits@KV?$vector@UtagPropertyBuff@@V?$allocator@UtagPropertyBuff@@@std@@@std@@U?$less@K@2@V?$allocator@U?$pair@$$CBKV?$vector@UtagPropertyBuff@@V?$allocator@UtagPropertyBuff@@@std@@@std@@@std@@@2@$0A@@std@@@std@@IBE_NABK0@Z ; std::_Tree<std::_Tmap_traits<unsigned long,std::vector<tagPropertyBuff,std::allocator<tagPropertyBuff> >,std::less<unsigned long>,std::allocator<std::pair<unsigned long const ,std::vector<tagPropertyBuff,std::allocator<tagPropertyBuff> > > >,0> >::_Compare
PUBLIC	?_Orphan_ptr@?$_Tree@V?$_Tmap_traits@KV?$vector@UtagPropertyBuff@@V?$allocator@UtagPropertyBuff@@@std@@@std@@U?$less@K@2@V?$allocator@U?$pair@$$CBKV?$vector@UtagPropertyBuff@@V?$allocator@UtagPropertyBuff@@@std@@@std@@@std@@@2@$0A@@std@@@std@@IAEXPAU?$_Tree_node@U?$pair@$$CBKV?$vector@UtagPropertyBuff@@V?$allocator@UtagPropertyBuff@@@std@@@std@@@std@@PAX@2@@Z ; std::_Tree<std::_Tmap_traits<unsigned long,std::vector<tagPropertyBuff,std::allocator<tagPropertyBuff> >,std::less<unsigned long>,std::allocator<std::pair<unsigned long const ,std::vector<tagPropertyBuff,std::allocator<tagPropertyBuff> > > >,0> >::_Orphan_ptr
PUBLIC	?_Tidy@?$_Tree@V?$_Tmap_traits@KV?$vector@UtagPropertyBuff@@V?$allocator@UtagPropertyBuff@@@std@@@std@@U?$less@K@2@V?$allocator@U?$pair@$$CBKV?$vector@UtagPropertyBuff@@V?$allocator@UtagPropertyBuff@@@std@@@std@@@std@@@2@$0A@@std@@@std@@IAEXXZ ; std::_Tree<std::_Tmap_traits<unsigned long,std::vector<tagPropertyBuff,std::allocator<tagPropertyBuff> >,std::less<unsigned long>,std::allocator<std::pair<unsigned long const ,std::vector<tagPropertyBuff,std::allocator<tagPropertyBuff> > > >,0> >::_Tidy
PUBLIC	?_Kfn@?$_Tree@V?$_Tmap_traits@KV?$vector@UtagPropertyBuff@@V?$allocator@UtagPropertyBuff@@@std@@@std@@U?$less@K@2@V?$allocator@U?$pair@$$CBKV?$vector@UtagPropertyBuff@@V?$allocator@UtagPropertyBuff@@@std@@@std@@@std@@@2@$0A@@std@@@std@@IBEABKABU?$pair@$$CBKV?$vector@UtagPropertyBuff@@V?$allocator@UtagPropertyBuff@@@std@@@std@@@2@@Z ; std::_Tree<std::_Tmap_traits<unsigned long,std::vector<tagPropertyBuff,std::allocator<tagPropertyBuff> >,std::less<unsigned long>,std::allocator<std::pair<unsigned long const ,std::vector<tagPropertyBuff,std::allocator<tagPropertyBuff> > > >,0> >::_Kfn
PUBLIC	?_Key@?$_Tree@V?$_Tmap_traits@KV?$vector@UtagPropertyBuff@@V?$allocator@UtagPropertyBuff@@@std@@@std@@U?$less@K@2@V?$allocator@U?$pair@$$CBKV?$vector@UtagPropertyBuff@@V?$allocator@UtagPropertyBuff@@@std@@@std@@@std@@@2@$0A@@std@@@std@@IBEABKPAU?$_Tree_node@U?$pair@$$CBKV?$vector@UtagPropertyBuff@@V?$allocator@UtagPropertyBuff@@@std@@@std@@@std@@PAX@2@@Z ; std::_Tree<std::_Tmap_traits<unsigned long,std::vector<tagPropertyBuff,std::allocator<tagPropertyBuff> >,std::less<unsigned long>,std::allocator<std::pair<unsigned long const ,std::vector<tagPropertyBuff,std::allocator<tagPropertyBuff> > > >,0> >::_Key
PUBLIC	??0?$map@KV?$vector@UtagPropertyBuff@@V?$allocator@UtagPropertyBuff@@@std@@@std@@U?$less@K@2@V?$allocator@U?$pair@$$CBKV?$vector@UtagPropertyBuff@@V?$allocator@UtagPropertyBuff@@@std@@@std@@@std@@@2@@std@@QAE@XZ ; std::map<unsigned long,std::vector<tagPropertyBuff,std::allocator<tagPropertyBuff> >,std::less<unsigned long>,std::allocator<std::pair<unsigned long const ,std::vector<tagPropertyBuff,std::allocator<tagPropertyBuff> > > > >::map<unsigned long,std::vector<tagPropertyBuff,std::allocator<tagPropertyBuff> >,std::less<unsigned long>,std::allocator<std::pair<unsigned long const ,std::vector<tagPropertyBuff,std::allocator<tagPropertyBuff> > > > >
PUBLIC	??A?$map@KV?$vector@UtagPropertyBuff@@V?$allocator@UtagPropertyBuff@@@std@@@std@@U?$less@K@2@V?$allocator@U?$pair@$$CBKV?$vector@UtagPropertyBuff@@V?$allocator@UtagPropertyBuff@@@std@@@std@@@std@@@2@@std@@QAEAAV?$vector@UtagPropertyBuff@@V?$allocator@UtagPropertyBuff@@@std@@@1@ABK@Z ; std::map<unsigned long,std::vector<tagPropertyBuff,std::allocator<tagPropertyBuff> >,std::less<unsigned long>,std::allocator<std::pair<unsigned long const ,std::vector<tagPropertyBuff,std::allocator<tagPropertyBuff> > > > >::operator[]
PUBLIC	??1?$map@KV?$vector@UtagPropertyBuff@@V?$allocator@UtagPropertyBuff@@@std@@@std@@U?$less@K@2@V?$allocator@U?$pair@$$CBKV?$vector@UtagPropertyBuff@@V?$allocator@UtagPropertyBuff@@@std@@@std@@@std@@@2@@std@@QAE@XZ ; std::map<unsigned long,std::vector<tagPropertyBuff,std::allocator<tagPropertyBuff> >,std::less<unsigned long>,std::allocator<std::pair<unsigned long const ,std::vector<tagPropertyBuff,std::allocator<tagPropertyBuff> > > > >::~map<unsigned long,std::vector<tagPropertyBuff,std::allocator<tagPropertyBuff> >,std::less<unsigned long>,std::allocator<std::pair<unsigned long const ,std::vector<tagPropertyBuff,std::allocator<tagPropertyBuff> > > > >
PUBLIC	??0?$allocator@UtagPropertyBuff@@@std@@QAE@XZ	; std::allocator<tagPropertyBuff>::allocator<tagPropertyBuff>
PUBLIC	?deallocate@?$allocator@UtagPropertyBuff@@@std@@QAEXQAUtagPropertyBuff@@I@Z ; std::allocator<tagPropertyBuff>::deallocate
PUBLIC	?allocate@?$allocator@UtagPropertyBuff@@@std@@QAEPAUtagPropertyBuff@@I@Z ; std::allocator<tagPropertyBuff>::allocate
PUBLIC	?max_size@?$_Default_allocator_traits@V?$allocator@UtagPropertyBuff@@@std@@@std@@SAIABV?$allocator@UtagPropertyBuff@@@2@@Z ; std::_Default_allocator_traits<std::allocator<tagPropertyBuff> >::max_size
PUBLIC	?select_on_container_copy_construction@?$_Default_allocator_traits@V?$allocator@UtagPropertyBuff@@@std@@@std@@SA?AV?$allocator@UtagPropertyBuff@@@2@ABV32@@Z ; std::_Default_allocator_traits<std::allocator<tagPropertyBuff> >::select_on_container_copy_construction
PUBLIC	??0?$_Vector_alloc@U?$_Vec_base_types@UtagPropertyBuff@@V?$allocator@UtagPropertyBuff@@@std@@@std@@@std@@QAE@XZ ; std::_Vector_alloc<std::_Vec_base_types<tagPropertyBuff,std::allocator<tagPropertyBuff> > >::_Vector_alloc<std::_Vec_base_types<tagPropertyBuff,std::allocator<tagPropertyBuff> > >
PUBLIC	??1?$_Vector_alloc@U?$_Vec_base_types@UtagPropertyBuff@@V?$allocator@UtagPropertyBuff@@@std@@@std@@@std@@QAE@XZ ; std::_Vector_alloc<std::_Vec_base_types<tagPropertyBuff,std::allocator<tagPropertyBuff> > >::~_Vector_alloc<std::_Vec_base_types<tagPropertyBuff,std::allocator<tagPropertyBuff> > >
PUBLIC	?_Alloc_proxy@?$_Vector_alloc@U?$_Vec_base_types@UtagPropertyBuff@@V?$allocator@UtagPropertyBuff@@@std@@@std@@@std@@QAEXXZ ; std::_Vector_alloc<std::_Vec_base_types<tagPropertyBuff,std::allocator<tagPropertyBuff> > >::_Alloc_proxy
PUBLIC	?_Free_proxy@?$_Vector_alloc@U?$_Vec_base_types@UtagPropertyBuff@@V?$allocator@UtagPropertyBuff@@@std@@@std@@@std@@QAEXXZ ; std::_Vector_alloc<std::_Vec_base_types<tagPropertyBuff,std::allocator<tagPropertyBuff> > >::_Free_proxy
PUBLIC	?_Getpfirst@?$_Vector_alloc@U?$_Vec_base_types@UtagPropertyBuff@@V?$allocator@UtagPropertyBuff@@@std@@@std@@@std@@QBEPAPAU_Iterator_base12@2@XZ ; std::_Vector_alloc<std::_Vec_base_types<tagPropertyBuff,std::allocator<tagPropertyBuff> > >::_Getpfirst
PUBLIC	?_Myproxy@?$_Vector_alloc@U?$_Vec_base_types@UtagPropertyBuff@@V?$allocator@UtagPropertyBuff@@@std@@@std@@@std@@QAEAAPAU_Container_proxy@2@XZ ; std::_Vector_alloc<std::_Vec_base_types<tagPropertyBuff,std::allocator<tagPropertyBuff> > >::_Myproxy
PUBLIC	?_Orphan_all@?$_Vector_alloc@U?$_Vec_base_types@UtagPropertyBuff@@V?$allocator@UtagPropertyBuff@@@std@@@std@@@std@@QAEXXZ ; std::_Vector_alloc<std::_Vec_base_types<tagPropertyBuff,std::allocator<tagPropertyBuff> > >::_Orphan_all
PUBLIC	?_Getal@?$_Vector_alloc@U?$_Vec_base_types@UtagPropertyBuff@@V?$allocator@UtagPropertyBuff@@@std@@@std@@@std@@QAEAAV?$allocator@UtagPropertyBuff@@@2@XZ ; std::_Vector_alloc<std::_Vec_base_types<tagPropertyBuff,std::allocator<tagPropertyBuff> > >::_Getal
PUBLIC	?_Getal@?$_Vector_alloc@U?$_Vec_base_types@UtagPropertyBuff@@V?$allocator@UtagPropertyBuff@@@std@@@std@@@std@@QBEABV?$allocator@UtagPropertyBuff@@@2@XZ ; std::_Vector_alloc<std::_Vec_base_types<tagPropertyBuff,std::allocator<tagPropertyBuff> > >::_Getal
PUBLIC	?_Get_data@?$_Vector_alloc@U?$_Vec_base_types@UtagPropertyBuff@@V?$allocator@UtagPropertyBuff@@@std@@@std@@@std@@QAEAAV?$_Vector_val@U?$_Simple_types@UtagPropertyBuff@@@std@@@2@XZ ; std::_Vector_alloc<std::_Vec_base_types<tagPropertyBuff,std::allocator<tagPropertyBuff> > >::_Get_data
PUBLIC	?_Get_data@?$_Vector_alloc@U?$_Vec_base_types@UtagPropertyBuff@@V?$allocator@UtagPropertyBuff@@@std@@@std@@@std@@QBEABV?$_Vector_val@U?$_Simple_types@UtagPropertyBuff@@@std@@@2@XZ ; std::_Vector_alloc<std::_Vec_base_types<tagPropertyBuff,std::allocator<tagPropertyBuff> > >::_Get_data
PUBLIC	?_Myfirst@?$_Vector_alloc@U?$_Vec_base_types@UtagPropertyBuff@@V?$allocator@UtagPropertyBuff@@@std@@@std@@@std@@QAEAAPAUtagPropertyBuff@@XZ ; std::_Vector_alloc<std::_Vec_base_types<tagPropertyBuff,std::allocator<tagPropertyBuff> > >::_Myfirst
PUBLIC	?_Myfirst@?$_Vector_alloc@U?$_Vec_base_types@UtagPropertyBuff@@V?$allocator@UtagPropertyBuff@@@std@@@std@@@std@@QBEABQAUtagPropertyBuff@@XZ ; std::_Vector_alloc<std::_Vec_base_types<tagPropertyBuff,std::allocator<tagPropertyBuff> > >::_Myfirst
PUBLIC	?_Mylast@?$_Vector_alloc@U?$_Vec_base_types@UtagPropertyBuff@@V?$allocator@UtagPropertyBuff@@@std@@@std@@@std@@QAEAAPAUtagPropertyBuff@@XZ ; std::_Vector_alloc<std::_Vec_base_types<tagPropertyBuff,std::allocator<tagPropertyBuff> > >::_Mylast
PUBLIC	?_Mylast@?$_Vector_alloc@U?$_Vec_base_types@UtagPropertyBuff@@V?$allocator@UtagPropertyBuff@@@std@@@std@@@std@@QBEABQAUtagPropertyBuff@@XZ ; std::_Vector_alloc<std::_Vec_base_types<tagPropertyBuff,std::allocator<tagPropertyBuff> > >::_Mylast
PUBLIC	?_Myend@?$_Vector_alloc@U?$_Vec_base_types@UtagPropertyBuff@@V?$allocator@UtagPropertyBuff@@@std@@@std@@@std@@QAEAAPAUtagPropertyBuff@@XZ ; std::_Vector_alloc<std::_Vec_base_types<tagPropertyBuff,std::allocator<tagPropertyBuff> > >::_Myend
PUBLIC	?_Myend@?$_Vector_alloc@U?$_Vec_base_types@UtagPropertyBuff@@V?$allocator@UtagPropertyBuff@@@std@@@std@@@std@@QBEABQAUtagPropertyBuff@@XZ ; std::_Vector_alloc<std::_Vec_base_types<tagPropertyBuff,std::allocator<tagPropertyBuff> > >::_Myend
PUBLIC	??0?$_Vector_val@U?$_Simple_types@UtagPropertyBuff@@@std@@@std@@QAE@XZ ; std::_Vector_val<std::_Simple_types<tagPropertyBuff> >::_Vector_val<std::_Simple_types<tagPropertyBuff> >
PUBLIC	?_Get_first@?$_Compressed_pair@V?$allocator@UtagPropertyBuff@@@std@@V?$_Vector_val@U?$_Simple_types@UtagPropertyBuff@@@std@@@2@$00@std@@QAEAAV?$allocator@UtagPropertyBuff@@@2@XZ ; std::_Compressed_pair<std::allocator<tagPropertyBuff>,std::_Vector_val<std::_Simple_types<tagPropertyBuff> >,1>::_Get_first
PUBLIC	?_Get_first@?$_Compressed_pair@V?$allocator@UtagPropertyBuff@@@std@@V?$_Vector_val@U?$_Simple_types@UtagPropertyBuff@@@std@@@2@$00@std@@QBEABV?$allocator@UtagPropertyBuff@@@2@XZ ; std::_Compressed_pair<std::allocator<tagPropertyBuff>,std::_Vector_val<std::_Simple_types<tagPropertyBuff> >,1>::_Get_first
PUBLIC	?_Get_second@?$_Compressed_pair@V?$allocator@UtagPropertyBuff@@@std@@V?$_Vector_val@U?$_Simple_types@UtagPropertyBuff@@@std@@@2@$00@std@@QAEAAV?$_Vector_val@U?$_Simple_types@UtagPropertyBuff@@@std@@@2@XZ ; std::_Compressed_pair<std::allocator<tagPropertyBuff>,std::_Vector_val<std::_Simple_types<tagPropertyBuff> >,1>::_Get_second
PUBLIC	?_Get_second@?$_Compressed_pair@V?$allocator@UtagPropertyBuff@@@std@@V?$_Vector_val@U?$_Simple_types@UtagPropertyBuff@@@std@@@2@$00@std@@QBEABV?$_Vector_val@U?$_Simple_types@UtagPropertyBuff@@@std@@@2@XZ ; std::_Compressed_pair<std::allocator<tagPropertyBuff>,std::_Vector_val<std::_Simple_types<tagPropertyBuff> >,1>::_Get_second
PUBLIC	??0?$vector@UtagPropertyBuff@@V?$allocator@UtagPropertyBuff@@@std@@@std@@QAE@XZ ; std::vector<tagPropertyBuff,std::allocator<tagPropertyBuff> >::vector<tagPropertyBuff,std::allocator<tagPropertyBuff> >
PUBLIC	??0?$vector@UtagPropertyBuff@@V?$allocator@UtagPropertyBuff@@@std@@@std@@QAE@ABV01@@Z ; std::vector<tagPropertyBuff,std::allocator<tagPropertyBuff> >::vector<tagPropertyBuff,std::allocator<tagPropertyBuff> >
PUBLIC	??1?$vector@UtagPropertyBuff@@V?$allocator@UtagPropertyBuff@@@std@@@std@@QAE@XZ ; std::vector<tagPropertyBuff,std::allocator<tagPropertyBuff> >::~vector<tagPropertyBuff,std::allocator<tagPropertyBuff> >
PUBLIC	?push_back@?$vector@UtagPropertyBuff@@V?$allocator@UtagPropertyBuff@@@std@@@std@@QAEXABUtagPropertyBuff@@@Z ; std::vector<tagPropertyBuff,std::allocator<tagPropertyBuff> >::push_back
PUBLIC	?clear@?$vector@UtagPropertyBuff@@V?$allocator@UtagPropertyBuff@@@std@@@std@@QAEXXZ ; std::vector<tagPropertyBuff,std::allocator<tagPropertyBuff> >::clear
PUBLIC	?empty@?$vector@UtagPropertyBuff@@V?$allocator@UtagPropertyBuff@@@std@@@std@@QBE_NXZ ; std::vector<tagPropertyBuff,std::allocator<tagPropertyBuff> >::empty
PUBLIC	?size@?$vector@UtagPropertyBuff@@V?$allocator@UtagPropertyBuff@@@std@@@std@@QBEIXZ ; std::vector<tagPropertyBuff,std::allocator<tagPropertyBuff> >::size
PUBLIC	?max_size@?$vector@UtagPropertyBuff@@V?$allocator@UtagPropertyBuff@@@std@@@std@@QBEIXZ ; std::vector<tagPropertyBuff,std::allocator<tagPropertyBuff> >::max_size
PUBLIC	?capacity@?$vector@UtagPropertyBuff@@V?$allocator@UtagPropertyBuff@@@std@@@std@@QBEIXZ ; std::vector<tagPropertyBuff,std::allocator<tagPropertyBuff> >::capacity
PUBLIC	?_Has_unused_capacity@?$vector@UtagPropertyBuff@@V?$allocator@UtagPropertyBuff@@@std@@@std@@ABE_NXZ ; std::vector<tagPropertyBuff,std::allocator<tagPropertyBuff> >::_Has_unused_capacity
PUBLIC	??A?$vector@UtagPropertyBuff@@V?$allocator@UtagPropertyBuff@@@std@@@std@@QAEAAUtagPropertyBuff@@I@Z ; std::vector<tagPropertyBuff,std::allocator<tagPropertyBuff> >::operator[]
PUBLIC	?_Umove@?$vector@UtagPropertyBuff@@V?$allocator@UtagPropertyBuff@@@std@@@std@@AAEPAUtagPropertyBuff@@PAU3@00@Z ; std::vector<tagPropertyBuff,std::allocator<tagPropertyBuff> >::_Umove
PUBLIC	?_Umove_if_noexcept1@?$vector@UtagPropertyBuff@@V?$allocator@UtagPropertyBuff@@@std@@@std@@AAEXPAUtagPropertyBuff@@00U?$integral_constant@_N$00@2@@Z ; std::vector<tagPropertyBuff,std::allocator<tagPropertyBuff> >::_Umove_if_noexcept1
PUBLIC	?_Umove_if_noexcept@?$vector@UtagPropertyBuff@@V?$allocator@UtagPropertyBuff@@@std@@@std@@AAEXPAUtagPropertyBuff@@00@Z ; std::vector<tagPropertyBuff,std::allocator<tagPropertyBuff> >::_Umove_if_noexcept
PUBLIC	?_Destroy@?$vector@UtagPropertyBuff@@V?$allocator@UtagPropertyBuff@@@std@@@std@@AAEXPAUtagPropertyBuff@@0@Z ; std::vector<tagPropertyBuff,std::allocator<tagPropertyBuff> >::_Destroy
PUBLIC	?_Calculate_growth@?$vector@UtagPropertyBuff@@V?$allocator@UtagPropertyBuff@@@std@@@std@@ABEII@Z ; std::vector<tagPropertyBuff,std::allocator<tagPropertyBuff> >::_Calculate_growth
PUBLIC	?_Buy@?$vector@UtagPropertyBuff@@V?$allocator@UtagPropertyBuff@@@std@@@std@@AAE_NI@Z ; std::vector<tagPropertyBuff,std::allocator<tagPropertyBuff> >::_Buy
PUBLIC	?_Change_array@?$vector@UtagPropertyBuff@@V?$allocator@UtagPropertyBuff@@@std@@@std@@AAEXQAUtagPropertyBuff@@II@Z ; std::vector<tagPropertyBuff,std::allocator<tagPropertyBuff> >::_Change_array
PUBLIC	?_Tidy@?$vector@UtagPropertyBuff@@V?$allocator@UtagPropertyBuff@@@std@@@std@@AAEXXZ ; std::vector<tagPropertyBuff,std::allocator<tagPropertyBuff> >::_Tidy
PUBLIC	?_Xlength@?$vector@UtagPropertyBuff@@V?$allocator@UtagPropertyBuff@@@std@@@std@@CAXXZ ; std::vector<tagPropertyBuff,std::allocator<tagPropertyBuff> >::_Xlength
PUBLIC	?_Orphan_range@?$vector@UtagPropertyBuff@@V?$allocator@UtagPropertyBuff@@@std@@@std@@ABEXPAUtagPropertyBuff@@0@Z ; std::vector<tagPropertyBuff,std::allocator<tagPropertyBuff> >::_Orphan_range
PUBLIC	??$try_emplace@$$V@?$map@KV?$vector@UtagPropertyBuff@@V?$allocator@UtagPropertyBuff@@@std@@@std@@U?$less@K@2@V?$allocator@U?$pair@$$CBKV?$vector@UtagPropertyBuff@@V?$allocator@UtagPropertyBuff@@@std@@@std@@@std@@@2@@std@@QAE?AU?$pair@V?$_Tree_iterator@V?$_Tree_val@U?$_Tree_simple_types@U?$pair@$$CBKV?$vector@UtagPropertyBuff@@V?$allocator@UtagPropertyBuff@@@std@@@std@@@std@@@std@@@std@@@std@@_N@1@ABK@Z ; std::map<unsigned long,std::vector<tagPropertyBuff,std::allocator<tagPropertyBuff> >,std::less<unsigned long>,std::allocator<std::pair<unsigned long const ,std::vector<tagPropertyBuff,std::allocator<tagPropertyBuff> > > > >::try_emplace<>
PUBLIC	??0?$_Tree_unchecked_const_iterator@V?$_Tree_val@U?$_Tree_simple_types@U?$pair@$$CBKV?$vector@UtagPropertyBuff@@V?$allocator@UtagPropertyBuff@@@std@@@std@@@std@@@std@@@std@@U_Iterator_base12@2@@std@@QAE@XZ ; std::_Tree_unchecked_const_iterator<std::_Tree_val<std::_Tree_simple_types<std::pair<unsigned long const ,std::vector<tagPropertyBuff,std::allocator<tagPropertyBuff> > > > >,std::_Iterator_base12>::_Tree_unchecked_const_iterator<std::_Tree_val<std::_Tree_simple_types<std::pair<unsigned long const ,std::vector<tagPropertyBuff,std::allocator<tagPropertyBuff> > > > >,std::_Iterator_base12>
PUBLIC	??0?$_Tree_unchecked_const_iterator@V?$_Tree_val@U?$_Tree_simple_types@U?$pair@$$CBKV?$vector@UtagPropertyBuff@@V?$allocator@UtagPropertyBuff@@@std@@@std@@@std@@@std@@@std@@U_Iterator_base12@2@@std@@QAE@PAU?$_Tree_node@U?$pair@$$CBKV?$vector@UtagPropertyBuff@@V?$allocator@UtagPropertyBuff@@@std@@@std@@@std@@PAX@1@PBV?$_Tree_val@U?$_Tree_simple_types@U?$pair@$$CBKV?$vector@UtagPropertyBuff@@V?$allocator@UtagPropertyBuff@@@std@@@std@@@std@@@std@@@1@@Z ; std::_Tree_unchecked_const_iterator<std::_Tree_val<std::_Tree_simple_types<std::pair<unsigned long const ,std::vector<tagPropertyBuff,std::allocator<tagPropertyBuff> > > > >,std::_Iterator_base12>::_Tree_unchecked_const_iterator<std::_Tree_val<std::_Tree_simple_types<std::pair<unsigned long const ,std::vector<tagPropertyBuff,std::allocator<tagPropertyBuff> > > > >,std::_Iterator_base12>
PUBLIC	??E?$_Tree_unchecked_const_iterator@V?$_Tree_val@U?$_Tree_simple_types@U?$pair@$$CBKV?$vector@UtagPropertyBuff@@V?$allocator@UtagPropertyBuff@@@std@@@std@@@std@@@std@@@std@@U_Iterator_base12@2@@std@@QAEAAV01@XZ ; std::_Tree_unchecked_const_iterator<std::_Tree_val<std::_Tree_simple_types<std::pair<unsigned long const ,std::vector<tagPropertyBuff,std::allocator<tagPropertyBuff> > > > >,std::_Iterator_base12>::operator++
PUBLIC	??F?$_Tree_unchecked_const_iterator@V?$_Tree_val@U?$_Tree_simple_types@U?$pair@$$CBKV?$vector@UtagPropertyBuff@@V?$allocator@UtagPropertyBuff@@@std@@@std@@@std@@@std@@@std@@U_Iterator_base12@2@@std@@QAEAAV01@XZ ; std::_Tree_unchecked_const_iterator<std::_Tree_val<std::_Tree_simple_types<std::pair<unsigned long const ,std::vector<tagPropertyBuff,std::allocator<tagPropertyBuff> > > > >,std::_Iterator_base12>::operator--
PUBLIC	??1?$_Tree_unchecked_const_iterator@V?$_Tree_val@U?$_Tree_simple_types@U?$pair@$$CBKV?$vector@UtagPropertyBuff@@V?$allocator@UtagPropertyBuff@@@std@@@std@@@std@@@std@@@std@@U_Iterator_base12@2@@std@@QAE@XZ ; std::_Tree_unchecked_const_iterator<std::_Tree_val<std::_Tree_simple_types<std::pair<unsigned long const ,std::vector<tagPropertyBuff,std::allocator<tagPropertyBuff> > > > >,std::_Iterator_base12>::~_Tree_unchecked_const_iterator<std::_Tree_val<std::_Tree_simple_types<std::pair<unsigned long const ,std::vector<tagPropertyBuff,std::allocator<tagPropertyBuff> > > > >,std::_Iterator_base12>
PUBLIC	??0?$_Tree_unchecked_const_iterator@V?$_Tree_val@U?$_Tree_simple_types@U?$pair@$$CBKV?$vector@UtagPropertyBuff@@V?$allocator@UtagPropertyBuff@@@std@@@std@@@std@@@std@@@std@@U_Iterator_base12@2@@std@@QAE@ABV01@@Z ; std::_Tree_unchecked_const_iterator<std::_Tree_val<std::_Tree_simple_types<std::pair<unsigned long const ,std::vector<tagPropertyBuff,std::allocator<tagPropertyBuff> > > > >,std::_Iterator_base12>::_Tree_unchecked_const_iterator<std::_Tree_val<std::_Tree_simple_types<std::pair<unsigned long const ,std::vector<tagPropertyBuff,std::allocator<tagPropertyBuff> > > > >,std::_Iterator_base12>
PUBLIC	??0?$_Tree_unchecked_const_iterator@V?$_Tree_val@U?$_Tree_simple_types@U?$pair@$$CBKV?$vector@UtagPropertyBuff@@V?$allocator@UtagPropertyBuff@@@std@@@std@@@std@@@std@@@std@@U_Iterator_base12@2@@std@@QAE@$$QAV01@@Z ; std::_Tree_unchecked_const_iterator<std::_Tree_val<std::_Tree_simple_types<std::pair<unsigned long const ,std::vector<tagPropertyBuff,std::allocator<tagPropertyBuff> > > > >,std::_Iterator_base12>::_Tree_unchecked_const_iterator<std::_Tree_val<std::_Tree_simple_types<std::pair<unsigned long const ,std::vector<tagPropertyBuff,std::allocator<tagPropertyBuff> > > > >,std::_Iterator_base12>
PUBLIC	??4?$_Tree_unchecked_const_iterator@V?$_Tree_val@U?$_Tree_simple_types@U?$pair@$$CBKV?$vector@UtagPropertyBuff@@V?$allocator@UtagPropertyBuff@@@std@@@std@@@std@@@std@@@std@@U_Iterator_base12@2@@std@@QAEAAV01@ABV01@@Z ; std::_Tree_unchecked_const_iterator<std::_Tree_val<std::_Tree_simple_types<std::pair<unsigned long const ,std::vector<tagPropertyBuff,std::allocator<tagPropertyBuff> > > > >,std::_Iterator_base12>::operator=
PUBLIC	??0?$_Tree_const_iterator@V?$_Tree_val@U?$_Tree_simple_types@U?$pair@$$CBKV?$vector@UtagPropertyBuff@@V?$allocator@UtagPropertyBuff@@@std@@@std@@@std@@@std@@@std@@@std@@QAE@XZ ; std::_Tree_const_iterator<std::_Tree_val<std::_Tree_simple_types<std::pair<unsigned long const ,std::vector<tagPropertyBuff,std::allocator<tagPropertyBuff> > > > > >::_Tree_const_iterator<std::_Tree_val<std::_Tree_simple_types<std::pair<unsigned long const ,std::vector<tagPropertyBuff,std::allocator<tagPropertyBuff> > > > > >
PUBLIC	??0?$_Tree_const_iterator@V?$_Tree_val@U?$_Tree_simple_types@U?$pair@$$CBKV?$vector@UtagPropertyBuff@@V?$allocator@UtagPropertyBuff@@@std@@@std@@@std@@@std@@@std@@@std@@QAE@PAU?$_Tree_node@U?$pair@$$CBKV?$vector@UtagPropertyBuff@@V?$allocator@UtagPropertyBuff@@@std@@@std@@@std@@PAX@1@PBV?$_Tree_val@U?$_Tree_simple_types@U?$pair@$$CBKV?$vector@UtagPropertyBuff@@V?$allocator@UtagPropertyBuff@@@std@@@std@@@std@@@std@@@1@@Z ; std::_Tree_const_iterator<std::_Tree_val<std::_Tree_simple_types<std::pair<unsigned long const ,std::vector<tagPropertyBuff,std::allocator<tagPropertyBuff> > > > > >::_Tree_const_iterator<std::_Tree_val<std::_Tree_simple_types<std::pair<unsigned long const ,std::vector<tagPropertyBuff,std::allocator<tagPropertyBuff> > > > > >
PUBLIC	??D?$_Tree_const_iterator@V?$_Tree_val@U?$_Tree_simple_types@U?$pair@$$CBKV?$vector@UtagPropertyBuff@@V?$allocator@UtagPropertyBuff@@@std@@@std@@@std@@@std@@@std@@@std@@QBEABU?$pair@$$CBKV?$vector@UtagPropertyBuff@@V?$allocator@UtagPropertyBuff@@@std@@@std@@@1@XZ ; std::_Tree_const_iterator<std::_Tree_val<std::_Tree_simple_types<std::pair<unsigned long const ,std::vector<tagPropertyBuff,std::allocator<tagPropertyBuff> > > > > >::operator*
PUBLIC	??E?$_Tree_const_iterator@V?$_Tree_val@U?$_Tree_simple_types@U?$pair@$$CBKV?$vector@UtagPropertyBuff@@V?$allocator@UtagPropertyBuff@@@std@@@std@@@std@@@std@@@std@@@std@@QAEAAV01@XZ ; std::_Tree_const_iterator<std::_Tree_val<std::_Tree_simple_types<std::pair<unsigned long const ,std::vector<tagPropertyBuff,std::allocator<tagPropertyBuff> > > > > >::operator++
PUBLIC	??E?$_Tree_const_iterator@V?$_Tree_val@U?$_Tree_simple_types@U?$pair@$$CBKV?$vector@UtagPropertyBuff@@V?$allocator@UtagPropertyBuff@@@std@@@std@@@std@@@std@@@std@@@std@@QAE?AV01@H@Z ; std::_Tree_const_iterator<std::_Tree_val<std::_Tree_simple_types<std::pair<unsigned long const ,std::vector<tagPropertyBuff,std::allocator<tagPropertyBuff> > > > > >::operator++
PUBLIC	??F?$_Tree_const_iterator@V?$_Tree_val@U?$_Tree_simple_types@U?$pair@$$CBKV?$vector@UtagPropertyBuff@@V?$allocator@UtagPropertyBuff@@@std@@@std@@@std@@@std@@@std@@@std@@QAEAAV01@XZ ; std::_Tree_const_iterator<std::_Tree_val<std::_Tree_simple_types<std::pair<unsigned long const ,std::vector<tagPropertyBuff,std::allocator<tagPropertyBuff> > > > > >::operator--
PUBLIC	??8?$_Tree_const_iterator@V?$_Tree_val@U?$_Tree_simple_types@U?$pair@$$CBKV?$vector@UtagPropertyBuff@@V?$allocator@UtagPropertyBuff@@@std@@@std@@@std@@@std@@@std@@@std@@QBE_NABV01@@Z ; std::_Tree_const_iterator<std::_Tree_val<std::_Tree_simple_types<std::pair<unsigned long const ,std::vector<tagPropertyBuff,std::allocator<tagPropertyBuff> > > > > >::operator==
PUBLIC	??9?$_Tree_const_iterator@V?$_Tree_val@U?$_Tree_simple_types@U?$pair@$$CBKV?$vector@UtagPropertyBuff@@V?$allocator@UtagPropertyBuff@@@std@@@std@@@std@@@std@@@std@@@std@@QBE_NABV01@@Z ; std::_Tree_const_iterator<std::_Tree_val<std::_Tree_simple_types<std::pair<unsigned long const ,std::vector<tagPropertyBuff,std::allocator<tagPropertyBuff> > > > > >::operator!=
PUBLIC	??1?$_Tree_const_iterator@V?$_Tree_val@U?$_Tree_simple_types@U?$pair@$$CBKV?$vector@UtagPropertyBuff@@V?$allocator@UtagPropertyBuff@@@std@@@std@@@std@@@std@@@std@@@std@@QAE@XZ ; std::_Tree_const_iterator<std::_Tree_val<std::_Tree_simple_types<std::pair<unsigned long const ,std::vector<tagPropertyBuff,std::allocator<tagPropertyBuff> > > > > >::~_Tree_const_iterator<std::_Tree_val<std::_Tree_simple_types<std::pair<unsigned long const ,std::vector<tagPropertyBuff,std::allocator<tagPropertyBuff> > > > > >
PUBLIC	??0?$_Tree_const_iterator@V?$_Tree_val@U?$_Tree_simple_types@U?$pair@$$CBKV?$vector@UtagPropertyBuff@@V?$allocator@UtagPropertyBuff@@@std@@@std@@@std@@@std@@@std@@@std@@QAE@ABV01@@Z ; std::_Tree_const_iterator<std::_Tree_val<std::_Tree_simple_types<std::pair<unsigned long const ,std::vector<tagPropertyBuff,std::allocator<tagPropertyBuff> > > > > >::_Tree_const_iterator<std::_Tree_val<std::_Tree_simple_types<std::pair<unsigned long const ,std::vector<tagPropertyBuff,std::allocator<tagPropertyBuff> > > > > >
PUBLIC	??0?$_Tree_const_iterator@V?$_Tree_val@U?$_Tree_simple_types@U?$pair@$$CBKV?$vector@UtagPropertyBuff@@V?$allocator@UtagPropertyBuff@@@std@@@std@@@std@@@std@@@std@@@std@@QAE@$$QAV01@@Z ; std::_Tree_const_iterator<std::_Tree_val<std::_Tree_simple_types<std::pair<unsigned long const ,std::vector<tagPropertyBuff,std::allocator<tagPropertyBuff> > > > > >::_Tree_const_iterator<std::_Tree_val<std::_Tree_simple_types<std::pair<unsigned long const ,std::vector<tagPropertyBuff,std::allocator<tagPropertyBuff> > > > > >
PUBLIC	??4?$_Tree_const_iterator@V?$_Tree_val@U?$_Tree_simple_types@U?$pair@$$CBKV?$vector@UtagPropertyBuff@@V?$allocator@UtagPropertyBuff@@@std@@@std@@@std@@@std@@@std@@@std@@QAEAAV01@ABV01@@Z ; std::_Tree_const_iterator<std::_Tree_val<std::_Tree_simple_types<std::pair<unsigned long const ,std::vector<tagPropertyBuff,std::allocator<tagPropertyBuff> > > > > >::operator=
PUBLIC	??0?$_Tree_iterator@V?$_Tree_val@U?$_Tree_simple_types@U?$pair@$$CBKV?$vector@UtagPropertyBuff@@V?$allocator@UtagPropertyBuff@@@std@@@std@@@std@@@std@@@std@@@std@@QAE@PAU?$_Tree_node@U?$pair@$$CBKV?$vector@UtagPropertyBuff@@V?$allocator@UtagPropertyBuff@@@std@@@std@@@std@@PAX@1@PBV?$_Tree_val@U?$_Tree_simple_types@U?$pair@$$CBKV?$vector@UtagPropertyBuff@@V?$allocator@UtagPropertyBuff@@@std@@@std@@@std@@@std@@@1@@Z ; std::_Tree_iterator<std::_Tree_val<std::_Tree_simple_types<std::pair<unsigned long const ,std::vector<tagPropertyBuff,std::allocator<tagPropertyBuff> > > > > >::_Tree_iterator<std::_Tree_val<std::_Tree_simple_types<std::pair<unsigned long const ,std::vector<tagPropertyBuff,std::allocator<tagPropertyBuff> > > > > >
PUBLIC	??D?$_Tree_iterator@V?$_Tree_val@U?$_Tree_simple_types@U?$pair@$$CBKV?$vector@UtagPropertyBuff@@V?$allocator@UtagPropertyBuff@@@std@@@std@@@std@@@std@@@std@@@std@@QBEAAU?$pair@$$CBKV?$vector@UtagPropertyBuff@@V?$allocator@UtagPropertyBuff@@@std@@@std@@@1@XZ ; std::_Tree_iterator<std::_Tree_val<std::_Tree_simple_types<std::pair<unsigned long const ,std::vector<tagPropertyBuff,std::allocator<tagPropertyBuff> > > > > >::operator*
PUBLIC	??C?$_Tree_iterator@V?$_Tree_val@U?$_Tree_simple_types@U?$pair@$$CBKV?$vector@UtagPropertyBuff@@V?$allocator@UtagPropertyBuff@@@std@@@std@@@std@@@std@@@std@@@std@@QBEPAU?$pair@$$CBKV?$vector@UtagPropertyBuff@@V?$allocator@UtagPropertyBuff@@@std@@@std@@@1@XZ ; std::_Tree_iterator<std::_Tree_val<std::_Tree_simple_types<std::pair<unsigned long const ,std::vector<tagPropertyBuff,std::allocator<tagPropertyBuff> > > > > >::operator->
PUBLIC	??F?$_Tree_iterator@V?$_Tree_val@U?$_Tree_simple_types@U?$pair@$$CBKV?$vector@UtagPropertyBuff@@V?$allocator@UtagPropertyBuff@@@std@@@std@@@std@@@std@@@std@@@std@@QAEAAV01@XZ ; std::_Tree_iterator<std::_Tree_val<std::_Tree_simple_types<std::pair<unsigned long const ,std::vector<tagPropertyBuff,std::allocator<tagPropertyBuff> > > > > >::operator--
PUBLIC	??1?$_Tree_iterator@V?$_Tree_val@U?$_Tree_simple_types@U?$pair@$$CBKV?$vector@UtagPropertyBuff@@V?$allocator@UtagPropertyBuff@@@std@@@std@@@std@@@std@@@std@@@std@@QAE@XZ ; std::_Tree_iterator<std::_Tree_val<std::_Tree_simple_types<std::pair<unsigned long const ,std::vector<tagPropertyBuff,std::allocator<tagPropertyBuff> > > > > >::~_Tree_iterator<std::_Tree_val<std::_Tree_simple_types<std::pair<unsigned long const ,std::vector<tagPropertyBuff,std::allocator<tagPropertyBuff> > > > > >
PUBLIC	??0?$_Tree_iterator@V?$_Tree_val@U?$_Tree_simple_types@U?$pair@$$CBKV?$vector@UtagPropertyBuff@@V?$allocator@UtagPropertyBuff@@@std@@@std@@@std@@@std@@@std@@@std@@QAE@ABV01@@Z ; std::_Tree_iterator<std::_Tree_val<std::_Tree_simple_types<std::pair<unsigned long const ,std::vector<tagPropertyBuff,std::allocator<tagPropertyBuff> > > > > >::_Tree_iterator<std::_Tree_val<std::_Tree_simple_types<std::pair<unsigned long const ,std::vector<tagPropertyBuff,std::allocator<tagPropertyBuff> > > > > >
PUBLIC	??0?$_Tree_iterator@V?$_Tree_val@U?$_Tree_simple_types@U?$pair@$$CBKV?$vector@UtagPropertyBuff@@V?$allocator@UtagPropertyBuff@@@std@@@std@@@std@@@std@@@std@@@std@@QAE@$$QAV01@@Z ; std::_Tree_iterator<std::_Tree_val<std::_Tree_simple_types<std::pair<unsigned long const ,std::vector<tagPropertyBuff,std::allocator<tagPropertyBuff> > > > > >::_Tree_iterator<std::_Tree_val<std::_Tree_simple_types<std::pair<unsigned long const ,std::vector<tagPropertyBuff,std::allocator<tagPropertyBuff> > > > > >
PUBLIC	??1?$pair@V?$_Tree_iterator@V?$_Tree_val@U?$_Tree_simple_types@U?$pair@$$CBKV?$vector@UtagPropertyBuff@@V?$allocator@UtagPropertyBuff@@@std@@@std@@@std@@@std@@@std@@@std@@_N@std@@QAE@XZ ; std::pair<std::_Tree_iterator<std::_Tree_val<std::_Tree_simple_types<std::pair<unsigned long const ,std::vector<tagPropertyBuff,std::allocator<tagPropertyBuff> > > > > >,bool>::~pair<std::_Tree_iterator<std::_Tree_val<std::_Tree_simple_types<std::pair<unsigned long const ,std::vector<tagPropertyBuff,std::allocator<tagPropertyBuff> > > > > >,bool>
PUBLIC	??1?$pair@$$CBKV?$vector@UtagPropertyBuff@@V?$allocator@UtagPropertyBuff@@@std@@@std@@@std@@QAE@XZ ; std::pair<unsigned long const ,std::vector<tagPropertyBuff,std::allocator<tagPropertyBuff> > >::~pair<unsigned long const ,std::vector<tagPropertyBuff,std::allocator<tagPropertyBuff> > >
PUBLIC	??_G?$pair@$$CBKV?$vector@UtagPropertyBuff@@V?$allocator@UtagPropertyBuff@@@std@@@std@@@std@@QAEPAXI@Z ; std::pair<unsigned long const ,std::vector<tagPropertyBuff,std::allocator<tagPropertyBuff> > >::`scalar deleting destructor'
PUBLIC	??$emplace_back@ABUtagPropertyBuff@@@?$vector@UtagPropertyBuff@@V?$allocator@UtagPropertyBuff@@@std@@@std@@QAE@ABUtagPropertyBuff@@@Z ; std::vector<tagPropertyBuff,std::allocator<tagPropertyBuff> >::emplace_back<tagPropertyBuff const &>
PUBLIC	??$forward@ABUtagPropertyBuff@@@std@@YAABUtagPropertyBuff@@ABU1@@Z ; std::forward<tagPropertyBuff const &>
PUBLIC	??$_Emplace_back_with_unused_capacity@ABUtagPropertyBuff@@@?$vector@UtagPropertyBuff@@V?$allocator@UtagPropertyBuff@@@std@@@std@@AAE@ABUtagPropertyBuff@@@Z ; std::vector<tagPropertyBuff,std::allocator<tagPropertyBuff> >::_Emplace_back_with_unused_capacity<tagPropertyBuff const &>
PUBLIC	??$_Unfancy@UtagPropertyBuff@@@std@@YAPAUtagPropertyBuff@@PAU1@@Z ; std::_Unfancy<tagPropertyBuff>
PUBLIC	??$construct@UtagPropertyBuff@@ABU1@@?$_Default_allocator_traits@V?$allocator@UtagPropertyBuff@@@std@@@std@@SAXAAV?$allocator@UtagPropertyBuff@@@1@QAUtagPropertyBuff@@ABU3@@Z ; std::_Default_allocator_traits<std::allocator<tagPropertyBuff> >::construct<tagPropertyBuff,tagPropertyBuff const &>
PUBLIC	??$_Emplace_reallocate@ABUtagPropertyBuff@@@?$vector@UtagPropertyBuff@@V?$allocator@UtagPropertyBuff@@@std@@@std@@QAEPAUtagPropertyBuff@@QAU2@ABU2@@Z ; std::vector<tagPropertyBuff,std::allocator<tagPropertyBuff> >::_Emplace_reallocate<tagPropertyBuff const &>
PUBLIC	??$?0V?$allocator@UtagPropertyBuff@@@std@@X@?$_Vector_alloc@U?$_Vec_base_types@UtagPropertyBuff@@V?$allocator@UtagPropertyBuff@@@std@@@std@@@std@@QAE@$$QAV?$allocator@UtagPropertyBuff@@@1@@Z ; std::_Vector_alloc<std::_Vec_base_types<tagPropertyBuff,std::allocator<tagPropertyBuff> > >::_Vector_alloc<std::_Vec_base_types<tagPropertyBuff,std::allocator<tagPropertyBuff> > ><std::allocator<tagPropertyBuff>,void>
PUBLIC	??$_Ucopy@PAUtagPropertyBuff@@@?$vector@UtagPropertyBuff@@V?$allocator@UtagPropertyBuff@@@std@@@std@@AAEPAUtagPropertyBuff@@PAU2@00@Z ; std::vector<tagPropertyBuff,std::allocator<tagPropertyBuff> >::_Ucopy<tagPropertyBuff *>
PUBLIC	?pointer_to@?$pointer_traits@PAU?$pair@$$CBKV?$vector@UtagPropertyBuff@@V?$allocator@UtagPropertyBuff@@@std@@@std@@@std@@@std@@SAPAU?$pair@$$CBKV?$vector@UtagPropertyBuff@@V?$allocator@UtagPropertyBuff@@@std@@@std@@@2@AAU32@@Z ; std::pointer_traits<std::pair<unsigned long const ,std::vector<tagPropertyBuff,std::allocator<tagPropertyBuff> > > *>::pointer_to
PUBLIC	??$_Destroy_range@V?$allocator@UtagPropertyBuff@@@std@@@std@@YAXPAUtagPropertyBuff@@0AAV?$allocator@UtagPropertyBuff@@@0@@Z ; std::_Destroy_range<std::allocator<tagPropertyBuff> >
PUBLIC	??$_Allocate@$07U_Default_allocate_traits@std@@$0A@@std@@YAPAXI@Z ; std::_Allocate<8,std::_Default_allocate_traits,0>
PUBLIC	??$_Deallocate@$07$0A@@std@@YAXPAXI@Z		; std::_Deallocate<8,0>
PUBLIC	??$addressof@U?$pair@$$CBKV?$vector@UtagPropertyBuff@@V?$allocator@UtagPropertyBuff@@@std@@@std@@@std@@@std@@YAPAU?$pair@$$CBKV?$vector@UtagPropertyBuff@@V?$allocator@UtagPropertyBuff@@@std@@@std@@@0@AAU10@@Z ; std::addressof<std::pair<unsigned long const ,std::vector<tagPropertyBuff,std::allocator<tagPropertyBuff> > > >
PUBLIC	?allocate@?$allocator@U_Container_proxy@std@@@std@@QAEPAU_Container_proxy@2@I@Z ; std::allocator<std::_Container_proxy>::allocate
PUBLIC	??$?0UtagPropertyBuff@@@?$allocator@U_Container_proxy@std@@@std@@QAE@ABV?$allocator@UtagPropertyBuff@@@1@@Z ; std::allocator<std::_Container_proxy>::allocator<std::_Container_proxy><tagPropertyBuff>
PUBLIC	?deallocate@?$_Default_allocator_traits@V?$allocator@U_Container_proxy@std@@@std@@@std@@SAXAAV?$allocator@U_Container_proxy@std@@@2@QAU_Container_proxy@2@I@Z ; std::_Default_allocator_traits<std::allocator<std::_Container_proxy> >::deallocate
PUBLIC	??$destroy@U_Container_proxy@std@@@?$_Default_allocator_traits@V?$allocator@U_Container_proxy@std@@@std@@@std@@SAXAAV?$allocator@U_Container_proxy@std@@@1@QAU_Container_proxy@1@@Z ; std::_Default_allocator_traits<std::allocator<std::_Container_proxy> >::destroy<std::_Container_proxy>
PUBLIC	??$_Deallocate_plain@V?$allocator@U_Container_proxy@std@@@std@@$0A@@std@@YAXAAV?$allocator@U_Container_proxy@std@@@0@QAU_Container_proxy@0@@Z ; std::_Deallocate_plain<std::allocator<std::_Container_proxy>,0>
PUBLIC	??$_Freenode0@V?$allocator@U?$_Tree_node@U?$pair@$$CBKV?$vector@UtagPropertyBuff@@V?$allocator@UtagPropertyBuff@@@std@@@std@@@std@@PAX@std@@@std@@@?$_Tree_node@U?$pair@$$CBKV?$vector@UtagPropertyBuff@@V?$allocator@UtagPropertyBuff@@@std@@@std@@@std@@PAX@std@@SAXAAV?$allocator@U?$_Tree_node@U?$pair@$$CBKV?$vector@UtagPropertyBuff@@V?$allocator@UtagPropertyBuff@@@std@@@std@@@std@@PAX@std@@@1@PAU01@@Z ; std::_Tree_node<std::pair<unsigned long const ,std::vector<tagPropertyBuff,std::allocator<tagPropertyBuff> > >,void *>::_Freenode0<std::allocator<std::_Tree_node<std::pair<unsigned long const ,std::vector<tagPropertyBuff,std::allocator<tagPropertyBuff> > >,void *> > >
PUBLIC	??$?0U?$_Tree_node@U?$pair@$$CBKV?$vector@UtagPropertyBuff@@V?$allocator@UtagPropertyBuff@@@std@@@std@@@std@@PAX@std@@@?$allocator@U_Container_proxy@std@@@std@@QAE@ABV?$allocator@U?$_Tree_node@U?$pair@$$CBKV?$vector@UtagPropertyBuff@@V?$allocator@UtagPropertyBuff@@@std@@@std@@@std@@PAX@std@@@1@@Z ; std::allocator<std::_Container_proxy>::allocator<std::_Container_proxy><std::_Tree_node<std::pair<unsigned long const ,std::vector<tagPropertyBuff,std::allocator<tagPropertyBuff> > >,void *> >
PUBLIC	??$?0ABU?$less@K@std@@U_Zero_then_variadic_args_t@1@@?$_Compressed_pair@U?$less@K@std@@V?$_Compressed_pair@V?$allocator@U?$_Tree_node@U?$pair@$$CBKV?$vector@UtagPropertyBuff@@V?$allocator@UtagPropertyBuff@@@std@@@std@@@std@@PAX@std@@@std@@V?$_Tree_val@U?$_Tree_simple_types@U?$pair@$$CBKV?$vector@UtagPropertyBuff@@V?$allocator@UtagPropertyBuff@@@std@@@std@@@std@@@std@@@2@$00@2@$00@std@@QAE@U_One_then_variadic_args_t@1@ABU?$less@K@1@$$QAU_Zero_then_variadic_args_t@1@@Z ; std::_Compressed_pair<std::less<unsigned long>,std::_Compressed_pair<std::allocator<std::_Tree_node<std::pair<unsigned long const ,std::vector<tagPropertyBuff,std::allocator<tagPropertyBuff> > >,void *> >,std::_Tree_val<std::_Tree_simple_types<std::pair<unsigned long const ,std::vector<tagPropertyBuff,std::allocator<tagPropertyBuff> > > > >,1>,1>::_Compressed_pair<std::less<unsigned long>,std::_Compressed_pair<std::allocator<std::_Tree_node<std::pair<unsigned long const ,std::vector<tagPropertyBuff,std::allocator<tagPropertyBuff> > >,void *> >,std::_Tree_val<std::_Tree_simple_types<std::pair<unsigned long const ,std::vector<tagPropertyBuff,std::allocator<tagPropertyBuff> > > > >,1>,1><std::less<unsigned long> const &,std::_Zero_then_variadic_args_t>
PUBLIC	??$addressof@V?$_Tree_val@U?$_Tree_simple_types@U?$pair@$$CBKV?$vector@UtagPropertyBuff@@V?$allocator@UtagPropertyBuff@@@std@@@std@@@std@@@std@@@std@@@std@@YAPAV?$_Tree_val@U?$_Tree_simple_types@U?$pair@$$CBKV?$vector@UtagPropertyBuff@@V?$allocator@UtagPropertyBuff@@@std@@@std@@@std@@@std@@@0@AAV10@@Z ; std::addressof<std::_Tree_val<std::_Tree_simple_types<std::pair<unsigned long const ,std::vector<tagPropertyBuff,std::allocator<tagPropertyBuff> > > > > >
PUBLIC	??$_Get_size_of_n@$0CE@@std@@YAII@Z		; std::_Get_size_of_n<36>
PUBLIC	??$_Unfancy@U_Container_proxy@std@@@std@@YAPAU_Container_proxy@0@PAU10@@Z ; std::_Unfancy<std::_Container_proxy>
PUBLIC	??$construct@U_Container_proxy@std@@U12@@?$_Default_allocator_traits@V?$allocator@U_Container_proxy@std@@@std@@@std@@SAXAAV?$allocator@U_Container_proxy@std@@@1@QAU_Container_proxy@1@$$QAU31@@Z ; std::_Default_allocator_traits<std::allocator<std::_Container_proxy> >::construct<std::_Container_proxy,std::_Container_proxy>
PUBLIC	??$destroy@U?$pair@$$CBKV?$vector@UtagPropertyBuff@@V?$allocator@UtagPropertyBuff@@@std@@@std@@@std@@@?$_Default_allocator_traits@V?$allocator@U?$_Tree_node@U?$pair@$$CBKV?$vector@UtagPropertyBuff@@V?$allocator@UtagPropertyBuff@@@std@@@std@@@std@@PAX@std@@@std@@@std@@SAXAAV?$allocator@U?$_Tree_node@U?$pair@$$CBKV?$vector@UtagPropertyBuff@@V?$allocator@UtagPropertyBuff@@@std@@@std@@@std@@PAX@std@@@1@QAU?$pair@$$CBKV?$vector@UtagPropertyBuff@@V?$allocator@UtagPropertyBuff@@@std@@@std@@@1@@Z ; std::_Default_allocator_traits<std::allocator<std::_Tree_node<std::pair<unsigned long const ,std::vector<tagPropertyBuff,std::allocator<tagPropertyBuff> > >,void *> > >::destroy<std::pair<unsigned long const ,std::vector<tagPropertyBuff,std::allocator<tagPropertyBuff> > > >
PUBLIC	??$_Get_size_of_n@$07@std@@YAII@Z		; std::_Get_size_of_n<8>
PUBLIC	??$swap@DX@std@@YAXAAD0@Z			; std::swap<char,void>
PUBLIC	??$addressof@PAU?$_Tree_node@U?$pair@$$CBKV?$vector@UtagPropertyBuff@@V?$allocator@UtagPropertyBuff@@@std@@@std@@@std@@PAX@std@@@std@@YAPAPAU?$_Tree_node@U?$pair@$$CBKV?$vector@UtagPropertyBuff@@V?$allocator@UtagPropertyBuff@@@std@@@std@@@std@@PAX@0@AAPAU10@@Z ; std::addressof<std::_Tree_node<std::pair<unsigned long const ,std::vector<tagPropertyBuff,std::allocator<tagPropertyBuff> > >,void *> *>
PUBLIC	??$construct@PAU?$_Tree_node@U?$pair@$$CBKV?$vector@UtagPropertyBuff@@V?$allocator@UtagPropertyBuff@@@std@@@std@@@std@@PAX@std@@AAPAU12@@?$_Default_allocator_traits@V?$allocator@U?$_Tree_node@U?$pair@$$CBKV?$vector@UtagPropertyBuff@@V?$allocator@UtagPropertyBuff@@@std@@@std@@@std@@PAX@std@@@std@@@std@@SAXAAV?$allocator@U?$_Tree_node@U?$pair@$$CBKV?$vector@UtagPropertyBuff@@V?$allocator@UtagPropertyBuff@@@std@@@std@@@std@@PAX@std@@@1@QAPAU?$_Tree_node@U?$pair@$$CBKV?$vector@UtagPropertyBuff@@V?$allocator@UtagPropertyBuff@@@std@@@std@@@std@@PAX@1@AAPAU31@@Z ; std::_Default_allocator_traits<std::allocator<std::_Tree_node<std::pair<unsigned long const ,std::vector<tagPropertyBuff,std::allocator<tagPropertyBuff> > >,void *> > >::construct<std::_Tree_node<std::pair<unsigned long const ,std::vector<tagPropertyBuff,std::allocator<tagPropertyBuff> > >,void *> *,std::_Tree_node<std::pair<unsigned long const ,std::vector<tagPropertyBuff,std::allocator<tagPropertyBuff> > >,void *> * &>
PUBLIC	??$_Maklocstr@D@std@@YAPADPBDPADABU_Cvtvec@@@Z	; std::_Maklocstr<char>
PUBLIC	??$_Try_emplace@ABK$$V@?$map@KV?$vector@UtagPropertyBuff@@V?$allocator@UtagPropertyBuff@@@std@@@std@@U?$less@K@2@V?$allocator@U?$pair@$$CBKV?$vector@UtagPropertyBuff@@V?$allocator@UtagPropertyBuff@@@std@@@std@@@std@@@2@@std@@QAE?AU?$pair@V?$_Tree_iterator@V?$_Tree_val@U?$_Tree_simple_types@U?$pair@$$CBKV?$vector@UtagPropertyBuff@@V?$allocator@UtagPropertyBuff@@@std@@@std@@@std@@@std@@@std@@@std@@_N@1@ABK@Z ; std::map<unsigned long,std::vector<tagPropertyBuff,std::allocator<tagPropertyBuff> >,std::less<unsigned long>,std::allocator<std::pair<unsigned long const ,std::vector<tagPropertyBuff,std::allocator<tagPropertyBuff> > > > >::_Try_emplace<unsigned long const &>
PUBLIC	??$forward@V?$allocator@UtagPropertyBuff@@@std@@@std@@YA$$QAV?$allocator@UtagPropertyBuff@@@0@AAV10@@Z ; std::forward<std::allocator<tagPropertyBuff> >
PUBLIC	??$?0V?$allocator@UtagPropertyBuff@@@std@@$$V@?$_Compressed_pair@V?$allocator@UtagPropertyBuff@@@std@@V?$_Vector_val@U?$_Simple_types@UtagPropertyBuff@@@std@@@2@$00@std@@QAE@U_One_then_variadic_args_t@1@$$QAV?$allocator@UtagPropertyBuff@@@1@@Z ; std::_Compressed_pair<std::allocator<tagPropertyBuff>,std::_Vector_val<std::_Simple_types<tagPropertyBuff> >,1>::_Compressed_pair<std::allocator<tagPropertyBuff>,std::_Vector_val<std::_Simple_types<tagPropertyBuff> >,1><std::allocator<tagPropertyBuff> >
PUBLIC	??$_Uninitialized_copy@PAUtagPropertyBuff@@PAU1@V?$allocator@UtagPropertyBuff@@@std@@@std@@YAPAUtagPropertyBuff@@QAU1@0PAU1@AAV?$allocator@UtagPropertyBuff@@@0@@Z ; std::_Uninitialized_copy<tagPropertyBuff *,tagPropertyBuff *,std::allocator<tagPropertyBuff> >
PUBLIC	??$_Destroy_range1@V?$allocator@UtagPropertyBuff@@@std@@@std@@YAXPAUtagPropertyBuff@@0AAV?$allocator@UtagPropertyBuff@@@0@U?$integral_constant@_N$00@0@@Z ; std::_Destroy_range1<std::allocator<tagPropertyBuff> >
PUBLIC	??$_Allocate_manually_vector_aligned@U_Default_allocate_traits@std@@@std@@YAPAXI@Z ; std::_Allocate_manually_vector_aligned<std::_Default_allocate_traits>
PUBLIC	??$destroy@PAU?$_Tree_node@U?$pair@$$CBKV?$vector@UtagPropertyBuff@@V?$allocator@UtagPropertyBuff@@@std@@@std@@@std@@PAX@std@@@?$_Default_allocator_traits@V?$allocator@U?$_Tree_node@U?$pair@$$CBKV?$vector@UtagPropertyBuff@@V?$allocator@UtagPropertyBuff@@@std@@@std@@@std@@PAX@std@@@std@@@std@@SAXAAV?$allocator@U?$_Tree_node@U?$pair@$$CBKV?$vector@UtagPropertyBuff@@V?$allocator@UtagPropertyBuff@@@std@@@std@@@std@@PAX@std@@@1@QAPAU?$_Tree_node@U?$pair@$$CBKV?$vector@UtagPropertyBuff@@V?$allocator@UtagPropertyBuff@@@std@@@std@@@std@@PAX@1@@Z ; std::_Default_allocator_traits<std::allocator<std::_Tree_node<std::pair<unsigned long const ,std::vector<tagPropertyBuff,std::allocator<tagPropertyBuff> > >,void *> > >::destroy<std::_Tree_node<std::pair<unsigned long const ,std::vector<tagPropertyBuff,std::allocator<tagPropertyBuff> > >,void *> *>
PUBLIC	??$forward@ABU?$less@K@std@@@std@@YAABU?$less@K@0@ABU10@@Z ; std::forward<std::less<unsigned long> const &>
PUBLIC	??$forward@U_Zero_then_variadic_args_t@std@@@std@@YA$$QAU_Zero_then_variadic_args_t@0@AAU10@@Z ; std::forward<std::_Zero_then_variadic_args_t>
PUBLIC	??$?0$$V@?$_Compressed_pair@V?$allocator@U?$_Tree_node@U?$pair@$$CBKV?$vector@UtagPropertyBuff@@V?$allocator@UtagPropertyBuff@@@std@@@std@@@std@@PAX@std@@@std@@V?$_Tree_val@U?$_Tree_simple_types@U?$pair@$$CBKV?$vector@UtagPropertyBuff@@V?$allocator@UtagPropertyBuff@@@std@@@std@@@std@@@std@@@2@$00@std@@QAE@U_Zero_then_variadic_args_t@1@@Z ; std::_Compressed_pair<std::allocator<std::_Tree_node<std::pair<unsigned long const ,std::vector<tagPropertyBuff,std::allocator<tagPropertyBuff> > >,void *> >,std::_Tree_val<std::_Tree_simple_types<std::pair<unsigned long const ,std::vector<tagPropertyBuff,std::allocator<tagPropertyBuff> > > > >,1>::_Compressed_pair<std::allocator<std::_Tree_node<std::pair<unsigned long const ,std::vector<tagPropertyBuff,std::allocator<tagPropertyBuff> > >,void *> >,std::_Tree_val<std::_Tree_simple_types<std::pair<unsigned long const ,std::vector<tagPropertyBuff,std::allocator<tagPropertyBuff> > > > >,1><>
PUBLIC	??$forward@U_Container_proxy@std@@@std@@YA$$QAU_Container_proxy@0@AAU10@@Z ; std::forward<std::_Container_proxy>
PUBLIC	??$move@AAD@std@@YA$$QADAAD@Z			; std::move<char &>
PUBLIC	??$forward@AAPAU?$_Tree_node@U?$pair@$$CBKV?$vector@UtagPropertyBuff@@V?$allocator@UtagPropertyBuff@@@std@@@std@@@std@@PAX@std@@@std@@YAAAPAU?$_Tree_node@U?$pair@$$CBKV?$vector@UtagPropertyBuff@@V?$allocator@UtagPropertyBuff@@@std@@@std@@@std@@PAX@0@AAPAU10@@Z ; std::forward<std::_Tree_node<std::pair<unsigned long const ,std::vector<tagPropertyBuff,std::allocator<tagPropertyBuff> > >,void *> * &>
PUBLIC	??$addressof@V?$_Vector_val@U?$_Simple_types@UtagPropertyBuff@@@std@@@std@@@std@@YAPAV?$_Vector_val@U?$_Simple_types@UtagPropertyBuff@@@std@@@0@AAV10@@Z ; std::addressof<std::_Vector_val<std::_Simple_types<tagPropertyBuff> > >
PUBLIC	??$_Uninitialized_move@PAUtagPropertyBuff@@PAU1@V?$allocator@UtagPropertyBuff@@@std@@@std@@YAPAUtagPropertyBuff@@QAU1@0PAU1@AAV?$allocator@UtagPropertyBuff@@@0@@Z ; std::_Uninitialized_move<tagPropertyBuff *,tagPropertyBuff *,std::allocator<tagPropertyBuff> >
PUBLIC	??$_Debug_lt_pred@AAU?$less@K@std@@ABKABK@std@@YA_NAAU?$less@K@0@ABK1@Z ; std::_Debug_lt_pred<std::less<unsigned long> &,unsigned long const &,unsigned long const &>
PUBLIC	??$forward@ABK@std@@YAABKABK@Z			; std::forward<unsigned long const &>
PUBLIC	??$forward_as_tuple@ABK@std@@YA?AV?$tuple@ABK@0@ABK@Z ; std::forward_as_tuple<unsigned long const &>
PUBLIC	??0?$tuple@ABK@std@@QAE@$$QAV01@@Z		; std::tuple<unsigned long const &>::tuple<unsigned long const &>
PUBLIC	??$forward_as_tuple@$$V@std@@YA?AV?$tuple@$$V@0@XZ ; std::forward_as_tuple<>
PUBLIC	??$emplace_hint@ABUpiecewise_construct_t@std@@V?$tuple@ABK@2@V?$tuple@$$V@2@@?$_Tree@V?$_Tmap_traits@KV?$vector@UtagPropertyBuff@@V?$allocator@UtagPropertyBuff@@@std@@@std@@U?$less@K@2@V?$allocator@U?$pair@$$CBKV?$vector@UtagPropertyBuff@@V?$allocator@UtagPropertyBuff@@@std@@@std@@@std@@@2@$0A@@std@@@std@@QAE?AV?$_Tree_iterator@V?$_Tree_val@U?$_Tree_simple_types@U?$pair@$$CBKV?$vector@UtagPropertyBuff@@V?$allocator@UtagPropertyBuff@@@std@@@std@@@std@@@std@@@std@@@1@V?$_Tree_const_iterator@V?$_Tree_val@U?$_Tree_simple_types@U?$pair@$$CBKV?$vector@UtagPropertyBuff@@V?$allocator@UtagPropertyBuff@@@std@@@std@@@std@@@std@@@std@@@1@ABUpiecewise_construct_t@1@$$QAV?$tuple@ABK@1@$$QAV?$tuple@$$V@1@@Z ; std::_Tree<std::_Tmap_traits<unsigned long,std::vector<tagPropertyBuff,std::allocator<tagPropertyBuff> >,std::less<unsigned long>,std::allocator<std::pair<unsigned long const ,std::vector<tagPropertyBuff,std::allocator<tagPropertyBuff> > > >,0> >::emplace_hint<std::piecewise_construct_t const &,std::tuple<unsigned long const &>,std::tuple<> >
PUBLIC	??$?0V?$_Tree_iterator@V?$_Tree_val@U?$_Tree_simple_types@U?$pair@$$CBKV?$vector@UtagPropertyBuff@@V?$allocator@UtagPropertyBuff@@@std@@@std@@@std@@@std@@@std@@@std@@_N$0A@@?$pair@V?$_Tree_iterator@V?$_Tree_val@U?$_Tree_simple_types@U?$pair@$$CBKV?$vector@UtagPropertyBuff@@V?$allocator@UtagPropertyBuff@@@std@@@std@@@std@@@std@@@std@@@std@@_N@std@@QAE@$$QAV?$_Tree_iterator@V?$_Tree_val@U?$_Tree_simple_types@U?$pair@$$CBKV?$vector@UtagPropertyBuff@@V?$allocator@UtagPropertyBuff@@@std@@@std@@@std@@@std@@@std@@@1@$$QA_N@Z ; std::pair<std::_Tree_iterator<std::_Tree_val<std::_Tree_simple_types<std::pair<unsigned long const ,std::vector<tagPropertyBuff,std::allocator<tagPropertyBuff> > > > > >,bool>::pair<std::_Tree_iterator<std::_Tree_val<std::_Tree_simple_types<std::pair<unsigned long const ,std::vector<tagPropertyBuff,std::allocator<tagPropertyBuff> > > > > >,bool><std::_Tree_iterator<std::_Tree_val<std::_Tree_simple_types<std::pair<unsigned long const ,std::vector<tagPropertyBuff,std::allocator<tagPropertyBuff> > > > > >,bool,0>
PUBLIC	??$?0AAV?$_Tree_iterator@V?$_Tree_val@U?$_Tree_simple_types@U?$pair@$$CBKV?$vector@UtagPropertyBuff@@V?$allocator@UtagPropertyBuff@@@std@@@std@@@std@@@std@@@std@@@std@@_N$0A@@?$pair@V?$_Tree_iterator@V?$_Tree_val@U?$_Tree_simple_types@U?$pair@$$CBKV?$vector@UtagPropertyBuff@@V?$allocator@UtagPropertyBuff@@@std@@@std@@@std@@@std@@@std@@@std@@_N@std@@QAE@AAV?$_Tree_iterator@V?$_Tree_val@U?$_Tree_simple_types@U?$pair@$$CBKV?$vector@UtagPropertyBuff@@V?$allocator@UtagPropertyBuff@@@std@@@std@@@std@@@std@@@std@@@1@$$QA_N@Z ; std::pair<std::_Tree_iterator<std::_Tree_val<std::_Tree_simple_types<std::pair<unsigned long const ,std::vector<tagPropertyBuff,std::allocator<tagPropertyBuff> > > > > >,bool>::pair<std::_Tree_iterator<std::_Tree_val<std::_Tree_simple_types<std::pair<unsigned long const ,std::vector<tagPropertyBuff,std::allocator<tagPropertyBuff> > > > > >,bool><std::_Tree_iterator<std::_Tree_val<std::_Tree_simple_types<std::pair<unsigned long const ,std::vector<tagPropertyBuff,std::allocator<tagPropertyBuff> > > > > > &,bool,0>
PUBLIC	??$_Get_unwrapped@UtagPropertyBuff@@@std@@YAPAUtagPropertyBuff@@QAU1@@Z ; std::_Get_unwrapped<tagPropertyBuff>
PUBLIC	??$_Idl_distance@PAUtagPropertyBuff@@PAU1@@std@@YA@ABQAUtagPropertyBuff@@0@Z ; std::_Idl_distance<tagPropertyBuff *,tagPropertyBuff *>
PUBLIC	??$_Idl_distance1@PAUtagPropertyBuff@@PAU1@@std@@YAHABQAUtagPropertyBuff@@0Urandom_access_iterator_tag@0@@Z ; std::_Idl_distance1<tagPropertyBuff *,tagPropertyBuff *>
PUBLIC	??$_Get_unwrapped_n@UtagPropertyBuff@@H$0A@@std@@YAPAUtagPropertyBuff@@QAU1@H@Z ; std::_Get_unwrapped_n<tagPropertyBuff,int,0>
PUBLIC	??$_Ptr_copy_cat@UtagPropertyBuff@@U1@@std@@YA?AU_Really_trivial_ptr_iterator_tag@0@ABQAUtagPropertyBuff@@0@Z ; std::_Ptr_copy_cat<tagPropertyBuff,tagPropertyBuff>
PUBLIC	??$_Uninitialized_copy_al_unchecked@UtagPropertyBuff@@U1@V?$allocator@UtagPropertyBuff@@@std@@@std@@YAPAUtagPropertyBuff@@QAU1@00AAV?$allocator@UtagPropertyBuff@@@0@U_Really_trivial_ptr_iterator_tag@0@U?$integral_constant@_N$00@0@@Z ; std::_Uninitialized_copy_al_unchecked<tagPropertyBuff,tagPropertyBuff,std::allocator<tagPropertyBuff> >
PUBLIC	??$_Seek_wrapped@UtagPropertyBuff@@@std@@YAXAAPAUtagPropertyBuff@@QAU1@@Z ; std::_Seek_wrapped<tagPropertyBuff>
PUBLIC	??$_Ptr_move_cat@UtagPropertyBuff@@U1@@std@@YA?AU_Really_trivial_ptr_iterator_tag@0@ABQAUtagPropertyBuff@@0@Z ; std::_Ptr_move_cat<tagPropertyBuff,tagPropertyBuff>
PUBLIC	??$_Uninitialized_move_al_unchecked@UtagPropertyBuff@@U1@V?$allocator@UtagPropertyBuff@@@std@@@std@@YAPAUtagPropertyBuff@@QAU1@00AAV?$allocator@UtagPropertyBuff@@@0@U_Really_trivial_ptr_iterator_tag@0@U?$integral_constant@_N$00@0@@Z ; std::_Uninitialized_move_al_unchecked<tagPropertyBuff,tagPropertyBuff,std::allocator<tagPropertyBuff> >
PUBLIC	??$_Lbound@K@?$_Tree@V?$_Tmap_traits@KV?$vector@UtagPropertyBuff@@V?$allocator@UtagPropertyBuff@@@std@@@std@@U?$less@K@2@V?$allocator@U?$pair@$$CBKV?$vector@UtagPropertyBuff@@V?$allocator@UtagPropertyBuff@@@std@@@std@@@std@@@2@$0A@@std@@@std@@IBEPAU?$_Tree_node@U?$pair@$$CBKV?$vector@UtagPropertyBuff@@V?$allocator@UtagPropertyBuff@@@std@@@std@@@std@@PAX@1@ABK@Z ; std::_Tree<std::_Tmap_traits<unsigned long,std::vector<tagPropertyBuff,std::allocator<tagPropertyBuff> >,std::less<unsigned long>,std::allocator<std::pair<unsigned long const ,std::vector<tagPropertyBuff,std::allocator<tagPropertyBuff> > > >,0> >::_Lbound<unsigned long>
PUBLIC	??$_Kfn@$$CBKV?$vector@UtagPropertyBuff@@V?$allocator@UtagPropertyBuff@@@std@@@std@@@?$_Tmap_traits@KV?$vector@UtagPropertyBuff@@V?$allocator@UtagPropertyBuff@@@std@@@std@@U?$less@K@2@V?$allocator@U?$pair@$$CBKV?$vector@UtagPropertyBuff@@V?$allocator@UtagPropertyBuff@@@std@@@std@@@std@@@2@$0A@@std@@SAABKABU?$pair@$$CBKV?$vector@UtagPropertyBuff@@V?$allocator@UtagPropertyBuff@@@std@@@std@@@1@@Z ; std::_Tmap_traits<unsigned long,std::vector<tagPropertyBuff,std::allocator<tagPropertyBuff> >,std::less<unsigned long>,std::allocator<std::pair<unsigned long const ,std::vector<tagPropertyBuff,std::allocator<tagPropertyBuff> > > >,0>::_Kfn<unsigned long const ,std::vector<tagPropertyBuff,std::allocator<tagPropertyBuff> > >
PUBLIC	??$?0ABK$0A@@?$tuple@ABK@std@@QAE@ABK@Z		; std::tuple<unsigned long const &>::tuple<unsigned long const &><unsigned long const &,0>
PUBLIC	??$forward@ABUpiecewise_construct_t@std@@@std@@YAABUpiecewise_construct_t@0@ABU10@@Z ; std::forward<std::piecewise_construct_t const &>
PUBLIC	??$forward@V?$tuple@ABK@std@@@std@@YA$$QAV?$tuple@ABK@0@AAV10@@Z ; std::forward<std::tuple<unsigned long const &> >
PUBLIC	??$forward@V?$tuple@$$V@std@@@std@@YA$$QAV?$tuple@$$V@0@AAV10@@Z ; std::forward<std::tuple<> >
PUBLIC	??$_Buynode@ABUpiecewise_construct_t@std@@V?$tuple@ABK@2@V?$tuple@$$V@2@@?$_Tree_comp_alloc@V?$_Tmap_traits@KV?$vector@UtagPropertyBuff@@V?$allocator@UtagPropertyBuff@@@std@@@std@@U?$less@K@2@V?$allocator@U?$pair@$$CBKV?$vector@UtagPropertyBuff@@V?$allocator@UtagPropertyBuff@@@std@@@std@@@std@@@2@$0A@@std@@@std@@QAEPAU?$_Tree_node@U?$pair@$$CBKV?$vector@UtagPropertyBuff@@V?$allocator@UtagPropertyBuff@@@std@@@std@@@std@@PAX@1@ABUpiecewise_construct_t@1@$$QAV?$tuple@ABK@1@$$QAV?$tuple@$$V@1@@Z ; std::_Tree_comp_alloc<std::_Tmap_traits<unsigned long,std::vector<tagPropertyBuff,std::allocator<tagPropertyBuff> >,std::less<unsigned long>,std::allocator<std::pair<unsigned long const ,std::vector<tagPropertyBuff,std::allocator<tagPropertyBuff> > > >,0> >::_Buynode<std::piecewise_construct_t const &,std::tuple<unsigned long const &>,std::tuple<> >
PUBLIC	??$_Insert_hint@AAU?$pair@$$CBKV?$vector@UtagPropertyBuff@@V?$allocator@UtagPropertyBuff@@@std@@@std@@@std@@PAU?$_Tree_node@U?$pair@$$CBKV?$vector@UtagPropertyBuff@@V?$allocator@UtagPropertyBuff@@@std@@@std@@@std@@PAX@2@@?$_Tree@V?$_Tmap_traits@KV?$vector@UtagPropertyBuff@@V?$allocator@UtagPropertyBuff@@@std@@@std@@U?$less@K@2@V?$allocator@U?$pair@$$CBKV?$vector@UtagPropertyBuff@@V?$allocator@UtagPropertyBuff@@@std@@@std@@@std@@@2@$0A@@std@@@std@@IAE?AV?$_Tree_iterator@V?$_Tree_val@U?$_Tree_simple_types@U?$pair@$$CBKV?$vector@UtagPropertyBuff@@V?$allocator@UtagPropertyBuff@@@std@@@std@@@std@@@std@@@std@@@1@V?$_Tree_const_iterator@V?$_Tree_val@U?$_Tree_simple_types@U?$pair@$$CBKV?$vector@UtagPropertyBuff@@V?$allocator@UtagPropertyBuff@@@std@@@std@@@std@@@std@@@std@@@1@AAU?$pair@$$CBKV?$vector@UtagPropertyBuff@@V?$allocator@UtagPropertyBuff@@@std@@@std@@@1@PAU?$_Tree_node@U?$pair@$$CBKV?$vector@UtagPropertyBuff@@V?$allocator@UtagPropertyBuff@@@std@@@std@@@std@@PAX@1@@Z ; std::_Tree<std::_Tmap_traits<unsigned long,std::vector<tagPropertyBuff,std::allocator<tagPropertyBuff> >,std::less<unsigned long>,std::allocator<std::pair<unsigned long const ,std::vector<tagPropertyBuff,std::allocator<tagPropertyBuff> > > >,0> >::_Insert_hint<std::pair<unsigned long const ,std::vector<tagPropertyBuff,std::allocator<tagPropertyBuff> > > &,std::_Tree_node<std::pair<unsigned long const ,std::vector<tagPropertyBuff,std::allocator<tagPropertyBuff> > >,void *> *>
PUBLIC	??$forward@V?$_Tree_iterator@V?$_Tree_val@U?$_Tree_simple_types@U?$pair@$$CBKV?$vector@UtagPropertyBuff@@V?$allocator@UtagPropertyBuff@@@std@@@std@@@std@@@std@@@std@@@std@@@std@@YA$$QAV?$_Tree_iterator@V?$_Tree_val@U?$_Tree_simple_types@U?$pair@$$CBKV?$vector@UtagPropertyBuff@@V?$allocator@UtagPropertyBuff@@@std@@@std@@@std@@@std@@@std@@@0@AAV10@@Z ; std::forward<std::_Tree_iterator<std::_Tree_val<std::_Tree_simple_types<std::pair<unsigned long const ,std::vector<tagPropertyBuff,std::allocator<tagPropertyBuff> > > > > > >
PUBLIC	??$forward@_N@std@@YA$$QA_NAA_N@Z		; std::forward<bool>
PUBLIC	??$forward@AAV?$_Tree_iterator@V?$_Tree_val@U?$_Tree_simple_types@U?$pair@$$CBKV?$vector@UtagPropertyBuff@@V?$allocator@UtagPropertyBuff@@@std@@@std@@@std@@@std@@@std@@@std@@@std@@YAAAV?$_Tree_iterator@V?$_Tree_val@U?$_Tree_simple_types@U?$pair@$$CBKV?$vector@UtagPropertyBuff@@V?$allocator@UtagPropertyBuff@@@std@@@std@@@std@@@std@@@std@@@0@AAV10@@Z ; std::forward<std::_Tree_iterator<std::_Tree_val<std::_Tree_simple_types<std::pair<unsigned long const ,std::vector<tagPropertyBuff,std::allocator<tagPropertyBuff> > > > > > &>
PUBLIC	??$_Copy_memmove@PAUtagPropertyBuff@@PAU1@@std@@YAPAUtagPropertyBuff@@PAU1@00@Z ; std::_Copy_memmove<tagPropertyBuff *,tagPropertyBuff *>
PUBLIC	??$_Debug_lt_pred@ABU?$less@K@std@@ABKABK@std@@YA_NABU?$less@K@0@ABK1@Z ; std::_Debug_lt_pred<std::less<unsigned long> const &,unsigned long const &,unsigned long const &>
PUBLIC	??$?0U_Exact_args_t@std@@ABK$$V$0A@@?$tuple@ABK@std@@QAE@U_Exact_args_t@1@ABK@Z ; std::tuple<unsigned long const &>::tuple<unsigned long const &><std::_Exact_args_t,unsigned long const &,0>
PUBLIC	??$construct@U?$pair@$$CBKV?$vector@UtagPropertyBuff@@V?$allocator@UtagPropertyBuff@@@std@@@std@@@std@@ABUpiecewise_construct_t@2@V?$tuple@ABK@2@V?$tuple@$$V@2@@?$_Default_allocator_traits@V?$allocator@U?$_Tree_node@U?$pair@$$CBKV?$vector@UtagPropertyBuff@@V?$allocator@UtagPropertyBuff@@@std@@@std@@@std@@PAX@std@@@std@@@std@@SAXAAV?$allocator@U?$_Tree_node@U?$pair@$$CBKV?$vector@UtagPropertyBuff@@V?$allocator@UtagPropertyBuff@@@std@@@std@@@std@@PAX@std@@@1@QAU?$pair@$$CBKV?$vector@UtagPropertyBuff@@V?$allocator@UtagPropertyBuff@@@std@@@std@@@1@ABUpiecewise_construct_t@1@$$QAV?$tuple@ABK@1@$$QAV?$tuple@$$V@1@@Z ; std::_Default_allocator_traits<std::allocator<std::_Tree_node<std::pair<unsigned long const ,std::vector<tagPropertyBuff,std::allocator<tagPropertyBuff> > >,void *> > >::construct<std::pair<unsigned long const ,std::vector<tagPropertyBuff,std::allocator<tagPropertyBuff> > >,std::piecewise_construct_t const &,std::tuple<unsigned long const &>,std::tuple<> >
PUBLIC	??$forward@AAU?$pair@$$CBKV?$vector@UtagPropertyBuff@@V?$allocator@UtagPropertyBuff@@@std@@@std@@@std@@@std@@YAAAU?$pair@$$CBKV?$vector@UtagPropertyBuff@@V?$allocator@UtagPropertyBuff@@@std@@@std@@@0@AAU10@@Z ; std::forward<std::pair<unsigned long const ,std::vector<tagPropertyBuff,std::allocator<tagPropertyBuff> > > &>
PUBLIC	??$_Insert_at@AAU?$pair@$$CBKV?$vector@UtagPropertyBuff@@V?$allocator@UtagPropertyBuff@@@std@@@std@@@std@@PAU?$_Tree_node@U?$pair@$$CBKV?$vector@UtagPropertyBuff@@V?$allocator@UtagPropertyBuff@@@std@@@std@@@std@@PAX@2@@?$_Tree@V?$_Tmap_traits@KV?$vector@UtagPropertyBuff@@V?$allocator@UtagPropertyBuff@@@std@@@std@@U?$less@K@2@V?$allocator@U?$pair@$$CBKV?$vector@UtagPropertyBuff@@V?$allocator@UtagPropertyBuff@@@std@@@std@@@std@@@2@$0A@@std@@@std@@IAE?AV?$_Tree_iterator@V?$_Tree_val@U?$_Tree_simple_types@U?$pair@$$CBKV?$vector@UtagPropertyBuff@@V?$allocator@UtagPropertyBuff@@@std@@@std@@@std@@@std@@@std@@@1@_NPAU?$_Tree_node@U?$pair@$$CBKV?$vector@UtagPropertyBuff@@V?$allocator@UtagPropertyBuff@@@std@@@std@@@std@@PAX@1@AAU?$pair@$$CBKV?$vector@UtagPropertyBuff@@V?$allocator@UtagPropertyBuff@@@std@@@std@@@1@1@Z ; std::_Tree<std::_Tmap_traits<unsigned long,std::vector<tagPropertyBuff,std::allocator<tagPropertyBuff> >,std::less<unsigned long>,std::allocator<std::pair<unsigned long const ,std::vector<tagPropertyBuff,std::allocator<tagPropertyBuff> > > >,0> >::_Insert_at<std::pair<unsigned long const ,std::vector<tagPropertyBuff,std::allocator<tagPropertyBuff> > > &,std::_Tree_node<std::pair<unsigned long const ,std::vector<tagPropertyBuff,std::allocator<tagPropertyBuff> > >,void *> *>
PUBLIC	??$_Insert_nohint@AAU?$pair@$$CBKV?$vector@UtagPropertyBuff@@V?$allocator@UtagPropertyBuff@@@std@@@std@@@std@@PAU?$_Tree_node@U?$pair@$$CBKV?$vector@UtagPropertyBuff@@V?$allocator@UtagPropertyBuff@@@std@@@std@@@std@@PAX@2@@?$_Tree@V?$_Tmap_traits@KV?$vector@UtagPropertyBuff@@V?$allocator@UtagPropertyBuff@@@std@@@std@@U?$less@K@2@V?$allocator@U?$pair@$$CBKV?$vector@UtagPropertyBuff@@V?$allocator@UtagPropertyBuff@@@std@@@std@@@std@@@2@$0A@@std@@@std@@IAE?AU?$pair@V?$_Tree_iterator@V?$_Tree_val@U?$_Tree_simple_types@U?$pair@$$CBKV?$vector@UtagPropertyBuff@@V?$allocator@UtagPropertyBuff@@@std@@@std@@@std@@@std@@@std@@@std@@_N@1@_NAAU?$pair@$$CBKV?$vector@UtagPropertyBuff@@V?$allocator@UtagPropertyBuff@@@std@@@std@@@1@PAU?$_Tree_node@U?$pair@$$CBKV?$vector@UtagPropertyBuff@@V?$allocator@UtagPropertyBuff@@@std@@@std@@@std@@PAX@1@@Z ; std::_Tree<std::_Tmap_traits<unsigned long,std::vector<tagPropertyBuff,std::allocator<tagPropertyBuff> >,std::less<unsigned long>,std::allocator<std::pair<unsigned long const ,std::vector<tagPropertyBuff,std::allocator<tagPropertyBuff> > > >,0> >::_Insert_nohint<std::pair<unsigned long const ,std::vector<tagPropertyBuff,std::allocator<tagPropertyBuff> > > &,std::_Tree_node<std::pair<unsigned long const ,std::vector<tagPropertyBuff,std::allocator<tagPropertyBuff> > >,void *> *>
PUBLIC	??$?0U_Exact_args_t@std@@$0A@@?$tuple@$$V@std@@QAE@U_Exact_args_t@1@@Z ; std::tuple<>::tuple<><std::_Exact_args_t,0>
PUBLIC	??$?0ABK@?$_Tuple_val@ABK@std@@QAE@ABK@Z	; std::_Tuple_val<unsigned long const &>::_Tuple_val<unsigned long const &><unsigned long const &>
PUBLIC	??$?0ABK$$Z$$V@?$pair@$$CBKV?$vector@UtagPropertyBuff@@V?$allocator@UtagPropertyBuff@@@std@@@std@@@std@@QAE@Upiecewise_construct_t@1@V?$tuple@ABK@1@V?$tuple@$$V@1@@Z ; std::pair<unsigned long const ,std::vector<tagPropertyBuff,std::allocator<tagPropertyBuff> > >::pair<unsigned long const ,std::vector<tagPropertyBuff,std::allocator<tagPropertyBuff> > ><unsigned long const &>
PUBLIC	??$_Buy_if_not_node@AAU?$pair@$$CBKV?$vector@UtagPropertyBuff@@V?$allocator@UtagPropertyBuff@@@std@@@std@@@std@@@?$_Tree@V?$_Tmap_traits@KV?$vector@UtagPropertyBuff@@V?$allocator@UtagPropertyBuff@@@std@@@std@@U?$less@K@2@V?$allocator@U?$pair@$$CBKV?$vector@UtagPropertyBuff@@V?$allocator@UtagPropertyBuff@@@std@@@std@@@std@@@2@$0A@@std@@@std@@IAEPAU?$_Tree_node@U?$pair@$$CBKV?$vector@UtagPropertyBuff@@V?$allocator@UtagPropertyBuff@@@std@@@std@@@std@@PAX@1@PAU21@AAU?$pair@$$CBKV?$vector@UtagPropertyBuff@@V?$allocator@UtagPropertyBuff@@@std@@@std@@@1@@Z ; std::_Tree<std::_Tmap_traits<unsigned long,std::vector<tagPropertyBuff,std::allocator<tagPropertyBuff> >,std::less<unsigned long>,std::allocator<std::pair<unsigned long const ,std::vector<tagPropertyBuff,std::allocator<tagPropertyBuff> > > >,0> >::_Buy_if_not_node<std::pair<unsigned long const ,std::vector<tagPropertyBuff,std::allocator<tagPropertyBuff> > > &>
PUBLIC	??$?0V?$tuple@ABK@std@@V?$tuple@$$V@1@$0A@$$Z$S@?$pair@$$CBKV?$vector@UtagPropertyBuff@@V?$allocator@UtagPropertyBuff@@@std@@@std@@@std@@QAE@AAV?$tuple@ABK@1@AAV?$tuple@$$V@1@U?$integer_sequence@I$0A@@1@U?$integer_sequence@I$S@1@@Z ; std::pair<unsigned long const ,std::vector<tagPropertyBuff,std::allocator<tagPropertyBuff> > >::pair<unsigned long const ,std::vector<tagPropertyBuff,std::allocator<tagPropertyBuff> > ><std::tuple<unsigned long const &>,std::tuple<>,0>
PUBLIC	??$move@AAV?$tuple@ABK@std@@@std@@YA$$QAV?$tuple@ABK@0@AAV10@@Z ; std::move<std::tuple<unsigned long const &> &>
PUBLIC	??$get@$0A@ABK@std@@YAABK$$QAV?$tuple@ABK@0@@Z	; std::get<0,unsigned long const &>
PUBLIC	??$?0$$V@?$_Compressed_pair@V?$allocator@UtagPropertyBuff@@@std@@V?$_Vector_val@U?$_Simple_types@UtagPropertyBuff@@@std@@@2@$00@std@@QAE@U_Zero_then_variadic_args_t@1@@Z ; std::_Compressed_pair<std::allocator<tagPropertyBuff>,std::_Vector_val<std::_Simple_types<tagPropertyBuff> >,1>::_Compressed_pair<std::allocator<tagPropertyBuff>,std::_Vector_val<std::_Simple_types<tagPropertyBuff> >,1><>
PUBLIC	??_C@_0BB@FCMFBGOM@invalid?5argument@		; `string'
PUBLIC	??_C@_02DKCKIIND@?$CFs@				; `string'
PUBLIC	??_C@_1CG@JNLFBNGN@?$AA?$CC?$AAi?$AAn?$AAv?$AAa?$AAl?$AAi?$AAd?$AA?5?$AAa?$AAr?$AAg?$AAu?$AAm?$AAe@ ; `string'
PUBLIC	??_C@_0BJ@LFDBABJJ@ITERATOR?5LIST?5CORRUPTED?$CB@ ; `string'
PUBLIC	??_C@_0GJ@EJIMBHLG@c?3?2program?5files?5?$CIx86?$CJ?2microsof@ ; `string'
PUBLIC	??_C@_1NC@FANNPLN@?$AAc?$AA?3?$AA?2?$AAp?$AAr?$AAo?$AAg?$AAr?$AAa?$AAm?$AA?5?$AAf?$AAi?$AAl?$AAe@ ; `string'
PUBLIC	??_C@_1EE@KLDMFDFL@?$AAs?$AAt?$AAd?$AA?3?$AA?3?$AA_?$AAI?$AAt?$AAe?$AAr?$AAa?$AAt?$AAo?$AAr?$AA_@ ; `string'
PUBLIC	??_C@_1DG@PLBPCAEM@?$AA?$CC?$AAI?$AAT?$AAE?$AAR?$AAA?$AAT?$AAO?$AAR?$AA?5?$AAL?$AAI?$AAS?$AAT?$AA?5@ ; `string'
PUBLIC	?__LINE__Var@?0??_Adjust_manually_vector_aligned@std@@YAXAAPAXAAI@Z@4JA ; `std::_Adjust_manually_vector_aligned'::`1'::__LINE__Var
PUBLIC	??_C@_0GJ@FFDBCFBF@c?3?2program?5files?5?$CIx86?$CJ?2microsof@ ; `string'
PUBLIC	??_C@_1NC@PIOGAKBO@?$AAc?$AA?3?$AA?2?$AAp?$AAr?$AAo?$AAg?$AAr?$AAa?$AAm?$AA?5?$AAf?$AAi?$AAl?$AAe@ ; `string'
PUBLIC	??_C@_1EK@NIFDJFDG@?$AAs?$AAt?$AAd?$AA?3?$AA?3?$AA_?$AAA?$AAd?$AAj?$AAu?$AAs?$AAt?$AA_?$AAm?$AAa@ ; `string'
PUBLIC	??_C@_0GI@LKBGDILM@c?3?2program?5files?5?$CIx86?$CJ?2microsof@ ; `string'
PUBLIC	?__LINE__Var@?0??_Maklocwcs@std@@YAPA_WPB_W@Z@4JA ; `std::_Maklocwcs'::`1'::__LINE__Var
PUBLIC	??_C@_0GI@DJFLDKBN@c?3?2program?5files?5?$CIx86?$CJ?2microsof@ ; `string'
PUBLIC	??_7?$CWHArray@UtagPropertyInfo@@ABU1@@@6B@	; CWHArray<tagPropertyInfo,tagPropertyInfo const &>::`vftable'
PUBLIC	?m_PropertyBuffMap@CGamePropertyManager@@1V?$map@KV?$vector@UtagPropertyBuff@@V?$allocator@UtagPropertyBuff@@@std@@@std@@U?$less@K@2@V?$allocator@U?$pair@$$CBKV?$vector@UtagPropertyBuff@@V?$allocator@UtagPropertyBuff@@@std@@@std@@@std@@@2@@std@@A ; CGamePropertyManager::m_PropertyBuffMap
PUBLIC	??_7CGamePropertyManager@@6B@			; CGamePropertyManager::`vftable'
PUBLIC	??_C@_0BO@PFKOHNJC@vector?5subscript?5out?5of?5range@ ; `string'
PUBLIC	??_C@_0GH@FKAHJGEE@c?3?2program?5files?5?$CIx86?$CJ?2microsof@ ; `string'
PUBLIC	??_C@_1MO@OJBMIJHH@?$AAc?$AA?3?$AA?2?$AAp?$AAr?$AAo?$AAg?$AAr?$AAa?$AAm?$AA?5?$AAf?$AAi?$AAl?$AAe@ ; `string'
PUBLIC	??_C@_1LO@IAGBENIJ@?$AAs?$AAt?$AAd?$AA?3?$AA?3?$AAv?$AAe?$AAc?$AAt?$AAo?$AAr?$AA?$DM?$AAs?$AAt?$AAr@ ; `string'
PUBLIC	??_C@_1EA@LEKOKFNB@?$AA?$CC?$AAv?$AAe?$AAc?$AAt?$AAo?$AAr?$AA?5?$AAs?$AAu?$AAb?$AAs?$AAc?$AAr?$AAi@ ; `string'
PUBLIC	??_C@_0N@LPFKKEBD@?3AM?3am?3PM?3pm@		; `string'
PUBLIC	??_C@_0BD@OLBABOEK@vector?$DMT?$DO?5too?5long@	; `string'
PUBLIC	??_C@_0BP@OLDKBHLM@map?1set?5iterators?5incompatible@ ; `string'
PUBLIC	??_C@_0GG@NEGGIBJL@c?3?2program?5files?5?$CIx86?$CJ?2microsof@ ; `string'
PUBLIC	??_C@_1MM@GNDNJPBP@?$AAc?$AA?3?$AA?2?$AAp?$AAr?$AAo?$AAg?$AAr?$AAa?$AAm?$AA?5?$AAf?$AAi?$AAl?$AAe@ ; `string'
PUBLIC	??_C@_1BMC@CJDBOPPP@?$AAs?$AAt?$AAd?$AA?3?$AA?3?$AA_?$AAT?$AAr?$AAe?$AAe?$AA_?$AAc?$AAo?$AAn?$AAs@ ; `string'
PUBLIC	??_C@_1EC@JLIDLCDH@?$AA?$CC?$AAm?$AAa?$AAp?$AA?1?$AAs?$AAe?$AAt?$AA?5?$AAi?$AAt?$AAe?$AAr?$AAa?$AAt@ ; `string'
PUBLIC	??_C@_0DG@LCFNIIPB@cannot?5dereference?5value?9initia@ ; `string'
PUBLIC	??_C@_1BMA@DJJFGNNP@?$AAs?$AAt?$AAd?$AA?3?$AA?3?$AA_?$AAT?$AAr?$AAe?$AAe?$AA_?$AAc?$AAo?$AAn?$AAs@ ; `string'
PUBLIC	??_C@_1HA@ILGCNILF@?$AA?$CC?$AAc?$AAa?$AAn?$AAn?$AAo?$AAt?$AA?5?$AAd?$AAe?$AAr?$AAe?$AAf?$AAe?$AAr@ ; `string'
PUBLIC	??_C@_0CI@OKFEHCEB@cannot?5dereference?5end?5map?1set?5@ ; `string'
PUBLIC	??_C@_1FE@NKHAAGMB@?$AA?$CC?$AAc?$AAa?$AAn?$AAn?$AAo?$AAt?$AA?5?$AAd?$AAe?$AAr?$AAe?$AAf?$AAe?$AAr@ ; `string'
PUBLIC	??_C@_0CF@JILFNJOL@map?1set?5erase?5iterator?5outside?5@ ; `string'
PUBLIC	??_C@_1CJI@GONIBODA@?$AAs?$AAt?$AAd?$AA?3?$AA?3?$AA_?$AAT?$AAr?$AAe?$AAe?$AA?$DM?$AAc?$AAl?$AAa?$AAs@ ; `string'
PUBLIC	??_C@_1EO@CEDAEPC@?$AA?$CC?$AAm?$AAa?$AAp?$AA?1?$AAs?$AAe?$AAt?$AA?5?$AAe?$AAr?$AAa?$AAs?$AAe?$AA?5@ ; `string'
PUBLIC	??_C@_0DE@DMNPKCGM@cannot?5increment?5value?9initiali@ ; `string'
PUBLIC	??_C@_1BMC@IJMMAGDK@?$AAs?$AAt?$AAd?$AA?3?$AA?3?$AA_?$AAT?$AAr?$AAe?$AAe?$AA_?$AAc?$AAo?$AAn?$AAs@ ; `string'
PUBLIC	??_C@_1GM@BJMCGEGI@?$AA?$CC?$AAc?$AAa?$AAn?$AAn?$AAo?$AAt?$AA?5?$AAi?$AAn?$AAc?$AAr?$AAe?$AAm?$AAe@ ; `string'
PUBLIC	??_C@_0CG@NLEHEOHN@cannot?5increment?5end?5map?1set?5it@ ; `string'
PUBLIC	??_C@_1FA@KLFCDGNE@?$AA?$CC?$AAc?$AAa?$AAn?$AAn?$AAo?$AAt?$AA?5?$AAi?$AAn?$AAc?$AAr?$AAe?$AAm?$AAe@ ; `string'
PUBLIC	??_C@_1BHI@FOOCHJIO@?$AAs?$AAt?$AAd?$AA?3?$AA?3?$AA_?$AAT?$AAr?$AAe?$AAe?$AA_?$AAv?$AAa?$AAl?$AA?$DM@ ; `string'
PUBLIC	??_C@_1BK@MHIKGOKE@?$AA?3?$AAA?$AAM?$AA?3?$AAa?$AAm?$AA?3?$AAP?$AAM?$AA?3?$AAp?$AAm@ ; `string'
PUBLIC	??_C@_0DF@LDFGAABH@g?3?2?M?x?$LK?$PM?2happygamewh?2?$LH?$PO?N?q?$LG?K?2?O?$LF?M?$LD@ ; `string'
PUBLIC	??_C@_1EO@GFNCMDLA@?$AAs?$AAt?$AAd?$AA?3?$AA?3?$AA_?$AAA?$AAl?$AAl?$AAo?$AAc?$AAa?$AAt?$AAe?$AA_@ ; `string'
PUBLIC	??_C@_0BD@FEEMDEPI@invalid?5comparator@		; `string'
PUBLIC	??_C@_1CI@JONCLBEJ@?$AAs?$AAt?$AAd?$AA?3?$AA?3?$AA_?$AAD?$AAe?$AAb?$AAu?$AAg?$AA_?$AAl?$AAt?$AA_@ ; `string'
PUBLIC	??_C@_1CK@NDNHPKPI@?$AA?$CC?$AAi?$AAn?$AAv?$AAa?$AAl?$AAi?$AAd?$AA?5?$AAc?$AAo?$AAm?$AAp?$AAa?$AAr@ ; `string'
PUBLIC	??_C@_0CG@MOLIBF@map?1set?5insert?5iterator?5outside@ ; `string'
PUBLIC	??_C@_1CKG@DBCIFINF@?$AAs?$AAt?$AAd?$AA?3?$AA?3?$AA_?$AAT?$AAr?$AAe?$AAe?$AA?$DM?$AAc?$AAl?$AAa?$AAs@ ; `string'
PUBLIC	??_C@_1FA@HNFOKDLB@?$AA?$CC?$AAm?$AAa?$AAp?$AA?1?$AAs?$AAe?$AAt?$AA?5?$AAi?$AAn?$AAs?$AAe?$AAr?$AAt@ ; `string'
PUBLIC	??_C@_0DE@JECMPNID@cannot?5decrement?5value?9initiali@ ; `string'
PUBLIC	??_C@_1BMC@HKPOLKPL@?$AAs?$AAt?$AAd?$AA?3?$AA?3?$AA_?$AAT?$AAr?$AAe?$AAe?$AA_?$AAc?$AAo?$AAn?$AAs@ ; `string'
PUBLIC	??_C@_1GM@ECOECPCJ@?$AA?$CC?$AAc?$AAa?$AAn?$AAn?$AAo?$AAt?$AA?5?$AAd?$AAe?$AAc?$AAr?$AAe?$AAm?$AAe@ ; `string'
PUBLIC	??_C@_0CI@FJCIBNID@cannot?5decrement?5begin?5map?1set?5@ ; `string'
PUBLIC	??_C@_1FE@HAEBNAIH@?$AA?$CC?$AAc?$AAa?$AAn?$AAn?$AAo?$AAt?$AA?5?$AAd?$AAe?$AAc?$AAr?$AAe?$AAm?$AAe@ ; `string'
PUBLIC	??_C@_0BE@JONHPENG@map?1set?$DMT?$DO?5too?5long@ ; `string'
PUBLIC	??_R4?$CWHArray@UtagPropertyInfo@@ABU1@@@6B@	; CWHArray<tagPropertyInfo,tagPropertyInfo const &>::`RTTI Complete Object Locator'
PUBLIC	??_R0?AV?$CWHArray@UtagPropertyInfo@@ABU1@@@@8	; CWHArray<tagPropertyInfo,tagPropertyInfo const &> `RTTI Type Descriptor'
PUBLIC	??_R3?$CWHArray@UtagPropertyInfo@@ABU1@@@8	; CWHArray<tagPropertyInfo,tagPropertyInfo const &>::`RTTI Class Hierarchy Descriptor'
PUBLIC	??_R2?$CWHArray@UtagPropertyInfo@@ABU1@@@8	; CWHArray<tagPropertyInfo,tagPropertyInfo const &>::`RTTI Base Class Array'
PUBLIC	??_R1A@?0A@EA@?$CWHArray@UtagPropertyInfo@@ABU1@@@8 ; CWHArray<tagPropertyInfo,tagPropertyInfo const &>::`RTTI Base Class Descriptor at (0,-1,0,64)'
PUBLIC	??_R4CGamePropertyManager@@6B@			; CGamePropertyManager::`RTTI Complete Object Locator'
PUBLIC	??_R0?AVCGamePropertyManager@@@8		; CGamePropertyManager `RTTI Type Descriptor'
PUBLIC	??_R3CGamePropertyManager@@8			; CGamePropertyManager::`RTTI Class Hierarchy Descriptor'
PUBLIC	??_R2CGamePropertyManager@@8			; CGamePropertyManager::`RTTI Base Class Array'
PUBLIC	??_R1A@?0A@EA@CGamePropertyManager@@8		; CGamePropertyManager::`RTTI Base Class Descriptor at (0,-1,0,64)'
EXTRN	??_M@YGXPAXIIP6EX0@Z@Z:PROC			; `eh vector destructor iterator'
EXTRN	??2@YAPAXI@Z:PROC				; operator new
EXTRN	??3@YAXPAXI@Z:PROC				; operator delete
EXTRN	??_U@YAPAXI@Z:PROC				; operator new[]
EXTRN	??_V@YAXPAX@Z:PROC				; operator delete[]
EXTRN	??_V@YAXPAXI@Z:PROC				; operator delete[]
EXTRN	_atexit:PROC
EXTRN	__imp___invalid_parameter:PROC
EXTRN	_memcpy:PROC
EXTRN	_memmove:PROC
EXTRN	_memset:PROC
EXTRN	__imp__wcslen:PROC
EXTRN	_strlen:PROC
EXTRN	__imp__PeekMessageA@20:PROC
EXTRN	__imp__PostQuitMessage@4:PROC
EXTRN	__imp___time64:PROC
EXTRN	__imp___calloc_dbg:PROC
EXTRN	__imp___CrtDbgReport:PROC
EXTRN	?AfxThrowInvalidArgException@@YGXXZ:PROC	; AfxThrowInvalidArgException
EXTRN	__imp_??0_Lockit@std@@QAE@H@Z:PROC
EXTRN	__imp_??1_Lockit@std@@QAE@XZ:PROC
EXTRN	?_Xbad_alloc@std@@YAXXZ:PROC			; std::_Xbad_alloc
EXTRN	?_Xlength_error@std@@YAXPBD@Z:PROC		; std::_Xlength_error
EXTRN	__Mbrtowc:PROC
EXTRN	__imp_?_Getcvt@_Locinfo@std@@QBE?AU_Cvtvec@@XZ:PROC
EXTRN	__imp_?_Getdays@_Locinfo@std@@QBEPBDXZ:PROC
EXTRN	__imp_?_Getmonths@_Locinfo@std@@QBEPBDXZ:PROC
EXTRN	__imp_?_W_Getdays@_Locinfo@std@@QBEPBGXZ:PROC
EXTRN	__imp_?_W_Getmonths@_Locinfo@std@@QBEPBGXZ:PROC
EXTRN	??_E?$CWHArray@UtagPropertyInfo@@ABU1@@@UAEPAXI@Z:PROC ; CWHArray<tagPropertyInfo,tagPropertyInfo const &>::`vector deleting destructor'
EXTRN	@__security_check_cookie@4:PROC
EXTRN	__CxxThrowException@8:PROC
EXTRN	___CxxFrameHandler3:PROC
EXTRN	??_7type_info@@6B@:QWORD			; type_info::`vftable'
EXTRN	___security_cookie:DWORD
_BSS	SEGMENT
?m_PropertyBuffMap@CGamePropertyManager@@1V?$map@KV?$vector@UtagPropertyBuff@@V?$allocator@UtagPropertyBuff@@@std@@@std@@U?$less@K@2@V?$allocator@U?$pair@$$CBKV?$vector@UtagPropertyBuff@@V?$allocator@UtagPropertyBuff@@@std@@@std@@@std@@@2@@std@@A DB 0cH DUP (?) ; CGamePropertyManager::m_PropertyBuffMap
_BSS	ENDS
CRT$XCU	SEGMENT
??m_PropertyBuffMap$initializer$@CGamePropertyManager@@1P6AXXZA@@3P6AXXZA DD FLAT:??__E?m_PropertyBuffMap@CGamePropertyManager@@1V?$map@KV?$vector@UtagPropertyBuff@@V?$allocator@UtagPropertyBuff@@@std@@@std@@U?$less@K@2@V?$allocator@U?$pair@$$CBKV?$vector@UtagPropertyBuff@@V?$allocator@UtagPropertyBuff@@@std@@@std@@@std@@@2@@std@@A@@YAXXZ ; ??m_PropertyBuffMap$initializer$@CGamePropertyManager@@1P6AXXZA@@3P6AXXZA
CRT$XCU	ENDS
;	COMDAT ??_R1A@?0A@EA@CGamePropertyManager@@8
rdata$r	SEGMENT
??_R1A@?0A@EA@CGamePropertyManager@@8 DD FLAT:??_R0?AVCGamePropertyManager@@@8 ; CGamePropertyManager::`RTTI Base Class Descriptor at (0,-1,0,64)'
	DD	00H
	DD	00H
	DD	0ffffffffH
	DD	00H
	DD	040H
	DD	FLAT:??_R3CGamePropertyManager@@8
rdata$r	ENDS
;	COMDAT ??_R2CGamePropertyManager@@8
rdata$r	SEGMENT
??_R2CGamePropertyManager@@8 DD FLAT:??_R1A@?0A@EA@CGamePropertyManager@@8 ; CGamePropertyManager::`RTTI Base Class Array'
rdata$r	ENDS
;	COMDAT ??_R3CGamePropertyManager@@8
rdata$r	SEGMENT
??_R3CGamePropertyManager@@8 DD 00H			; CGamePropertyManager::`RTTI Class Hierarchy Descriptor'
	DD	00H
	DD	01H
	DD	FLAT:??_R2CGamePropertyManager@@8
rdata$r	ENDS
;	COMDAT ??_R0?AVCGamePropertyManager@@@8
data$r	SEGMENT
??_R0?AVCGamePropertyManager@@@8 DD FLAT:??_7type_info@@6B@ ; CGamePropertyManager `RTTI Type Descriptor'
	DD	00H
	DB	'.?AVCGamePropertyManager@@', 00H
data$r	ENDS
;	COMDAT ??_R4CGamePropertyManager@@6B@
rdata$r	SEGMENT
??_R4CGamePropertyManager@@6B@ DD 00H			; CGamePropertyManager::`RTTI Complete Object Locator'
	DD	00H
	DD	00H
	DD	FLAT:??_R0?AVCGamePropertyManager@@@8
	DD	FLAT:??_R3CGamePropertyManager@@8
rdata$r	ENDS
;	COMDAT ??_R1A@?0A@EA@?$CWHArray@UtagPropertyInfo@@ABU1@@@8
rdata$r	SEGMENT
??_R1A@?0A@EA@?$CWHArray@UtagPropertyInfo@@ABU1@@@8 DD FLAT:??_R0?AV?$CWHArray@UtagPropertyInfo@@ABU1@@@@8 ; CWHArray<tagPropertyInfo,tagPropertyInfo const &>::`RTTI Base Class Descriptor at (0,-1,0,64)'
	DD	00H
	DD	00H
	DD	0ffffffffH
	DD	00H
	DD	040H
	DD	FLAT:??_R3?$CWHArray@UtagPropertyInfo@@ABU1@@@8
rdata$r	ENDS
;	COMDAT ??_R2?$CWHArray@UtagPropertyInfo@@ABU1@@@8
rdata$r	SEGMENT
??_R2?$CWHArray@UtagPropertyInfo@@ABU1@@@8 DD FLAT:??_R1A@?0A@EA@?$CWHArray@UtagPropertyInfo@@ABU1@@@8 ; CWHArray<tagPropertyInfo,tagPropertyInfo const &>::`RTTI Base Class Array'
rdata$r	ENDS
;	COMDAT ??_R3?$CWHArray@UtagPropertyInfo@@ABU1@@@8
rdata$r	SEGMENT
??_R3?$CWHArray@UtagPropertyInfo@@ABU1@@@8 DD 00H	; CWHArray<tagPropertyInfo,tagPropertyInfo const &>::`RTTI Class Hierarchy Descriptor'
	DD	00H
	DD	01H
	DD	FLAT:??_R2?$CWHArray@UtagPropertyInfo@@ABU1@@@8
rdata$r	ENDS
;	COMDAT ??_R0?AV?$CWHArray@UtagPropertyInfo@@ABU1@@@@8
data$r	SEGMENT
??_R0?AV?$CWHArray@UtagPropertyInfo@@ABU1@@@@8 DD FLAT:??_7type_info@@6B@ ; CWHArray<tagPropertyInfo,tagPropertyInfo const &> `RTTI Type Descriptor'
	DD	00H
	DB	'.?AV?$CWHArray@UtagPropertyInfo@@ABU1@@@', 00H
data$r	ENDS
;	COMDAT ??_R4?$CWHArray@UtagPropertyInfo@@ABU1@@@6B@
rdata$r	SEGMENT
??_R4?$CWHArray@UtagPropertyInfo@@ABU1@@@6B@ DD 00H	; CWHArray<tagPropertyInfo,tagPropertyInfo const &>::`RTTI Complete Object Locator'
	DD	00H
	DD	00H
	DD	FLAT:??_R0?AV?$CWHArray@UtagPropertyInfo@@ABU1@@@@8
	DD	FLAT:??_R3?$CWHArray@UtagPropertyInfo@@ABU1@@@8
rdata$r	ENDS
;	COMDAT ??_C@_0BE@JONHPENG@map?1set?$DMT?$DO?5too?5long@
CONST	SEGMENT
??_C@_0BE@JONHPENG@map?1set?$DMT?$DO?5too?5long@ DB 'map/set<T> too long', 00H ; `string'
CONST	ENDS
;	COMDAT ??_C@_1FE@HAEBNAIH@?$AA?$CC?$AAc?$AAa?$AAn?$AAn?$AAo?$AAt?$AA?5?$AAd?$AAe?$AAc?$AAr?$AAe?$AAm?$AAe@
CONST	SEGMENT
??_C@_1FE@HAEBNAIH@?$AA?$CC?$AAc?$AAa?$AAn?$AAn?$AAo?$AAt?$AA?5?$AAd?$AAe?$AAc?$AAr?$AAe?$AAm?$AAe@ DB '"'
	DB	00H, 'c', 00H, 'a', 00H, 'n', 00H, 'n', 00H, 'o', 00H, 't', 00H
	DB	' ', 00H, 'd', 00H, 'e', 00H, 'c', 00H, 'r', 00H, 'e', 00H, 'm'
	DB	00H, 'e', 00H, 'n', 00H, 't', 00H, ' ', 00H, 'b', 00H, 'e', 00H
	DB	'g', 00H, 'i', 00H, 'n', 00H, ' ', 00H, 'm', 00H, 'a', 00H, 'p'
	DB	00H, '/', 00H, 's', 00H, 'e', 00H, 't', 00H, ' ', 00H, 'i', 00H
	DB	't', 00H, 'e', 00H, 'r', 00H, 'a', 00H, 't', 00H, 'o', 00H, 'r'
	DB	00H, '"', 00H, 00H, 00H			; `string'
CONST	ENDS
;	COMDAT ??_C@_0CI@FJCIBNID@cannot?5decrement?5begin?5map?1set?5@
CONST	SEGMENT
??_C@_0CI@FJCIBNID@cannot?5decrement?5begin?5map?1set?5@ DB 'cannot decre'
	DB	'ment begin map/set iterator', 00H		; `string'
CONST	ENDS
;	COMDAT ??_C@_1GM@ECOECPCJ@?$AA?$CC?$AAc?$AAa?$AAn?$AAn?$AAo?$AAt?$AA?5?$AAd?$AAe?$AAc?$AAr?$AAe?$AAm?$AAe@
CONST	SEGMENT
??_C@_1GM@ECOECPCJ@?$AA?$CC?$AAc?$AAa?$AAn?$AAn?$AAo?$AAt?$AA?5?$AAd?$AAe?$AAc?$AAr?$AAe?$AAm?$AAe@ DB '"'
	DB	00H, 'c', 00H, 'a', 00H, 'n', 00H, 'n', 00H, 'o', 00H, 't', 00H
	DB	' ', 00H, 'd', 00H, 'e', 00H, 'c', 00H, 'r', 00H, 'e', 00H, 'm'
	DB	00H, 'e', 00H, 'n', 00H, 't', 00H, ' ', 00H, 'v', 00H, 'a', 00H
	DB	'l', 00H, 'u', 00H, 'e', 00H, '-', 00H, 'i', 00H, 'n', 00H, 'i'
	DB	00H, 't', 00H, 'i', 00H, 'a', 00H, 'l', 00H, 'i', 00H, 'z', 00H
	DB	'e', 00H, 'd', 00H, ' ', 00H, 'm', 00H, 'a', 00H, 'p', 00H, '/'
	DB	00H, 's', 00H, 'e', 00H, 't', 00H, ' ', 00H, 'i', 00H, 't', 00H
	DB	'e', 00H, 'r', 00H, 'a', 00H, 't', 00H, 'o', 00H, 'r', 00H, '"'
	DB	00H, 00H, 00H				; `string'
CONST	ENDS
;	COMDAT ??_C@_1BMC@HKPOLKPL@?$AAs?$AAt?$AAd?$AA?3?$AA?3?$AA_?$AAT?$AAr?$AAe?$AAe?$AA_?$AAc?$AAo?$AAn?$AAs@
CONST	SEGMENT
??_C@_1BMC@HKPOLKPL@?$AAs?$AAt?$AAd?$AA?3?$AA?3?$AA_?$AAT?$AAr?$AAe?$AAe?$AA_?$AAc?$AAo?$AAn?$AAs@ DB 's'
	DB	00H, 't', 00H, 'd', 00H, ':', 00H, ':', 00H, '_', 00H, 'T', 00H
	DB	'r', 00H, 'e', 00H, 'e', 00H, '_', 00H, 'c', 00H, 'o', 00H, 'n'
	DB	00H, 's', 00H, 't', 00H, '_', 00H, 'i', 00H, 't', 00H, 'e', 00H
	DB	'r', 00H, 'a', 00H, 't', 00H, 'o', 00H, 'r', 00H, '<', 00H, 'c'
	DB	00H, 'l', 00H, 'a', 00H, 's', 00H, 's', 00H, ' ', 00H, 's', 00H
	DB	't', 00H, 'd', 00H, ':', 00H, ':', 00H, '_', 00H, 'T', 00H, 'r'
	DB	00H, 'e', 00H, 'e', 00H, '_', 00H, 'v', 00H, 'a', 00H, 'l', 00H
	DB	'<', 00H, 's', 00H, 't', 00H, 'r', 00H, 'u', 00H, 'c', 00H, 't'
	DB	00H, ' ', 00H, 's', 00H, 't', 00H, 'd', 00H, ':', 00H, ':', 00H
	DB	'_', 00H, 'T', 00H, 'r', 00H, 'e', 00H, 'e', 00H, '_', 00H, 's'
	DB	00H, 'i', 00H, 'm', 00H, 'p', 00H, 'l', 00H, 'e', 00H, '_', 00H
	DB	't', 00H, 'y', 00H, 'p', 00H, 'e', 00H, 's', 00H, '<', 00H, 's'
	DB	00H, 't', 00H, 'r', 00H, 'u', 00H, 'c', 00H, 't', 00H, ' ', 00H
	DB	's', 00H, 't', 00H, 'd', 00H, ':', 00H, ':', 00H, 'p', 00H, 'a'
	DB	00H, 'i', 00H, 'r', 00H, '<', 00H, 'u', 00H, 'n', 00H, 's', 00H
	DB	'i', 00H, 'g', 00H, 'n', 00H, 'e', 00H, 'd', 00H, ' ', 00H, 'l'
	DB	00H, 'o', 00H, 'n', 00H, 'g', 00H, ' ', 00H, 'c', 00H, 'o', 00H
	DB	'n', 00H, 's', 00H, 't', 00H, ' ', 00H, ',', 00H, 'c', 00H, 'l'
	DB	00H, 'a', 00H, 's', 00H, 's', 00H, ' ', 00H, 's', 00H, 't', 00H
	DB	'd', 00H, ':', 00H, ':', 00H, 'v', 00H, 'e', 00H, 'c', 00H, 't'
	DB	00H, 'o', 00H, 'r', 00H, '<', 00H, 's', 00H, 't', 00H, 'r', 00H
	DB	'u', 00H, 'c', 00H, 't', 00H, ' ', 00H, 't', 00H, 'a', 00H, 'g'
	DB	00H, 'P', 00H, 'r', 00H, 'o', 00H, 'p', 00H, 'e', 00H, 'r', 00H
	DB	't', 00H, 'y', 00H, 'B', 00H, 'u', 00H, 'f', 00H, 'f', 00H, ','
	DB	00H, 'c', 00H, 'l', 00H, 'a', 00H, 's', 00H, 's', 00H, ' ', 00H
	DB	's', 00H, 't', 00H, 'd', 00H, ':', 00H, ':', 00H, 'a', 00H, 'l'
	DB	00H, 'l', 00H, 'o', 00H, 'c', 00H, 'a', 00H, 't', 00H, 'o', 00H
	DB	'r', 00H, '<', 00H, 's', 00H, 't', 00H, 'r', 00H, 'u', 00H, 'c'
	DB	00H, 't', 00H, ' ', 00H, 't', 00H, 'a', 00H, 'g', 00H, 'P', 00H
	DB	'r', 00H, 'o', 00H, 'p', 00H, 'e', 00H, 'r', 00H, 't', 00H, 'y'
	DB	00H, 'B', 00H, 'u', 00H, 'f', 00H, 'f', 00H, '>', 00H, ' ', 00H
	DB	'>', 00H, ' ', 00H, '>', 00H, ' ', 00H, '>', 00H, ' ', 00H, '>'
	DB	00H, ' ', 00H, '>', 00H, ':', 00H, ':', 00H, 'o', 00H, 'p', 00H
	DB	'e', 00H, 'r', 00H, 'a', 00H, 't', 00H, 'o', 00H, 'r', 00H, ' '
	DB	00H, '-', 00H, '-', 00H, 00H, 00H		; `string'
CONST	ENDS
;	COMDAT ??_C@_0DE@JECMPNID@cannot?5decrement?5value?9initiali@
CONST	SEGMENT
??_C@_0DE@JECMPNID@cannot?5decrement?5value?9initiali@ DB 'cannot decreme'
	DB	'nt value-initialized map/set iterator', 00H	; `string'
CONST	ENDS
;	COMDAT ??_C@_1FA@HNFOKDLB@?$AA?$CC?$AAm?$AAa?$AAp?$AA?1?$AAs?$AAe?$AAt?$AA?5?$AAi?$AAn?$AAs?$AAe?$AAr?$AAt@
CONST	SEGMENT
??_C@_1FA@HNFOKDLB@?$AA?$CC?$AAm?$AAa?$AAp?$AA?1?$AAs?$AAe?$AAt?$AA?5?$AAi?$AAn?$AAs?$AAe?$AAr?$AAt@ DB '"'
	DB	00H, 'm', 00H, 'a', 00H, 'p', 00H, '/', 00H, 's', 00H, 'e', 00H
	DB	't', 00H, ' ', 00H, 'i', 00H, 'n', 00H, 's', 00H, 'e', 00H, 'r'
	DB	00H, 't', 00H, ' ', 00H, 'i', 00H, 't', 00H, 'e', 00H, 'r', 00H
	DB	'a', 00H, 't', 00H, 'o', 00H, 'r', 00H, ' ', 00H, 'o', 00H, 'u'
	DB	00H, 't', 00H, 's', 00H, 'i', 00H, 'd', 00H, 'e', 00H, ' ', 00H
	DB	'r', 00H, 'a', 00H, 'n', 00H, 'g', 00H, 'e', 00H, '"', 00H, 00H
	DB	00H						; `string'
CONST	ENDS
;	COMDAT ??_C@_1CKG@DBCIFINF@?$AAs?$AAt?$AAd?$AA?3?$AA?3?$AA_?$AAT?$AAr?$AAe?$AAe?$AA?$DM?$AAc?$AAl?$AAa?$AAs@
CONST	SEGMENT
??_C@_1CKG@DBCIFINF@?$AAs?$AAt?$AAd?$AA?3?$AA?3?$AA_?$AAT?$AAr?$AAe?$AAe?$AA?$DM?$AAc?$AAl?$AAa?$AAs@ DB 's'
	DB	00H, 't', 00H, 'd', 00H, ':', 00H, ':', 00H, '_', 00H, 'T', 00H
	DB	'r', 00H, 'e', 00H, 'e', 00H, '<', 00H, 'c', 00H, 'l', 00H, 'a'
	DB	00H, 's', 00H, 's', 00H, ' ', 00H, 's', 00H, 't', 00H, 'd', 00H
	DB	':', 00H, ':', 00H, '_', 00H, 'T', 00H, 'm', 00H, 'a', 00H, 'p'
	DB	00H, '_', 00H, 't', 00H, 'r', 00H, 'a', 00H, 'i', 00H, 't', 00H
	DB	's', 00H, '<', 00H, 'u', 00H, 'n', 00H, 's', 00H, 'i', 00H, 'g'
	DB	00H, 'n', 00H, 'e', 00H, 'd', 00H, ' ', 00H, 'l', 00H, 'o', 00H
	DB	'n', 00H, 'g', 00H, ',', 00H, 'c', 00H, 'l', 00H, 'a', 00H, 's'
	DB	00H, 's', 00H, ' ', 00H, 's', 00H, 't', 00H, 'd', 00H, ':', 00H
	DB	':', 00H, 'v', 00H, 'e', 00H, 'c', 00H, 't', 00H, 'o', 00H, 'r'
	DB	00H, '<', 00H, 's', 00H, 't', 00H, 'r', 00H, 'u', 00H, 'c', 00H
	DB	't', 00H, ' ', 00H, 't', 00H, 'a', 00H, 'g', 00H, 'P', 00H, 'r'
	DB	00H, 'o', 00H, 'p', 00H, 'e', 00H, 'r', 00H, 't', 00H, 'y', 00H
	DB	'B', 00H, 'u', 00H, 'f', 00H, 'f', 00H, ',', 00H, 'c', 00H, 'l'
	DB	00H, 'a', 00H, 's', 00H, 's', 00H, ' ', 00H, 's', 00H, 't', 00H
	DB	'd', 00H, ':', 00H, ':', 00H, 'a', 00H, 'l', 00H, 'l', 00H, 'o'
	DB	00H, 'c', 00H, 'a', 00H, 't', 00H, 'o', 00H, 'r', 00H, '<', 00H
	DB	's', 00H, 't', 00H, 'r', 00H, 'u', 00H, 'c', 00H, 't', 00H, ' '
	DB	00H, 't', 00H, 'a', 00H, 'g', 00H, 'P', 00H, 'r', 00H, 'o', 00H
	DB	'p', 00H, 'e', 00H, 'r', 00H, 't', 00H, 'y', 00H, 'B', 00H, 'u'
	DB	00H, 'f', 00H, 'f', 00H, '>', 00H, ' ', 00H, '>', 00H, ',', 00H
	DB	's', 00H, 't', 00H, 'r', 00H, 'u', 00H, 'c', 00H, 't', 00H, ' '
	DB	00H, 's', 00H, 't', 00H, 'd', 00H, ':', 00H, ':', 00H, 'l', 00H
	DB	'e', 00H, 's', 00H, 's', 00H, '<', 00H, 'u', 00H, 'n', 00H, 's'
	DB	00H, 'i', 00H, 'g', 00H, 'n', 00H, 'e', 00H, 'd', 00H, ' ', 00H
	DB	'l', 00H, 'o', 00H, 'n', 00H, 'g', 00H, '>', 00H, ',', 00H, 'c'
	DB	00H, 'l', 00H, 'a', 00H, 's', 00H, 's', 00H, ' ', 00H, 's', 00H
	DB	't', 00H, 'd', 00H, ':', 00H, ':', 00H, 'a', 00H, 'l', 00H, 'l'
	DB	00H, 'o', 00H, 'c', 00H, 'a', 00H, 't', 00H, 'o', 00H, 'r', 00H
	DB	'<', 00H, 's', 00H, 't', 00H, 'r', 00H, 'u', 00H, 'c', 00H, 't'
	DB	00H, ' ', 00H, 's', 00H, 't', 00H, 'd', 00H, ':', 00H, ':', 00H
	DB	'p', 00H, 'a', 00H, 'i', 00H, 'r', 00H, '<', 00H, 'u', 00H, 'n'
	DB	00H, 's', 00H, 'i', 00H, 'g', 00H, 'n', 00H, 'e', 00H, 'd', 00H
	DB	' ', 00H, 'l', 00H, 'o', 00H, 'n', 00H, 'g', 00H, ' ', 00H, 'c'
	DB	00H, 'o', 00H, 'n', 00H, 's', 00H, 't', 00H, ' ', 00H, ',', 00H
	DB	'c', 00H, 'l', 00H, 'a', 00H, 's', 00H, 's', 00H, ' ', 00H, 's'
	DB	00H, 't', 00H, 'd', 00H, ':', 00H, ':', 00H, 'v', 00H, 'e', 00H
	DB	'c', 00H, 't', 00H, 'o', 00H, 'r', 00H, '<', 00H, 's', 00H, 't'
	DB	00H, 'r', 00H, 'u', 00H, 'c', 00H, 't', 00H, ' ', 00H, 't', 00H
	DB	'a', 00H, 'g', 00H, 'P', 00H, 'r', 00H, 'o', 00H, 'p', 00H, 'e'
	DB	00H, 'r', 00H, 't', 00H, 'y', 00H, 'B', 00H, 'u', 00H, 'f', 00H
	DB	'f', 00H, ',', 00H, 'c', 00H, 'l', 00H, 'a', 00H, 's', 00H, 's'
	DB	00H, ' ', 00H, 's', 00H, 't', 00H, 'd', 00H, ':', 00H, ':', 00H
	DB	'a', 00H, 'l', 00H, 'l', 00H, 'o', 00H, 'c', 00H, 'a', 00H, 't'
	DB	00H, 'o', 00H, 'r', 00H, '<', 00H, 's', 00H, 't', 00H, 'r', 00H
	DB	'u', 00H, 'c', 00H, 't', 00H, ' ', 00H, 't', 00H, 'a', 00H, 'g'
	DB	00H, 'P', 00H, 'r', 00H, 'o', 00H, 'p', 00H, 'e', 00H, 'r', 00H
	DB	't', 00H, 'y', 00H, 'B', 00H, 'u', 00H, 'f', 00H, 'f', 00H, '>'
	DB	00H, ' ', 00H, '>', 00H, ' ', 00H, '>', 00H, ' ', 00H, '>', 00H
	DB	',', 00H, '0', 00H, '>', 00H, ' ', 00H, '>', 00H, ':', 00H, ':'
	DB	00H, '_', 00H, 'I', 00H, 'n', 00H, 's', 00H, 'e', 00H, 'r', 00H
	DB	't', 00H, '_', 00H, 'h', 00H, 'i', 00H, 'n', 00H, 't', 00H, 00H
	DB	00H						; `string'
CONST	ENDS
;	COMDAT ??_C@_0CG@MOLIBF@map?1set?5insert?5iterator?5outside@
CONST	SEGMENT
??_C@_0CG@MOLIBF@map?1set?5insert?5iterator?5outside@ DB 'map/set insert '
	DB	'iterator outside range', 00H		; `string'
CONST	ENDS
;	COMDAT ??_C@_1CK@NDNHPKPI@?$AA?$CC?$AAi?$AAn?$AAv?$AAa?$AAl?$AAi?$AAd?$AA?5?$AAc?$AAo?$AAm?$AAp?$AAa?$AAr@
CONST	SEGMENT
??_C@_1CK@NDNHPKPI@?$AA?$CC?$AAi?$AAn?$AAv?$AAa?$AAl?$AAi?$AAd?$AA?5?$AAc?$AAo?$AAm?$AAp?$AAa?$AAr@ DB '"'
	DB	00H, 'i', 00H, 'n', 00H, 'v', 00H, 'a', 00H, 'l', 00H, 'i', 00H
	DB	'd', 00H, ' ', 00H, 'c', 00H, 'o', 00H, 'm', 00H, 'p', 00H, 'a'
	DB	00H, 'r', 00H, 'a', 00H, 't', 00H, 'o', 00H, 'r', 00H, '"', 00H
	DB	00H, 00H					; `string'
CONST	ENDS
;	COMDAT ??_C@_1CI@JONCLBEJ@?$AAs?$AAt?$AAd?$AA?3?$AA?3?$AA_?$AAD?$AAe?$AAb?$AAu?$AAg?$AA_?$AAl?$AAt?$AA_@
CONST	SEGMENT
??_C@_1CI@JONCLBEJ@?$AAs?$AAt?$AAd?$AA?3?$AA?3?$AA_?$AAD?$AAe?$AAb?$AAu?$AAg?$AA_?$AAl?$AAt?$AA_@ DB 's'
	DB	00H, 't', 00H, 'd', 00H, ':', 00H, ':', 00H, '_', 00H, 'D', 00H
	DB	'e', 00H, 'b', 00H, 'u', 00H, 'g', 00H, '_', 00H, 'l', 00H, 't'
	DB	00H, '_', 00H, 'p', 00H, 'r', 00H, 'e', 00H, 'd', 00H, 00H, 00H ; `string'
CONST	ENDS
;	COMDAT ??_C@_0BD@FEEMDEPI@invalid?5comparator@
CONST	SEGMENT
??_C@_0BD@FEEMDEPI@invalid?5comparator@ DB 'invalid comparator', 00H ; `string'
CONST	ENDS
;	COMDAT ??_C@_1EO@GFNCMDLA@?$AAs?$AAt?$AAd?$AA?3?$AA?3?$AA_?$AAA?$AAl?$AAl?$AAo?$AAc?$AAa?$AAt?$AAe?$AA_@
CONST	SEGMENT
??_C@_1EO@GFNCMDLA@?$AAs?$AAt?$AAd?$AA?3?$AA?3?$AA_?$AAA?$AAl?$AAl?$AAo?$AAc?$AAa?$AAt?$AAe?$AA_@ DB 's'
	DB	00H, 't', 00H, 'd', 00H, ':', 00H, ':', 00H, '_', 00H, 'A', 00H
	DB	'l', 00H, 'l', 00H, 'o', 00H, 'c', 00H, 'a', 00H, 't', 00H, 'e'
	DB	00H, '_', 00H, 'm', 00H, 'a', 00H, 'n', 00H, 'u', 00H, 'a', 00H
	DB	'l', 00H, 'l', 00H, 'y', 00H, '_', 00H, 'v', 00H, 'e', 00H, 'c'
	DB	00H, 't', 00H, 'o', 00H, 'r', 00H, '_', 00H, 'a', 00H, 'l', 00H
	DB	'i', 00H, 'g', 00H, 'n', 00H, 'e', 00H, 'd', 00H, 00H, 00H ; `string'
CONST	ENDS
;	COMDAT ??_C@_0DF@LDFGAABH@g?3?2?M?x?$LK?$PM?2happygamewh?2?$LH?$PO?N?q?$LG?K?2?O?$LF?M?$LD@
CONST	SEGMENT
??_C@_0DF@LDFGAABH@g?3?2?M?x?$LK?$PM?2happygamewh?2?$LH?$PO?N?q?$LG?K?2?O?$LF?M?$LD@ DB 'g'
	DB	':\', 0cdH, 0f8H, 0baH, 0fcH, '\happygamewh\', 0b7H, 0feH, 0ceH
	DB	0f1H, 0b6H, 0cbH, '\', 0cfH, 0b5H, 0cdH, 0b3H, 0c4H, 0a3H, 0bfH
	DB	0e9H, '\', 0c8H, 0abH, 0beH, 0d6H, 0b6H, 0a8H, 0d2H, 0e5H, '\a'
	DB	'rray.h', 00H				; `string'
CONST	ENDS
;	COMDAT ??_C@_1BK@MHIKGOKE@?$AA?3?$AAA?$AAM?$AA?3?$AAa?$AAm?$AA?3?$AAP?$AAM?$AA?3?$AAp?$AAm@
CONST	SEGMENT
??_C@_1BK@MHIKGOKE@?$AA?3?$AAA?$AAM?$AA?3?$AAa?$AAm?$AA?3?$AAP?$AAM?$AA?3?$AAp?$AAm@ DB ':'
	DB	00H, 'A', 00H, 'M', 00H, ':', 00H, 'a', 00H, 'm', 00H, ':', 00H
	DB	'P', 00H, 'M', 00H, ':', 00H, 'p', 00H, 'm', 00H, 00H, 00H ; `string'
CONST	ENDS
;	COMDAT ??_C@_1BHI@FOOCHJIO@?$AAs?$AAt?$AAd?$AA?3?$AA?3?$AA_?$AAT?$AAr?$AAe?$AAe?$AA_?$AAv?$AAa?$AAl?$AA?$DM@
CONST	SEGMENT
??_C@_1BHI@FOOCHJIO@?$AAs?$AAt?$AAd?$AA?3?$AA?3?$AA_?$AAT?$AAr?$AAe?$AAe?$AA_?$AAv?$AAa?$AAl?$AA?$DM@ DB 's'
	DB	00H, 't', 00H, 'd', 00H, ':', 00H, ':', 00H, '_', 00H, 'T', 00H
	DB	'r', 00H, 'e', 00H, 'e', 00H, '_', 00H, 'v', 00H, 'a', 00H, 'l'
	DB	00H, '<', 00H, 's', 00H, 't', 00H, 'r', 00H, 'u', 00H, 'c', 00H
	DB	't', 00H, ' ', 00H, 's', 00H, 't', 00H, 'd', 00H, ':', 00H, ':'
	DB	00H, '_', 00H, 'T', 00H, 'r', 00H, 'e', 00H, 'e', 00H, '_', 00H
	DB	's', 00H, 'i', 00H, 'm', 00H, 'p', 00H, 'l', 00H, 'e', 00H, '_'
	DB	00H, 't', 00H, 'y', 00H, 'p', 00H, 'e', 00H, 's', 00H, '<', 00H
	DB	's', 00H, 't', 00H, 'r', 00H, 'u', 00H, 'c', 00H, 't', 00H, ' '
	DB	00H, 's', 00H, 't', 00H, 'd', 00H, ':', 00H, ':', 00H, 'p', 00H
	DB	'a', 00H, 'i', 00H, 'r', 00H, '<', 00H, 'u', 00H, 'n', 00H, 's'
	DB	00H, 'i', 00H, 'g', 00H, 'n', 00H, 'e', 00H, 'd', 00H, ' ', 00H
	DB	'l', 00H, 'o', 00H, 'n', 00H, 'g', 00H, ' ', 00H, 'c', 00H, 'o'
	DB	00H, 'n', 00H, 's', 00H, 't', 00H, ' ', 00H, ',', 00H, 'c', 00H
	DB	'l', 00H, 'a', 00H, 's', 00H, 's', 00H, ' ', 00H, 's', 00H, 't'
	DB	00H, 'd', 00H, ':', 00H, ':', 00H, 'v', 00H, 'e', 00H, 'c', 00H
	DB	't', 00H, 'o', 00H, 'r', 00H, '<', 00H, 's', 00H, 't', 00H, 'r'
	DB	00H, 'u', 00H, 'c', 00H, 't', 00H, ' ', 00H, 't', 00H, 'a', 00H
	DB	'g', 00H, 'P', 00H, 'r', 00H, 'o', 00H, 'p', 00H, 'e', 00H, 'r'
	DB	00H, 't', 00H, 'y', 00H, 'B', 00H, 'u', 00H, 'f', 00H, 'f', 00H
	DB	',', 00H, 'c', 00H, 'l', 00H, 'a', 00H, 's', 00H, 's', 00H, ' '
	DB	00H, 's', 00H, 't', 00H, 'd', 00H, ':', 00H, ':', 00H, 'a', 00H
	DB	'l', 00H, 'l', 00H, 'o', 00H, 'c', 00H, 'a', 00H, 't', 00H, 'o'
	DB	00H, 'r', 00H, '<', 00H, 's', 00H, 't', 00H, 'r', 00H, 'u', 00H
	DB	'c', 00H, 't', 00H, ' ', 00H, 't', 00H, 'a', 00H, 'g', 00H, 'P'
	DB	00H, 'r', 00H, 'o', 00H, 'p', 00H, 'e', 00H, 'r', 00H, 't', 00H
	DB	'y', 00H, 'B', 00H, 'u', 00H, 'f', 00H, 'f', 00H, '>', 00H, ' '
	DB	00H, '>', 00H, ' ', 00H, '>', 00H, ' ', 00H, '>', 00H, ' ', 00H
	DB	'>', 00H, ':', 00H, ':', 00H, '_', 00H, 'E', 00H, 'x', 00H, 't'
	DB	00H, 'r', 00H, 'a', 00H, 'c', 00H, 't', 00H, 00H, 00H ; `string'
CONST	ENDS
;	COMDAT ??_C@_1FA@KLFCDGNE@?$AA?$CC?$AAc?$AAa?$AAn?$AAn?$AAo?$AAt?$AA?5?$AAi?$AAn?$AAc?$AAr?$AAe?$AAm?$AAe@
CONST	SEGMENT
??_C@_1FA@KLFCDGNE@?$AA?$CC?$AAc?$AAa?$AAn?$AAn?$AAo?$AAt?$AA?5?$AAi?$AAn?$AAc?$AAr?$AAe?$AAm?$AAe@ DB '"'
	DB	00H, 'c', 00H, 'a', 00H, 'n', 00H, 'n', 00H, 'o', 00H, 't', 00H
	DB	' ', 00H, 'i', 00H, 'n', 00H, 'c', 00H, 'r', 00H, 'e', 00H, 'm'
	DB	00H, 'e', 00H, 'n', 00H, 't', 00H, ' ', 00H, 'e', 00H, 'n', 00H
	DB	'd', 00H, ' ', 00H, 'm', 00H, 'a', 00H, 'p', 00H, '/', 00H, 's'
	DB	00H, 'e', 00H, 't', 00H, ' ', 00H, 'i', 00H, 't', 00H, 'e', 00H
	DB	'r', 00H, 'a', 00H, 't', 00H, 'o', 00H, 'r', 00H, '"', 00H, 00H
	DB	00H						; `string'
CONST	ENDS
;	COMDAT ??_C@_0CG@NLEHEOHN@cannot?5increment?5end?5map?1set?5it@
CONST	SEGMENT
??_C@_0CG@NLEHEOHN@cannot?5increment?5end?5map?1set?5it@ DB 'cannot incre'
	DB	'ment end map/set iterator', 00H		; `string'
CONST	ENDS
;	COMDAT ??_C@_1GM@BJMCGEGI@?$AA?$CC?$AAc?$AAa?$AAn?$AAn?$AAo?$AAt?$AA?5?$AAi?$AAn?$AAc?$AAr?$AAe?$AAm?$AAe@
CONST	SEGMENT
??_C@_1GM@BJMCGEGI@?$AA?$CC?$AAc?$AAa?$AAn?$AAn?$AAo?$AAt?$AA?5?$AAi?$AAn?$AAc?$AAr?$AAe?$AAm?$AAe@ DB '"'
	DB	00H, 'c', 00H, 'a', 00H, 'n', 00H, 'n', 00H, 'o', 00H, 't', 00H
	DB	' ', 00H, 'i', 00H, 'n', 00H, 'c', 00H, 'r', 00H, 'e', 00H, 'm'
	DB	00H, 'e', 00H, 'n', 00H, 't', 00H, ' ', 00H, 'v', 00H, 'a', 00H
	DB	'l', 00H, 'u', 00H, 'e', 00H, '-', 00H, 'i', 00H, 'n', 00H, 'i'
	DB	00H, 't', 00H, 'i', 00H, 'a', 00H, 'l', 00H, 'i', 00H, 'z', 00H
	DB	'e', 00H, 'd', 00H, ' ', 00H, 'm', 00H, 'a', 00H, 'p', 00H, '/'
	DB	00H, 's', 00H, 'e', 00H, 't', 00H, ' ', 00H, 'i', 00H, 't', 00H
	DB	'e', 00H, 'r', 00H, 'a', 00H, 't', 00H, 'o', 00H, 'r', 00H, '"'
	DB	00H, 00H, 00H				; `string'
CONST	ENDS
;	COMDAT ??_C@_1BMC@IJMMAGDK@?$AAs?$AAt?$AAd?$AA?3?$AA?3?$AA_?$AAT?$AAr?$AAe?$AAe?$AA_?$AAc?$AAo?$AAn?$AAs@
CONST	SEGMENT
??_C@_1BMC@IJMMAGDK@?$AAs?$AAt?$AAd?$AA?3?$AA?3?$AA_?$AAT?$AAr?$AAe?$AAe?$AA_?$AAc?$AAo?$AAn?$AAs@ DB 's'
	DB	00H, 't', 00H, 'd', 00H, ':', 00H, ':', 00H, '_', 00H, 'T', 00H
	DB	'r', 00H, 'e', 00H, 'e', 00H, '_', 00H, 'c', 00H, 'o', 00H, 'n'
	DB	00H, 's', 00H, 't', 00H, '_', 00H, 'i', 00H, 't', 00H, 'e', 00H
	DB	'r', 00H, 'a', 00H, 't', 00H, 'o', 00H, 'r', 00H, '<', 00H, 'c'
	DB	00H, 'l', 00H, 'a', 00H, 's', 00H, 's', 00H, ' ', 00H, 's', 00H
	DB	't', 00H, 'd', 00H, ':', 00H, ':', 00H, '_', 00H, 'T', 00H, 'r'
	DB	00H, 'e', 00H, 'e', 00H, '_', 00H, 'v', 00H, 'a', 00H, 'l', 00H
	DB	'<', 00H, 's', 00H, 't', 00H, 'r', 00H, 'u', 00H, 'c', 00H, 't'
	DB	00H, ' ', 00H, 's', 00H, 't', 00H, 'd', 00H, ':', 00H, ':', 00H
	DB	'_', 00H, 'T', 00H, 'r', 00H, 'e', 00H, 'e', 00H, '_', 00H, 's'
	DB	00H, 'i', 00H, 'm', 00H, 'p', 00H, 'l', 00H, 'e', 00H, '_', 00H
	DB	't', 00H, 'y', 00H, 'p', 00H, 'e', 00H, 's', 00H, '<', 00H, 's'
	DB	00H, 't', 00H, 'r', 00H, 'u', 00H, 'c', 00H, 't', 00H, ' ', 00H
	DB	's', 00H, 't', 00H, 'd', 00H, ':', 00H, ':', 00H, 'p', 00H, 'a'
	DB	00H, 'i', 00H, 'r', 00H, '<', 00H, 'u', 00H, 'n', 00H, 's', 00H
	DB	'i', 00H, 'g', 00H, 'n', 00H, 'e', 00H, 'd', 00H, ' ', 00H, 'l'
	DB	00H, 'o', 00H, 'n', 00H, 'g', 00H, ' ', 00H, 'c', 00H, 'o', 00H
	DB	'n', 00H, 's', 00H, 't', 00H, ' ', 00H, ',', 00H, 'c', 00H, 'l'
	DB	00H, 'a', 00H, 's', 00H, 's', 00H, ' ', 00H, 's', 00H, 't', 00H
	DB	'd', 00H, ':', 00H, ':', 00H, 'v', 00H, 'e', 00H, 'c', 00H, 't'
	DB	00H, 'o', 00H, 'r', 00H, '<', 00H, 's', 00H, 't', 00H, 'r', 00H
	DB	'u', 00H, 'c', 00H, 't', 00H, ' ', 00H, 't', 00H, 'a', 00H, 'g'
	DB	00H, 'P', 00H, 'r', 00H, 'o', 00H, 'p', 00H, 'e', 00H, 'r', 00H
	DB	't', 00H, 'y', 00H, 'B', 00H, 'u', 00H, 'f', 00H, 'f', 00H, ','
	DB	00H, 'c', 00H, 'l', 00H, 'a', 00H, 's', 00H, 's', 00H, ' ', 00H
	DB	's', 00H, 't', 00H, 'd', 00H, ':', 00H, ':', 00H, 'a', 00H, 'l'
	DB	00H, 'l', 00H, 'o', 00H, 'c', 00H, 'a', 00H, 't', 00H, 'o', 00H
	DB	'r', 00H, '<', 00H, 's', 00H, 't', 00H, 'r', 00H, 'u', 00H, 'c'
	DB	00H, 't', 00H, ' ', 00H, 't', 00H, 'a', 00H, 'g', 00H, 'P', 00H
	DB	'r', 00H, 'o', 00H, 'p', 00H, 'e', 00H, 'r', 00H, 't', 00H, 'y'
	DB	00H, 'B', 00H, 'u', 00H, 'f', 00H, 'f', 00H, '>', 00H, ' ', 00H
	DB	'>', 00H, ' ', 00H, '>', 00H, ' ', 00H, '>', 00H, ' ', 00H, '>'
	DB	00H, ' ', 00H, '>', 00H, ':', 00H, ':', 00H, 'o', 00H, 'p', 00H
	DB	'e', 00H, 'r', 00H, 'a', 00H, 't', 00H, 'o', 00H, 'r', 00H, ' '
	DB	00H, '+', 00H, '+', 00H, 00H, 00H		; `string'
CONST	ENDS
;	COMDAT ??_C@_0DE@DMNPKCGM@cannot?5increment?5value?9initiali@
CONST	SEGMENT
??_C@_0DE@DMNPKCGM@cannot?5increment?5value?9initiali@ DB 'cannot increme'
	DB	'nt value-initialized map/set iterator', 00H	; `string'
CONST	ENDS
;	COMDAT ??_C@_1EO@CEDAEPC@?$AA?$CC?$AAm?$AAa?$AAp?$AA?1?$AAs?$AAe?$AAt?$AA?5?$AAe?$AAr?$AAa?$AAs?$AAe?$AA?5@
CONST	SEGMENT
??_C@_1EO@CEDAEPC@?$AA?$CC?$AAm?$AAa?$AAp?$AA?1?$AAs?$AAe?$AAt?$AA?5?$AAe?$AAr?$AAa?$AAs?$AAe?$AA?5@ DB '"'
	DB	00H, 'm', 00H, 'a', 00H, 'p', 00H, '/', 00H, 's', 00H, 'e', 00H
	DB	't', 00H, ' ', 00H, 'e', 00H, 'r', 00H, 'a', 00H, 's', 00H, 'e'
	DB	00H, ' ', 00H, 'i', 00H, 't', 00H, 'e', 00H, 'r', 00H, 'a', 00H
	DB	't', 00H, 'o', 00H, 'r', 00H, ' ', 00H, 'o', 00H, 'u', 00H, 't'
	DB	00H, 's', 00H, 'i', 00H, 'd', 00H, 'e', 00H, ' ', 00H, 'r', 00H
	DB	'a', 00H, 'n', 00H, 'g', 00H, 'e', 00H, '"', 00H, 00H, 00H ; `string'
CONST	ENDS
;	COMDAT ??_C@_1CJI@GONIBODA@?$AAs?$AAt?$AAd?$AA?3?$AA?3?$AA_?$AAT?$AAr?$AAe?$AAe?$AA?$DM?$AAc?$AAl?$AAa?$AAs@
CONST	SEGMENT
??_C@_1CJI@GONIBODA@?$AAs?$AAt?$AAd?$AA?3?$AA?3?$AA_?$AAT?$AAr?$AAe?$AAe?$AA?$DM?$AAc?$AAl?$AAa?$AAs@ DB 's'
	DB	00H, 't', 00H, 'd', 00H, ':', 00H, ':', 00H, '_', 00H, 'T', 00H
	DB	'r', 00H, 'e', 00H, 'e', 00H, '<', 00H, 'c', 00H, 'l', 00H, 'a'
	DB	00H, 's', 00H, 's', 00H, ' ', 00H, 's', 00H, 't', 00H, 'd', 00H
	DB	':', 00H, ':', 00H, '_', 00H, 'T', 00H, 'm', 00H, 'a', 00H, 'p'
	DB	00H, '_', 00H, 't', 00H, 'r', 00H, 'a', 00H, 'i', 00H, 't', 00H
	DB	's', 00H, '<', 00H, 'u', 00H, 'n', 00H, 's', 00H, 'i', 00H, 'g'
	DB	00H, 'n', 00H, 'e', 00H, 'd', 00H, ' ', 00H, 'l', 00H, 'o', 00H
	DB	'n', 00H, 'g', 00H, ',', 00H, 'c', 00H, 'l', 00H, 'a', 00H, 's'
	DB	00H, 's', 00H, ' ', 00H, 's', 00H, 't', 00H, 'd', 00H, ':', 00H
	DB	':', 00H, 'v', 00H, 'e', 00H, 'c', 00H, 't', 00H, 'o', 00H, 'r'
	DB	00H, '<', 00H, 's', 00H, 't', 00H, 'r', 00H, 'u', 00H, 'c', 00H
	DB	't', 00H, ' ', 00H, 't', 00H, 'a', 00H, 'g', 00H, 'P', 00H, 'r'
	DB	00H, 'o', 00H, 'p', 00H, 'e', 00H, 'r', 00H, 't', 00H, 'y', 00H
	DB	'B', 00H, 'u', 00H, 'f', 00H, 'f', 00H, ',', 00H, 'c', 00H, 'l'
	DB	00H, 'a', 00H, 's', 00H, 's', 00H, ' ', 00H, 's', 00H, 't', 00H
	DB	'd', 00H, ':', 00H, ':', 00H, 'a', 00H, 'l', 00H, 'l', 00H, 'o'
	DB	00H, 'c', 00H, 'a', 00H, 't', 00H, 'o', 00H, 'r', 00H, '<', 00H
	DB	's', 00H, 't', 00H, 'r', 00H, 'u', 00H, 'c', 00H, 't', 00H, ' '
	DB	00H, 't', 00H, 'a', 00H, 'g', 00H, 'P', 00H, 'r', 00H, 'o', 00H
	DB	'p', 00H, 'e', 00H, 'r', 00H, 't', 00H, 'y', 00H, 'B', 00H, 'u'
	DB	00H, 'f', 00H, 'f', 00H, '>', 00H, ' ', 00H, '>', 00H, ',', 00H
	DB	's', 00H, 't', 00H, 'r', 00H, 'u', 00H, 'c', 00H, 't', 00H, ' '
	DB	00H, 's', 00H, 't', 00H, 'd', 00H, ':', 00H, ':', 00H, 'l', 00H
	DB	'e', 00H, 's', 00H, 's', 00H, '<', 00H, 'u', 00H, 'n', 00H, 's'
	DB	00H, 'i', 00H, 'g', 00H, 'n', 00H, 'e', 00H, 'd', 00H, ' ', 00H
	DB	'l', 00H, 'o', 00H, 'n', 00H, 'g', 00H, '>', 00H, ',', 00H, 'c'
	DB	00H, 'l', 00H, 'a', 00H, 's', 00H, 's', 00H, ' ', 00H, 's', 00H
	DB	't', 00H, 'd', 00H, ':', 00H, ':', 00H, 'a', 00H, 'l', 00H, 'l'
	DB	00H, 'o', 00H, 'c', 00H, 'a', 00H, 't', 00H, 'o', 00H, 'r', 00H
	DB	'<', 00H, 's', 00H, 't', 00H, 'r', 00H, 'u', 00H, 'c', 00H, 't'
	DB	00H, ' ', 00H, 's', 00H, 't', 00H, 'd', 00H, ':', 00H, ':', 00H
	DB	'p', 00H, 'a', 00H, 'i', 00H, 'r', 00H, '<', 00H, 'u', 00H, 'n'
	DB	00H, 's', 00H, 'i', 00H, 'g', 00H, 'n', 00H, 'e', 00H, 'd', 00H
	DB	' ', 00H, 'l', 00H, 'o', 00H, 'n', 00H, 'g', 00H, ' ', 00H, 'c'
	DB	00H, 'o', 00H, 'n', 00H, 's', 00H, 't', 00H, ' ', 00H, ',', 00H
	DB	'c', 00H, 'l', 00H, 'a', 00H, 's', 00H, 's', 00H, ' ', 00H, 's'
	DB	00H, 't', 00H, 'd', 00H, ':', 00H, ':', 00H, 'v', 00H, 'e', 00H
	DB	'c', 00H, 't', 00H, 'o', 00H, 'r', 00H, '<', 00H, 's', 00H, 't'
	DB	00H, 'r', 00H, 'u', 00H, 'c', 00H, 't', 00H, ' ', 00H, 't', 00H
	DB	'a', 00H, 'g', 00H, 'P', 00H, 'r', 00H, 'o', 00H, 'p', 00H, 'e'
	DB	00H, 'r', 00H, 't', 00H, 'y', 00H, 'B', 00H, 'u', 00H, 'f', 00H
	DB	'f', 00H, ',', 00H, 'c', 00H, 'l', 00H, 'a', 00H, 's', 00H, 's'
	DB	00H, ' ', 00H, 's', 00H, 't', 00H, 'd', 00H, ':', 00H, ':', 00H
	DB	'a', 00H, 'l', 00H, 'l', 00H, 'o', 00H, 'c', 00H, 'a', 00H, 't'
	DB	00H, 'o', 00H, 'r', 00H, '<', 00H, 's', 00H, 't', 00H, 'r', 00H
	DB	'u', 00H, 'c', 00H, 't', 00H, ' ', 00H, 't', 00H, 'a', 00H, 'g'
	DB	00H, 'P', 00H, 'r', 00H, 'o', 00H, 'p', 00H, 'e', 00H, 'r', 00H
	DB	't', 00H, 'y', 00H, 'B', 00H, 'u', 00H, 'f', 00H, 'f', 00H, '>'
	DB	00H, ' ', 00H, '>', 00H, ' ', 00H, '>', 00H, ' ', 00H, '>', 00H
	DB	',', 00H, '0', 00H, '>', 00H, ' ', 00H, '>', 00H, ':', 00H, ':'
	DB	00H, 'e', 00H, 'r', 00H, 'a', 00H, 's', 00H, 'e', 00H, 00H, 00H ; `string'
CONST	ENDS
;	COMDAT ??_C@_0CF@JILFNJOL@map?1set?5erase?5iterator?5outside?5@
CONST	SEGMENT
??_C@_0CF@JILFNJOL@map?1set?5erase?5iterator?5outside?5@ DB 'map/set eras'
	DB	'e iterator outside range', 00H		; `string'
CONST	ENDS
;	COMDAT ??_C@_1FE@NKHAAGMB@?$AA?$CC?$AAc?$AAa?$AAn?$AAn?$AAo?$AAt?$AA?5?$AAd?$AAe?$AAr?$AAe?$AAf?$AAe?$AAr@
CONST	SEGMENT
??_C@_1FE@NKHAAGMB@?$AA?$CC?$AAc?$AAa?$AAn?$AAn?$AAo?$AAt?$AA?5?$AAd?$AAe?$AAr?$AAe?$AAf?$AAe?$AAr@ DB '"'
	DB	00H, 'c', 00H, 'a', 00H, 'n', 00H, 'n', 00H, 'o', 00H, 't', 00H
	DB	' ', 00H, 'd', 00H, 'e', 00H, 'r', 00H, 'e', 00H, 'f', 00H, 'e'
	DB	00H, 'r', 00H, 'e', 00H, 'n', 00H, 'c', 00H, 'e', 00H, ' ', 00H
	DB	'e', 00H, 'n', 00H, 'd', 00H, ' ', 00H, 'm', 00H, 'a', 00H, 'p'
	DB	00H, '/', 00H, 's', 00H, 'e', 00H, 't', 00H, ' ', 00H, 'i', 00H
	DB	't', 00H, 'e', 00H, 'r', 00H, 'a', 00H, 't', 00H, 'o', 00H, 'r'
	DB	00H, '"', 00H, 00H, 00H			; `string'
CONST	ENDS
;	COMDAT ??_C@_0CI@OKFEHCEB@cannot?5dereference?5end?5map?1set?5@
CONST	SEGMENT
??_C@_0CI@OKFEHCEB@cannot?5dereference?5end?5map?1set?5@ DB 'cannot deref'
	DB	'erence end map/set iterator', 00H		; `string'
CONST	ENDS
;	COMDAT ??_C@_1HA@ILGCNILF@?$AA?$CC?$AAc?$AAa?$AAn?$AAn?$AAo?$AAt?$AA?5?$AAd?$AAe?$AAr?$AAe?$AAf?$AAe?$AAr@
CONST	SEGMENT
??_C@_1HA@ILGCNILF@?$AA?$CC?$AAc?$AAa?$AAn?$AAn?$AAo?$AAt?$AA?5?$AAd?$AAe?$AAr?$AAe?$AAf?$AAe?$AAr@ DB '"'
	DB	00H, 'c', 00H, 'a', 00H, 'n', 00H, 'n', 00H, 'o', 00H, 't', 00H
	DB	' ', 00H, 'd', 00H, 'e', 00H, 'r', 00H, 'e', 00H, 'f', 00H, 'e'
	DB	00H, 'r', 00H, 'e', 00H, 'n', 00H, 'c', 00H, 'e', 00H, ' ', 00H
	DB	'v', 00H, 'a', 00H, 'l', 00H, 'u', 00H, 'e', 00H, '-', 00H, 'i'
	DB	00H, 'n', 00H, 'i', 00H, 't', 00H, 'i', 00H, 'a', 00H, 'l', 00H
	DB	'i', 00H, 'z', 00H, 'e', 00H, 'd', 00H, ' ', 00H, 'm', 00H, 'a'
	DB	00H, 'p', 00H, '/', 00H, 's', 00H, 'e', 00H, 't', 00H, ' ', 00H
	DB	'i', 00H, 't', 00H, 'e', 00H, 'r', 00H, 'a', 00H, 't', 00H, 'o'
	DB	00H, 'r', 00H, '"', 00H, 00H, 00H		; `string'
CONST	ENDS
;	COMDAT ??_C@_1BMA@DJJFGNNP@?$AAs?$AAt?$AAd?$AA?3?$AA?3?$AA_?$AAT?$AAr?$AAe?$AAe?$AA_?$AAc?$AAo?$AAn?$AAs@
CONST	SEGMENT
??_C@_1BMA@DJJFGNNP@?$AAs?$AAt?$AAd?$AA?3?$AA?3?$AA_?$AAT?$AAr?$AAe?$AAe?$AA_?$AAc?$AAo?$AAn?$AAs@ DB 's'
	DB	00H, 't', 00H, 'd', 00H, ':', 00H, ':', 00H, '_', 00H, 'T', 00H
	DB	'r', 00H, 'e', 00H, 'e', 00H, '_', 00H, 'c', 00H, 'o', 00H, 'n'
	DB	00H, 's', 00H, 't', 00H, '_', 00H, 'i', 00H, 't', 00H, 'e', 00H
	DB	'r', 00H, 'a', 00H, 't', 00H, 'o', 00H, 'r', 00H, '<', 00H, 'c'
	DB	00H, 'l', 00H, 'a', 00H, 's', 00H, 's', 00H, ' ', 00H, 's', 00H
	DB	't', 00H, 'd', 00H, ':', 00H, ':', 00H, '_', 00H, 'T', 00H, 'r'
	DB	00H, 'e', 00H, 'e', 00H, '_', 00H, 'v', 00H, 'a', 00H, 'l', 00H
	DB	'<', 00H, 's', 00H, 't', 00H, 'r', 00H, 'u', 00H, 'c', 00H, 't'
	DB	00H, ' ', 00H, 's', 00H, 't', 00H, 'd', 00H, ':', 00H, ':', 00H
	DB	'_', 00H, 'T', 00H, 'r', 00H, 'e', 00H, 'e', 00H, '_', 00H, 's'
	DB	00H, 'i', 00H, 'm', 00H, 'p', 00H, 'l', 00H, 'e', 00H, '_', 00H
	DB	't', 00H, 'y', 00H, 'p', 00H, 'e', 00H, 's', 00H, '<', 00H, 's'
	DB	00H, 't', 00H, 'r', 00H, 'u', 00H, 'c', 00H, 't', 00H, ' ', 00H
	DB	's', 00H, 't', 00H, 'd', 00H, ':', 00H, ':', 00H, 'p', 00H, 'a'
	DB	00H, 'i', 00H, 'r', 00H, '<', 00H, 'u', 00H, 'n', 00H, 's', 00H
	DB	'i', 00H, 'g', 00H, 'n', 00H, 'e', 00H, 'd', 00H, ' ', 00H, 'l'
	DB	00H, 'o', 00H, 'n', 00H, 'g', 00H, ' ', 00H, 'c', 00H, 'o', 00H
	DB	'n', 00H, 's', 00H, 't', 00H, ' ', 00H, ',', 00H, 'c', 00H, 'l'
	DB	00H, 'a', 00H, 's', 00H, 's', 00H, ' ', 00H, 's', 00H, 't', 00H
	DB	'd', 00H, ':', 00H, ':', 00H, 'v', 00H, 'e', 00H, 'c', 00H, 't'
	DB	00H, 'o', 00H, 'r', 00H, '<', 00H, 's', 00H, 't', 00H, 'r', 00H
	DB	'u', 00H, 'c', 00H, 't', 00H, ' ', 00H, 't', 00H, 'a', 00H, 'g'
	DB	00H, 'P', 00H, 'r', 00H, 'o', 00H, 'p', 00H, 'e', 00H, 'r', 00H
	DB	't', 00H, 'y', 00H, 'B', 00H, 'u', 00H, 'f', 00H, 'f', 00H, ','
	DB	00H, 'c', 00H, 'l', 00H, 'a', 00H, 's', 00H, 's', 00H, ' ', 00H
	DB	's', 00H, 't', 00H, 'd', 00H, ':', 00H, ':', 00H, 'a', 00H, 'l'
	DB	00H, 'l', 00H, 'o', 00H, 'c', 00H, 'a', 00H, 't', 00H, 'o', 00H
	DB	'r', 00H, '<', 00H, 's', 00H, 't', 00H, 'r', 00H, 'u', 00H, 'c'
	DB	00H, 't', 00H, ' ', 00H, 't', 00H, 'a', 00H, 'g', 00H, 'P', 00H
	DB	'r', 00H, 'o', 00H, 'p', 00H, 'e', 00H, 'r', 00H, 't', 00H, 'y'
	DB	00H, 'B', 00H, 'u', 00H, 'f', 00H, 'f', 00H, '>', 00H, ' ', 00H
	DB	'>', 00H, ' ', 00H, '>', 00H, ' ', 00H, '>', 00H, ' ', 00H, '>'
	DB	00H, ' ', 00H, '>', 00H, ':', 00H, ':', 00H, 'o', 00H, 'p', 00H
	DB	'e', 00H, 'r', 00H, 'a', 00H, 't', 00H, 'o', 00H, 'r', 00H, ' '
	DB	00H, '*', 00H, 00H, 00H			; `string'
CONST	ENDS
;	COMDAT ??_C@_0DG@LCFNIIPB@cannot?5dereference?5value?9initia@
CONST	SEGMENT
??_C@_0DG@LCFNIIPB@cannot?5dereference?5value?9initia@ DB 'cannot derefer'
	DB	'ence value-initialized map/set iterator', 00H ; `string'
CONST	ENDS
;	COMDAT ??_C@_1EC@JLIDLCDH@?$AA?$CC?$AAm?$AAa?$AAp?$AA?1?$AAs?$AAe?$AAt?$AA?5?$AAi?$AAt?$AAe?$AAr?$AAa?$AAt@
CONST	SEGMENT
??_C@_1EC@JLIDLCDH@?$AA?$CC?$AAm?$AAa?$AAp?$AA?1?$AAs?$AAe?$AAt?$AA?5?$AAi?$AAt?$AAe?$AAr?$AAa?$AAt@ DB '"'
	DB	00H, 'm', 00H, 'a', 00H, 'p', 00H, '/', 00H, 's', 00H, 'e', 00H
	DB	't', 00H, ' ', 00H, 'i', 00H, 't', 00H, 'e', 00H, 'r', 00H, 'a'
	DB	00H, 't', 00H, 'o', 00H, 'r', 00H, 's', 00H, ' ', 00H, 'i', 00H
	DB	'n', 00H, 'c', 00H, 'o', 00H, 'm', 00H, 'p', 00H, 'a', 00H, 't'
	DB	00H, 'i', 00H, 'b', 00H, 'l', 00H, 'e', 00H, '"', 00H, 00H, 00H ; `string'
CONST	ENDS
;	COMDAT ??_C@_1BMC@CJDBOPPP@?$AAs?$AAt?$AAd?$AA?3?$AA?3?$AA_?$AAT?$AAr?$AAe?$AAe?$AA_?$AAc?$AAo?$AAn?$AAs@
CONST	SEGMENT
??_C@_1BMC@CJDBOPPP@?$AAs?$AAt?$AAd?$AA?3?$AA?3?$AA_?$AAT?$AAr?$AAe?$AAe?$AA_?$AAc?$AAo?$AAn?$AAs@ DB 's'
	DB	00H, 't', 00H, 'd', 00H, ':', 00H, ':', 00H, '_', 00H, 'T', 00H
	DB	'r', 00H, 'e', 00H, 'e', 00H, '_', 00H, 'c', 00H, 'o', 00H, 'n'
	DB	00H, 's', 00H, 't', 00H, '_', 00H, 'i', 00H, 't', 00H, 'e', 00H
	DB	'r', 00H, 'a', 00H, 't', 00H, 'o', 00H, 'r', 00H, '<', 00H, 'c'
	DB	00H, 'l', 00H, 'a', 00H, 's', 00H, 's', 00H, ' ', 00H, 's', 00H
	DB	't', 00H, 'd', 00H, ':', 00H, ':', 00H, '_', 00H, 'T', 00H, 'r'
	DB	00H, 'e', 00H, 'e', 00H, '_', 00H, 'v', 00H, 'a', 00H, 'l', 00H
	DB	'<', 00H, 's', 00H, 't', 00H, 'r', 00H, 'u', 00H, 'c', 00H, 't'
	DB	00H, ' ', 00H, 's', 00H, 't', 00H, 'd', 00H, ':', 00H, ':', 00H
	DB	'_', 00H, 'T', 00H, 'r', 00H, 'e', 00H, 'e', 00H, '_', 00H, 's'
	DB	00H, 'i', 00H, 'm', 00H, 'p', 00H, 'l', 00H, 'e', 00H, '_', 00H
	DB	't', 00H, 'y', 00H, 'p', 00H, 'e', 00H, 's', 00H, '<', 00H, 's'
	DB	00H, 't', 00H, 'r', 00H, 'u', 00H, 'c', 00H, 't', 00H, ' ', 00H
	DB	's', 00H, 't', 00H, 'd', 00H, ':', 00H, ':', 00H, 'p', 00H, 'a'
	DB	00H, 'i', 00H, 'r', 00H, '<', 00H, 'u', 00H, 'n', 00H, 's', 00H
	DB	'i', 00H, 'g', 00H, 'n', 00H, 'e', 00H, 'd', 00H, ' ', 00H, 'l'
	DB	00H, 'o', 00H, 'n', 00H, 'g', 00H, ' ', 00H, 'c', 00H, 'o', 00H
	DB	'n', 00H, 's', 00H, 't', 00H, ' ', 00H, ',', 00H, 'c', 00H, 'l'
	DB	00H, 'a', 00H, 's', 00H, 's', 00H, ' ', 00H, 's', 00H, 't', 00H
	DB	'd', 00H, ':', 00H, ':', 00H, 'v', 00H, 'e', 00H, 'c', 00H, 't'
	DB	00H, 'o', 00H, 'r', 00H, '<', 00H, 's', 00H, 't', 00H, 'r', 00H
	DB	'u', 00H, 'c', 00H, 't', 00H, ' ', 00H, 't', 00H, 'a', 00H, 'g'
	DB	00H, 'P', 00H, 'r', 00H, 'o', 00H, 'p', 00H, 'e', 00H, 'r', 00H
	DB	't', 00H, 'y', 00H, 'B', 00H, 'u', 00H, 'f', 00H, 'f', 00H, ','
	DB	00H, 'c', 00H, 'l', 00H, 'a', 00H, 's', 00H, 's', 00H, ' ', 00H
	DB	's', 00H, 't', 00H, 'd', 00H, ':', 00H, ':', 00H, 'a', 00H, 'l'
	DB	00H, 'l', 00H, 'o', 00H, 'c', 00H, 'a', 00H, 't', 00H, 'o', 00H
	DB	'r', 00H, '<', 00H, 's', 00H, 't', 00H, 'r', 00H, 'u', 00H, 'c'
	DB	00H, 't', 00H, ' ', 00H, 't', 00H, 'a', 00H, 'g', 00H, 'P', 00H
	DB	'r', 00H, 'o', 00H, 'p', 00H, 'e', 00H, 'r', 00H, 't', 00H, 'y'
	DB	00H, 'B', 00H, 'u', 00H, 'f', 00H, 'f', 00H, '>', 00H, ' ', 00H
	DB	'>', 00H, ' ', 00H, '>', 00H, ' ', 00H, '>', 00H, ' ', 00H, '>'
	DB	00H, ' ', 00H, '>', 00H, ':', 00H, ':', 00H, 'o', 00H, 'p', 00H
	DB	'e', 00H, 'r', 00H, 'a', 00H, 't', 00H, 'o', 00H, 'r', 00H, ' '
	DB	00H, '=', 00H, '=', 00H, 00H, 00H		; `string'
CONST	ENDS
;	COMDAT ??_C@_1MM@GNDNJPBP@?$AAc?$AA?3?$AA?2?$AAp?$AAr?$AAo?$AAg?$AAr?$AAa?$AAm?$AA?5?$AAf?$AAi?$AAl?$AAe@
CONST	SEGMENT
??_C@_1MM@GNDNJPBP@?$AAc?$AA?3?$AA?2?$AAp?$AAr?$AAo?$AAg?$AAr?$AAa?$AAm?$AA?5?$AAf?$AAi?$AAl?$AAe@ DB 'c'
	DB	00H, ':', 00H, '\', 00H, 'p', 00H, 'r', 00H, 'o', 00H, 'g', 00H
	DB	'r', 00H, 'a', 00H, 'm', 00H, ' ', 00H, 'f', 00H, 'i', 00H, 'l'
	DB	00H, 'e', 00H, 's', 00H, ' ', 00H, '(', 00H, 'x', 00H, '8', 00H
	DB	'6', 00H, ')', 00H, '\', 00H, 'm', 00H, 'i', 00H, 'c', 00H, 'r'
	DB	00H, 'o', 00H, 's', 00H, 'o', 00H, 'f', 00H, 't', 00H, ' ', 00H
	DB	'v', 00H, 'i', 00H, 's', 00H, 'u', 00H, 'a', 00H, 'l', 00H, ' '
	DB	00H, 's', 00H, 't', 00H, 'u', 00H, 'd', 00H, 'i', 00H, 'o', 00H
	DB	'\', 00H, '2', 00H, '0', 00H, '1', 00H, '7', 00H, '\', 00H, 'c'
	DB	00H, 'o', 00H, 'm', 00H, 'm', 00H, 'u', 00H, 'n', 00H, 'i', 00H
	DB	't', 00H, 'y', 00H, '\', 00H, 'v', 00H, 'c', 00H, '\', 00H, 't'
	DB	00H, 'o', 00H, 'o', 00H, 'l', 00H, 's', 00H, '\', 00H, 'm', 00H
	DB	's', 00H, 'v', 00H, 'c', 00H, '\', 00H, '1', 00H, '4', 00H, '.'
	DB	00H, '1', 00H, '6', 00H, '.', 00H, '2', 00H, '7', 00H, '0', 00H
	DB	'2', 00H, '3', 00H, '\', 00H, 'i', 00H, 'n', 00H, 'c', 00H, 'l'
	DB	00H, 'u', 00H, 'd', 00H, 'e', 00H, '\', 00H, 'x', 00H, 't', 00H
	DB	'r', 00H, 'e', 00H, 'e', 00H, 00H, 00H	; `string'
CONST	ENDS
;	COMDAT ??_C@_0GG@NEGGIBJL@c?3?2program?5files?5?$CIx86?$CJ?2microsof@
CONST	SEGMENT
??_C@_0GG@NEGGIBJL@c?3?2program?5files?5?$CIx86?$CJ?2microsof@ DB 'c:\pro'
	DB	'gram files (x86)\microsoft visual studio\2017\community\vc\to'
	DB	'ols\msvc\14.16.27023\include\xtree', 00H	; `string'
CONST	ENDS
;	COMDAT ??_C@_0BP@OLDKBHLM@map?1set?5iterators?5incompatible@
CONST	SEGMENT
??_C@_0BP@OLDKBHLM@map?1set?5iterators?5incompatible@ DB 'map/set iterato'
	DB	'rs incompatible', 00H			; `string'
CONST	ENDS
;	COMDAT ??_C@_0BD@OLBABOEK@vector?$DMT?$DO?5too?5long@
CONST	SEGMENT
??_C@_0BD@OLBABOEK@vector?$DMT?$DO?5too?5long@ DB 'vector<T> too long', 00H ; `string'
CONST	ENDS
;	COMDAT ??_C@_0N@LPFKKEBD@?3AM?3am?3PM?3pm@
CONST	SEGMENT
??_C@_0N@LPFKKEBD@?3AM?3am?3PM?3pm@ DB ':AM:am:PM:pm', 00H ; `string'
CONST	ENDS
;	COMDAT ??_C@_1EA@LEKOKFNB@?$AA?$CC?$AAv?$AAe?$AAc?$AAt?$AAo?$AAr?$AA?5?$AAs?$AAu?$AAb?$AAs?$AAc?$AAr?$AAi@
CONST	SEGMENT
??_C@_1EA@LEKOKFNB@?$AA?$CC?$AAv?$AAe?$AAc?$AAt?$AAo?$AAr?$AA?5?$AAs?$AAu?$AAb?$AAs?$AAc?$AAr?$AAi@ DB '"'
	DB	00H, 'v', 00H, 'e', 00H, 'c', 00H, 't', 00H, 'o', 00H, 'r', 00H
	DB	' ', 00H, 's', 00H, 'u', 00H, 'b', 00H, 's', 00H, 'c', 00H, 'r'
	DB	00H, 'i', 00H, 'p', 00H, 't', 00H, ' ', 00H, 'o', 00H, 'u', 00H
	DB	't', 00H, ' ', 00H, 'o', 00H, 'f', 00H, ' ', 00H, 'r', 00H, 'a'
	DB	00H, 'n', 00H, 'g', 00H, 'e', 00H, '"', 00H, 00H, 00H ; `string'
CONST	ENDS
;	COMDAT ??_C@_1LO@IAGBENIJ@?$AAs?$AAt?$AAd?$AA?3?$AA?3?$AAv?$AAe?$AAc?$AAt?$AAo?$AAr?$AA?$DM?$AAs?$AAt?$AAr@
CONST	SEGMENT
??_C@_1LO@IAGBENIJ@?$AAs?$AAt?$AAd?$AA?3?$AA?3?$AAv?$AAe?$AAc?$AAt?$AAo?$AAr?$AA?$DM?$AAs?$AAt?$AAr@ DB 's'
	DB	00H, 't', 00H, 'd', 00H, ':', 00H, ':', 00H, 'v', 00H, 'e', 00H
	DB	'c', 00H, 't', 00H, 'o', 00H, 'r', 00H, '<', 00H, 's', 00H, 't'
	DB	00H, 'r', 00H, 'u', 00H, 'c', 00H, 't', 00H, ' ', 00H, 't', 00H
	DB	'a', 00H, 'g', 00H, 'P', 00H, 'r', 00H, 'o', 00H, 'p', 00H, 'e'
	DB	00H, 'r', 00H, 't', 00H, 'y', 00H, 'B', 00H, 'u', 00H, 'f', 00H
	DB	'f', 00H, ',', 00H, 'c', 00H, 'l', 00H, 'a', 00H, 's', 00H, 's'
	DB	00H, ' ', 00H, 's', 00H, 't', 00H, 'd', 00H, ':', 00H, ':', 00H
	DB	'a', 00H, 'l', 00H, 'l', 00H, 'o', 00H, 'c', 00H, 'a', 00H, 't'
	DB	00H, 'o', 00H, 'r', 00H, '<', 00H, 's', 00H, 't', 00H, 'r', 00H
	DB	'u', 00H, 'c', 00H, 't', 00H, ' ', 00H, 't', 00H, 'a', 00H, 'g'
	DB	00H, 'P', 00H, 'r', 00H, 'o', 00H, 'p', 00H, 'e', 00H, 'r', 00H
	DB	't', 00H, 'y', 00H, 'B', 00H, 'u', 00H, 'f', 00H, 'f', 00H, '>'
	DB	00H, ' ', 00H, '>', 00H, ':', 00H, ':', 00H, 'o', 00H, 'p', 00H
	DB	'e', 00H, 'r', 00H, 'a', 00H, 't', 00H, 'o', 00H, 'r', 00H, ' '
	DB	00H, '[', 00H, ']', 00H, 00H, 00H		; `string'
CONST	ENDS
;	COMDAT ??_C@_1MO@OJBMIJHH@?$AAc?$AA?3?$AA?2?$AAp?$AAr?$AAo?$AAg?$AAr?$AAa?$AAm?$AA?5?$AAf?$AAi?$AAl?$AAe@
CONST	SEGMENT
??_C@_1MO@OJBMIJHH@?$AAc?$AA?3?$AA?2?$AAp?$AAr?$AAo?$AAg?$AAr?$AAa?$AAm?$AA?5?$AAf?$AAi?$AAl?$AAe@ DB 'c'
	DB	00H, ':', 00H, '\', 00H, 'p', 00H, 'r', 00H, 'o', 00H, 'g', 00H
	DB	'r', 00H, 'a', 00H, 'm', 00H, ' ', 00H, 'f', 00H, 'i', 00H, 'l'
	DB	00H, 'e', 00H, 's', 00H, ' ', 00H, '(', 00H, 'x', 00H, '8', 00H
	DB	'6', 00H, ')', 00H, '\', 00H, 'm', 00H, 'i', 00H, 'c', 00H, 'r'
	DB	00H, 'o', 00H, 's', 00H, 'o', 00H, 'f', 00H, 't', 00H, ' ', 00H
	DB	'v', 00H, 'i', 00H, 's', 00H, 'u', 00H, 'a', 00H, 'l', 00H, ' '
	DB	00H, 's', 00H, 't', 00H, 'u', 00H, 'd', 00H, 'i', 00H, 'o', 00H
	DB	'\', 00H, '2', 00H, '0', 00H, '1', 00H, '7', 00H, '\', 00H, 'c'
	DB	00H, 'o', 00H, 'm', 00H, 'm', 00H, 'u', 00H, 'n', 00H, 'i', 00H
	DB	't', 00H, 'y', 00H, '\', 00H, 'v', 00H, 'c', 00H, '\', 00H, 't'
	DB	00H, 'o', 00H, 'o', 00H, 'l', 00H, 's', 00H, '\', 00H, 'm', 00H
	DB	's', 00H, 'v', 00H, 'c', 00H, '\', 00H, '1', 00H, '4', 00H, '.'
	DB	00H, '1', 00H, '6', 00H, '.', 00H, '2', 00H, '7', 00H, '0', 00H
	DB	'2', 00H, '3', 00H, '\', 00H, 'i', 00H, 'n', 00H, 'c', 00H, 'l'
	DB	00H, 'u', 00H, 'd', 00H, 'e', 00H, '\', 00H, 'v', 00H, 'e', 00H
	DB	'c', 00H, 't', 00H, 'o', 00H, 'r', 00H, 00H, 00H ; `string'
CONST	ENDS
;	COMDAT ??_C@_0GH@FKAHJGEE@c?3?2program?5files?5?$CIx86?$CJ?2microsof@
CONST	SEGMENT
??_C@_0GH@FKAHJGEE@c?3?2program?5files?5?$CIx86?$CJ?2microsof@ DB 'c:\pro'
	DB	'gram files (x86)\microsoft visual studio\2017\community\vc\to'
	DB	'ols\msvc\14.16.27023\include\vector', 00H	; `string'
CONST	ENDS
;	COMDAT ??_C@_0BO@PFKOHNJC@vector?5subscript?5out?5of?5range@
CONST	SEGMENT
??_C@_0BO@PFKOHNJC@vector?5subscript?5out?5of?5range@ DB 'vector subscrip'
	DB	't out of range', 00H			; `string'
CONST	ENDS
;	COMDAT ??_7CGamePropertyManager@@6B@
CONST	SEGMENT
??_7CGamePropertyManager@@6B@ DD FLAT:??_R4CGamePropertyManager@@6B@ ; CGamePropertyManager::`vftable'
	DD	FLAT:??_ECGamePropertyManager@@UAEPAXI@Z
CONST	ENDS
;	COMDAT ??_7?$CWHArray@UtagPropertyInfo@@ABU1@@@6B@
CONST	SEGMENT
??_7?$CWHArray@UtagPropertyInfo@@ABU1@@@6B@ DD FLAT:??_R4?$CWHArray@UtagPropertyInfo@@ABU1@@@6B@ ; CWHArray<tagPropertyInfo,tagPropertyInfo const &>::`vftable'
	DD	FLAT:??_E?$CWHArray@UtagPropertyInfo@@ABU1@@@UAEPAXI@Z
CONST	ENDS
;	COMDAT ??_C@_0GI@DJFLDKBN@c?3?2program?5files?5?$CIx86?$CJ?2microsof@
CONST	SEGMENT
??_C@_0GI@DJFLDKBN@c?3?2program?5files?5?$CIx86?$CJ?2microsof@ DB 'c:\pro'
	DB	'gram files (x86)\microsoft visual studio\2017\community\vc\to'
	DB	'ols\msvc\14.16.27023\include\xlocnum', 00H	; `string'
CONST	ENDS
;	COMDAT ?__LINE__Var@?0??_Maklocwcs@std@@YAPA_WPB_W@Z@4JA
_DATA	SEGMENT
?__LINE__Var@?0??_Maklocwcs@std@@YAPA_WPB_W@Z@4JA DD 061H ; `std::_Maklocwcs'::`1'::__LINE__Var
_DATA	ENDS
;	COMDAT ??_C@_0GI@LKBGDILM@c?3?2program?5files?5?$CIx86?$CJ?2microsof@
CONST	SEGMENT
??_C@_0GI@LKBGDILM@c?3?2program?5files?5?$CIx86?$CJ?2microsof@ DB 'c:\pro'
	DB	'gram files (x86)\microsoft visual studio\2017\community\vc\to'
	DB	'ols\msvc\14.16.27023\include\xlocale', 00H	; `string'
CONST	ENDS
;	COMDAT ??_C@_1EK@NIFDJFDG@?$AAs?$AAt?$AAd?$AA?3?$AA?3?$AA_?$AAA?$AAd?$AAj?$AAu?$AAs?$AAt?$AA_?$AAm?$AAa@
CONST	SEGMENT
??_C@_1EK@NIFDJFDG@?$AAs?$AAt?$AAd?$AA?3?$AA?3?$AA_?$AAA?$AAd?$AAj?$AAu?$AAs?$AAt?$AA_?$AAm?$AAa@ DB 's'
	DB	00H, 't', 00H, 'd', 00H, ':', 00H, ':', 00H, '_', 00H, 'A', 00H
	DB	'd', 00H, 'j', 00H, 'u', 00H, 's', 00H, 't', 00H, '_', 00H, 'm'
	DB	00H, 'a', 00H, 'n', 00H, 'u', 00H, 'a', 00H, 'l', 00H, 'l', 00H
	DB	'y', 00H, '_', 00H, 'v', 00H, 'e', 00H, 'c', 00H, 't', 00H, 'o'
	DB	00H, 'r', 00H, '_', 00H, 'a', 00H, 'l', 00H, 'i', 00H, 'g', 00H
	DB	'n', 00H, 'e', 00H, 'd', 00H, 00H, 00H	; `string'
CONST	ENDS
;	COMDAT ??_C@_1NC@PIOGAKBO@?$AAc?$AA?3?$AA?2?$AAp?$AAr?$AAo?$AAg?$AAr?$AAa?$AAm?$AA?5?$AAf?$AAi?$AAl?$AAe@
CONST	SEGMENT
??_C@_1NC@PIOGAKBO@?$AAc?$AA?3?$AA?2?$AAp?$AAr?$AAo?$AAg?$AAr?$AAa?$AAm?$AA?5?$AAf?$AAi?$AAl?$AAe@ DB 'c'
	DB	00H, ':', 00H, '\', 00H, 'p', 00H, 'r', 00H, 'o', 00H, 'g', 00H
	DB	'r', 00H, 'a', 00H, 'm', 00H, ' ', 00H, 'f', 00H, 'i', 00H, 'l'
	DB	00H, 'e', 00H, 's', 00H, ' ', 00H, '(', 00H, 'x', 00H, '8', 00H
	DB	'6', 00H, ')', 00H, '\', 00H, 'm', 00H, 'i', 00H, 'c', 00H, 'r'
	DB	00H, 'o', 00H, 's', 00H, 'o', 00H, 'f', 00H, 't', 00H, ' ', 00H
	DB	'v', 00H, 'i', 00H, 's', 00H, 'u', 00H, 'a', 00H, 'l', 00H, ' '
	DB	00H, 's', 00H, 't', 00H, 'u', 00H, 'd', 00H, 'i', 00H, 'o', 00H
	DB	'\', 00H, '2', 00H, '0', 00H, '1', 00H, '7', 00H, '\', 00H, 'c'
	DB	00H, 'o', 00H, 'm', 00H, 'm', 00H, 'u', 00H, 'n', 00H, 'i', 00H
	DB	't', 00H, 'y', 00H, '\', 00H, 'v', 00H, 'c', 00H, '\', 00H, 't'
	DB	00H, 'o', 00H, 'o', 00H, 'l', 00H, 's', 00H, '\', 00H, 'm', 00H
	DB	's', 00H, 'v', 00H, 'c', 00H, '\', 00H, '1', 00H, '4', 00H, '.'
	DB	00H, '1', 00H, '6', 00H, '.', 00H, '2', 00H, '7', 00H, '0', 00H
	DB	'2', 00H, '3', 00H, '\', 00H, 'i', 00H, 'n', 00H, 'c', 00H, 'l'
	DB	00H, 'u', 00H, 'd', 00H, 'e', 00H, '\', 00H, 'x', 00H, 'm', 00H
	DB	'e', 00H, 'm', 00H, 'o', 00H, 'r', 00H, 'y', 00H, '0', 00H, 00H
	DB	00H						; `string'
CONST	ENDS
;	COMDAT ??_C@_0GJ@FFDBCFBF@c?3?2program?5files?5?$CIx86?$CJ?2microsof@
CONST	SEGMENT
??_C@_0GJ@FFDBCFBF@c?3?2program?5files?5?$CIx86?$CJ?2microsof@ DB 'c:\pro'
	DB	'gram files (x86)\microsoft visual studio\2017\community\vc\to'
	DB	'ols\msvc\14.16.27023\include\xmemory0', 00H	; `string'
CONST	ENDS
;	COMDAT ?__LINE__Var@?0??_Adjust_manually_vector_aligned@std@@YAXAAPAXAAI@Z@4JA
_DATA	SEGMENT
?__LINE__Var@?0??_Adjust_manually_vector_aligned@std@@YAXAAPAXAAI@Z@4JA DD 072H ; `std::_Adjust_manually_vector_aligned'::`1'::__LINE__Var
_DATA	ENDS
;	COMDAT ??_C@_1DG@PLBPCAEM@?$AA?$CC?$AAI?$AAT?$AAE?$AAR?$AAA?$AAT?$AAO?$AAR?$AA?5?$AAL?$AAI?$AAS?$AAT?$AA?5@
CONST	SEGMENT
??_C@_1DG@PLBPCAEM@?$AA?$CC?$AAI?$AAT?$AAE?$AAR?$AAA?$AAT?$AAO?$AAR?$AA?5?$AAL?$AAI?$AAS?$AAT?$AA?5@ DB '"'
	DB	00H, 'I', 00H, 'T', 00H, 'E', 00H, 'R', 00H, 'A', 00H, 'T', 00H
	DB	'O', 00H, 'R', 00H, ' ', 00H, 'L', 00H, 'I', 00H, 'S', 00H, 'T'
	DB	00H, ' ', 00H, 'C', 00H, 'O', 00H, 'R', 00H, 'R', 00H, 'U', 00H
	DB	'P', 00H, 'T', 00H, 'E', 00H, 'D', 00H, '!', 00H, '"', 00H, 00H
	DB	00H						; `string'
CONST	ENDS
;	COMDAT ??_C@_1EE@KLDMFDFL@?$AAs?$AAt?$AAd?$AA?3?$AA?3?$AA_?$AAI?$AAt?$AAe?$AAr?$AAa?$AAt?$AAo?$AAr?$AA_@
CONST	SEGMENT
??_C@_1EE@KLDMFDFL@?$AAs?$AAt?$AAd?$AA?3?$AA?3?$AA_?$AAI?$AAt?$AAe?$AAr?$AAa?$AAt?$AAo?$AAr?$AA_@ DB 's'
	DB	00H, 't', 00H, 'd', 00H, ':', 00H, ':', 00H, '_', 00H, 'I', 00H
	DB	't', 00H, 'e', 00H, 'r', 00H, 'a', 00H, 't', 00H, 'o', 00H, 'r'
	DB	00H, '_', 00H, 'b', 00H, 'a', 00H, 's', 00H, 'e', 00H, '1', 00H
	DB	'2', 00H, ':', 00H, ':', 00H, '_', 00H, 'O', 00H, 'r', 00H, 'p'
	DB	00H, 'h', 00H, 'a', 00H, 'n', 00H, '_', 00H, 'm', 00H, 'e', 00H
	DB	00H, 00H					; `string'
CONST	ENDS
;	COMDAT ??_C@_1NC@FANNPLN@?$AAc?$AA?3?$AA?2?$AAp?$AAr?$AAo?$AAg?$AAr?$AAa?$AAm?$AA?5?$AAf?$AAi?$AAl?$AAe@
CONST	SEGMENT
??_C@_1NC@FANNPLN@?$AAc?$AA?3?$AA?2?$AAp?$AAr?$AAo?$AAg?$AAr?$AAa?$AAm?$AA?5?$AAf?$AAi?$AAl?$AAe@ DB 'c'
	DB	00H, ':', 00H, '\', 00H, 'p', 00H, 'r', 00H, 'o', 00H, 'g', 00H
	DB	'r', 00H, 'a', 00H, 'm', 00H, ' ', 00H, 'f', 00H, 'i', 00H, 'l'
	DB	00H, 'e', 00H, 's', 00H, ' ', 00H, '(', 00H, 'x', 00H, '8', 00H
	DB	'6', 00H, ')', 00H, '\', 00H, 'm', 00H, 'i', 00H, 'c', 00H, 'r'
	DB	00H, 'o', 00H, 's', 00H, 'o', 00H, 'f', 00H, 't', 00H, ' ', 00H
	DB	'v', 00H, 'i', 00H, 's', 00H, 'u', 00H, 'a', 00H, 'l', 00H, ' '
	DB	00H, 's', 00H, 't', 00H, 'u', 00H, 'd', 00H, 'i', 00H, 'o', 00H
	DB	'\', 00H, '2', 00H, '0', 00H, '1', 00H, '7', 00H, '\', 00H, 'c'
	DB	00H, 'o', 00H, 'm', 00H, 'm', 00H, 'u', 00H, 'n', 00H, 'i', 00H
	DB	't', 00H, 'y', 00H, '\', 00H, 'v', 00H, 'c', 00H, '\', 00H, 't'
	DB	00H, 'o', 00H, 'o', 00H, 'l', 00H, 's', 00H, '\', 00H, 'm', 00H
	DB	's', 00H, 'v', 00H, 'c', 00H, '\', 00H, '1', 00H, '4', 00H, '.'
	DB	00H, '1', 00H, '6', 00H, '.', 00H, '2', 00H, '7', 00H, '0', 00H
	DB	'2', 00H, '3', 00H, '\', 00H, 'i', 00H, 'n', 00H, 'c', 00H, 'l'
	DB	00H, 'u', 00H, 'd', 00H, 'e', 00H, '\', 00H, 'x', 00H, 'u', 00H
	DB	't', 00H, 'i', 00H, 'l', 00H, 'i', 00H, 't', 00H, 'y', 00H, 00H
	DB	00H						; `string'
CONST	ENDS
;	COMDAT ??_C@_0GJ@EJIMBHLG@c?3?2program?5files?5?$CIx86?$CJ?2microsof@
CONST	SEGMENT
??_C@_0GJ@EJIMBHLG@c?3?2program?5files?5?$CIx86?$CJ?2microsof@ DB 'c:\pro'
	DB	'gram files (x86)\microsoft visual studio\2017\community\vc\to'
	DB	'ols\msvc\14.16.27023\include\xutility', 00H	; `string'
CONST	ENDS
;	COMDAT ??_C@_0BJ@LFDBABJJ@ITERATOR?5LIST?5CORRUPTED?$CB@
CONST	SEGMENT
??_C@_0BJ@LFDBABJJ@ITERATOR?5LIST?5CORRUPTED?$CB@ DB 'ITERATOR LIST CORRU'
	DB	'PTED!', 00H					; `string'
CONST	ENDS
;	COMDAT ??_C@_1CG@JNLFBNGN@?$AA?$CC?$AAi?$AAn?$AAv?$AAa?$AAl?$AAi?$AAd?$AA?5?$AAa?$AAr?$AAg?$AAu?$AAm?$AAe@
CONST	SEGMENT
??_C@_1CG@JNLFBNGN@?$AA?$CC?$AAi?$AAn?$AAv?$AAa?$AAl?$AAi?$AAd?$AA?5?$AAa?$AAr?$AAg?$AAu?$AAm?$AAe@ DB '"'
	DB	00H, 'i', 00H, 'n', 00H, 'v', 00H, 'a', 00H, 'l', 00H, 'i', 00H
	DB	'd', 00H, ' ', 00H, 'a', 00H, 'r', 00H, 'g', 00H, 'u', 00H, 'm'
	DB	00H, 'e', 00H, 'n', 00H, 't', 00H, '"', 00H, 00H, 00H ; `string'
CONST	ENDS
;	COMDAT ??_C@_02DKCKIIND@?$CFs@
CONST	SEGMENT
??_C@_02DKCKIIND@?$CFs@ DB '%s', 00H			; `string'
CONST	ENDS
;	COMDAT ??_C@_0BB@FCMFBGOM@invalid?5argument@
CONST	SEGMENT
??_C@_0BB@FCMFBGOM@invalid?5argument@ DB 'invalid argument', 00H ; `string'
CONST	ENDS
;	COMDAT xdata$x
xdata$x	SEGMENT
__catchsym$??$_Insert_nohint@AAU?$pair@$$CBKV?$vector@UtagPropertyBuff@@V?$allocator@UtagPropertyBuff@@@std@@@std@@@std@@PAU?$_Tree_node@U?$pair@$$CBKV?$vector@UtagPropertyBuff@@V?$allocator@UtagPropertyBuff@@@std@@@std@@@std@@PAX@2@@?$_Tree@V?$_Tmap_traits@KV?$vector@UtagPropertyBuff@@V?$allocator@UtagPropertyBuff@@@std@@@std@@U?$less@K@2@V?$allocator@U?$pair@$$CBKV?$vector@UtagPropertyBuff@@V?$allocator@UtagPropertyBuff@@@std@@@std@@@std@@@2@$0A@@std@@@std@@IAE?AU?$pair@V?$_Tree_iterator@V?$_Tree_val@U?$_Tree_simple_types@U?$pair@$$CBKV?$vector@UtagPropertyBuff@@V?$allocator@UtagPropertyBuff@@@std@@@std@@@std@@@std@@@std@@@std@@_N@1@_NAAU?$pair@$$CBKV?$vector@UtagPropertyBuff@@V?$allocator@UtagPropertyBuff@@@std@@@std@@@1@PAU?$_Tree_node@U?$pair@$$CBKV?$vector@UtagPropertyBuff@@V?$allocator@UtagPropertyBuff@@@std@@@std@@@std@@PAX@1@@Z$8 DD 040H
	DD	00H
	DD	00H
	DD	FLAT:__catch$??$_Insert_nohint@AAU?$pair@$$CBKV?$vector@UtagPropertyBuff@@V?$allocator@UtagPropertyBuff@@@std@@@std@@@std@@PAU?$_Tree_node@U?$pair@$$CBKV?$vector@UtagPropertyBuff@@V?$allocator@UtagPropertyBuff@@@std@@@std@@@std@@PAX@2@@?$_Tree@V?$_Tmap_traits@KV?$vector@UtagPropertyBuff@@V?$allocator@UtagPropertyBuff@@@std@@@std@@U?$less@K@2@V?$allocator@U?$pair@$$CBKV?$vector@UtagPropertyBuff@@V?$allocator@UtagPropertyBuff@@@std@@@std@@@std@@@2@$0A@@std@@@std@@IAE?AU?$pair@V?$_Tree_iterator@V?$_Tree_val@U?$_Tree_simple_types@U?$pair@$$CBKV?$vector@UtagPropertyBuff@@V?$allocator@UtagPropertyBuff@@@std@@@std@@@std@@@std@@@std@@@std@@_N@1@_NAAU?$pair@$$CBKV?$vector@UtagPropertyBuff@@V?$allocator@UtagPropertyBuff@@@std@@@std@@@1@PAU?$_Tree_node@U?$pair@$$CBKV?$vector@UtagPropertyBuff@@V?$allocator@UtagPropertyBuff@@@std@@@std@@@std@@PAX@1@@Z$0
__tryblocktable$??$_Insert_nohint@AAU?$pair@$$CBKV?$vector@UtagPropertyBuff@@V?$allocator@UtagPropertyBuff@@@std@@@std@@@std@@PAU?$_Tree_node@U?$pair@$$CBKV?$vector@UtagPropertyBuff@@V?$allocator@UtagPropertyBuff@@@std@@@std@@@std@@PAX@2@@?$_Tree@V?$_Tmap_traits@KV?$vector@UtagPropertyBuff@@V?$allocator@UtagPropertyBuff@@@std@@@std@@U?$less@K@2@V?$allocator@U?$pair@$$CBKV?$vector@UtagPropertyBuff@@V?$allocator@UtagPropertyBuff@@@std@@@std@@@std@@@2@$0A@@std@@@std@@IAE?AU?$pair@V?$_Tree_iterator@V?$_Tree_val@U?$_Tree_simple_types@U?$pair@$$CBKV?$vector@UtagPropertyBuff@@V?$allocator@UtagPropertyBuff@@@std@@@std@@@std@@@std@@@std@@@std@@_N@1@_NAAU?$pair@$$CBKV?$vector@UtagPropertyBuff@@V?$allocator@UtagPropertyBuff@@@std@@@std@@@1@PAU?$_Tree_node@U?$pair@$$CBKV?$vector@UtagPropertyBuff@@V?$allocator@UtagPropertyBuff@@@std@@@std@@@std@@PAX@1@@Z DD 00H
	DD	02H
	DD	03H
	DD	01H
	DD	FLAT:__catchsym$??$_Insert_nohint@AAU?$pair@$$CBKV?$vector@UtagPropertyBuff@@V?$allocator@UtagPropertyBuff@@@std@@@std@@@std@@PAU?$_Tree_node@U?$pair@$$CBKV?$vector@UtagPropertyBuff@@V?$allocator@UtagPropertyBuff@@@std@@@std@@@std@@PAX@2@@?$_Tree@V?$_Tmap_traits@KV?$vector@UtagPropertyBuff@@V?$allocator@UtagPropertyBuff@@@std@@@std@@U?$less@K@2@V?$allocator@U?$pair@$$CBKV?$vector@UtagPropertyBuff@@V?$allocator@UtagPropertyBuff@@@std@@@std@@@std@@@2@$0A@@std@@@std@@IAE?AU?$pair@V?$_Tree_iterator@V?$_Tree_val@U?$_Tree_simple_types@U?$pair@$$CBKV?$vector@UtagPropertyBuff@@V?$allocator@UtagPropertyBuff@@@std@@@std@@@std@@@std@@@std@@@std@@_N@1@_NAAU?$pair@$$CBKV?$vector@UtagPropertyBuff@@V?$allocator@UtagPropertyBuff@@@std@@@std@@@1@PAU?$_Tree_node@U?$pair@$$CBKV?$vector@UtagPropertyBuff@@V?$allocator@UtagPropertyBuff@@@std@@@std@@@std@@PAX@1@@Z$8
__unwindtable$??$_Insert_nohint@AAU?$pair@$$CBKV?$vector@UtagPropertyBuff@@V?$allocator@UtagPropertyBuff@@@std@@@std@@@std@@PAU?$_Tree_node@U?$pair@$$CBKV?$vector@UtagPropertyBuff@@V?$allocator@UtagPropertyBuff@@@std@@@std@@@std@@PAX@2@@?$_Tree@V?$_Tmap_traits@KV?$vector@UtagPropertyBuff@@V?$allocator@UtagPropertyBuff@@@std@@@std@@U?$less@K@2@V?$allocator@U?$pair@$$CBKV?$vector@UtagPropertyBuff@@V?$allocator@UtagPropertyBuff@@@std@@@std@@@std@@@2@$0A@@std@@@std@@IAE?AU?$pair@V?$_Tree_iterator@V?$_Tree_val@U?$_Tree_simple_types@U?$pair@$$CBKV?$vector@UtagPropertyBuff@@V?$allocator@UtagPropertyBuff@@@std@@@std@@@std@@@std@@@std@@@std@@_N@1@_NAAU?$pair@$$CBKV?$vector@UtagPropertyBuff@@V?$allocator@UtagPropertyBuff@@@std@@@std@@@1@PAU?$_Tree_node@U?$pair@$$CBKV?$vector@UtagPropertyBuff@@V?$allocator@UtagPropertyBuff@@@std@@@std@@@std@@PAX@1@@Z DD 0ffffffffH
	DD	00H
	DD	00H
	DD	FLAT:__unwindfunclet$??$_Insert_nohint@AAU?$pair@$$CBKV?$vector@UtagPropertyBuff@@V?$allocator@UtagPropertyBuff@@@std@@@std@@@std@@PAU?$_Tree_node@U?$pair@$$CBKV?$vector@UtagPropertyBuff@@V?$allocator@UtagPropertyBuff@@@std@@@std@@@std@@PAX@2@@?$_Tree@V?$_Tmap_traits@KV?$vector@UtagPropertyBuff@@V?$allocator@UtagPropertyBuff@@@std@@@std@@U?$less@K@2@V?$allocator@U?$pair@$$CBKV?$vector@UtagPropertyBuff@@V?$allocator@UtagPropertyBuff@@@std@@@std@@@std@@@2@$0A@@std@@@std@@IAE?AU?$pair@V?$_Tree_iterator@V?$_Tree_val@U?$_Tree_simple_types@U?$pair@$$CBKV?$vector@UtagPropertyBuff@@V?$allocator@UtagPropertyBuff@@@std@@@std@@@std@@@std@@@std@@@std@@_N@1@_NAAU?$pair@$$CBKV?$vector@UtagPropertyBuff@@V?$allocator@UtagPropertyBuff@@@std@@@std@@@1@PAU?$_Tree_node@U?$pair@$$CBKV?$vector@UtagPropertyBuff@@V?$allocator@UtagPropertyBuff@@@std@@@std@@@std@@PAX@1@@Z$4
	DD	01H
	DD	FLAT:__unwindfunclet$??$_Insert_nohint@AAU?$pair@$$CBKV?$vector@UtagPropertyBuff@@V?$allocator@UtagPropertyBuff@@@std@@@std@@@std@@PAU?$_Tree_node@U?$pair@$$CBKV?$vector@UtagPropertyBuff@@V?$allocator@UtagPropertyBuff@@@std@@@std@@@std@@PAX@2@@?$_Tree@V?$_Tmap_traits@KV?$vector@UtagPropertyBuff@@V?$allocator@UtagPropertyBuff@@@std@@@std@@U?$less@K@2@V?$allocator@U?$pair@$$CBKV?$vector@UtagPropertyBuff@@V?$allocator@UtagPropertyBuff@@@std@@@std@@@std@@@2@$0A@@std@@@std@@IAE?AU?$pair@V?$_Tree_iterator@V?$_Tree_val@U?$_Tree_simple_types@U?$pair@$$CBKV?$vector@UtagPropertyBuff@@V?$allocator@UtagPropertyBuff@@@std@@@std@@@std@@@std@@@std@@@std@@_N@1@_NAAU?$pair@$$CBKV?$vector@UtagPropertyBuff@@V?$allocator@UtagPropertyBuff@@@std@@@std@@@1@PAU?$_Tree_node@U?$pair@$$CBKV?$vector@UtagPropertyBuff@@V?$allocator@UtagPropertyBuff@@@std@@@std@@@std@@PAX@1@@Z$5
	DD	0ffffffffH
	DD	00H
__ehfuncinfo$??$_Insert_nohint@AAU?$pair@$$CBKV?$vector@UtagPropertyBuff@@V?$allocator@UtagPropertyBuff@@@std@@@std@@@std@@PAU?$_Tree_node@U?$pair@$$CBKV?$vector@UtagPropertyBuff@@V?$allocator@UtagPropertyBuff@@@std@@@std@@@std@@PAX@2@@?$_Tree@V?$_Tmap_traits@KV?$vector@UtagPropertyBuff@@V?$allocator@UtagPropertyBuff@@@std@@@std@@U?$less@K@2@V?$allocator@U?$pair@$$CBKV?$vector@UtagPropertyBuff@@V?$allocator@UtagPropertyBuff@@@std@@@std@@@std@@@2@$0A@@std@@@std@@IAE?AU?$pair@V?$_Tree_iterator@V?$_Tree_val@U?$_Tree_simple_types@U?$pair@$$CBKV?$vector@UtagPropertyBuff@@V?$allocator@UtagPropertyBuff@@@std@@@std@@@std@@@std@@@std@@@std@@_N@1@_NAAU?$pair@$$CBKV?$vector@UtagPropertyBuff@@V?$allocator@UtagPropertyBuff@@@std@@@std@@@1@PAU?$_Tree_node@U?$pair@$$CBKV?$vector@UtagPropertyBuff@@V?$allocator@UtagPropertyBuff@@@std@@@std@@@std@@PAX@1@@Z DD 019930522H
	DD	04H
	DD	FLAT:__unwindtable$??$_Insert_nohint@AAU?$pair@$$CBKV?$vector@UtagPropertyBuff@@V?$allocator@UtagPropertyBuff@@@std@@@std@@@std@@PAU?$_Tree_node@U?$pair@$$CBKV?$vector@UtagPropertyBuff@@V?$allocator@UtagPropertyBuff@@@std@@@std@@@std@@PAX@2@@?$_Tree@V?$_Tmap_traits@KV?$vector@UtagPropertyBuff@@V?$allocator@UtagPropertyBuff@@@std@@@std@@U?$less@K@2@V?$allocator@U?$pair@$$CBKV?$vector@UtagPropertyBuff@@V?$allocator@UtagPropertyBuff@@@std@@@std@@@std@@@2@$0A@@std@@@std@@IAE?AU?$pair@V?$_Tree_iterator@V?$_Tree_val@U?$_Tree_simple_types@U?$pair@$$CBKV?$vector@UtagPropertyBuff@@V?$allocator@UtagPropertyBuff@@@std@@@std@@@std@@@std@@@std@@@std@@_N@1@_NAAU?$pair@$$CBKV?$vector@UtagPropertyBuff@@V?$allocator@UtagPropertyBuff@@@std@@@std@@@1@PAU?$_Tree_node@U?$pair@$$CBKV?$vector@UtagPropertyBuff@@V?$allocator@UtagPropertyBuff@@@std@@@std@@@std@@PAX@1@@Z
	DD	01H
	DD	FLAT:__tryblocktable$??$_Insert_nohint@AAU?$pair@$$CBKV?$vector@UtagPropertyBuff@@V?$allocator@UtagPropertyBuff@@@std@@@std@@@std@@PAU?$_Tree_node@U?$pair@$$CBKV?$vector@UtagPropertyBuff@@V?$allocator@UtagPropertyBuff@@@std@@@std@@@std@@PAX@2@@?$_Tree@V?$_Tmap_traits@KV?$vector@UtagPropertyBuff@@V?$allocator@UtagPropertyBuff@@@std@@@std@@U?$less@K@2@V?$allocator@U?$pair@$$CBKV?$vector@UtagPropertyBuff@@V?$allocator@UtagPropertyBuff@@@std@@@std@@@std@@@2@$0A@@std@@@std@@IAE?AU?$pair@V?$_Tree_iterator@V?$_Tree_val@U?$_Tree_simple_types@U?$pair@$$CBKV?$vector@UtagPropertyBuff@@V?$allocator@UtagPropertyBuff@@@std@@@std@@@std@@@std@@@std@@@std@@_N@1@_NAAU?$pair@$$CBKV?$vector@UtagPropertyBuff@@V?$allocator@UtagPropertyBuff@@@std@@@std@@@1@PAU?$_Tree_node@U?$pair@$$CBKV?$vector@UtagPropertyBuff@@V?$allocator@UtagPropertyBuff@@@std@@@std@@@std@@PAX@1@@Z
	DD	2 DUP(00H)
	DD	00H
	DD	01H
xdata$x	ENDS
;	COMDAT xdata$x
xdata$x	SEGMENT
__catchsym$??$_Insert_hint@AAU?$pair@$$CBKV?$vector@UtagPropertyBuff@@V?$allocator@UtagPropertyBuff@@@std@@@std@@@std@@PAU?$_Tree_node@U?$pair@$$CBKV?$vector@UtagPropertyBuff@@V?$allocator@UtagPropertyBuff@@@std@@@std@@@std@@PAX@2@@?$_Tree@V?$_Tmap_traits@KV?$vector@UtagPropertyBuff@@V?$allocator@UtagPropertyBuff@@@std@@@std@@U?$less@K@2@V?$allocator@U?$pair@$$CBKV?$vector@UtagPropertyBuff@@V?$allocator@UtagPropertyBuff@@@std@@@std@@@std@@@2@$0A@@std@@@std@@IAE?AV?$_Tree_iterator@V?$_Tree_val@U?$_Tree_simple_types@U?$pair@$$CBKV?$vector@UtagPropertyBuff@@V?$allocator@UtagPropertyBuff@@@std@@@std@@@std@@@std@@@std@@@1@V?$_Tree_const_iterator@V?$_Tree_val@U?$_Tree_simple_types@U?$pair@$$CBKV?$vector@UtagPropertyBuff@@V?$allocator@UtagPropertyBuff@@@std@@@std@@@std@@@std@@@std@@@1@AAU?$pair@$$CBKV?$vector@UtagPropertyBuff@@V?$allocator@UtagPropertyBuff@@@std@@@std@@@1@PAU?$_Tree_node@U?$pair@$$CBKV?$vector@UtagPropertyBuff@@V?$allocator@UtagPropertyBuff@@@std@@@std@@@std@@PAX@1@@Z$12 DD 040H
	DD	00H
	DD	00H
	DD	FLAT:__catch$??$_Insert_hint@AAU?$pair@$$CBKV?$vector@UtagPropertyBuff@@V?$allocator@UtagPropertyBuff@@@std@@@std@@@std@@PAU?$_Tree_node@U?$pair@$$CBKV?$vector@UtagPropertyBuff@@V?$allocator@UtagPropertyBuff@@@std@@@std@@@std@@PAX@2@@?$_Tree@V?$_Tmap_traits@KV?$vector@UtagPropertyBuff@@V?$allocator@UtagPropertyBuff@@@std@@@std@@U?$less@K@2@V?$allocator@U?$pair@$$CBKV?$vector@UtagPropertyBuff@@V?$allocator@UtagPropertyBuff@@@std@@@std@@@std@@@2@$0A@@std@@@std@@IAE?AV?$_Tree_iterator@V?$_Tree_val@U?$_Tree_simple_types@U?$pair@$$CBKV?$vector@UtagPropertyBuff@@V?$allocator@UtagPropertyBuff@@@std@@@std@@@std@@@std@@@std@@@1@V?$_Tree_const_iterator@V?$_Tree_val@U?$_Tree_simple_types@U?$pair@$$CBKV?$vector@UtagPropertyBuff@@V?$allocator@UtagPropertyBuff@@@std@@@std@@@std@@@std@@@std@@@1@AAU?$pair@$$CBKV?$vector@UtagPropertyBuff@@V?$allocator@UtagPropertyBuff@@@std@@@std@@@1@PAU?$_Tree_node@U?$pair@$$CBKV?$vector@UtagPropertyBuff@@V?$allocator@UtagPropertyBuff@@@std@@@std@@@std@@PAX@1@@Z$0
__tryblocktable$??$_Insert_hint@AAU?$pair@$$CBKV?$vector@UtagPropertyBuff@@V?$allocator@UtagPropertyBuff@@@std@@@std@@@std@@PAU?$_Tree_node@U?$pair@$$CBKV?$vector@UtagPropertyBuff@@V?$allocator@UtagPropertyBuff@@@std@@@std@@@std@@PAX@2@@?$_Tree@V?$_Tmap_traits@KV?$vector@UtagPropertyBuff@@V?$allocator@UtagPropertyBuff@@@std@@@std@@U?$less@K@2@V?$allocator@U?$pair@$$CBKV?$vector@UtagPropertyBuff@@V?$allocator@UtagPropertyBuff@@@std@@@std@@@std@@@2@$0A@@std@@@std@@IAE?AV?$_Tree_iterator@V?$_Tree_val@U?$_Tree_simple_types@U?$pair@$$CBKV?$vector@UtagPropertyBuff@@V?$allocator@UtagPropertyBuff@@@std@@@std@@@std@@@std@@@std@@@1@V?$_Tree_const_iterator@V?$_Tree_val@U?$_Tree_simple_types@U?$pair@$$CBKV?$vector@UtagPropertyBuff@@V?$allocator@UtagPropertyBuff@@@std@@@std@@@std@@@std@@@std@@@1@AAU?$pair@$$CBKV?$vector@UtagPropertyBuff@@V?$allocator@UtagPropertyBuff@@@std@@@std@@@1@PAU?$_Tree_node@U?$pair@$$CBKV?$vector@UtagPropertyBuff@@V?$allocator@UtagPropertyBuff@@@std@@@std@@@std@@PAX@1@@Z DD 02H
	DD	08H
	DD	09H
	DD	01H
	DD	FLAT:__catchsym$??$_Insert_hint@AAU?$pair@$$CBKV?$vector@UtagPropertyBuff@@V?$allocator@UtagPropertyBuff@@@std@@@std@@@std@@PAU?$_Tree_node@U?$pair@$$CBKV?$vector@UtagPropertyBuff@@V?$allocator@UtagPropertyBuff@@@std@@@std@@@std@@PAX@2@@?$_Tree@V?$_Tmap_traits@KV?$vector@UtagPropertyBuff@@V?$allocator@UtagPropertyBuff@@@std@@@std@@U?$less@K@2@V?$allocator@U?$pair@$$CBKV?$vector@UtagPropertyBuff@@V?$allocator@UtagPropertyBuff@@@std@@@std@@@std@@@2@$0A@@std@@@std@@IAE?AV?$_Tree_iterator@V?$_Tree_val@U?$_Tree_simple_types@U?$pair@$$CBKV?$vector@UtagPropertyBuff@@V?$allocator@UtagPropertyBuff@@@std@@@std@@@std@@@std@@@std@@@1@V?$_Tree_const_iterator@V?$_Tree_val@U?$_Tree_simple_types@U?$pair@$$CBKV?$vector@UtagPropertyBuff@@V?$allocator@UtagPropertyBuff@@@std@@@std@@@std@@@std@@@std@@@1@AAU?$pair@$$CBKV?$vector@UtagPropertyBuff@@V?$allocator@UtagPropertyBuff@@@std@@@std@@@1@PAU?$_Tree_node@U?$pair@$$CBKV?$vector@UtagPropertyBuff@@V?$allocator@UtagPropertyBuff@@@std@@@std@@@std@@PAX@1@@Z$12
__ehfuncinfo$??$_Insert_hint@AAU?$pair@$$CBKV?$vector@UtagPropertyBuff@@V?$allocator@UtagPropertyBuff@@@std@@@std@@@std@@PAU?$_Tree_node@U?$pair@$$CBKV?$vector@UtagPropertyBuff@@V?$allocator@UtagPropertyBuff@@@std@@@std@@@std@@PAX@2@@?$_Tree@V?$_Tmap_traits@KV?$vector@UtagPropertyBuff@@V?$allocator@UtagPropertyBuff@@@std@@@std@@U?$less@K@2@V?$allocator@U?$pair@$$CBKV?$vector@UtagPropertyBuff@@V?$allocator@UtagPropertyBuff@@@std@@@std@@@std@@@2@$0A@@std@@@std@@IAE?AV?$_Tree_iterator@V?$_Tree_val@U?$_Tree_simple_types@U?$pair@$$CBKV?$vector@UtagPropertyBuff@@V?$allocator@UtagPropertyBuff@@@std@@@std@@@std@@@std@@@std@@@1@V?$_Tree_const_iterator@V?$_Tree_val@U?$_Tree_simple_types@U?$pair@$$CBKV?$vector@UtagPropertyBuff@@V?$allocator@UtagPropertyBuff@@@std@@@std@@@std@@@std@@@std@@@1@AAU?$pair@$$CBKV?$vector@UtagPropertyBuff@@V?$allocator@UtagPropertyBuff@@@std@@@std@@@1@PAU?$_Tree_node@U?$pair@$$CBKV?$vector@UtagPropertyBuff@@V?$allocator@UtagPropertyBuff@@@std@@@std@@@std@@PAX@1@@Z DD 019930522H
	DD	0aH
	DD	FLAT:__unwindtable$??$_Insert_hint@AAU?$pair@$$CBKV?$vector@UtagPropertyBuff@@V?$allocator@UtagPropertyBuff@@@std@@@std@@@std@@PAU?$_Tree_node@U?$pair@$$CBKV?$vector@UtagPropertyBuff@@V?$allocator@UtagPropertyBuff@@@std@@@std@@@std@@PAX@2@@?$_Tree@V?$_Tmap_traits@KV?$vector@UtagPropertyBuff@@V?$allocator@UtagPropertyBuff@@@std@@@std@@U?$less@K@2@V?$allocator@U?$pair@$$CBKV?$vector@UtagPropertyBuff@@V?$allocator@UtagPropertyBuff@@@std@@@std@@@std@@@2@$0A@@std@@@std@@IAE?AV?$_Tree_iterator@V?$_Tree_val@U?$_Tree_simple_types@U?$pair@$$CBKV?$vector@UtagPropertyBuff@@V?$allocator@UtagPropertyBuff@@@std@@@std@@@std@@@std@@@std@@@1@V?$_Tree_const_iterator@V?$_Tree_val@U?$_Tree_simple_types@U?$pair@$$CBKV?$vector@UtagPropertyBuff@@V?$allocator@UtagPropertyBuff@@@std@@@std@@@std@@@std@@@std@@@1@AAU?$pair@$$CBKV?$vector@UtagPropertyBuff@@V?$allocator@UtagPropertyBuff@@@std@@@std@@@1@PAU?$_Tree_node@U?$pair@$$CBKV?$vector@UtagPropertyBuff@@V?$allocator@UtagPropertyBuff@@@std@@@std@@@std@@PAX@1@@Z
	DD	01H
	DD	FLAT:__tryblocktable$??$_Insert_hint@AAU?$pair@$$CBKV?$vector@UtagPropertyBuff@@V?$allocator@UtagPropertyBuff@@@std@@@std@@@std@@PAU?$_Tree_node@U?$pair@$$CBKV?$vector@UtagPropertyBuff@@V?$allocator@UtagPropertyBuff@@@std@@@std@@@std@@PAX@2@@?$_Tree@V?$_Tmap_traits@KV?$vector@UtagPropertyBuff@@V?$allocator@UtagPropertyBuff@@@std@@@std@@U?$less@K@2@V?$allocator@U?$pair@$$CBKV?$vector@UtagPropertyBuff@@V?$allocator@UtagPropertyBuff@@@std@@@std@@@std@@@2@$0A@@std@@@std@@IAE?AV?$_Tree_iterator@V?$_Tree_val@U?$_Tree_simple_types@U?$pair@$$CBKV?$vector@UtagPropertyBuff@@V?$allocator@UtagPropertyBuff@@@std@@@std@@@std@@@std@@@std@@@1@V?$_Tree_const_iterator@V?$_Tree_val@U?$_Tree_simple_types@U?$pair@$$CBKV?$vector@UtagPropertyBuff@@V?$allocator@UtagPropertyBuff@@@std@@@std@@@std@@@std@@@std@@@1@AAU?$pair@$$CBKV?$vector@UtagPropertyBuff@@V?$allocator@UtagPropertyBuff@@@std@@@std@@@1@PAU?$_Tree_node@U?$pair@$$CBKV?$vector@UtagPropertyBuff@@V?$allocator@UtagPropertyBuff@@@std@@@std@@@std@@PAX@1@@Z
	DD	2 DUP(00H)
	DD	00H
	DD	01H
__unwindtable$??$_Insert_hint@AAU?$pair@$$CBKV?$vector@UtagPropertyBuff@@V?$allocator@UtagPropertyBuff@@@std@@@std@@@std@@PAU?$_Tree_node@U?$pair@$$CBKV?$vector@UtagPropertyBuff@@V?$allocator@UtagPropertyBuff@@@std@@@std@@@std@@PAX@2@@?$_Tree@V?$_Tmap_traits@KV?$vector@UtagPropertyBuff@@V?$allocator@UtagPropertyBuff@@@std@@@std@@U?$less@K@2@V?$allocator@U?$pair@$$CBKV?$vector@UtagPropertyBuff@@V?$allocator@UtagPropertyBuff@@@std@@@std@@@std@@@2@$0A@@std@@@std@@IAE?AV?$_Tree_iterator@V?$_Tree_val@U?$_Tree_simple_types@U?$pair@$$CBKV?$vector@UtagPropertyBuff@@V?$allocator@UtagPropertyBuff@@@std@@@std@@@std@@@std@@@std@@@1@V?$_Tree_const_iterator@V?$_Tree_val@U?$_Tree_simple_types@U?$pair@$$CBKV?$vector@UtagPropertyBuff@@V?$allocator@UtagPropertyBuff@@@std@@@std@@@std@@@std@@@std@@@1@AAU?$pair@$$CBKV?$vector@UtagPropertyBuff@@V?$allocator@UtagPropertyBuff@@@std@@@std@@@1@PAU?$_Tree_node@U?$pair@$$CBKV?$vector@UtagPropertyBuff@@V?$allocator@UtagPropertyBuff@@@std@@@std@@@std@@PAX@1@@Z DD 0ffffffffH
	DD	FLAT:__unwindfunclet$??$_Insert_hint@AAU?$pair@$$CBKV?$vector@UtagPropertyBuff@@V?$allocator@UtagPropertyBuff@@@std@@@std@@@std@@PAU?$_Tree_node@U?$pair@$$CBKV?$vector@UtagPropertyBuff@@V?$allocator@UtagPropertyBuff@@@std@@@std@@@std@@PAX@2@@?$_Tree@V?$_Tmap_traits@KV?$vector@UtagPropertyBuff@@V?$allocator@UtagPropertyBuff@@@std@@@std@@U?$less@K@2@V?$allocator@U?$pair@$$CBKV?$vector@UtagPropertyBuff@@V?$allocator@UtagPropertyBuff@@@std@@@std@@@std@@@2@$0A@@std@@@std@@IAE?AV?$_Tree_iterator@V?$_Tree_val@U?$_Tree_simple_types@U?$pair@$$CBKV?$vector@UtagPropertyBuff@@V?$allocator@UtagPropertyBuff@@@std@@@std@@@std@@@std@@@std@@@1@V?$_Tree_const_iterator@V?$_Tree_val@U?$_Tree_simple_types@U?$pair@$$CBKV?$vector@UtagPropertyBuff@@V?$allocator@UtagPropertyBuff@@@std@@@std@@@std@@@std@@@std@@@1@AAU?$pair@$$CBKV?$vector@UtagPropertyBuff@@V?$allocator@UtagPropertyBuff@@@std@@@std@@@1@PAU?$_Tree_node@U?$pair@$$CBKV?$vector@UtagPropertyBuff@@V?$allocator@UtagPropertyBuff@@@std@@@std@@@std@@PAX@1@@Z$2
	DD	00H
	DD	FLAT:__unwindfunclet$??$_Insert_hint@AAU?$pair@$$CBKV?$vector@UtagPropertyBuff@@V?$allocator@UtagPropertyBuff@@@std@@@std@@@std@@PAU?$_Tree_node@U?$pair@$$CBKV?$vector@UtagPropertyBuff@@V?$allocator@UtagPropertyBuff@@@std@@@std@@@std@@PAX@2@@?$_Tree@V?$_Tmap_traits@KV?$vector@UtagPropertyBuff@@V?$allocator@UtagPropertyBuff@@@std@@@std@@U?$less@K@2@V?$allocator@U?$pair@$$CBKV?$vector@UtagPropertyBuff@@V?$allocator@UtagPropertyBuff@@@std@@@std@@@std@@@2@$0A@@std@@@std@@IAE?AV?$_Tree_iterator@V?$_Tree_val@U?$_Tree_simple_types@U?$pair@$$CBKV?$vector@UtagPropertyBuff@@V?$allocator@UtagPropertyBuff@@@std@@@std@@@std@@@std@@@std@@@1@V?$_Tree_const_iterator@V?$_Tree_val@U?$_Tree_simple_types@U?$pair@$$CBKV?$vector@UtagPropertyBuff@@V?$allocator@UtagPropertyBuff@@@std@@@std@@@std@@@std@@@std@@@1@AAU?$pair@$$CBKV?$vector@UtagPropertyBuff@@V?$allocator@UtagPropertyBuff@@@std@@@std@@@1@PAU?$_Tree_node@U?$pair@$$CBKV?$vector@UtagPropertyBuff@@V?$allocator@UtagPropertyBuff@@@std@@@std@@@std@@PAX@1@@Z$3
	DD	01H
	DD	00H
	DD	02H
	DD	FLAT:__unwindfunclet$??$_Insert_hint@AAU?$pair@$$CBKV?$vector@UtagPropertyBuff@@V?$allocator@UtagPropertyBuff@@@std@@@std@@@std@@PAU?$_Tree_node@U?$pair@$$CBKV?$vector@UtagPropertyBuff@@V?$allocator@UtagPropertyBuff@@@std@@@std@@@std@@PAX@2@@?$_Tree@V?$_Tmap_traits@KV?$vector@UtagPropertyBuff@@V?$allocator@UtagPropertyBuff@@@std@@@std@@U?$less@K@2@V?$allocator@U?$pair@$$CBKV?$vector@UtagPropertyBuff@@V?$allocator@UtagPropertyBuff@@@std@@@std@@@std@@@2@$0A@@std@@@std@@IAE?AV?$_Tree_iterator@V?$_Tree_val@U?$_Tree_simple_types@U?$pair@$$CBKV?$vector@UtagPropertyBuff@@V?$allocator@UtagPropertyBuff@@@std@@@std@@@std@@@std@@@std@@@1@V?$_Tree_const_iterator@V?$_Tree_val@U?$_Tree_simple_types@U?$pair@$$CBKV?$vector@UtagPropertyBuff@@V?$allocator@UtagPropertyBuff@@@std@@@std@@@std@@@std@@@std@@@1@AAU?$pair@$$CBKV?$vector@UtagPropertyBuff@@V?$allocator@UtagPropertyBuff@@@std@@@std@@@1@PAU?$_Tree_node@U?$pair@$$CBKV?$vector@UtagPropertyBuff@@V?$allocator@UtagPropertyBuff@@@std@@@std@@@std@@PAX@1@@Z$5
	DD	02H
	DD	FLAT:__unwindfunclet$??$_Insert_hint@AAU?$pair@$$CBKV?$vector@UtagPropertyBuff@@V?$allocator@UtagPropertyBuff@@@std@@@std@@@std@@PAU?$_Tree_node@U?$pair@$$CBKV?$vector@UtagPropertyBuff@@V?$allocator@UtagPropertyBuff@@@std@@@std@@@std@@PAX@2@@?$_Tree@V?$_Tmap_traits@KV?$vector@UtagPropertyBuff@@V?$allocator@UtagPropertyBuff@@@std@@@std@@U?$less@K@2@V?$allocator@U?$pair@$$CBKV?$vector@UtagPropertyBuff@@V?$allocator@UtagPropertyBuff@@@std@@@std@@@std@@@2@$0A@@std@@@std@@IAE?AV?$_Tree_iterator@V?$_Tree_val@U?$_Tree_simple_types@U?$pair@$$CBKV?$vector@UtagPropertyBuff@@V?$allocator@UtagPropertyBuff@@@std@@@std@@@std@@@std@@@std@@@1@V?$_Tree_const_iterator@V?$_Tree_val@U?$_Tree_simple_types@U?$pair@$$CBKV?$vector@UtagPropertyBuff@@V?$allocator@UtagPropertyBuff@@@std@@@std@@@std@@@std@@@std@@@1@AAU?$pair@$$CBKV?$vector@UtagPropertyBuff@@V?$allocator@UtagPropertyBuff@@@std@@@std@@@1@PAU?$_Tree_node@U?$pair@$$CBKV?$vector@UtagPropertyBuff@@V?$allocator@UtagPropertyBuff@@@std@@@std@@@std@@PAX@1@@Z$6
	DD	02H
	DD	FLAT:__unwindfunclet$??$_Insert_hint@AAU?$pair@$$CBKV?$vector@UtagPropertyBuff@@V?$allocator@UtagPropertyBuff@@@std@@@std@@@std@@PAU?$_Tree_node@U?$pair@$$CBKV?$vector@UtagPropertyBuff@@V?$allocator@UtagPropertyBuff@@@std@@@std@@@std@@PAX@2@@?$_Tree@V?$_Tmap_traits@KV?$vector@UtagPropertyBuff@@V?$allocator@UtagPropertyBuff@@@std@@@std@@U?$less@K@2@V?$allocator@U?$pair@$$CBKV?$vector@UtagPropertyBuff@@V?$allocator@UtagPropertyBuff@@@std@@@std@@@std@@@2@$0A@@std@@@std@@IAE?AV?$_Tree_iterator@V?$_Tree_val@U?$_Tree_simple_types@U?$pair@$$CBKV?$vector@UtagPropertyBuff@@V?$allocator@UtagPropertyBuff@@@std@@@std@@@std@@@std@@@std@@@1@V?$_Tree_const_iterator@V?$_Tree_val@U?$_Tree_simple_types@U?$pair@$$CBKV?$vector@UtagPropertyBuff@@V?$allocator@UtagPropertyBuff@@@std@@@std@@@std@@@std@@@std@@@1@AAU?$pair@$$CBKV?$vector@UtagPropertyBuff@@V?$allocator@UtagPropertyBuff@@@std@@@std@@@1@PAU?$_Tree_node@U?$pair@$$CBKV?$vector@UtagPropertyBuff@@V?$allocator@UtagPropertyBuff@@@std@@@std@@@std@@PAX@1@@Z$7
	DD	02H
	DD	FLAT:__unwindfunclet$??$_Insert_hint@AAU?$pair@$$CBKV?$vector@UtagPropertyBuff@@V?$allocator@UtagPropertyBuff@@@std@@@std@@@std@@PAU?$_Tree_node@U?$pair@$$CBKV?$vector@UtagPropertyBuff@@V?$allocator@UtagPropertyBuff@@@std@@@std@@@std@@PAX@2@@?$_Tree@V?$_Tmap_traits@KV?$vector@UtagPropertyBuff@@V?$allocator@UtagPropertyBuff@@@std@@@std@@U?$less@K@2@V?$allocator@U?$pair@$$CBKV?$vector@UtagPropertyBuff@@V?$allocator@UtagPropertyBuff@@@std@@@std@@@std@@@2@$0A@@std@@@std@@IAE?AV?$_Tree_iterator@V?$_Tree_val@U?$_Tree_simple_types@U?$pair@$$CBKV?$vector@UtagPropertyBuff@@V?$allocator@UtagPropertyBuff@@@std@@@std@@@std@@@std@@@std@@@1@V?$_Tree_const_iterator@V?$_Tree_val@U?$_Tree_simple_types@U?$pair@$$CBKV?$vector@UtagPropertyBuff@@V?$allocator@UtagPropertyBuff@@@std@@@std@@@std@@@std@@@std@@@1@AAU?$pair@$$CBKV?$vector@UtagPropertyBuff@@V?$allocator@UtagPropertyBuff@@@std@@@std@@@1@PAU?$_Tree_node@U?$pair@$$CBKV?$vector@UtagPropertyBuff@@V?$allocator@UtagPropertyBuff@@@std@@@std@@@std@@PAX@1@@Z$8
	DD	02H
	DD	FLAT:__unwindfunclet$??$_Insert_hint@AAU?$pair@$$CBKV?$vector@UtagPropertyBuff@@V?$allocator@UtagPropertyBuff@@@std@@@std@@@std@@PAU?$_Tree_node@U?$pair@$$CBKV?$vector@UtagPropertyBuff@@V?$allocator@UtagPropertyBuff@@@std@@@std@@@std@@PAX@2@@?$_Tree@V?$_Tmap_traits@KV?$vector@UtagPropertyBuff@@V?$allocator@UtagPropertyBuff@@@std@@@std@@U?$less@K@2@V?$allocator@U?$pair@$$CBKV?$vector@UtagPropertyBuff@@V?$allocator@UtagPropertyBuff@@@std@@@std@@@std@@@2@$0A@@std@@@std@@IAE?AV?$_Tree_iterator@V?$_Tree_val@U?$_Tree_simple_types@U?$pair@$$CBKV?$vector@UtagPropertyBuff@@V?$allocator@UtagPropertyBuff@@@std@@@std@@@std@@@std@@@std@@@1@V?$_Tree_const_iterator@V?$_Tree_val@U?$_Tree_simple_types@U?$pair@$$CBKV?$vector@UtagPropertyBuff@@V?$allocator@UtagPropertyBuff@@@std@@@std@@@std@@@std@@@std@@@1@AAU?$pair@$$CBKV?$vector@UtagPropertyBuff@@V?$allocator@UtagPropertyBuff@@@std@@@std@@@1@PAU?$_Tree_node@U?$pair@$$CBKV?$vector@UtagPropertyBuff@@V?$allocator@UtagPropertyBuff@@@std@@@std@@@std@@PAX@1@@Z$9
	DD	02H
	DD	FLAT:__unwindfunclet$??$_Insert_hint@AAU?$pair@$$CBKV?$vector@UtagPropertyBuff@@V?$allocator@UtagPropertyBuff@@@std@@@std@@@std@@PAU?$_Tree_node@U?$pair@$$CBKV?$vector@UtagPropertyBuff@@V?$allocator@UtagPropertyBuff@@@std@@@std@@@std@@PAX@2@@?$_Tree@V?$_Tmap_traits@KV?$vector@UtagPropertyBuff@@V?$allocator@UtagPropertyBuff@@@std@@@std@@U?$less@K@2@V?$allocator@U?$pair@$$CBKV?$vector@UtagPropertyBuff@@V?$allocator@UtagPropertyBuff@@@std@@@std@@@std@@@2@$0A@@std@@@std@@IAE?AV?$_Tree_iterator@V?$_Tree_val@U?$_Tree_simple_types@U?$pair@$$CBKV?$vector@UtagPropertyBuff@@V?$allocator@UtagPropertyBuff@@@std@@@std@@@std@@@std@@@std@@@1@V?$_Tree_const_iterator@V?$_Tree_val@U?$_Tree_simple_types@U?$pair@$$CBKV?$vector@UtagPropertyBuff@@V?$allocator@UtagPropertyBuff@@@std@@@std@@@std@@@std@@@std@@@1@AAU?$pair@$$CBKV?$vector@UtagPropertyBuff@@V?$allocator@UtagPropertyBuff@@@std@@@std@@@1@PAU?$_Tree_node@U?$pair@$$CBKV?$vector@UtagPropertyBuff@@V?$allocator@UtagPropertyBuff@@@std@@@std@@@std@@PAX@1@@Z$10
	DD	01H
	DD	00H
xdata$x	ENDS
;	COMDAT xdata$x
xdata$x	SEGMENT
__catchsym$??$_Buynode@ABUpiecewise_construct_t@std@@V?$tuple@ABK@2@V?$tuple@$$V@2@@?$_Tree_comp_alloc@V?$_Tmap_traits@KV?$vector@UtagPropertyBuff@@V?$allocator@UtagPropertyBuff@@@std@@@std@@U?$less@K@2@V?$allocator@U?$pair@$$CBKV?$vector@UtagPropertyBuff@@V?$allocator@UtagPropertyBuff@@@std@@@std@@@std@@@2@$0A@@std@@@std@@QAEPAU?$_Tree_node@U?$pair@$$CBKV?$vector@UtagPropertyBuff@@V?$allocator@UtagPropertyBuff@@@std@@@std@@@std@@PAX@1@ABUpiecewise_construct_t@1@$$QAV?$tuple@ABK@1@$$QAV?$tuple@$$V@1@@Z$2 DD 040H
	DD	00H
	DD	00H
	DD	FLAT:__catch$??$_Buynode@ABUpiecewise_construct_t@std@@V?$tuple@ABK@2@V?$tuple@$$V@2@@?$_Tree_comp_alloc@V?$_Tmap_traits@KV?$vector@UtagPropertyBuff@@V?$allocator@UtagPropertyBuff@@@std@@@std@@U?$less@K@2@V?$allocator@U?$pair@$$CBKV?$vector@UtagPropertyBuff@@V?$allocator@UtagPropertyBuff@@@std@@@std@@@std@@@2@$0A@@std@@@std@@QAEPAU?$_Tree_node@U?$pair@$$CBKV?$vector@UtagPropertyBuff@@V?$allocator@UtagPropertyBuff@@@std@@@std@@@std@@PAX@1@ABUpiecewise_construct_t@1@$$QAV?$tuple@ABK@1@$$QAV?$tuple@$$V@1@@Z$0
__unwindtable$??$_Buynode@ABUpiecewise_construct_t@std@@V?$tuple@ABK@2@V?$tuple@$$V@2@@?$_Tree_comp_alloc@V?$_Tmap_traits@KV?$vector@UtagPropertyBuff@@V?$allocator@UtagPropertyBuff@@@std@@@std@@U?$less@K@2@V?$allocator@U?$pair@$$CBKV?$vector@UtagPropertyBuff@@V?$allocator@UtagPropertyBuff@@@std@@@std@@@std@@@2@$0A@@std@@@std@@QAEPAU?$_Tree_node@U?$pair@$$CBKV?$vector@UtagPropertyBuff@@V?$allocator@UtagPropertyBuff@@@std@@@std@@@std@@PAX@1@ABUpiecewise_construct_t@1@$$QAV?$tuple@ABK@1@$$QAV?$tuple@$$V@1@@Z DD 0ffffffffH
	DD	00H
	DD	0ffffffffH
	DD	00H
__tryblocktable$??$_Buynode@ABUpiecewise_construct_t@std@@V?$tuple@ABK@2@V?$tuple@$$V@2@@?$_Tree_comp_alloc@V?$_Tmap_traits@KV?$vector@UtagPropertyBuff@@V?$allocator@UtagPropertyBuff@@@std@@@std@@U?$less@K@2@V?$allocator@U?$pair@$$CBKV?$vector@UtagPropertyBuff@@V?$allocator@UtagPropertyBuff@@@std@@@std@@@std@@@2@$0A@@std@@@std@@QAEPAU?$_Tree_node@U?$pair@$$CBKV?$vector@UtagPropertyBuff@@V?$allocator@UtagPropertyBuff@@@std@@@std@@@std@@PAX@1@ABUpiecewise_construct_t@1@$$QAV?$tuple@ABK@1@$$QAV?$tuple@$$V@1@@Z DD 00H
	DD	00H
	DD	01H
	DD	01H
	DD	FLAT:__catchsym$??$_Buynode@ABUpiecewise_construct_t@std@@V?$tuple@ABK@2@V?$tuple@$$V@2@@?$_Tree_comp_alloc@V?$_Tmap_traits@KV?$vector@UtagPropertyBuff@@V?$allocator@UtagPropertyBuff@@@std@@@std@@U?$less@K@2@V?$allocator@U?$pair@$$CBKV?$vector@UtagPropertyBuff@@V?$allocator@UtagPropertyBuff@@@std@@@std@@@std@@@2@$0A@@std@@@std@@QAEPAU?$_Tree_node@U?$pair@$$CBKV?$vector@UtagPropertyBuff@@V?$allocator@UtagPropertyBuff@@@std@@@std@@@std@@PAX@1@ABUpiecewise_construct_t@1@$$QAV?$tuple@ABK@1@$$QAV?$tuple@$$V@1@@Z$2
__ehfuncinfo$??$_Buynode@ABUpiecewise_construct_t@std@@V?$tuple@ABK@2@V?$tuple@$$V@2@@?$_Tree_comp_alloc@V?$_Tmap_traits@KV?$vector@UtagPropertyBuff@@V?$allocator@UtagPropertyBuff@@@std@@@std@@U?$less@K@2@V?$allocator@U?$pair@$$CBKV?$vector@UtagPropertyBuff@@V?$allocator@UtagPropertyBuff@@@std@@@std@@@std@@@2@$0A@@std@@@std@@QAEPAU?$_Tree_node@U?$pair@$$CBKV?$vector@UtagPropertyBuff@@V?$allocator@UtagPropertyBuff@@@std@@@std@@@std@@PAX@1@ABUpiecewise_construct_t@1@$$QAV?$tuple@ABK@1@$$QAV?$tuple@$$V@1@@Z DD 019930522H
	DD	02H
	DD	FLAT:__unwindtable$??$_Buynode@ABUpiecewise_construct_t@std@@V?$tuple@ABK@2@V?$tuple@$$V@2@@?$_Tree_comp_alloc@V?$_Tmap_traits@KV?$vector@UtagPropertyBuff@@V?$allocator@UtagPropertyBuff@@@std@@@std@@U?$less@K@2@V?$allocator@U?$pair@$$CBKV?$vector@UtagPropertyBuff@@V?$allocator@UtagPropertyBuff@@@std@@@std@@@std@@@2@$0A@@std@@@std@@QAEPAU?$_Tree_node@U?$pair@$$CBKV?$vector@UtagPropertyBuff@@V?$allocator@UtagPropertyBuff@@@std@@@std@@@std@@PAX@1@ABUpiecewise_construct_t@1@$$QAV?$tuple@ABK@1@$$QAV?$tuple@$$V@1@@Z
	DD	01H
	DD	FLAT:__tryblocktable$??$_Buynode@ABUpiecewise_construct_t@std@@V?$tuple@ABK@2@V?$tuple@$$V@2@@?$_Tree_comp_alloc@V?$_Tmap_traits@KV?$vector@UtagPropertyBuff@@V?$allocator@UtagPropertyBuff@@@std@@@std@@U?$less@K@2@V?$allocator@U?$pair@$$CBKV?$vector@UtagPropertyBuff@@V?$allocator@UtagPropertyBuff@@@std@@@std@@@std@@@2@$0A@@std@@@std@@QAEPAU?$_Tree_node@U?$pair@$$CBKV?$vector@UtagPropertyBuff@@V?$allocator@UtagPropertyBuff@@@std@@@std@@@std@@PAX@1@ABUpiecewise_construct_t@1@$$QAV?$tuple@ABK@1@$$QAV?$tuple@$$V@1@@Z
	DD	2 DUP(00H)
	DD	00H
	DD	01H
xdata$x	ENDS
;	COMDAT xdata$x
xdata$x	SEGMENT
__ehfuncinfo$??$?0ABK$0A@@?$tuple@ABK@std@@QAE@ABK@Z DD 019930522H
	DD	00H
	DD	00H
	DD	2 DUP(00H)
	DD	2 DUP(00H)
	DD	00H
	DD	05H
xdata$x	ENDS
;	COMDAT xdata$x
xdata$x	SEGMENT
__unwindtable$??$emplace_hint@ABUpiecewise_construct_t@std@@V?$tuple@ABK@2@V?$tuple@$$V@2@@?$_Tree@V?$_Tmap_traits@KV?$vector@UtagPropertyBuff@@V?$allocator@UtagPropertyBuff@@@std@@@std@@U?$less@K@2@V?$allocator@U?$pair@$$CBKV?$vector@UtagPropertyBuff@@V?$allocator@UtagPropertyBuff@@@std@@@std@@@std@@@2@$0A@@std@@@std@@QAE?AV?$_Tree_iterator@V?$_Tree_val@U?$_Tree_simple_types@U?$pair@$$CBKV?$vector@UtagPropertyBuff@@V?$allocator@UtagPropertyBuff@@@std@@@std@@@std@@@std@@@std@@@1@V?$_Tree_const_iterator@V?$_Tree_val@U?$_Tree_simple_types@U?$pair@$$CBKV?$vector@UtagPropertyBuff@@V?$allocator@UtagPropertyBuff@@@std@@@std@@@std@@@std@@@std@@@1@ABUpiecewise_construct_t@1@$$QAV?$tuple@ABK@1@$$QAV?$tuple@$$V@1@@Z DD 0ffffffffH
	DD	FLAT:__unwindfunclet$??$emplace_hint@ABUpiecewise_construct_t@std@@V?$tuple@ABK@2@V?$tuple@$$V@2@@?$_Tree@V?$_Tmap_traits@KV?$vector@UtagPropertyBuff@@V?$allocator@UtagPropertyBuff@@@std@@@std@@U?$less@K@2@V?$allocator@U?$pair@$$CBKV?$vector@UtagPropertyBuff@@V?$allocator@UtagPropertyBuff@@@std@@@std@@@std@@@2@$0A@@std@@@std@@QAE?AV?$_Tree_iterator@V?$_Tree_val@U?$_Tree_simple_types@U?$pair@$$CBKV?$vector@UtagPropertyBuff@@V?$allocator@UtagPropertyBuff@@@std@@@std@@@std@@@std@@@std@@@1@V?$_Tree_const_iterator@V?$_Tree_val@U?$_Tree_simple_types@U?$pair@$$CBKV?$vector@UtagPropertyBuff@@V?$allocator@UtagPropertyBuff@@@std@@@std@@@std@@@std@@@std@@@1@ABUpiecewise_construct_t@1@$$QAV?$tuple@ABK@1@$$QAV?$tuple@$$V@1@@Z$0
__ehfuncinfo$??$emplace_hint@ABUpiecewise_construct_t@std@@V?$tuple@ABK@2@V?$tuple@$$V@2@@?$_Tree@V?$_Tmap_traits@KV?$vector@UtagPropertyBuff@@V?$allocator@UtagPropertyBuff@@@std@@@std@@U?$less@K@2@V?$allocator@U?$pair@$$CBKV?$vector@UtagPropertyBuff@@V?$allocator@UtagPropertyBuff@@@std@@@std@@@std@@@2@$0A@@std@@@std@@QAE?AV?$_Tree_iterator@V?$_Tree_val@U?$_Tree_simple_types@U?$pair@$$CBKV?$vector@UtagPropertyBuff@@V?$allocator@UtagPropertyBuff@@@std@@@std@@@std@@@std@@@std@@@1@V?$_Tree_const_iterator@V?$_Tree_val@U?$_Tree_simple_types@U?$pair@$$CBKV?$vector@UtagPropertyBuff@@V?$allocator@UtagPropertyBuff@@@std@@@std@@@std@@@std@@@std@@@1@ABUpiecewise_construct_t@1@$$QAV?$tuple@ABK@1@$$QAV?$tuple@$$V@1@@Z DD 019930522H
	DD	01H
	DD	FLAT:__unwindtable$??$emplace_hint@ABUpiecewise_construct_t@std@@V?$tuple@ABK@2@V?$tuple@$$V@2@@?$_Tree@V?$_Tmap_traits@KV?$vector@UtagPropertyBuff@@V?$allocator@UtagPropertyBuff@@@std@@@std@@U?$less@K@2@V?$allocator@U?$pair@$$CBKV?$vector@UtagPropertyBuff@@V?$allocator@UtagPropertyBuff@@@std@@@std@@@std@@@2@$0A@@std@@@std@@QAE?AV?$_Tree_iterator@V?$_Tree_val@U?$_Tree_simple_types@U?$pair@$$CBKV?$vector@UtagPropertyBuff@@V?$allocator@UtagPropertyBuff@@@std@@@std@@@std@@@std@@@std@@@1@V?$_Tree_const_iterator@V?$_Tree_val@U?$_Tree_simple_types@U?$pair@$$CBKV?$vector@UtagPropertyBuff@@V?$allocator@UtagPropertyBuff@@@std@@@std@@@std@@@std@@@std@@@1@ABUpiecewise_construct_t@1@$$QAV?$tuple@ABK@1@$$QAV?$tuple@$$V@1@@Z
	DD	2 DUP(00H)
	DD	2 DUP(00H)
	DD	00H
	DD	01H
xdata$x	ENDS
;	COMDAT xdata$x
xdata$x	SEGMENT
__unwindtable$??$_Try_emplace@ABK$$V@?$map@KV?$vector@UtagPropertyBuff@@V?$allocator@UtagPropertyBuff@@@std@@@std@@U?$less@K@2@V?$allocator@U?$pair@$$CBKV?$vector@UtagPropertyBuff@@V?$allocator@UtagPropertyBuff@@@std@@@std@@@std@@@2@@std@@QAE?AU?$pair@V?$_Tree_iterator@V?$_Tree_val@U?$_Tree_simple_types@U?$pair@$$CBKV?$vector@UtagPropertyBuff@@V?$allocator@UtagPropertyBuff@@@std@@@std@@@std@@@std@@@std@@@std@@_N@1@ABK@Z DD 0ffffffffH
	DD	FLAT:__unwindfunclet$??$_Try_emplace@ABK$$V@?$map@KV?$vector@UtagPropertyBuff@@V?$allocator@UtagPropertyBuff@@@std@@@std@@U?$less@K@2@V?$allocator@U?$pair@$$CBKV?$vector@UtagPropertyBuff@@V?$allocator@UtagPropertyBuff@@@std@@@std@@@std@@@2@@std@@QAE?AU?$pair@V?$_Tree_iterator@V?$_Tree_val@U?$_Tree_simple_types@U?$pair@$$CBKV?$vector@UtagPropertyBuff@@V?$allocator@UtagPropertyBuff@@@std@@@std@@@std@@@std@@@std@@@std@@_N@1@ABK@Z$0
	DD	00H
	DD	FLAT:__unwindfunclet$??$_Try_emplace@ABK$$V@?$map@KV?$vector@UtagPropertyBuff@@V?$allocator@UtagPropertyBuff@@@std@@@std@@U?$less@K@2@V?$allocator@U?$pair@$$CBKV?$vector@UtagPropertyBuff@@V?$allocator@UtagPropertyBuff@@@std@@@std@@@std@@@2@@std@@QAE?AU?$pair@V?$_Tree_iterator@V?$_Tree_val@U?$_Tree_simple_types@U?$pair@$$CBKV?$vector@UtagPropertyBuff@@V?$allocator@UtagPropertyBuff@@@std@@@std@@@std@@@std@@@std@@@std@@_N@1@ABK@Z$1
__ehfuncinfo$??$_Try_emplace@ABK$$V@?$map@KV?$vector@UtagPropertyBuff@@V?$allocator@UtagPropertyBuff@@@std@@@std@@U?$less@K@2@V?$allocator@U?$pair@$$CBKV?$vector@UtagPropertyBuff@@V?$allocator@UtagPropertyBuff@@@std@@@std@@@std@@@2@@std@@QAE?AU?$pair@V?$_Tree_iterator@V?$_Tree_val@U?$_Tree_simple_types@U?$pair@$$CBKV?$vector@UtagPropertyBuff@@V?$allocator@UtagPropertyBuff@@@std@@@std@@@std@@@std@@@std@@@std@@_N@1@ABK@Z DD 019930522H
	DD	02H
	DD	FLAT:__unwindtable$??$_Try_emplace@ABK$$V@?$map@KV?$vector@UtagPropertyBuff@@V?$allocator@UtagPropertyBuff@@@std@@@std@@U?$less@K@2@V?$allocator@U?$pair@$$CBKV?$vector@UtagPropertyBuff@@V?$allocator@UtagPropertyBuff@@@std@@@std@@@std@@@2@@std@@QAE?AU?$pair@V?$_Tree_iterator@V?$_Tree_val@U?$_Tree_simple_types@U?$pair@$$CBKV?$vector@UtagPropertyBuff@@V?$allocator@UtagPropertyBuff@@@std@@@std@@@std@@@std@@@std@@@std@@_N@1@ABK@Z
	DD	2 DUP(00H)
	DD	2 DUP(00H)
	DD	00H
	DD	01H
xdata$x	ENDS
;	COMDAT xdata$x
xdata$x	SEGMENT
__ehfuncinfo$??$_Freenode0@V?$allocator@U?$_Tree_node@U?$pair@$$CBKV?$vector@UtagPropertyBuff@@V?$allocator@UtagPropertyBuff@@@std@@@std@@@std@@PAX@std@@@std@@@?$_Tree_node@U?$pair@$$CBKV?$vector@UtagPropertyBuff@@V?$allocator@UtagPropertyBuff@@@std@@@std@@@std@@PAX@std@@SAXAAV?$allocator@U?$_Tree_node@U?$pair@$$CBKV?$vector@UtagPropertyBuff@@V?$allocator@UtagPropertyBuff@@@std@@@std@@@std@@PAX@std@@@1@PAU01@@Z DD 019930522H
	DD	00H
	DD	00H
	DD	2 DUP(00H)
	DD	2 DUP(00H)
	DD	00H
	DD	05H
xdata$x	ENDS
;	COMDAT xdata$x
xdata$x	SEGMENT
__catchsym$??$_Emplace_reallocate@ABUtagPropertyBuff@@@?$vector@UtagPropertyBuff@@V?$allocator@UtagPropertyBuff@@@std@@@std@@QAEPAUtagPropertyBuff@@QAU2@ABU2@@Z$2 DD 040H
	DD	00H
	DD	00H
	DD	FLAT:__catch$??$_Emplace_reallocate@ABUtagPropertyBuff@@@?$vector@UtagPropertyBuff@@V?$allocator@UtagPropertyBuff@@@std@@@std@@QAEPAUtagPropertyBuff@@QAU2@ABU2@@Z$0
__unwindtable$??$_Emplace_reallocate@ABUtagPropertyBuff@@@?$vector@UtagPropertyBuff@@V?$allocator@UtagPropertyBuff@@@std@@@std@@QAEPAUtagPropertyBuff@@QAU2@ABU2@@Z DD 0ffffffffH
	DD	00H
	DD	0ffffffffH
	DD	00H
__tryblocktable$??$_Emplace_reallocate@ABUtagPropertyBuff@@@?$vector@UtagPropertyBuff@@V?$allocator@UtagPropertyBuff@@@std@@@std@@QAEPAUtagPropertyBuff@@QAU2@ABU2@@Z DD 00H
	DD	00H
	DD	01H
	DD	01H
	DD	FLAT:__catchsym$??$_Emplace_reallocate@ABUtagPropertyBuff@@@?$vector@UtagPropertyBuff@@V?$allocator@UtagPropertyBuff@@@std@@@std@@QAEPAUtagPropertyBuff@@QAU2@ABU2@@Z$2
__ehfuncinfo$??$_Emplace_reallocate@ABUtagPropertyBuff@@@?$vector@UtagPropertyBuff@@V?$allocator@UtagPropertyBuff@@@std@@@std@@QAEPAUtagPropertyBuff@@QAU2@ABU2@@Z DD 019930522H
	DD	02H
	DD	FLAT:__unwindtable$??$_Emplace_reallocate@ABUtagPropertyBuff@@@?$vector@UtagPropertyBuff@@V?$allocator@UtagPropertyBuff@@@std@@@std@@QAEPAUtagPropertyBuff@@QAU2@ABU2@@Z
	DD	01H
	DD	FLAT:__tryblocktable$??$_Emplace_reallocate@ABUtagPropertyBuff@@@?$vector@UtagPropertyBuff@@V?$allocator@UtagPropertyBuff@@@std@@@std@@QAEPAUtagPropertyBuff@@QAU2@ABU2@@Z
	DD	2 DUP(00H)
	DD	00H
	DD	01H
xdata$x	ENDS
;	COMDAT xdata$x
xdata$x	SEGMENT
__unwindtable$??E?$_Tree_const_iterator@V?$_Tree_val@U?$_Tree_simple_types@U?$pair@$$CBKV?$vector@UtagPropertyBuff@@V?$allocator@UtagPropertyBuff@@@std@@@std@@@std@@@std@@@std@@@std@@QAE?AV01@H@Z DD 0ffffffffH
	DD	FLAT:__unwindfunclet$??E?$_Tree_const_iterator@V?$_Tree_val@U?$_Tree_simple_types@U?$pair@$$CBKV?$vector@UtagPropertyBuff@@V?$allocator@UtagPropertyBuff@@@std@@@std@@@std@@@std@@@std@@@std@@QAE?AV01@H@Z$0
__ehfuncinfo$??E?$_Tree_const_iterator@V?$_Tree_val@U?$_Tree_simple_types@U?$pair@$$CBKV?$vector@UtagPropertyBuff@@V?$allocator@UtagPropertyBuff@@@std@@@std@@@std@@@std@@@std@@@std@@QAE?AV01@H@Z DD 019930522H
	DD	01H
	DD	FLAT:__unwindtable$??E?$_Tree_const_iterator@V?$_Tree_val@U?$_Tree_simple_types@U?$pair@$$CBKV?$vector@UtagPropertyBuff@@V?$allocator@UtagPropertyBuff@@@std@@@std@@@std@@@std@@@std@@@std@@QAE?AV01@H@Z
	DD	2 DUP(00H)
	DD	2 DUP(00H)
	DD	00H
	DD	01H
xdata$x	ENDS
;	COMDAT xdata$x
xdata$x	SEGMENT
__unwindtable$?_Orphan_range@?$vector@UtagPropertyBuff@@V?$allocator@UtagPropertyBuff@@@std@@@std@@ABEXPAUtagPropertyBuff@@0@Z DD 0ffffffffH
	DD	FLAT:__unwindfunclet$?_Orphan_range@?$vector@UtagPropertyBuff@@V?$allocator@UtagPropertyBuff@@@std@@@std@@ABEXPAUtagPropertyBuff@@0@Z$0
__ehfuncinfo$?_Orphan_range@?$vector@UtagPropertyBuff@@V?$allocator@UtagPropertyBuff@@@std@@@std@@ABEXPAUtagPropertyBuff@@0@Z DD 019930522H
	DD	01H
	DD	FLAT:__unwindtable$?_Orphan_range@?$vector@UtagPropertyBuff@@V?$allocator@UtagPropertyBuff@@@std@@@std@@ABEXPAUtagPropertyBuff@@0@Z
	DD	2 DUP(00H)
	DD	2 DUP(00H)
	DD	00H
	DD	01H
xdata$x	ENDS
;	COMDAT xdata$x
xdata$x	SEGMENT
__ehfuncinfo$?clear@?$vector@UtagPropertyBuff@@V?$allocator@UtagPropertyBuff@@@std@@@std@@QAEXXZ DD 019930522H
	DD	00H
	DD	00H
	DD	2 DUP(00H)
	DD	2 DUP(00H)
	DD	00H
	DD	05H
xdata$x	ENDS
;	COMDAT xdata$x
xdata$x	SEGMENT
__ehfuncinfo$??1?$vector@UtagPropertyBuff@@V?$allocator@UtagPropertyBuff@@@std@@@std@@QAE@XZ DD 019930522H
	DD	00H
	DD	00H
	DD	2 DUP(00H)
	DD	2 DUP(00H)
	DD	00H
	DD	05H
xdata$x	ENDS
;	COMDAT xdata$x
xdata$x	SEGMENT
__catchsym$??0?$vector@UtagPropertyBuff@@V?$allocator@UtagPropertyBuff@@@std@@@std@@QAE@ABV01@@Z$3 DD 040H
	DD	00H
	DD	00H
	DD	FLAT:__catch$??0?$vector@UtagPropertyBuff@@V?$allocator@UtagPropertyBuff@@@std@@@std@@QAE@ABV01@@Z$0
__tryblocktable$??0?$vector@UtagPropertyBuff@@V?$allocator@UtagPropertyBuff@@@std@@@std@@QAE@ABV01@@Z DD 01H
	DD	01H
	DD	02H
	DD	01H
	DD	FLAT:__catchsym$??0?$vector@UtagPropertyBuff@@V?$allocator@UtagPropertyBuff@@@std@@@std@@QAE@ABV01@@Z$3
__unwindtable$??0?$vector@UtagPropertyBuff@@V?$allocator@UtagPropertyBuff@@@std@@@std@@QAE@ABV01@@Z DD 0ffffffffH
	DD	FLAT:__unwindfunclet$??0?$vector@UtagPropertyBuff@@V?$allocator@UtagPropertyBuff@@@std@@@std@@QAE@ABV01@@Z$2
	DD	00H
	DD	00H
	DD	00H
	DD	00H
__ehfuncinfo$??0?$vector@UtagPropertyBuff@@V?$allocator@UtagPropertyBuff@@@std@@@std@@QAE@ABV01@@Z DD 019930522H
	DD	03H
	DD	FLAT:__unwindtable$??0?$vector@UtagPropertyBuff@@V?$allocator@UtagPropertyBuff@@@std@@@std@@QAE@ABV01@@Z
	DD	01H
	DD	FLAT:__tryblocktable$??0?$vector@UtagPropertyBuff@@V?$allocator@UtagPropertyBuff@@@std@@@std@@QAE@ABV01@@Z
	DD	2 DUP(00H)
	DD	00H
	DD	01H
xdata$x	ENDS
;	COMDAT xdata$x
xdata$x	SEGMENT
__ehfuncinfo$??0?$vector@UtagPropertyBuff@@V?$allocator@UtagPropertyBuff@@@std@@@std@@QAE@XZ DD 019930522H
	DD	00H
	DD	00H
	DD	2 DUP(00H)
	DD	2 DUP(00H)
	DD	00H
	DD	05H
xdata$x	ENDS
;	COMDAT xdata$x
xdata$x	SEGMENT
__ehfuncinfo$??1?$_Vector_alloc@U?$_Vec_base_types@UtagPropertyBuff@@V?$allocator@UtagPropertyBuff@@@std@@@std@@@std@@QAE@XZ DD 019930522H
	DD	00H
	DD	00H
	DD	2 DUP(00H)
	DD	2 DUP(00H)
	DD	00H
	DD	05H
xdata$x	ENDS
;	COMDAT xdata$x
xdata$x	SEGMENT
__unwindtable$??A?$map@KV?$vector@UtagPropertyBuff@@V?$allocator@UtagPropertyBuff@@@std@@@std@@U?$less@K@2@V?$allocator@U?$pair@$$CBKV?$vector@UtagPropertyBuff@@V?$allocator@UtagPropertyBuff@@@std@@@std@@@std@@@2@@std@@QAEAAV?$vector@UtagPropertyBuff@@V?$allocator@UtagPropertyBuff@@@std@@@1@ABK@Z DD 0ffffffffH
	DD	FLAT:__unwindfunclet$??A?$map@KV?$vector@UtagPropertyBuff@@V?$allocator@UtagPropertyBuff@@@std@@@std@@U?$less@K@2@V?$allocator@U?$pair@$$CBKV?$vector@UtagPropertyBuff@@V?$allocator@UtagPropertyBuff@@@std@@@std@@@std@@@2@@std@@QAEAAV?$vector@UtagPropertyBuff@@V?$allocator@UtagPropertyBuff@@@std@@@1@ABK@Z$0
__ehfuncinfo$??A?$map@KV?$vector@UtagPropertyBuff@@V?$allocator@UtagPropertyBuff@@@std@@@std@@U?$less@K@2@V?$allocator@U?$pair@$$CBKV?$vector@UtagPropertyBuff@@V?$allocator@UtagPropertyBuff@@@std@@@std@@@std@@@2@@std@@QAEAAV?$vector@UtagPropertyBuff@@V?$allocator@UtagPropertyBuff@@@std@@@1@ABK@Z DD 019930522H
	DD	01H
	DD	FLAT:__unwindtable$??A?$map@KV?$vector@UtagPropertyBuff@@V?$allocator@UtagPropertyBuff@@@std@@@std@@U?$less@K@2@V?$allocator@U?$pair@$$CBKV?$vector@UtagPropertyBuff@@V?$allocator@UtagPropertyBuff@@@std@@@std@@@std@@@2@@std@@QAEAAV?$vector@UtagPropertyBuff@@V?$allocator@UtagPropertyBuff@@@std@@@1@ABK@Z
	DD	2 DUP(00H)
	DD	2 DUP(00H)
	DD	00H
	DD	01H
xdata$x	ENDS
;	COMDAT xdata$x
xdata$x	SEGMENT
__unwindtable$?_Tidy@?$_Tree@V?$_Tmap_traits@KV?$vector@UtagPropertyBuff@@V?$allocator@UtagPropertyBuff@@@std@@@std@@U?$less@K@2@V?$allocator@U?$pair@$$CBKV?$vector@UtagPropertyBuff@@V?$allocator@UtagPropertyBuff@@@std@@@std@@@std@@@2@$0A@@std@@@std@@IAEXXZ DD 0ffffffffH
	DD	FLAT:__unwindfunclet$?_Tidy@?$_Tree@V?$_Tmap_traits@KV?$vector@UtagPropertyBuff@@V?$allocator@UtagPropertyBuff@@@std@@@std@@U?$less@K@2@V?$allocator@U?$pair@$$CBKV?$vector@UtagPropertyBuff@@V?$allocator@UtagPropertyBuff@@@std@@@std@@@std@@@2@$0A@@std@@@std@@IAEXXZ$0
	DD	00H
	DD	FLAT:__unwindfunclet$?_Tidy@?$_Tree@V?$_Tmap_traits@KV?$vector@UtagPropertyBuff@@V?$allocator@UtagPropertyBuff@@@std@@@std@@U?$less@K@2@V?$allocator@U?$pair@$$CBKV?$vector@UtagPropertyBuff@@V?$allocator@UtagPropertyBuff@@@std@@@std@@@std@@@2@$0A@@std@@@std@@IAEXXZ$2
__ehfuncinfo$?_Tidy@?$_Tree@V?$_Tmap_traits@KV?$vector@UtagPropertyBuff@@V?$allocator@UtagPropertyBuff@@@std@@@std@@U?$less@K@2@V?$allocator@U?$pair@$$CBKV?$vector@UtagPropertyBuff@@V?$allocator@UtagPropertyBuff@@@std@@@std@@@std@@@2@$0A@@std@@@std@@IAEXXZ DD 019930522H
	DD	02H
	DD	FLAT:__unwindtable$?_Tidy@?$_Tree@V?$_Tmap_traits@KV?$vector@UtagPropertyBuff@@V?$allocator@UtagPropertyBuff@@@std@@@std@@U?$less@K@2@V?$allocator@U?$pair@$$CBKV?$vector@UtagPropertyBuff@@V?$allocator@UtagPropertyBuff@@@std@@@std@@@std@@@2@$0A@@std@@@std@@IAEXXZ
	DD	2 DUP(00H)
	DD	2 DUP(00H)
	DD	00H
	DD	01H
xdata$x	ENDS
;	COMDAT xdata$x
xdata$x	SEGMENT
__unwindtable$?_Orphan_ptr@?$_Tree@V?$_Tmap_traits@KV?$vector@UtagPropertyBuff@@V?$allocator@UtagPropertyBuff@@@std@@@std@@U?$less@K@2@V?$allocator@U?$pair@$$CBKV?$vector@UtagPropertyBuff@@V?$allocator@UtagPropertyBuff@@@std@@@std@@@std@@@2@$0A@@std@@@std@@IAEXPAU?$_Tree_node@U?$pair@$$CBKV?$vector@UtagPropertyBuff@@V?$allocator@UtagPropertyBuff@@@std@@@std@@@std@@PAX@2@@Z DD 0ffffffffH
	DD	FLAT:__unwindfunclet$?_Orphan_ptr@?$_Tree@V?$_Tmap_traits@KV?$vector@UtagPropertyBuff@@V?$allocator@UtagPropertyBuff@@@std@@@std@@U?$less@K@2@V?$allocator@U?$pair@$$CBKV?$vector@UtagPropertyBuff@@V?$allocator@UtagPropertyBuff@@@std@@@std@@@std@@@2@$0A@@std@@@std@@IAEXPAU?$_Tree_node@U?$pair@$$CBKV?$vector@UtagPropertyBuff@@V?$allocator@UtagPropertyBuff@@@std@@@std@@@std@@PAX@2@@Z$0
__ehfuncinfo$?_Orphan_ptr@?$_Tree@V?$_Tmap_traits@KV?$vector@UtagPropertyBuff@@V?$allocator@UtagPropertyBuff@@@std@@@std@@U?$less@K@2@V?$allocator@U?$pair@$$CBKV?$vector@UtagPropertyBuff@@V?$allocator@UtagPropertyBuff@@@std@@@std@@@std@@@2@$0A@@std@@@std@@IAEXPAU?$_Tree_node@U?$pair@$$CBKV?$vector@UtagPropertyBuff@@V?$allocator@UtagPropertyBuff@@@std@@@std@@@std@@PAX@2@@Z DD 019930522H
	DD	01H
	DD	FLAT:__unwindtable$?_Orphan_ptr@?$_Tree@V?$_Tmap_traits@KV?$vector@UtagPropertyBuff@@V?$allocator@UtagPropertyBuff@@@std@@@std@@U?$less@K@2@V?$allocator@U?$pair@$$CBKV?$vector@UtagPropertyBuff@@V?$allocator@UtagPropertyBuff@@@std@@@std@@@std@@@2@$0A@@std@@@std@@IAEXPAU?$_Tree_node@U?$pair@$$CBKV?$vector@UtagPropertyBuff@@V?$allocator@UtagPropertyBuff@@@std@@@std@@@std@@PAX@2@@Z
	DD	2 DUP(00H)
	DD	2 DUP(00H)
	DD	00H
	DD	01H
xdata$x	ENDS
;	COMDAT xdata$x
xdata$x	SEGMENT
__ehfuncinfo$?clear@?$_Tree@V?$_Tmap_traits@KV?$vector@UtagPropertyBuff@@V?$allocator@UtagPropertyBuff@@@std@@@std@@U?$less@K@2@V?$allocator@U?$pair@$$CBKV?$vector@UtagPropertyBuff@@V?$allocator@UtagPropertyBuff@@@std@@@std@@@std@@@2@$0A@@std@@@std@@QAEXXZ DD 019930522H
	DD	00H
	DD	00H
	DD	2 DUP(00H)
	DD	2 DUP(00H)
	DD	00H
	DD	05H
xdata$x	ENDS
;	COMDAT xdata$x
xdata$x	SEGMENT
__unwindtable$?erase@?$_Tree@V?$_Tmap_traits@KV?$vector@UtagPropertyBuff@@V?$allocator@UtagPropertyBuff@@@std@@@std@@U?$less@K@2@V?$allocator@U?$pair@$$CBKV?$vector@UtagPropertyBuff@@V?$allocator@UtagPropertyBuff@@@std@@@std@@@std@@@2@$0A@@std@@@std@@QAE?AV?$_Tree_iterator@V?$_Tree_val@U?$_Tree_simple_types@U?$pair@$$CBKV?$vector@UtagPropertyBuff@@V?$allocator@UtagPropertyBuff@@@std@@@std@@@std@@@std@@@std@@@2@V?$_Tree_const_iterator@V?$_Tree_val@U?$_Tree_simple_types@U?$pair@$$CBKV?$vector@UtagPropertyBuff@@V?$allocator@UtagPropertyBuff@@@std@@@std@@@std@@@std@@@std@@@2@0@Z DD 0ffffffffH
	DD	FLAT:__unwindfunclet$?erase@?$_Tree@V?$_Tmap_traits@KV?$vector@UtagPropertyBuff@@V?$allocator@UtagPropertyBuff@@@std@@@std@@U?$less@K@2@V?$allocator@U?$pair@$$CBKV?$vector@UtagPropertyBuff@@V?$allocator@UtagPropertyBuff@@@std@@@std@@@std@@@2@$0A@@std@@@std@@QAE?AV?$_Tree_iterator@V?$_Tree_val@U?$_Tree_simple_types@U?$pair@$$CBKV?$vector@UtagPropertyBuff@@V?$allocator@UtagPropertyBuff@@@std@@@std@@@std@@@std@@@std@@@2@V?$_Tree_const_iterator@V?$_Tree_val@U?$_Tree_simple_types@U?$pair@$$CBKV?$vector@UtagPropertyBuff@@V?$allocator@UtagPropertyBuff@@@std@@@std@@@std@@@std@@@std@@@2@0@Z$0
	DD	00H
	DD	FLAT:__unwindfunclet$?erase@?$_Tree@V?$_Tmap_traits@KV?$vector@UtagPropertyBuff@@V?$allocator@UtagPropertyBuff@@@std@@@std@@U?$less@K@2@V?$allocator@U?$pair@$$CBKV?$vector@UtagPropertyBuff@@V?$allocator@UtagPropertyBuff@@@std@@@std@@@std@@@2@$0A@@std@@@std@@QAE?AV?$_Tree_iterator@V?$_Tree_val@U?$_Tree_simple_types@U?$pair@$$CBKV?$vector@UtagPropertyBuff@@V?$allocator@UtagPropertyBuff@@@std@@@std@@@std@@@std@@@std@@@2@V?$_Tree_const_iterator@V?$_Tree_val@U?$_Tree_simple_types@U?$pair@$$CBKV?$vector@UtagPropertyBuff@@V?$allocator@UtagPropertyBuff@@@std@@@std@@@std@@@std@@@std@@@2@0@Z$1
	DD	01H
	DD	FLAT:__unwindfunclet$?erase@?$_Tree@V?$_Tmap_traits@KV?$vector@UtagPropertyBuff@@V?$allocator@UtagPropertyBuff@@@std@@@std@@U?$less@K@2@V?$allocator@U?$pair@$$CBKV?$vector@UtagPropertyBuff@@V?$allocator@UtagPropertyBuff@@@std@@@std@@@std@@@2@$0A@@std@@@std@@QAE?AV?$_Tree_iterator@V?$_Tree_val@U?$_Tree_simple_types@U?$pair@$$CBKV?$vector@UtagPropertyBuff@@V?$allocator@UtagPropertyBuff@@@std@@@std@@@std@@@std@@@std@@@2@V?$_Tree_const_iterator@V?$_Tree_val@U?$_Tree_simple_types@U?$pair@$$CBKV?$vector@UtagPropertyBuff@@V?$allocator@UtagPropertyBuff@@@std@@@std@@@std@@@std@@@std@@@2@0@Z$2
	DD	02H
	DD	FLAT:__unwindfunclet$?erase@?$_Tree@V?$_Tmap_traits@KV?$vector@UtagPropertyBuff@@V?$allocator@UtagPropertyBuff@@@std@@@std@@U?$less@K@2@V?$allocator@U?$pair@$$CBKV?$vector@UtagPropertyBuff@@V?$allocator@UtagPropertyBuff@@@std@@@std@@@std@@@2@$0A@@std@@@std@@QAE?AV?$_Tree_iterator@V?$_Tree_val@U?$_Tree_simple_types@U?$pair@$$CBKV?$vector@UtagPropertyBuff@@V?$allocator@UtagPropertyBuff@@@std@@@std@@@std@@@std@@@std@@@2@V?$_Tree_const_iterator@V?$_Tree_val@U?$_Tree_simple_types@U?$pair@$$CBKV?$vector@UtagPropertyBuff@@V?$allocator@UtagPropertyBuff@@@std@@@std@@@std@@@std@@@std@@@2@0@Z$3
__ehfuncinfo$?erase@?$_Tree@V?$_Tmap_traits@KV?$vector@UtagPropertyBuff@@V?$allocator@UtagPropertyBuff@@@std@@@std@@U?$less@K@2@V?$allocator@U?$pair@$$CBKV?$vector@UtagPropertyBuff@@V?$allocator@UtagPropertyBuff@@@std@@@std@@@std@@@2@$0A@@std@@@std@@QAE?AV?$_Tree_iterator@V?$_Tree_val@U?$_Tree_simple_types@U?$pair@$$CBKV?$vector@UtagPropertyBuff@@V?$allocator@UtagPropertyBuff@@@std@@@std@@@std@@@std@@@std@@@2@V?$_Tree_const_iterator@V?$_Tree_val@U?$_Tree_simple_types@U?$pair@$$CBKV?$vector@UtagPropertyBuff@@V?$allocator@UtagPropertyBuff@@@std@@@std@@@std@@@std@@@std@@@2@0@Z DD 019930522H
	DD	04H
	DD	FLAT:__unwindtable$?erase@?$_Tree@V?$_Tmap_traits@KV?$vector@UtagPropertyBuff@@V?$allocator@UtagPropertyBuff@@@std@@@std@@U?$less@K@2@V?$allocator@U?$pair@$$CBKV?$vector@UtagPropertyBuff@@V?$allocator@UtagPropertyBuff@@@std@@@std@@@std@@@2@$0A@@std@@@std@@QAE?AV?$_Tree_iterator@V?$_Tree_val@U?$_Tree_simple_types@U?$pair@$$CBKV?$vector@UtagPropertyBuff@@V?$allocator@UtagPropertyBuff@@@std@@@std@@@std@@@std@@@std@@@2@V?$_Tree_const_iterator@V?$_Tree_val@U?$_Tree_simple_types@U?$pair@$$CBKV?$vector@UtagPropertyBuff@@V?$allocator@UtagPropertyBuff@@@std@@@std@@@std@@@std@@@std@@@2@0@Z
	DD	2 DUP(00H)
	DD	2 DUP(00H)
	DD	00H
	DD	01H
xdata$x	ENDS
;	COMDAT xdata$x
xdata$x	SEGMENT
__unwindtable$?erase@?$_Tree@V?$_Tmap_traits@KV?$vector@UtagPropertyBuff@@V?$allocator@UtagPropertyBuff@@@std@@@std@@U?$less@K@2@V?$allocator@U?$pair@$$CBKV?$vector@UtagPropertyBuff@@V?$allocator@UtagPropertyBuff@@@std@@@std@@@std@@@2@$0A@@std@@@std@@QAE?AV?$_Tree_iterator@V?$_Tree_val@U?$_Tree_simple_types@U?$pair@$$CBKV?$vector@UtagPropertyBuff@@V?$allocator@UtagPropertyBuff@@@std@@@std@@@std@@@std@@@std@@@2@V?$_Tree_const_iterator@V?$_Tree_val@U?$_Tree_simple_types@U?$pair@$$CBKV?$vector@UtagPropertyBuff@@V?$allocator@UtagPropertyBuff@@@std@@@std@@@std@@@std@@@std@@@2@@Z DD 0ffffffffH
	DD	FLAT:__unwindfunclet$?erase@?$_Tree@V?$_Tmap_traits@KV?$vector@UtagPropertyBuff@@V?$allocator@UtagPropertyBuff@@@std@@@std@@U?$less@K@2@V?$allocator@U?$pair@$$CBKV?$vector@UtagPropertyBuff@@V?$allocator@UtagPropertyBuff@@@std@@@std@@@std@@@2@$0A@@std@@@std@@QAE?AV?$_Tree_iterator@V?$_Tree_val@U?$_Tree_simple_types@U?$pair@$$CBKV?$vector@UtagPropertyBuff@@V?$allocator@UtagPropertyBuff@@@std@@@std@@@std@@@std@@@std@@@2@V?$_Tree_const_iterator@V?$_Tree_val@U?$_Tree_simple_types@U?$pair@$$CBKV?$vector@UtagPropertyBuff@@V?$allocator@UtagPropertyBuff@@@std@@@std@@@std@@@std@@@std@@@2@@Z$0
	DD	00H
	DD	FLAT:__unwindfunclet$?erase@?$_Tree@V?$_Tmap_traits@KV?$vector@UtagPropertyBuff@@V?$allocator@UtagPropertyBuff@@@std@@@std@@U?$less@K@2@V?$allocator@U?$pair@$$CBKV?$vector@UtagPropertyBuff@@V?$allocator@UtagPropertyBuff@@@std@@@std@@@std@@@2@$0A@@std@@@std@@QAE?AV?$_Tree_iterator@V?$_Tree_val@U?$_Tree_simple_types@U?$pair@$$CBKV?$vector@UtagPropertyBuff@@V?$allocator@UtagPropertyBuff@@@std@@@std@@@std@@@std@@@std@@@2@V?$_Tree_const_iterator@V?$_Tree_val@U?$_Tree_simple_types@U?$pair@$$CBKV?$vector@UtagPropertyBuff@@V?$allocator@UtagPropertyBuff@@@std@@@std@@@std@@@std@@@std@@@2@@Z$1
__ehfuncinfo$?erase@?$_Tree@V?$_Tmap_traits@KV?$vector@UtagPropertyBuff@@V?$allocator@UtagPropertyBuff@@@std@@@std@@U?$less@K@2@V?$allocator@U?$pair@$$CBKV?$vector@UtagPropertyBuff@@V?$allocator@UtagPropertyBuff@@@std@@@std@@@std@@@2@$0A@@std@@@std@@QAE?AV?$_Tree_iterator@V?$_Tree_val@U?$_Tree_simple_types@U?$pair@$$CBKV?$vector@UtagPropertyBuff@@V?$allocator@UtagPropertyBuff@@@std@@@std@@@std@@@std@@@std@@@2@V?$_Tree_const_iterator@V?$_Tree_val@U?$_Tree_simple_types@U?$pair@$$CBKV?$vector@UtagPropertyBuff@@V?$allocator@UtagPropertyBuff@@@std@@@std@@@std@@@std@@@std@@@2@@Z DD 019930522H
	DD	02H
	DD	FLAT:__unwindtable$?erase@?$_Tree@V?$_Tmap_traits@KV?$vector@UtagPropertyBuff@@V?$allocator@UtagPropertyBuff@@@std@@@std@@U?$less@K@2@V?$allocator@U?$pair@$$CBKV?$vector@UtagPropertyBuff@@V?$allocator@UtagPropertyBuff@@@std@@@std@@@std@@@2@$0A@@std@@@std@@QAE?AV?$_Tree_iterator@V?$_Tree_val@U?$_Tree_simple_types@U?$pair@$$CBKV?$vector@UtagPropertyBuff@@V?$allocator@UtagPropertyBuff@@@std@@@std@@@std@@@std@@@std@@@2@V?$_Tree_const_iterator@V?$_Tree_val@U?$_Tree_simple_types@U?$pair@$$CBKV?$vector@UtagPropertyBuff@@V?$allocator@UtagPropertyBuff@@@std@@@std@@@std@@@std@@@std@@@2@@Z
	DD	2 DUP(00H)
	DD	2 DUP(00H)
	DD	00H
	DD	01H
xdata$x	ENDS
;	COMDAT xdata$x
xdata$x	SEGMENT
__ehfuncinfo$?end@?$_Tree@V?$_Tmap_traits@KV?$vector@UtagPropertyBuff@@V?$allocator@UtagPropertyBuff@@@std@@@std@@U?$less@K@2@V?$allocator@U?$pair@$$CBKV?$vector@UtagPropertyBuff@@V?$allocator@UtagPropertyBuff@@@std@@@std@@@std@@@2@$0A@@std@@@std@@QAE?AV?$_Tree_iterator@V?$_Tree_val@U?$_Tree_simple_types@U?$pair@$$CBKV?$vector@UtagPropertyBuff@@V?$allocator@UtagPropertyBuff@@@std@@@std@@@std@@@std@@@std@@@2@XZ DD 019930522H
	DD	00H
	DD	00H
	DD	2 DUP(00H)
	DD	2 DUP(00H)
	DD	00H
	DD	05H
xdata$x	ENDS
;	COMDAT xdata$x
xdata$x	SEGMENT
__ehfuncinfo$?begin@?$_Tree@V?$_Tmap_traits@KV?$vector@UtagPropertyBuff@@V?$allocator@UtagPropertyBuff@@@std@@@std@@U?$less@K@2@V?$allocator@U?$pair@$$CBKV?$vector@UtagPropertyBuff@@V?$allocator@UtagPropertyBuff@@@std@@@std@@@std@@@2@$0A@@std@@@std@@QAE?AV?$_Tree_iterator@V?$_Tree_val@U?$_Tree_simple_types@U?$pair@$$CBKV?$vector@UtagPropertyBuff@@V?$allocator@UtagPropertyBuff@@@std@@@std@@@std@@@std@@@std@@@2@XZ DD 019930522H
	DD	00H
	DD	00H
	DD	2 DUP(00H)
	DD	2 DUP(00H)
	DD	00H
	DD	05H
xdata$x	ENDS
;	COMDAT xdata$x
xdata$x	SEGMENT
__ehfuncinfo$??1?$_Tree@V?$_Tmap_traits@KV?$vector@UtagPropertyBuff@@V?$allocator@UtagPropertyBuff@@@std@@@std@@U?$less@K@2@V?$allocator@U?$pair@$$CBKV?$vector@UtagPropertyBuff@@V?$allocator@UtagPropertyBuff@@@std@@@std@@@std@@@2@$0A@@std@@@std@@QAE@XZ DD 019930522H
	DD	00H
	DD	00H
	DD	2 DUP(00H)
	DD	2 DUP(00H)
	DD	00H
	DD	05H
xdata$x	ENDS
;	COMDAT xdata$x
xdata$x	SEGMENT
__unwindtable$?_Extract@?$_Tree_val@U?$_Tree_simple_types@U?$pair@$$CBKV?$vector@UtagPropertyBuff@@V?$allocator@UtagPropertyBuff@@@std@@@std@@@std@@@std@@@std@@QAEPAU?$_Tree_node@U?$pair@$$CBKV?$vector@UtagPropertyBuff@@V?$allocator@UtagPropertyBuff@@@std@@@std@@@std@@PAX@2@V?$_Tree_const_iterator@V?$_Tree_val@U?$_Tree_simple_types@U?$pair@$$CBKV?$vector@UtagPropertyBuff@@V?$allocator@UtagPropertyBuff@@@std@@@std@@@std@@@std@@@std@@@2@@Z DD 0ffffffffH
	DD	FLAT:__unwindfunclet$?_Extract@?$_Tree_val@U?$_Tree_simple_types@U?$pair@$$CBKV?$vector@UtagPropertyBuff@@V?$allocator@UtagPropertyBuff@@@std@@@std@@@std@@@std@@@std@@QAEPAU?$_Tree_node@U?$pair@$$CBKV?$vector@UtagPropertyBuff@@V?$allocator@UtagPropertyBuff@@@std@@@std@@@std@@PAX@2@V?$_Tree_const_iterator@V?$_Tree_val@U?$_Tree_simple_types@U?$pair@$$CBKV?$vector@UtagPropertyBuff@@V?$allocator@UtagPropertyBuff@@@std@@@std@@@std@@@std@@@std@@@2@@Z$0
__ehfuncinfo$?_Extract@?$_Tree_val@U?$_Tree_simple_types@U?$pair@$$CBKV?$vector@UtagPropertyBuff@@V?$allocator@UtagPropertyBuff@@@std@@@std@@@std@@@std@@@std@@QAEPAU?$_Tree_node@U?$pair@$$CBKV?$vector@UtagPropertyBuff@@V?$allocator@UtagPropertyBuff@@@std@@@std@@@std@@PAX@2@V?$_Tree_const_iterator@V?$_Tree_val@U?$_Tree_simple_types@U?$pair@$$CBKV?$vector@UtagPropertyBuff@@V?$allocator@UtagPropertyBuff@@@std@@@std@@@std@@@std@@@std@@@2@@Z DD 019930522H
	DD	01H
	DD	FLAT:__unwindtable$?_Extract@?$_Tree_val@U?$_Tree_simple_types@U?$pair@$$CBKV?$vector@UtagPropertyBuff@@V?$allocator@UtagPropertyBuff@@@std@@@std@@@std@@@std@@@std@@QAEPAU?$_Tree_node@U?$pair@$$CBKV?$vector@UtagPropertyBuff@@V?$allocator@UtagPropertyBuff@@@std@@@std@@@std@@PAX@2@V?$_Tree_const_iterator@V?$_Tree_val@U?$_Tree_simple_types@U?$pair@$$CBKV?$vector@UtagPropertyBuff@@V?$allocator@UtagPropertyBuff@@@std@@@std@@@std@@@std@@@std@@@2@@Z
	DD	2 DUP(00H)
	DD	2 DUP(00H)
	DD	00H
	DD	01H
xdata$x	ENDS
;	COMDAT xdata$x
xdata$x	SEGMENT
__catchsym$?_Buynode0@?$_Tree_comp_alloc@V?$_Tmap_traits@KV?$vector@UtagPropertyBuff@@V?$allocator@UtagPropertyBuff@@@std@@@std@@U?$less@K@2@V?$allocator@U?$pair@$$CBKV?$vector@UtagPropertyBuff@@V?$allocator@UtagPropertyBuff@@@std@@@std@@@std@@@2@$0A@@std@@@std@@QAEPAU?$_Tree_node@U?$pair@$$CBKV?$vector@UtagPropertyBuff@@V?$allocator@UtagPropertyBuff@@@std@@@std@@@std@@PAX@2@XZ$2 DD 040H
	DD	00H
	DD	00H
	DD	FLAT:__catch$?_Buynode0@?$_Tree_comp_alloc@V?$_Tmap_traits@KV?$vector@UtagPropertyBuff@@V?$allocator@UtagPropertyBuff@@@std@@@std@@U?$less@K@2@V?$allocator@U?$pair@$$CBKV?$vector@UtagPropertyBuff@@V?$allocator@UtagPropertyBuff@@@std@@@std@@@std@@@2@$0A@@std@@@std@@QAEPAU?$_Tree_node@U?$pair@$$CBKV?$vector@UtagPropertyBuff@@V?$allocator@UtagPropertyBuff@@@std@@@std@@@std@@PAX@2@XZ$0
__unwindtable$?_Buynode0@?$_Tree_comp_alloc@V?$_Tmap_traits@KV?$vector@UtagPropertyBuff@@V?$allocator@UtagPropertyBuff@@@std@@@std@@U?$less@K@2@V?$allocator@U?$pair@$$CBKV?$vector@UtagPropertyBuff@@V?$allocator@UtagPropertyBuff@@@std@@@std@@@std@@@2@$0A@@std@@@std@@QAEPAU?$_Tree_node@U?$pair@$$CBKV?$vector@UtagPropertyBuff@@V?$allocator@UtagPropertyBuff@@@std@@@std@@@std@@PAX@2@XZ DD 0ffffffffH
	DD	00H
	DD	0ffffffffH
	DD	00H
__tryblocktable$?_Buynode0@?$_Tree_comp_alloc@V?$_Tmap_traits@KV?$vector@UtagPropertyBuff@@V?$allocator@UtagPropertyBuff@@@std@@@std@@U?$less@K@2@V?$allocator@U?$pair@$$CBKV?$vector@UtagPropertyBuff@@V?$allocator@UtagPropertyBuff@@@std@@@std@@@std@@@2@$0A@@std@@@std@@QAEPAU?$_Tree_node@U?$pair@$$CBKV?$vector@UtagPropertyBuff@@V?$allocator@UtagPropertyBuff@@@std@@@std@@@std@@PAX@2@XZ DD 00H
	DD	00H
	DD	01H
	DD	01H
	DD	FLAT:__catchsym$?_Buynode0@?$_Tree_comp_alloc@V?$_Tmap_traits@KV?$vector@UtagPropertyBuff@@V?$allocator@UtagPropertyBuff@@@std@@@std@@U?$less@K@2@V?$allocator@U?$pair@$$CBKV?$vector@UtagPropertyBuff@@V?$allocator@UtagPropertyBuff@@@std@@@std@@@std@@@2@$0A@@std@@@std@@QAEPAU?$_Tree_node@U?$pair@$$CBKV?$vector@UtagPropertyBuff@@V?$allocator@UtagPropertyBuff@@@std@@@std@@@std@@PAX@2@XZ$2
__ehfuncinfo$?_Buynode0@?$_Tree_comp_alloc@V?$_Tmap_traits@KV?$vector@UtagPropertyBuff@@V?$allocator@UtagPropertyBuff@@@std@@@std@@U?$less@K@2@V?$allocator@U?$pair@$$CBKV?$vector@UtagPropertyBuff@@V?$allocator@UtagPropertyBuff@@@std@@@std@@@std@@@2@$0A@@std@@@std@@QAEPAU?$_Tree_node@U?$pair@$$CBKV?$vector@UtagPropertyBuff@@V?$allocator@UtagPropertyBuff@@@std@@@std@@@std@@PAX@2@XZ DD 019930522H
	DD	02H
	DD	FLAT:__unwindtable$?_Buynode0@?$_Tree_comp_alloc@V?$_Tmap_traits@KV?$vector@UtagPropertyBuff@@V?$allocator@UtagPropertyBuff@@@std@@@std@@U?$less@K@2@V?$allocator@U?$pair@$$CBKV?$vector@UtagPropertyBuff@@V?$allocator@UtagPropertyBuff@@@std@@@std@@@std@@@2@$0A@@std@@@std@@QAEPAU?$_Tree_node@U?$pair@$$CBKV?$vector@UtagPropertyBuff@@V?$allocator@UtagPropertyBuff@@@std@@@std@@@std@@PAX@2@XZ
	DD	01H
	DD	FLAT:__tryblocktable$?_Buynode0@?$_Tree_comp_alloc@V?$_Tmap_traits@KV?$vector@UtagPropertyBuff@@V?$allocator@UtagPropertyBuff@@@std@@@std@@U?$less@K@2@V?$allocator@U?$pair@$$CBKV?$vector@UtagPropertyBuff@@V?$allocator@UtagPropertyBuff@@@std@@@std@@@std@@@2@$0A@@std@@@std@@QAEPAU?$_Tree_node@U?$pair@$$CBKV?$vector@UtagPropertyBuff@@V?$allocator@UtagPropertyBuff@@@std@@@std@@@std@@PAX@2@XZ
	DD	2 DUP(00H)
	DD	00H
	DD	01H
xdata$x	ENDS
;	COMDAT xdata$x
xdata$x	SEGMENT
__catchsym$?_Buyheadnode@?$_Tree_comp_alloc@V?$_Tmap_traits@KV?$vector@UtagPropertyBuff@@V?$allocator@UtagPropertyBuff@@@std@@@std@@U?$less@K@2@V?$allocator@U?$pair@$$CBKV?$vector@UtagPropertyBuff@@V?$allocator@UtagPropertyBuff@@@std@@@std@@@std@@@2@$0A@@std@@@std@@QAEPAU?$_Tree_node@U?$pair@$$CBKV?$vector@UtagPropertyBuff@@V?$allocator@UtagPropertyBuff@@@std@@@std@@@std@@PAX@2@XZ$2 DD 040H
	DD	00H
	DD	00H
	DD	FLAT:__catch$?_Buyheadnode@?$_Tree_comp_alloc@V?$_Tmap_traits@KV?$vector@UtagPropertyBuff@@V?$allocator@UtagPropertyBuff@@@std@@@std@@U?$less@K@2@V?$allocator@U?$pair@$$CBKV?$vector@UtagPropertyBuff@@V?$allocator@UtagPropertyBuff@@@std@@@std@@@std@@@2@$0A@@std@@@std@@QAEPAU?$_Tree_node@U?$pair@$$CBKV?$vector@UtagPropertyBuff@@V?$allocator@UtagPropertyBuff@@@std@@@std@@@std@@PAX@2@XZ$0
__unwindtable$?_Buyheadnode@?$_Tree_comp_alloc@V?$_Tmap_traits@KV?$vector@UtagPropertyBuff@@V?$allocator@UtagPropertyBuff@@@std@@@std@@U?$less@K@2@V?$allocator@U?$pair@$$CBKV?$vector@UtagPropertyBuff@@V?$allocator@UtagPropertyBuff@@@std@@@std@@@std@@@2@$0A@@std@@@std@@QAEPAU?$_Tree_node@U?$pair@$$CBKV?$vector@UtagPropertyBuff@@V?$allocator@UtagPropertyBuff@@@std@@@std@@@std@@PAX@2@XZ DD 0ffffffffH
	DD	00H
	DD	0ffffffffH
	DD	00H
__tryblocktable$?_Buyheadnode@?$_Tree_comp_alloc@V?$_Tmap_traits@KV?$vector@UtagPropertyBuff@@V?$allocator@UtagPropertyBuff@@@std@@@std@@U?$less@K@2@V?$allocator@U?$pair@$$CBKV?$vector@UtagPropertyBuff@@V?$allocator@UtagPropertyBuff@@@std@@@std@@@std@@@2@$0A@@std@@@std@@QAEPAU?$_Tree_node@U?$pair@$$CBKV?$vector@UtagPropertyBuff@@V?$allocator@UtagPropertyBuff@@@std@@@std@@@std@@PAX@2@XZ DD 00H
	DD	00H
	DD	01H
	DD	01H
	DD	FLAT:__catchsym$?_Buyheadnode@?$_Tree_comp_alloc@V?$_Tmap_traits@KV?$vector@UtagPropertyBuff@@V?$allocator@UtagPropertyBuff@@@std@@@std@@U?$less@K@2@V?$allocator@U?$pair@$$CBKV?$vector@UtagPropertyBuff@@V?$allocator@UtagPropertyBuff@@@std@@@std@@@std@@@2@$0A@@std@@@std@@QAEPAU?$_Tree_node@U?$pair@$$CBKV?$vector@UtagPropertyBuff@@V?$allocator@UtagPropertyBuff@@@std@@@std@@@std@@PAX@2@XZ$2
__ehfuncinfo$?_Buyheadnode@?$_Tree_comp_alloc@V?$_Tmap_traits@KV?$vector@UtagPropertyBuff@@V?$allocator@UtagPropertyBuff@@@std@@@std@@U?$less@K@2@V?$allocator@U?$pair@$$CBKV?$vector@UtagPropertyBuff@@V?$allocator@UtagPropertyBuff@@@std@@@std@@@std@@@2@$0A@@std@@@std@@QAEPAU?$_Tree_node@U?$pair@$$CBKV?$vector@UtagPropertyBuff@@V?$allocator@UtagPropertyBuff@@@std@@@std@@@std@@PAX@2@XZ DD 019930522H
	DD	02H
	DD	FLAT:__unwindtable$?_Buyheadnode@?$_Tree_comp_alloc@V?$_Tmap_traits@KV?$vector@UtagPropertyBuff@@V?$allocator@UtagPropertyBuff@@@std@@@std@@U?$less@K@2@V?$allocator@U?$pair@$$CBKV?$vector@UtagPropertyBuff@@V?$allocator@UtagPropertyBuff@@@std@@@std@@@std@@@2@$0A@@std@@@std@@QAEPAU?$_Tree_node@U?$pair@$$CBKV?$vector@UtagPropertyBuff@@V?$allocator@UtagPropertyBuff@@@std@@@std@@@std@@PAX@2@XZ
	DD	01H
	DD	FLAT:__tryblocktable$?_Buyheadnode@?$_Tree_comp_alloc@V?$_Tmap_traits@KV?$vector@UtagPropertyBuff@@V?$allocator@UtagPropertyBuff@@@std@@@std@@U?$less@K@2@V?$allocator@U?$pair@$$CBKV?$vector@UtagPropertyBuff@@V?$allocator@UtagPropertyBuff@@@std@@@std@@@std@@@2@$0A@@std@@@std@@QAEPAU?$_Tree_node@U?$pair@$$CBKV?$vector@UtagPropertyBuff@@V?$allocator@UtagPropertyBuff@@@std@@@std@@@std@@PAX@2@XZ
	DD	2 DUP(00H)
	DD	00H
	DD	01H
xdata$x	ENDS
;	COMDAT xdata$x
xdata$x	SEGMENT
__ehfuncinfo$??1?$_Tree_comp_alloc@V?$_Tmap_traits@KV?$vector@UtagPropertyBuff@@V?$allocator@UtagPropertyBuff@@@std@@@std@@U?$less@K@2@V?$allocator@U?$pair@$$CBKV?$vector@UtagPropertyBuff@@V?$allocator@UtagPropertyBuff@@@std@@@std@@@std@@@2@$0A@@std@@@std@@QAE@XZ DD 019930522H
	DD	00H
	DD	00H
	DD	2 DUP(00H)
	DD	2 DUP(00H)
	DD	00H
	DD	05H
xdata$x	ENDS
;	COMDAT xdata$x
xdata$x	SEGMENT
__catchsym$?_Construct@?$_Tree_comp_alloc@V?$_Tmap_traits@KV?$vector@UtagPropertyBuff@@V?$allocator@UtagPropertyBuff@@@std@@@std@@U?$less@K@2@V?$allocator@U?$pair@$$CBKV?$vector@UtagPropertyBuff@@V?$allocator@UtagPropertyBuff@@@std@@@std@@@std@@@2@$0A@@std@@@std@@QAEXXZ$2 DD 040H
	DD	00H
	DD	00H
	DD	FLAT:__catch$?_Construct@?$_Tree_comp_alloc@V?$_Tmap_traits@KV?$vector@UtagPropertyBuff@@V?$allocator@UtagPropertyBuff@@@std@@@std@@U?$less@K@2@V?$allocator@U?$pair@$$CBKV?$vector@UtagPropertyBuff@@V?$allocator@UtagPropertyBuff@@@std@@@std@@@std@@@2@$0A@@std@@@std@@QAEXXZ$0
__unwindtable$?_Construct@?$_Tree_comp_alloc@V?$_Tmap_traits@KV?$vector@UtagPropertyBuff@@V?$allocator@UtagPropertyBuff@@@std@@@std@@U?$less@K@2@V?$allocator@U?$pair@$$CBKV?$vector@UtagPropertyBuff@@V?$allocator@UtagPropertyBuff@@@std@@@std@@@std@@@2@$0A@@std@@@std@@QAEXXZ DD 0ffffffffH
	DD	00H
	DD	0ffffffffH
	DD	00H
__tryblocktable$?_Construct@?$_Tree_comp_alloc@V?$_Tmap_traits@KV?$vector@UtagPropertyBuff@@V?$allocator@UtagPropertyBuff@@@std@@@std@@U?$less@K@2@V?$allocator@U?$pair@$$CBKV?$vector@UtagPropertyBuff@@V?$allocator@UtagPropertyBuff@@@std@@@std@@@std@@@2@$0A@@std@@@std@@QAEXXZ DD 00H
	DD	00H
	DD	01H
	DD	01H
	DD	FLAT:__catchsym$?_Construct@?$_Tree_comp_alloc@V?$_Tmap_traits@KV?$vector@UtagPropertyBuff@@V?$allocator@UtagPropertyBuff@@@std@@@std@@U?$less@K@2@V?$allocator@U?$pair@$$CBKV?$vector@UtagPropertyBuff@@V?$allocator@UtagPropertyBuff@@@std@@@std@@@std@@@2@$0A@@std@@@std@@QAEXXZ$2
__ehfuncinfo$?_Construct@?$_Tree_comp_alloc@V?$_Tmap_traits@KV?$vector@UtagPropertyBuff@@V?$allocator@UtagPropertyBuff@@@std@@@std@@U?$less@K@2@V?$allocator@U?$pair@$$CBKV?$vector@UtagPropertyBuff@@V?$allocator@UtagPropertyBuff@@@std@@@std@@@std@@@2@$0A@@std@@@std@@QAEXXZ DD 019930522H
	DD	02H
	DD	FLAT:__unwindtable$?_Construct@?$_Tree_comp_alloc@V?$_Tmap_traits@KV?$vector@UtagPropertyBuff@@V?$allocator@UtagPropertyBuff@@@std@@@std@@U?$less@K@2@V?$allocator@U?$pair@$$CBKV?$vector@UtagPropertyBuff@@V?$allocator@UtagPropertyBuff@@@std@@@std@@@std@@@2@$0A@@std@@@std@@QAEXXZ
	DD	01H
	DD	FLAT:__tryblocktable$?_Construct@?$_Tree_comp_alloc@V?$_Tmap_traits@KV?$vector@UtagPropertyBuff@@V?$allocator@UtagPropertyBuff@@@std@@@std@@U?$less@K@2@V?$allocator@U?$pair@$$CBKV?$vector@UtagPropertyBuff@@V?$allocator@UtagPropertyBuff@@@std@@@std@@@std@@@2@$0A@@std@@@std@@QAEXXZ
	DD	2 DUP(00H)
	DD	00H
	DD	01H
xdata$x	ENDS
;	COMDAT xdata$x
xdata$x	SEGMENT
__ehfuncinfo$??_ECGamePropertyManager@@UAEPAXI@Z DD 019930522H
	DD	00H
	DD	00H
	DD	2 DUP(00H)
	DD	2 DUP(00H)
	DD	00H
	DD	05H
xdata$x	ENDS
;	COMDAT xdata$x
xdata$x	SEGMENT
__unwindtable$?SearchValidPropertyBuff@CGamePropertyManager@@SAPAUtagPropertyBuff@@KW4PROP_KIND@@@Z DD 0ffffffffH
	DD	FLAT:__unwindfunclet$?SearchValidPropertyBuff@CGamePropertyManager@@SAPAUtagPropertyBuff@@KW4PROP_KIND@@@Z$0
__ehfuncinfo$?SearchValidPropertyBuff@CGamePropertyManager@@SAPAUtagPropertyBuff@@KW4PROP_KIND@@@Z DD 019930522H
	DD	01H
	DD	FLAT:__unwindtable$?SearchValidPropertyBuff@CGamePropertyManager@@SAPAUtagPropertyBuff@@KW4PROP_KIND@@@Z
	DD	2 DUP(00H)
	DD	2 DUP(00H)
	DD	00H
	DD	01H
xdata$x	ENDS
;	COMDAT xdata$x
xdata$x	SEGMENT
__ehfuncinfo$?_Adopt@_Iterator_base12@std@@QAEXPBU_Container_base12@2@@Z DD 019930522H
	DD	00H
	DD	00H
	DD	2 DUP(00H)
	DD	2 DUP(00H)
	DD	00H
	DD	05H
xdata$x	ENDS
;	COMDAT xdata$x
xdata$x	SEGMENT
__ehfuncinfo$??1_Iterator_base12@std@@QAE@XZ DD 019930522H
	DD	00H
	DD	00H
	DD	2 DUP(00H)
	DD	2 DUP(00H)
	DD	00H
	DD	05H
xdata$x	ENDS
;	COMDAT xdata$x
xdata$x	SEGMENT
__ehfuncinfo$??4_Iterator_base12@std@@QAEAAU01@ABU01@@Z DD 019930522H
	DD	00H
	DD	00H
	DD	2 DUP(00H)
	DD	2 DUP(00H)
	DD	00H
	DD	05H
xdata$x	ENDS
;	COMDAT xdata$x
xdata$x	SEGMENT
__ehfuncinfo$?_Orphan_all@_Container_base12@std@@QAEXXZ DD 019930522H
	DD	00H
	DD	00H
	DD	2 DUP(00H)
	DD	2 DUP(00H)
	DD	00H
	DD	05H
xdata$x	ENDS
; Function compile flags: /Odtp /ZI
; File c:\program files (x86)\microsoft visual studio\2017\community\vc\tools\msvc\14.16.27023\include\xutility
;	COMDAT ??$?0$$V@?$_Compressed_pair@V?$allocator@UtagPropertyBuff@@@std@@V?$_Vector_val@U?$_Simple_types@UtagPropertyBuff@@@std@@@2@$00@std@@QAE@U_Zero_then_variadic_args_t@1@@Z
_TEXT	SEGMENT
_this$ = -4						; size = 4
___formal$ = 8						; size = 1
??$?0$$V@?$_Compressed_pair@V?$allocator@UtagPropertyBuff@@@std@@V?$_Vector_val@U?$_Simple_types@UtagPropertyBuff@@@std@@@2@$00@std@@QAE@U_Zero_then_variadic_args_t@1@@Z PROC ; std::_Compressed_pair<std::allocator<tagPropertyBuff>,std::_Vector_val<std::_Simple_types<tagPropertyBuff> >,1>::_Compressed_pair<std::allocator<tagPropertyBuff>,std::_Vector_val<std::_Simple_types<tagPropertyBuff> >,1><>, COMDAT
; _this$ = ecx

; 278  : 		{	// construct from forwarded values

  00000	55		 push	 ebp
  00001	8b ec		 mov	 ebp, esp
  00003	83 ec 44	 sub	 esp, 68			; 00000044H
  00006	53		 push	 ebx
  00007	56		 push	 esi
  00008	57		 push	 edi
  00009	89 4d fc	 mov	 DWORD PTR _this$[ebp], ecx

; 277  : 		: _Ty1(), _Myval2(_STD forward<_Other2>(_Val2)...)

  0000c	8b 4d fc	 mov	 ecx, DWORD PTR _this$[ebp]
  0000f	e8 00 00 00 00	 call	 ??0?$allocator@UtagPropertyBuff@@@std@@QAE@XZ ; std::allocator<tagPropertyBuff>::allocator<tagPropertyBuff>
  00014	8b 4d fc	 mov	 ecx, DWORD PTR _this$[ebp]
  00017	e8 00 00 00 00	 call	 ??0?$_Vector_val@U?$_Simple_types@UtagPropertyBuff@@@std@@@std@@QAE@XZ ; std::_Vector_val<std::_Simple_types<tagPropertyBuff> >::_Vector_val<std::_Simple_types<tagPropertyBuff> >

; 279  : 		}

  0001c	8b 45 fc	 mov	 eax, DWORD PTR _this$[ebp]
  0001f	5f		 pop	 edi
  00020	5e		 pop	 esi
  00021	5b		 pop	 ebx
  00022	8b e5		 mov	 esp, ebp
  00024	5d		 pop	 ebp
  00025	c2 04 00	 ret	 4
??$?0$$V@?$_Compressed_pair@V?$allocator@UtagPropertyBuff@@@std@@V?$_Vector_val@U?$_Simple_types@UtagPropertyBuff@@@std@@@2@$00@std@@QAE@U_Zero_then_variadic_args_t@1@@Z ENDP ; std::_Compressed_pair<std::allocator<tagPropertyBuff>,std::_Vector_val<std::_Simple_types<tagPropertyBuff> >,1>::_Compressed_pair<std::allocator<tagPropertyBuff>,std::_Vector_val<std::_Simple_types<tagPropertyBuff> >,1><>
_TEXT	ENDS
; Function compile flags: /Odtp /ZI
; File c:\program files (x86)\microsoft visual studio\2017\community\vc\tools\msvc\14.16.27023\include\tuple
;	COMDAT ??$get@$0A@ABK@std@@YAABK$$QAV?$tuple@ABK@0@@Z
_TEXT	SEGMENT
__Tuple$ = 8						; size = 4
??$get@$0A@ABK@std@@YAABK$$QAV?$tuple@ABK@0@@Z PROC	; std::get<0,unsigned long const &>, COMDAT

; 978  : 	{	// get rvalue reference to _Index element of tuple

  00000	55		 push	 ebp
  00001	8b ec		 mov	 ebp, esp
  00003	83 ec 40	 sub	 esp, 64			; 00000040H
  00006	53		 push	 ebx
  00007	56		 push	 esi
  00008	57		 push	 edi

; 979  : 	typedef typename tuple_element<_Index, tuple<_Types...>>::_Ttype _Ttype;
; 980  : 	typedef tuple_element_t<_Index, tuple<_Types...>>&& _RRtype;
; 981  : 	return (_STD forward<_RRtype>(((_Ttype&)_Tuple)._Myfirst._Val));

  00009	8b 45 08	 mov	 eax, DWORD PTR __Tuple$[ebp]
  0000c	8b 08		 mov	 ecx, DWORD PTR [eax]
  0000e	51		 push	 ecx
  0000f	e8 00 00 00 00	 call	 ??$forward@ABK@std@@YAABKABK@Z ; std::forward<unsigned long const &>
  00014	83 c4 04	 add	 esp, 4

; 982  : 	}

  00017	5f		 pop	 edi
  00018	5e		 pop	 esi
  00019	5b		 pop	 ebx
  0001a	8b e5		 mov	 esp, ebp
  0001c	5d		 pop	 ebp
  0001d	c3		 ret	 0
??$get@$0A@ABK@std@@YAABK$$QAV?$tuple@ABK@0@@Z ENDP	; std::get<0,unsigned long const &>
_TEXT	ENDS
; Function compile flags: /Odtp /ZI
; File c:\program files (x86)\microsoft visual studio\2017\community\vc\tools\msvc\14.16.27023\include\type_traits
;	COMDAT ??$move@AAV?$tuple@ABK@std@@@std@@YA$$QAV?$tuple@ABK@0@AAV10@@Z
_TEXT	SEGMENT
__Arg$ = 8						; size = 4
??$move@AAV?$tuple@ABK@std@@@std@@YA$$QAV?$tuple@ABK@0@AAV10@@Z PROC ; std::move<std::tuple<unsigned long const &> &>, COMDAT

; 1588 : 	{	// forward _Arg as movable

  00000	55		 push	 ebp
  00001	8b ec		 mov	 ebp, esp
  00003	83 ec 40	 sub	 esp, 64			; 00000040H
  00006	53		 push	 ebx
  00007	56		 push	 esi
  00008	57		 push	 edi

; 1589 : 	return (static_cast<remove_reference_t<_Ty>&&>(_Arg));

  00009	8b 45 08	 mov	 eax, DWORD PTR __Arg$[ebp]

; 1590 : 	}

  0000c	5f		 pop	 edi
  0000d	5e		 pop	 esi
  0000e	5b		 pop	 ebx
  0000f	8b e5		 mov	 esp, ebp
  00011	5d		 pop	 ebp
  00012	c3		 ret	 0
??$move@AAV?$tuple@ABK@std@@@std@@YA$$QAV?$tuple@ABK@0@AAV10@@Z ENDP ; std::move<std::tuple<unsigned long const &> &>
_TEXT	ENDS
; Function compile flags: /Odtp /ZI
; File c:\program files (x86)\microsoft visual studio\2017\community\vc\tools\msvc\14.16.27023\include\tuple
;	COMDAT ??$?0V?$tuple@ABK@std@@V?$tuple@$$V@1@$0A@$$Z$S@?$pair@$$CBKV?$vector@UtagPropertyBuff@@V?$allocator@UtagPropertyBuff@@@std@@@std@@@std@@QAE@AAV?$tuple@ABK@1@AAV?$tuple@$$V@1@U?$integer_sequence@I$0A@@1@U?$integer_sequence@I$S@1@@Z
_TEXT	SEGMENT
_this$ = -4						; size = 4
__Val1$ = 8						; size = 4
__Val2$ = 12						; size = 4
___formal$ = 16						; size = 1
___formal$ = 20						; size = 1
??$?0V?$tuple@ABK@std@@V?$tuple@$$V@1@$0A@$$Z$S@?$pair@$$CBKV?$vector@UtagPropertyBuff@@V?$allocator@UtagPropertyBuff@@@std@@@std@@@std@@QAE@AAV?$tuple@ABK@1@AAV?$tuple@$$V@1@U?$integer_sequence@I$0A@@1@U?$integer_sequence@I$S@1@@Z PROC ; std::pair<unsigned long const ,std::vector<tagPropertyBuff,std::allocator<tagPropertyBuff> > >::pair<unsigned long const ,std::vector<tagPropertyBuff,std::allocator<tagPropertyBuff> > ><std::tuple<unsigned long const &>,std::tuple<>,0>, COMDAT
; _this$ = ecx

; 1306 : 		{	// construct from pair of tuples

  00000	55		 push	 ebp
  00001	8b ec		 mov	 ebp, esp
  00003	83 ec 44	 sub	 esp, 68			; 00000044H
  00006	53		 push	 ebx
  00007	56		 push	 esi
  00008	57		 push	 edi
  00009	89 4d fc	 mov	 DWORD PTR _this$[ebp], ecx

; 1304 : 		: first(_STD get<_Indexes1>(_STD move(_Val1))...),

  0000c	8b 45 08	 mov	 eax, DWORD PTR __Val1$[ebp]
  0000f	50		 push	 eax
  00010	e8 00 00 00 00	 call	 ??$move@AAV?$tuple@ABK@std@@@std@@YA$$QAV?$tuple@ABK@0@AAV10@@Z ; std::move<std::tuple<unsigned long const &> &>
  00015	83 c4 04	 add	 esp, 4
  00018	50		 push	 eax
  00019	e8 00 00 00 00	 call	 ??$get@$0A@ABK@std@@YAABK$$QAV?$tuple@ABK@0@@Z ; std::get<0,unsigned long const &>
  0001e	83 c4 04	 add	 esp, 4
  00021	8b 4d fc	 mov	 ecx, DWORD PTR _this$[ebp]
  00024	8b 10		 mov	 edx, DWORD PTR [eax]
  00026	89 11		 mov	 DWORD PTR [ecx], edx

; 1305 : 			second(_STD get<_Indexes2>(_STD move(_Val2))...)

  00028	8b 4d fc	 mov	 ecx, DWORD PTR _this$[ebp]
  0002b	83 c1 04	 add	 ecx, 4
  0002e	e8 00 00 00 00	 call	 ??0?$vector@UtagPropertyBuff@@V?$allocator@UtagPropertyBuff@@@std@@@std@@QAE@XZ ; std::vector<tagPropertyBuff,std::allocator<tagPropertyBuff> >::vector<tagPropertyBuff,std::allocator<tagPropertyBuff> >

; 1307 : 		}

  00033	8b 45 fc	 mov	 eax, DWORD PTR _this$[ebp]
  00036	5f		 pop	 edi
  00037	5e		 pop	 esi
  00038	5b		 pop	 ebx
  00039	8b e5		 mov	 esp, ebp
  0003b	5d		 pop	 ebp
  0003c	c2 10 00	 ret	 16			; 00000010H
??$?0V?$tuple@ABK@std@@V?$tuple@$$V@1@$0A@$$Z$S@?$pair@$$CBKV?$vector@UtagPropertyBuff@@V?$allocator@UtagPropertyBuff@@@std@@@std@@@std@@QAE@AAV?$tuple@ABK@1@AAV?$tuple@$$V@1@U?$integer_sequence@I$0A@@1@U?$integer_sequence@I$S@1@@Z ENDP ; std::pair<unsigned long const ,std::vector<tagPropertyBuff,std::allocator<tagPropertyBuff> > >::pair<unsigned long const ,std::vector<tagPropertyBuff,std::allocator<tagPropertyBuff> > ><std::tuple<unsigned long const &>,std::tuple<>,0>
_TEXT	ENDS
; Function compile flags: /Odtp /ZI
; File c:\program files (x86)\microsoft visual studio\2017\community\vc\tools\msvc\14.16.27023\include\xtree
;	COMDAT ??$_Buy_if_not_node@AAU?$pair@$$CBKV?$vector@UtagPropertyBuff@@V?$allocator@UtagPropertyBuff@@@std@@@std@@@std@@@?$_Tree@V?$_Tmap_traits@KV?$vector@UtagPropertyBuff@@V?$allocator@UtagPropertyBuff@@@std@@@std@@U?$less@K@2@V?$allocator@U?$pair@$$CBKV?$vector@UtagPropertyBuff@@V?$allocator@UtagPropertyBuff@@@std@@@std@@@std@@@2@$0A@@std@@@std@@IAEPAU?$_Tree_node@U?$pair@$$CBKV?$vector@UtagPropertyBuff@@V?$allocator@UtagPropertyBuff@@@std@@@std@@@std@@PAX@1@PAU21@AAU?$pair@$$CBKV?$vector@UtagPropertyBuff@@V?$allocator@UtagPropertyBuff@@@std@@@std@@@1@@Z
_TEXT	SEGMENT
_this$ = -4						; size = 4
__Node$ = 8						; size = 4
___formal$ = 12						; size = 4
??$_Buy_if_not_node@AAU?$pair@$$CBKV?$vector@UtagPropertyBuff@@V?$allocator@UtagPropertyBuff@@@std@@@std@@@std@@@?$_Tree@V?$_Tmap_traits@KV?$vector@UtagPropertyBuff@@V?$allocator@UtagPropertyBuff@@@std@@@std@@U?$less@K@2@V?$allocator@U?$pair@$$CBKV?$vector@UtagPropertyBuff@@V?$allocator@UtagPropertyBuff@@@std@@@std@@@std@@@2@$0A@@std@@@std@@IAEPAU?$_Tree_node@U?$pair@$$CBKV?$vector@UtagPropertyBuff@@V?$allocator@UtagPropertyBuff@@@std@@@std@@@std@@PAX@1@PAU21@AAU?$pair@$$CBKV?$vector@UtagPropertyBuff@@V?$allocator@UtagPropertyBuff@@@std@@@std@@@1@@Z PROC ; std::_Tree<std::_Tmap_traits<unsigned long,std::vector<tagPropertyBuff,std::allocator<tagPropertyBuff> >,std::less<unsigned long>,std::allocator<std::pair<unsigned long const ,std::vector<tagPropertyBuff,std::allocator<tagPropertyBuff> > > >,0> >::_Buy_if_not_node<std::pair<unsigned long const ,std::vector<tagPropertyBuff,std::allocator<tagPropertyBuff> > > &>, COMDAT
; _this$ = ecx

; 1574 : 		{	// node exists, just return it

  00000	55		 push	 ebp
  00001	8b ec		 mov	 ebp, esp
  00003	83 ec 44	 sub	 esp, 68			; 00000044H
  00006	53		 push	 ebx
  00007	56		 push	 esi
  00008	57		 push	 edi
  00009	89 4d fc	 mov	 DWORD PTR _this$[ebp], ecx

; 1575 : 		return (_Node);

  0000c	8b 45 08	 mov	 eax, DWORD PTR __Node$[ebp]

; 1576 : 		}

  0000f	5f		 pop	 edi
  00010	5e		 pop	 esi
  00011	5b		 pop	 ebx
  00012	8b e5		 mov	 esp, ebp
  00014	5d		 pop	 ebp
  00015	c2 08 00	 ret	 8
??$_Buy_if_not_node@AAU?$pair@$$CBKV?$vector@UtagPropertyBuff@@V?$allocator@UtagPropertyBuff@@@std@@@std@@@std@@@?$_Tree@V?$_Tmap_traits@KV?$vector@UtagPropertyBuff@@V?$allocator@UtagPropertyBuff@@@std@@@std@@U?$less@K@2@V?$allocator@U?$pair@$$CBKV?$vector@UtagPropertyBuff@@V?$allocator@UtagPropertyBuff@@@std@@@std@@@std@@@2@$0A@@std@@@std@@IAEPAU?$_Tree_node@U?$pair@$$CBKV?$vector@UtagPropertyBuff@@V?$allocator@UtagPropertyBuff@@@std@@@std@@@std@@PAX@1@PAU21@AAU?$pair@$$CBKV?$vector@UtagPropertyBuff@@V?$allocator@UtagPropertyBuff@@@std@@@std@@@1@@Z ENDP ; std::_Tree<std::_Tmap_traits<unsigned long,std::vector<tagPropertyBuff,std::allocator<tagPropertyBuff> >,std::less<unsigned long>,std::allocator<std::pair<unsigned long const ,std::vector<tagPropertyBuff,std::allocator<tagPropertyBuff> > > >,0> >::_Buy_if_not_node<std::pair<unsigned long const ,std::vector<tagPropertyBuff,std::allocator<tagPropertyBuff> > > &>
_TEXT	ENDS
; Function compile flags: /Odtp /ZI
; File c:\program files (x86)\microsoft visual studio\2017\community\vc\tools\msvc\14.16.27023\include\tuple
;	COMDAT ??$?0ABK$$Z$$V@?$pair@$$CBKV?$vector@UtagPropertyBuff@@V?$allocator@UtagPropertyBuff@@@std@@@std@@@std@@QAE@Upiecewise_construct_t@1@V?$tuple@ABK@1@V?$tuple@$$V@1@@Z
_TEXT	SEGMENT
$T1 = -70						; size = 1
$T2 = -69						; size = 1
_this$ = -4						; size = 4
___formal$ = 8						; size = 1
__Val1$ = 12						; size = 4
__Val2$ = 16						; size = 1
??$?0ABK$$Z$$V@?$pair@$$CBKV?$vector@UtagPropertyBuff@@V?$allocator@UtagPropertyBuff@@@std@@@std@@@std@@QAE@Upiecewise_construct_t@1@V?$tuple@ABK@1@V?$tuple@$$V@1@@Z PROC ; std::pair<unsigned long const ,std::vector<tagPropertyBuff,std::allocator<tagPropertyBuff> > >::pair<unsigned long const ,std::vector<tagPropertyBuff,std::allocator<tagPropertyBuff> > ><unsigned long const &>, COMDAT
; _this$ = ecx

; 1321 : 		{	// construct from pair of tuples

  00000	55		 push	 ebp
  00001	8b ec		 mov	 ebp, esp
  00003	83 ec 48	 sub	 esp, 72			; 00000048H
  00006	53		 push	 ebx
  00007	56		 push	 esi
  00008	57		 push	 edi
  00009	89 4d fc	 mov	 DWORD PTR _this$[ebp], ecx

; 1318 : 		: pair(_Val1, _Val2,

  0000c	0f b6 45 bb	 movzx	 eax, BYTE PTR $T2[ebp]
  00010	50		 push	 eax
  00011	0f b6 4d ba	 movzx	 ecx, BYTE PTR $T1[ebp]
  00015	51		 push	 ecx
  00016	8d 55 10	 lea	 edx, DWORD PTR __Val2$[ebp]
  00019	52		 push	 edx
  0001a	8d 45 0c	 lea	 eax, DWORD PTR __Val1$[ebp]
  0001d	50		 push	 eax
  0001e	8b 4d fc	 mov	 ecx, DWORD PTR _this$[ebp]
  00021	e8 00 00 00 00	 call	 ??$?0V?$tuple@ABK@std@@V?$tuple@$$V@1@$0A@$$Z$S@?$pair@$$CBKV?$vector@UtagPropertyBuff@@V?$allocator@UtagPropertyBuff@@@std@@@std@@@std@@QAE@AAV?$tuple@ABK@1@AAV?$tuple@$$V@1@U?$integer_sequence@I$0A@@1@U?$integer_sequence@I$S@1@@Z ; std::pair<unsigned long const ,std::vector<tagPropertyBuff,std::allocator<tagPropertyBuff> > >::pair<unsigned long const ,std::vector<tagPropertyBuff,std::allocator<tagPropertyBuff> > ><std::tuple<unsigned long const &>,std::tuple<>,0>

; 1322 : 		}

  00026	8b 45 fc	 mov	 eax, DWORD PTR _this$[ebp]
  00029	5f		 pop	 edi
  0002a	5e		 pop	 esi
  0002b	5b		 pop	 ebx
  0002c	8b e5		 mov	 esp, ebp
  0002e	5d		 pop	 ebp
  0002f	c2 0c 00	 ret	 12			; 0000000cH
??$?0ABK$$Z$$V@?$pair@$$CBKV?$vector@UtagPropertyBuff@@V?$allocator@UtagPropertyBuff@@@std@@@std@@@std@@QAE@Upiecewise_construct_t@1@V?$tuple@ABK@1@V?$tuple@$$V@1@@Z ENDP ; std::pair<unsigned long const ,std::vector<tagPropertyBuff,std::allocator<tagPropertyBuff> > >::pair<unsigned long const ,std::vector<tagPropertyBuff,std::allocator<tagPropertyBuff> > ><unsigned long const &>
_TEXT	ENDS
; Function compile flags: /Odtp /ZI
; File c:\program files (x86)\microsoft visual studio\2017\community\vc\tools\msvc\14.16.27023\include\tuple
;	COMDAT ??$?0ABK@?$_Tuple_val@ABK@std@@QAE@ABK@Z
_TEXT	SEGMENT
_this$ = -4						; size = 4
__Arg$ = 8						; size = 4
??$?0ABK@?$_Tuple_val@ABK@std@@QAE@ABK@Z PROC		; std::_Tuple_val<unsigned long const &>::_Tuple_val<unsigned long const &><unsigned long const &>, COMDAT
; _this$ = ecx

; 237  : 		{	// construct with argument

  00000	55		 push	 ebp
  00001	8b ec		 mov	 ebp, esp
  00003	83 ec 44	 sub	 esp, 68			; 00000044H
  00006	53		 push	 ebx
  00007	56		 push	 esi
  00008	57		 push	 edi
  00009	89 4d fc	 mov	 DWORD PTR _this$[ebp], ecx

; 236  : 		: _Val(_STD forward<_Other>(_Arg))

  0000c	8b 45 08	 mov	 eax, DWORD PTR __Arg$[ebp]
  0000f	50		 push	 eax
  00010	e8 00 00 00 00	 call	 ??$forward@ABK@std@@YAABKABK@Z ; std::forward<unsigned long const &>
  00015	83 c4 04	 add	 esp, 4
  00018	8b 4d fc	 mov	 ecx, DWORD PTR _this$[ebp]
  0001b	89 01		 mov	 DWORD PTR [ecx], eax

; 238  : 		}

  0001d	8b 45 fc	 mov	 eax, DWORD PTR _this$[ebp]
  00020	5f		 pop	 edi
  00021	5e		 pop	 esi
  00022	5b		 pop	 ebx
  00023	8b e5		 mov	 esp, ebp
  00025	5d		 pop	 ebp
  00026	c2 04 00	 ret	 4
??$?0ABK@?$_Tuple_val@ABK@std@@QAE@ABK@Z ENDP		; std::_Tuple_val<unsigned long const &>::_Tuple_val<unsigned long const &><unsigned long const &>
_TEXT	ENDS
; Function compile flags: /Odtp /ZI
; File c:\program files (x86)\microsoft visual studio\2017\community\vc\tools\msvc\14.16.27023\include\tuple
;	COMDAT ??$?0U_Exact_args_t@std@@$0A@@?$tuple@$$V@std@@QAE@U_Exact_args_t@1@@Z
_TEXT	SEGMENT
_this$ = -4						; size = 4
___formal$ = 8						; size = 1
??$?0U_Exact_args_t@std@@$0A@@?$tuple@$$V@std@@QAE@U_Exact_args_t@1@@Z PROC ; std::tuple<>::tuple<><std::_Exact_args_t,0>, COMDAT
; _this$ = ecx

; 318  : 		{	// construct from one arg per element

  00000	55		 push	 ebp
  00001	8b ec		 mov	 ebp, esp
  00003	83 ec 44	 sub	 esp, 68			; 00000044H
  00006	53		 push	 ebx
  00007	56		 push	 esi
  00008	57		 push	 edi
  00009	89 4d fc	 mov	 DWORD PTR _this$[ebp], ecx

; 319  : 		}

  0000c	8b 45 fc	 mov	 eax, DWORD PTR _this$[ebp]
  0000f	5f		 pop	 edi
  00010	5e		 pop	 esi
  00011	5b		 pop	 ebx
  00012	8b e5		 mov	 esp, ebp
  00014	5d		 pop	 ebp
  00015	c2 04 00	 ret	 4
??$?0U_Exact_args_t@std@@$0A@@?$tuple@$$V@std@@QAE@U_Exact_args_t@1@@Z ENDP ; std::tuple<>::tuple<><std::_Exact_args_t,0>
_TEXT	ENDS
; Function compile flags: /Odtp /ZI
; File c:\program files (x86)\microsoft visual studio\2017\community\vc\tools\msvc\14.16.27023\include\xtree
;	COMDAT ??$_Insert_nohint@AAU?$pair@$$CBKV?$vector@UtagPropertyBuff@@V?$allocator@UtagPropertyBuff@@@std@@@std@@@std@@PAU?$_Tree_node@U?$pair@$$CBKV?$vector@UtagPropertyBuff@@V?$allocator@UtagPropertyBuff@@@std@@@std@@@std@@PAX@2@@?$_Tree@V?$_Tmap_traits@KV?$vector@UtagPropertyBuff@@V?$allocator@UtagPropertyBuff@@@std@@@std@@U?$less@K@2@V?$allocator@U?$pair@$$CBKV?$vector@UtagPropertyBuff@@V?$allocator@UtagPropertyBuff@@@std@@@std@@@std@@@2@$0A@@std@@@std@@IAE?AU?$pair@V?$_Tree_iterator@V?$_Tree_val@U?$_Tree_simple_types@U?$pair@$$CBKV?$vector@UtagPropertyBuff@@V?$allocator@UtagPropertyBuff@@@std@@@std@@@std@@@std@@@std@@@std@@_N@1@_NAAU?$pair@$$CBKV?$vector@UtagPropertyBuff@@V?$allocator@UtagPropertyBuff@@@std@@@std@@@1@PAU?$_Tree_node@U?$pair@$$CBKV?$vector@UtagPropertyBuff@@V?$allocator@UtagPropertyBuff@@@std@@@std@@@std@@PAX@1@@Z
_TEXT	SEGMENT
tv95 = -200						; size = 4
tv288 = -193						; size = 1
tv285 = -193						; size = 1
tv282 = -193						; size = 1
tv195 = -193						; size = 1
tv287 = -192						; size = 4
tv281 = -192						; size = 4
tv269 = -192						; size = 4
tv235 = -192						; size = 4
tv286 = -188						; size = 4
tv284 = -188						; size = 4
tv283 = -188						; size = 4
tv275 = -188						; size = 4
tv271 = -188						; size = 4
tv262 = -188						; size = 4
tv253 = -188						; size = 4
tv152 = -188						; size = 4
tv149 = -188						; size = 4
$T2 = -184						; size = 4
$T3 = -177						; size = 1
$T4 = -176						; size = 12
$T5 = -161						; size = 1
$T6 = -160						; size = 12
$T7 = -145						; size = 1
$T8 = -144						; size = 12
$T9 = -129						; size = 1
$T10 = -128						; size = 12
$T11 = -113						; size = 1
__Where$12 = -48					; size = 12
__Addleft$13 = -33					; size = 1
__Trynode$14 = -32					; size = 4
__Wherenode$15 = -28					; size = 4
__My_data$ = -24					; size = 4
_this$ = -20						; size = 4
__$EHRec$ = -16						; size = 16
___$ReturnUdt$ = 8					; size = 4
__Leftish$ = 12						; size = 1
__Val$ = 16						; size = 4
__Newnode$ = 20						; size = 4
??$_Insert_nohint@AAU?$pair@$$CBKV?$vector@UtagPropertyBuff@@V?$allocator@UtagPropertyBuff@@@std@@@std@@@std@@PAU?$_Tree_node@U?$pair@$$CBKV?$vector@UtagPropertyBuff@@V?$allocator@UtagPropertyBuff@@@std@@@std@@@std@@PAX@2@@?$_Tree@V?$_Tmap_traits@KV?$vector@UtagPropertyBuff@@V?$allocator@UtagPropertyBuff@@@std@@@std@@U?$less@K@2@V?$allocator@U?$pair@$$CBKV?$vector@UtagPropertyBuff@@V?$allocator@UtagPropertyBuff@@@std@@@std@@@std@@@2@$0A@@std@@@std@@IAE?AU?$pair@V?$_Tree_iterator@V?$_Tree_val@U?$_Tree_simple_types@U?$pair@$$CBKV?$vector@UtagPropertyBuff@@V?$allocator@UtagPropertyBuff@@@std@@@std@@@std@@@std@@@std@@@std@@_N@1@_NAAU?$pair@$$CBKV?$vector@UtagPropertyBuff@@V?$allocator@UtagPropertyBuff@@@std@@@std@@@1@PAU?$_Tree_node@U?$pair@$$CBKV?$vector@UtagPropertyBuff@@V?$allocator@UtagPropertyBuff@@@std@@@std@@@std@@PAX@1@@Z PROC ; std::_Tree<std::_Tmap_traits<unsigned long,std::vector<tagPropertyBuff,std::allocator<tagPropertyBuff> >,std::less<unsigned long>,std::allocator<std::pair<unsigned long const ,std::vector<tagPropertyBuff,std::allocator<tagPropertyBuff> > > >,0> >::_Insert_nohint<std::pair<unsigned long const ,std::vector<tagPropertyBuff,std::allocator<tagPropertyBuff> > > &,std::_Tree_node<std::pair<unsigned long const ,std::vector<tagPropertyBuff,std::allocator<tagPropertyBuff> > >,void *> *>, COMDAT
; _this$ = ecx

; 1733 : 		{	// try to insert node, on left if _Leftish

  00000	55		 push	 ebp
  00001	8b ec		 mov	 ebp, esp
  00003	6a ff		 push	 -1
  00005	68 00 00 00 00	 push	 __ehhandler$??$_Insert_nohint@AAU?$pair@$$CBKV?$vector@UtagPropertyBuff@@V?$allocator@UtagPropertyBuff@@@std@@@std@@@std@@PAU?$_Tree_node@U?$pair@$$CBKV?$vector@UtagPropertyBuff@@V?$allocator@UtagPropertyBuff@@@std@@@std@@@std@@PAX@2@@?$_Tree@V?$_Tmap_traits@KV?$vector@UtagPropertyBuff@@V?$allocator@UtagPropertyBuff@@@std@@@std@@U?$less@K@2@V?$allocator@U?$pair@$$CBKV?$vector@UtagPropertyBuff@@V?$allocator@UtagPropertyBuff@@@std@@@std@@@std@@@2@$0A@@std@@@std@@IAE?AU?$pair@V?$_Tree_iterator@V?$_Tree_val@U?$_Tree_simple_types@U?$pair@$$CBKV?$vector@UtagPropertyBuff@@V?$allocator@UtagPropertyBuff@@@std@@@std@@@std@@@std@@@std@@@std@@_N@1@_NAAU?$pair@$$CBKV?$vector@UtagPropertyBuff@@V?$allocator@UtagPropertyBuff@@@std@@@std@@@1@PAU?$_Tree_node@U?$pair@$$CBKV?$vector@UtagPropertyBuff@@V?$allocator@UtagPropertyBuff@@@std@@@std@@@std@@PAX@1@@Z
  0000a	64 a1 00 00 00
	00		 mov	 eax, DWORD PTR fs:0
  00010	50		 push	 eax
  00011	51		 push	 ecx
  00012	81 ec b8 00 00
	00		 sub	 esp, 184		; 000000b8H
  00018	53		 push	 ebx
  00019	56		 push	 esi
  0001a	57		 push	 edi
  0001b	a1 00 00 00 00	 mov	 eax, DWORD PTR ___security_cookie
  00020	33 c5		 xor	 eax, ebp
  00022	50		 push	 eax
  00023	8d 45 f4	 lea	 eax, DWORD PTR __$EHRec$[ebp+4]
  00026	64 a3 00 00 00
	00		 mov	 DWORD PTR fs:0, eax
  0002c	89 65 f0	 mov	 DWORD PTR __$EHRec$[ebp], esp
  0002f	89 4d ec	 mov	 DWORD PTR _this$[ebp], ecx
  00032	c7 85 48 ff ff
	ff 00 00 00 00	 mov	 DWORD PTR $T2[ebp], 0

; 1734 : 		auto& _My_data = this->_Get_data();

  0003c	8b 4d ec	 mov	 ecx, DWORD PTR _this$[ebp]
  0003f	e8 00 00 00 00	 call	 ?_Get_data@?$_Tree_comp_alloc@V?$_Tmap_traits@KV?$vector@UtagPropertyBuff@@V?$allocator@UtagPropertyBuff@@@std@@@std@@U?$less@K@2@V?$allocator@U?$pair@$$CBKV?$vector@UtagPropertyBuff@@V?$allocator@UtagPropertyBuff@@@std@@@std@@@std@@@2@$0A@@std@@@std@@QAEAAV?$_Tree_val@U?$_Tree_simple_types@U?$pair@$$CBKV?$vector@UtagPropertyBuff@@V?$allocator@UtagPropertyBuff@@@std@@@std@@@std@@@std@@@2@XZ ; std::_Tree_comp_alloc<std::_Tmap_traits<unsigned long,std::vector<tagPropertyBuff,std::allocator<tagPropertyBuff> >,std::less<unsigned long>,std::allocator<std::pair<unsigned long const ,std::vector<tagPropertyBuff,std::allocator<tagPropertyBuff> > > >,0> >::_Get_data
  00044	89 45 e8	 mov	 DWORD PTR __My_data$[ebp], eax

; 1735 : 		_TRY_BEGIN

  00047	c7 45 fc 00 00
	00 00		 mov	 DWORD PTR __$EHRec$[ebp+12], 0

; 1736 : 		_Nodeptr _Wherenode = _My_data._Myhead;

  0004e	8b 45 e8	 mov	 eax, DWORD PTR __My_data$[ebp]
  00051	8b 48 04	 mov	 ecx, DWORD PTR [eax+4]
  00054	89 4d e4	 mov	 DWORD PTR __Wherenode$15[ebp], ecx

; 1737 : 		_Nodeptr _Trynode = _Wherenode->_Parent;

  00057	8b 45 e4	 mov	 eax, DWORD PTR __Wherenode$15[ebp]
  0005a	8b 48 04	 mov	 ecx, DWORD PTR [eax+4]
  0005d	89 4d e0	 mov	 DWORD PTR __Trynode$14[ebp], ecx

; 1738 : 		bool _Addleft = true;	// add to left of head if tree empty

  00060	c6 45 df 01	 mov	 BYTE PTR __Addleft$13[ebp], 1
$LN2@Insert_noh:

; 1739 : 
; 1740 : 		while (!_Trynode->_Isnil)

  00064	8b 45 e0	 mov	 eax, DWORD PTR __Trynode$14[ebp]
  00067	0f be 48 0d	 movsx	 ecx, BYTE PTR [eax+13]
  0006b	85 c9		 test	 ecx, ecx
  0006d	0f 85 04 01 00
	00		 jne	 $LN3@Insert_noh

; 1741 : 			{	// look for leaf to insert before (_Addleft) or after
; 1742 : 			_Wherenode = _Trynode;

  00073	8b 45 e0	 mov	 eax, DWORD PTR __Trynode$14[ebp]
