; Listing generated by Microsoft (R) Optimizing Compiler Version 19.16.27032.1 

	TITLE	G:\网狐\HappyGameWH\服务端\系统模块\服务器组件\约战服务器\CorrespondServerDlg.cpp
	.686P
	.XMM
	include listing.inc
	.model	flat

INCLUDELIB MSVCRTD
INCLUDELIB OLDNAMES

PUBLIC	?OnBnClickedStartService@CCorrespondServerDlg@@IAEXXZ ; CCorrespondServerDlg::OnBnClickedStartService
PUBLIC	?OnBnClickedStopService@CCorrespondServerDlg@@IAEXXZ ; CCorrespondServerDlg::OnBnClickedStopService
PUBLIC	?OnQueryEndSession@CCorrespondServerDlg@@QAEHXZ	; CCorrespondServerDlg::OnQueryEndSession
EXTRN	?GetThisMessageMap@CDialog@@KGPBUAFX_MSGMAP@@XZ:PROC ; CDialog::GetThisMessageMap
CONST	SEGMENT
?_messageEntries@?1??GetThisMessageMap@CCorrespondServerDlg@@KGPBUAFX_MSGMAP@@XZ@4QBUAFX_MSGMAP_ENTRY@@B DD 011H ; `CCorrespondServerDlg::GetThisMessageMap'::`2'::_messageEntries
	DD	00H
	DD	00H
	DD	00H
	DD	01eH
	DD	FLAT:?OnQueryEndSession@CCorrespondServerDlg@@QAEHXZ
	DD	0111H
	DD	00H
	DD	03ecH
	DD	03ecH
	DD	03aH
	DD	FLAT:?OnBnClickedStopService@CCorrespondServerDlg@@IAEXXZ
	DD	0111H
	DD	00H
	DD	03ebH
	DD	03ebH
	DD	03aH
	DD	FLAT:?OnBnClickedStartService@CCorrespondServerDlg@@IAEXXZ
	DD	00H
	DD	00H
	DD	00H
	DD	00H
	DD	00H
	DD	00H
?messageMap@?1??GetThisMessageMap@CCorrespondServerDlg@@KGPBUAFX_MSGMAP@@XZ@4U3@B DD FLAT:?GetThisMessageMap@CDialog@@KGPBUAFX_MSGMAP@@XZ ; `CCorrespondServerDlg::GetThisMessageMap'::`2'::messageMap
	DD	FLAT:?_messageEntries@?1??GetThisMessageMap@CCorrespondServerDlg@@KGPBUAFX_MSGMAP@@XZ@4QBUAFX_MSGMAP_ENTRY@@B
CONST	ENDS
PUBLIC	?__empty_global_delete@@YAXPAX@Z		; __empty_global_delete
PUBLIC	?__empty_global_delete@@YAXPAXI@Z		; __empty_global_delete
PUBLIC	___local_stdio_printf_options
PUBLIC	__vsnprintf_l
PUBLIC	__vsnprintf
PUBLIC	__snprintf
PUBLIC	?AfxAssertFailedLine@@YGHPBDH@Z			; AfxAssertFailedLine
PUBLIC	??0CInitParameter@@QAE@ABV0@@Z			; CInitParameter::CInitParameter
PUBLIC	??_GCInitParameter@@UAEPAXI@Z			; CInitParameter::`scalar deleting destructor'
PUBLIC	??0IServiceUnitsSink@@QAE@XZ			; IServiceUnitsSink::IServiceUnitsSink
PUBLIC	?GetServiceStatus@CServiceUnits@@QAE?AW4enServiceStatus@@XZ ; CServiceUnits::GetServiceStatus
PUBLIC	?GetInitParameter@CServiceUnits@@QAE?AVCInitParameter@@XZ ; CServiceUnits::GetInitParameter
PUBLIC	??0CCorrespondServerDlg@@QAE@XZ			; CCorrespondServerDlg::CCorrespondServerDlg
PUBLIC	??1CCorrespondServerDlg@@UAE@XZ			; CCorrespondServerDlg::~CCorrespondServerDlg
PUBLIC	?DoDataExchange@CCorrespondServerDlg@@MAEXPAVCDataExchange@@@Z ; CCorrespondServerDlg::DoDataExchange
PUBLIC	?OnInitDialog@CCorrespondServerDlg@@MAEHXZ	; CCorrespondServerDlg::OnInitDialog
PUBLIC	?OnOK@CCorrespondServerDlg@@MAEXXZ		; CCorrespondServerDlg::OnOK
PUBLIC	?OnCancel@CCorrespondServerDlg@@MAEXXZ		; CCorrespondServerDlg::OnCancel
PUBLIC	?PreTranslateMessage@CCorrespondServerDlg@@MAEHPAUtagMSG@@@Z ; CCorrespondServerDlg::PreTranslateMessage
PUBLIC	?OnServiceUnitsStatus@CCorrespondServerDlg@@UAEXW4enServiceStatus@@@Z ; CCorrespondServerDlg::OnServiceUnitsStatus
PUBLIC	?GetThisMessageMap@CCorrespondServerDlg@@KGPBUAFX_MSGMAP@@XZ ; CCorrespondServerDlg::GetThisMessageMap
PUBLIC	?GetMessageMap@CCorrespondServerDlg@@MBEPBUAFX_MSGMAP@@XZ ; CCorrespondServerDlg::GetMessageMap
PUBLIC	??_GCCorrespondServerDlg@@UAEPAXI@Z		; CCorrespondServerDlg::`scalar deleting destructor'
PUBLIC	?_OptionsStorage@?1??__local_stdio_printf_options@@9@4_KA ; `__local_stdio_printf_options'::`2'::_OptionsStorage
PUBLIC	??_C@_00CNPNBAHC@@				; `string'
PUBLIC	??_R1A@?0A@EA@CObject@@8			; CObject::`RTTI Base Class Descriptor at (0,-1,0,64)'
PUBLIC	??_R0?AVCObject@@@8				; CObject `RTTI Type Descriptor'
PUBLIC	??_R3CObject@@8					; CObject::`RTTI Class Hierarchy Descriptor'
PUBLIC	??_R2CObject@@8					; CObject::`RTTI Base Class Array'
PUBLIC	??_R1A@?0A@EA@CDialog@@8			; CDialog::`RTTI Base Class Descriptor at (0,-1,0,64)'
PUBLIC	??_R0?AVCDialog@@@8				; CDialog `RTTI Type Descriptor'
PUBLIC	??_R3CDialog@@8					; CDialog::`RTTI Class Hierarchy Descriptor'
PUBLIC	??_R2CDialog@@8					; CDialog::`RTTI Base Class Array'
PUBLIC	??_R1A@?0A@EA@CWnd@@8				; CWnd::`RTTI Base Class Descriptor at (0,-1,0,64)'
PUBLIC	??_R0?AVCWnd@@@8				; CWnd `RTTI Type Descriptor'
PUBLIC	??_R3CWnd@@8					; CWnd::`RTTI Class Hierarchy Descriptor'
PUBLIC	??_R2CWnd@@8					; CWnd::`RTTI Base Class Array'
PUBLIC	??_R1A@?0A@EA@CCmdTarget@@8			; CCmdTarget::`RTTI Base Class Descriptor at (0,-1,0,64)'
PUBLIC	??_R0?AVCCmdTarget@@@8				; CCmdTarget `RTTI Type Descriptor'
PUBLIC	??_R3CCmdTarget@@8				; CCmdTarget::`RTTI Class Hierarchy Descriptor'
PUBLIC	??_R2CCmdTarget@@8				; CCmdTarget::`RTTI Base Class Array'
PUBLIC	??_7CInitParameter@@6B@				; CInitParameter::`vftable'
PUBLIC	??_7IServiceUnitsSink@@6B@			; IServiceUnitsSink::`vftable'
PUBLIC	??_7CCorrespondServerDlg@@6BCDialog@@@		; CCorrespondServerDlg::`vftable'
PUBLIC	??_7CCorrespondServerDlg@@6BIServiceUnitsSink@@@ ; CCorrespondServerDlg::`vftable'
PUBLIC	??_C@_0BH@MJNLNDKI@?T?$LM?U?$LN?$LH?$PO?N?q?F?w?5?9?9?5?$FL?5?M?$KD?V?$LJ?5?$FN@ ; `string'
PUBLIC	??_C@_0CN@ODIPAIBI@?T?$LM?U?$LN?$LH?$PO?N?q?F?w?U?$PN?T?Z?T?K?P?P?V?P?$KD?$KM?D?z?H?$LH?J?$LF?R?$KK?$LJ@ ; `string'
PUBLIC	??_C@_0N@HNGKNHMM@?$LH?$PO?N?q?M?$KD?V?$LJ?$LD?I?$LJ?$KG@ ; `string'
PUBLIC	??_C@_0BJ@JPHOFEIP@?T?$LM?U?$LN?$LH?$PO?N?q?F?w?5?9?9?5?$FL?5?$LD?u?J?$LM?$LL?$KP?5?$FN@ ; `string'
PUBLIC	??_C@_0BC@OFPAKDFO@?U?$PN?T?Z?$LD?u?J?$LM?$LL?$KP?W?i?$LM?$PO?4?4?4@ ; `string'
PUBLIC	??_C@_0BH@BGFEMKKL@?T?$LM?U?$LN?$LH?$PO?N?q?F?w?5?9?9?5?$FL?5?T?K?P?P?5?$FN@ ; `string'
PUBLIC	??_C@_0BJ@HLOOMBNP@?$LH?$PO?N?q?F?t?$LG?$KP?$LD?I?$LJ?$KG?5?$FL?5?$LG?K?$LP?Z?3?$CFd?5?$FN@ ; `string'
PUBLIC	?__LINE__Var@?0??OnBnClickedStartService@CCorrespondServerDlg@@IAEXXZ@4JA ; `CCorrespondServerDlg::OnBnClickedStartService'::`1'::__LINE__Var
PUBLIC	??_C@_0FC@GBHBGEDM@g?3?2?M?x?$LK?$PM?2happygamewh?2?$LH?$PO?N?q?$LG?K?2?O?$LF?M?$LD@ ; `string'
PUBLIC	?__LINE__Var@?0??OnBnClickedStopService@CCorrespondServerDlg@@IAEXXZ@4JA ; `CCorrespondServerDlg::OnBnClickedStopService'::`1'::__LINE__Var
PUBLIC	??_C@_0CJ@LFENAACN@?$LH?$PO?N?q?U?$PN?T?Z?T?K?P?P?V?P?$KD?$KM?O?$LF?M?$LD?R?$KK?G?s?W?$KC?O?z?$LL?X?$LL@ ; `string'
PUBLIC	??_R4CInitParameter@@6B@			; CInitParameter::`RTTI Complete Object Locator'
PUBLIC	??_R0?AVCInitParameter@@@8			; CInitParameter `RTTI Type Descriptor'
PUBLIC	??_R3CInitParameter@@8				; CInitParameter::`RTTI Class Hierarchy Descriptor'
PUBLIC	??_R2CInitParameter@@8				; CInitParameter::`RTTI Base Class Array'
PUBLIC	??_R1A@?0A@EA@CInitParameter@@8			; CInitParameter::`RTTI Base Class Descriptor at (0,-1,0,64)'
PUBLIC	??_R4IServiceUnitsSink@@6B@			; IServiceUnitsSink::`RTTI Complete Object Locator'
PUBLIC	??_R0?AUIServiceUnitsSink@@@8			; IServiceUnitsSink `RTTI Type Descriptor'
PUBLIC	??_R3IServiceUnitsSink@@8			; IServiceUnitsSink::`RTTI Class Hierarchy Descriptor'
PUBLIC	??_R2IServiceUnitsSink@@8			; IServiceUnitsSink::`RTTI Base Class Array'
PUBLIC	??_R1A@?0A@EA@IServiceUnitsSink@@8		; IServiceUnitsSink::`RTTI Base Class Descriptor at (0,-1,0,64)'
PUBLIC	??_R4CCorrespondServerDlg@@6BCDialog@@@		; CCorrespondServerDlg::`RTTI Complete Object Locator'
PUBLIC	??_R0?AVCCorrespondServerDlg@@@8		; CCorrespondServerDlg `RTTI Type Descriptor'
PUBLIC	??_R3CCorrespondServerDlg@@8			; CCorrespondServerDlg::`RTTI Class Hierarchy Descriptor'
PUBLIC	??_R2CCorrespondServerDlg@@8			; CCorrespondServerDlg::`RTTI Base Class Array'
PUBLIC	??_R1A@?0A@EA@CCorrespondServerDlg@@8		; CCorrespondServerDlg::`RTTI Base Class Descriptor at (0,-1,0,64)'
PUBLIC	??_R1KI@?0A@EA@IServiceUnitsSink@@8		; IServiceUnitsSink::`RTTI Base Class Descriptor at (168,-1,0,64)'
PUBLIC	??_R4CCorrespondServerDlg@@6BIServiceUnitsSink@@@ ; CCorrespondServerDlg::`RTTI Complete Object Locator'
EXTRN	__purecall:PROC
EXTRN	??3@YAXPAXI@Z:PROC				; operator delete
EXTRN	?__global_delete@@YAXPAXI@Z:PROC		; __global_delete
EXTRN	__imp__PeekMessageA@20:PROC
EXTRN	__imp__PostQuitMessage@4:PROC
EXTRN	__imp__LoadIconA@8:PROC
EXTRN	__imp____stdio_common_vsprintf:PROC
EXTRN	__imp___CrtDbgReport:PROC
EXTRN	??3CObject@@SGXPAX@Z:PROC			; CObject::operator delete
EXTRN	?Serialize@CObject@@UAEXAAVCArchive@@@Z:PROC	; CObject::Serialize
EXTRN	?DDX_Control@@YGXPAVCDataExchange@@HAAVCWnd@@@Z:PROC ; DDX_Control
EXTRN	?IsInvokeAllowed@CCmdTarget@@UAEHJ@Z:PROC	; CCmdTarget::IsInvokeAllowed
EXTRN	?GetDispatchIID@CCmdTarget@@UAEHPAU_GUID@@@Z:PROC ; CCmdTarget::GetDispatchIID
EXTRN	?GetTypeInfoCount@CCmdTarget@@UAEIXZ:PROC	; CCmdTarget::GetTypeInfoCount
EXTRN	?GetTypeLibCache@CCmdTarget@@UAEPAVCTypeLibCache@@XZ:PROC ; CCmdTarget::GetTypeLibCache
EXTRN	?GetTypeLib@CCmdTarget@@UAEJKPAPAUITypeLib@@@Z:PROC ; CCmdTarget::GetTypeLib
EXTRN	?GetCommandMap@CCmdTarget@@MBEPBUAFX_OLECMDMAP@@XZ:PROC ; CCmdTarget::GetCommandMap
EXTRN	?GetDispatchMap@CCmdTarget@@MBEPBUAFX_DISPMAP@@XZ:PROC ; CCmdTarget::GetDispatchMap
EXTRN	?GetConnectionMap@CCmdTarget@@MBEPBUAFX_CONNECTIONMAP@@XZ:PROC ; CCmdTarget::GetConnectionMap
EXTRN	?GetEventSinkMap@CCmdTarget@@MBEPBUAFX_EVENTSINKMAP@@XZ:PROC ; CCmdTarget::GetEventSinkMap
EXTRN	?OnCreateAggregates@CCmdTarget@@UAEHXZ:PROC	; CCmdTarget::OnCreateAggregates
EXTRN	?GetInterfaceHook@CCmdTarget@@UAEPAUIUnknown@@PBX@Z:PROC ; CCmdTarget::GetInterfaceHook
EXTRN	?GetExtraConnectionPoints@CCmdTarget@@MAEHPAVCPtrArray@@@Z:PROC ; CCmdTarget::GetExtraConnectionPoints
EXTRN	?GetConnectionHook@CCmdTarget@@MAEPAUIConnectionPoint@@ABU_GUID@@@Z:PROC ; CCmdTarget::GetConnectionHook
EXTRN	?PreSubclassWindow@CWnd@@UAEXXZ:PROC		; CWnd::PreSubclassWindow
EXTRN	?Create@CWnd@@UAEHPBD0KABUtagRECT@@PAV1@IPAUCCreateContext@@@Z:PROC ; CWnd::Create
EXTRN	?CreateEx@CWnd@@UAEHKPBD0KHHHHPAUHWND__@@PAUHMENU__@@PAX@Z:PROC ; CWnd::CreateEx
EXTRN	?CreateEx@CWnd@@UAEHKPBD0KABUtagRECT@@PAV1@IPAX@Z:PROC ; CWnd::CreateEx
EXTRN	?DestroyWindow@CWnd@@UAEHXZ:PROC		; CWnd::DestroyWindow
EXTRN	?PreCreateWindow@CWnd@@UAEHAAUtagCREATESTRUCTA@@@Z:PROC ; CWnd::PreCreateWindow
EXTRN	?CalcWindowRect@CWnd@@UAEXPAUtagRECT@@I@Z:PROC	; CWnd::CalcWindowRect
EXTRN	?GetDlgItem@CWnd@@QBEPAV1@H@Z:PROC		; CWnd::GetDlgItem
EXTRN	?SetWindowTextA@CWnd@@QAEXPBD@Z:PROC		; CWnd::SetWindowTextA
EXTRN	?GetMenu@CWnd@@UBEPAVCMenu@@XZ:PROC		; CWnd::GetMenu
EXTRN	?SetMenu@CWnd@@UAEHPAVCMenu@@@Z:PROC		; CWnd::SetMenu
EXTRN	?OnToolHitTest@CWnd@@UBEHVCPoint@@PAUtagTOOLINFOA@@@Z:PROC ; CWnd::OnToolHitTest
EXTRN	?EnableWindow@CWnd@@QAEHH@Z:PROC		; CWnd::EnableWindow
EXTRN	?GetScrollBarCtrl@CWnd@@UBEPAVCScrollBar@@H@Z:PROC ; CWnd::GetScrollBarCtrl
EXTRN	?SetIcon@CWnd@@QAEPAUHICON__@@PAU2@H@Z:PROC	; CWnd::SetIcon
EXTRN	?WinHelpA@CWnd@@UAEXKI@Z:PROC			; CWnd::WinHelpA
EXTRN	?HtmlHelpA@CWnd@@UAEXKI@Z:PROC			; CWnd::HtmlHelpA
EXTRN	?WinHelpInternal@CWnd@@UAEXKI@Z:PROC		; CWnd::WinHelpInternal
EXTRN	?ContinueModal@CWnd@@UAEHXZ:PROC		; CWnd::ContinueModal
EXTRN	?EndModalLoop@CWnd@@UAEXH@Z:PROC		; CWnd::EndModalLoop
EXTRN	?OnDrawIconicThumbnailOrLivePreview@CWnd@@UAEXAAVCDC@@VCRect@@VCSize@@HAAH@Z:PROC ; CWnd::OnDrawIconicThumbnailOrLivePreview
EXTRN	?GetInterfaceMap@CWnd@@MBEPBUAFX_INTERFACEMAP@@XZ:PROC ; CWnd::GetInterfaceMap
EXTRN	?EnsureStdObj@CWnd@@UAEJXZ:PROC			; CWnd::EnsureStdObj
EXTRN	?get_accParent@CWnd@@UAEJPAPAUIDispatch@@@Z:PROC ; CWnd::get_accParent
EXTRN	?get_accChildCount@CWnd@@UAEJPAJ@Z:PROC		; CWnd::get_accChildCount
EXTRN	?get_accChild@CWnd@@UAEJUtagVARIANT@@PAPAUIDispatch@@@Z:PROC ; CWnd::get_accChild
EXTRN	?get_accName@CWnd@@UAEJUtagVARIANT@@PAPA_W@Z:PROC ; CWnd::get_accName
EXTRN	?get_accValue@CWnd@@UAEJUtagVARIANT@@PAPA_W@Z:PROC ; CWnd::get_accValue
EXTRN	?get_accDescription@CWnd@@UAEJUtagVARIANT@@PAPA_W@Z:PROC ; CWnd::get_accDescription
EXTRN	?get_accRole@CWnd@@UAEJUtagVARIANT@@PAU2@@Z:PROC ; CWnd::get_accRole
EXTRN	?get_accState@CWnd@@UAEJUtagVARIANT@@PAU2@@Z:PROC ; CWnd::get_accState
EXTRN	?get_accHelp@CWnd@@UAEJUtagVARIANT@@PAPA_W@Z:PROC ; CWnd::get_accHelp
EXTRN	?get_accHelpTopic@CWnd@@UAEJPAPA_WUtagVARIANT@@PAJ@Z:PROC ; CWnd::get_accHelpTopic
EXTRN	?get_accKeyboardShortcut@CWnd@@UAEJUtagVARIANT@@PAPA_W@Z:PROC ; CWnd::get_accKeyboardShortcut
EXTRN	?get_accFocus@CWnd@@UAEJPAUtagVARIANT@@@Z:PROC	; CWnd::get_accFocus
EXTRN	?get_accSelection@CWnd@@UAEJPAUtagVARIANT@@@Z:PROC ; CWnd::get_accSelection
EXTRN	?get_accDefaultAction@CWnd@@UAEJUtagVARIANT@@PAPA_W@Z:PROC ; CWnd::get_accDefaultAction
EXTRN	?accSelect@CWnd@@UAEJJUtagVARIANT@@@Z:PROC	; CWnd::accSelect
EXTRN	?accLocation@CWnd@@UAEJPAJ000UtagVARIANT@@@Z:PROC ; CWnd::accLocation
EXTRN	?accNavigate@CWnd@@UAEJJUtagVARIANT@@PAU2@@Z:PROC ; CWnd::accNavigate
EXTRN	?accHitTest@CWnd@@UAEJJJPAUtagVARIANT@@@Z:PROC	; CWnd::accHitTest
EXTRN	?accDoDefaultAction@CWnd@@UAEJUtagVARIANT@@@Z:PROC ; CWnd::accDoDefaultAction
EXTRN	?put_accName@CWnd@@UAEJUtagVARIANT@@PA_W@Z:PROC	; CWnd::put_accName
EXTRN	?put_accValue@CWnd@@UAEJUtagVARIANT@@PA_W@Z:PROC ; CWnd::put_accValue
EXTRN	?SetProxy@CWnd@@UAEJPAUIAccessibleProxy@@@Z:PROC ; CWnd::SetProxy
EXTRN	?CreateAccessibleProxy@CWnd@@UAEJIJPAJ@Z:PROC	; CWnd::CreateAccessibleProxy
EXTRN	?OnCommand@CWnd@@MAEHIJ@Z:PROC			; CWnd::OnCommand
EXTRN	?OnNotify@CWnd@@MAEHIJPAJ@Z:PROC		; CWnd::OnNotify
EXTRN	?GetSuperWndProcAddr@CWnd@@MAEPAP6GJPAUHWND__@@IIJ@ZXZ:PROC ; CWnd::GetSuperWndProcAddr
EXTRN	?DoDataExchange@CWnd@@MAEXPAVCDataExchange@@@Z:PROC ; CWnd::DoDataExchange
EXTRN	?BeginModalState@CWnd@@UAEXXZ:PROC		; CWnd::BeginModalState
EXTRN	?EndModalState@CWnd@@UAEXXZ:PROC		; CWnd::EndModalState
EXTRN	?OnAmbientProperty@CWnd@@UAEHPAVCOleControlSite@@JPAUtagVARIANT@@@Z:PROC ; CWnd::OnAmbientProperty
EXTRN	?WindowProc@CWnd@@MAEJIIJ@Z:PROC		; CWnd::WindowProc
EXTRN	?OnWndMsg@CWnd@@MAEHIIJPAJ@Z:PROC		; CWnd::OnWndMsg
EXTRN	?DefWindowProcA@CWnd@@MAEJIIJ@Z:PROC		; CWnd::DefWindowProcA
EXTRN	?PostNcDestroy@CWnd@@MAEXXZ:PROC		; CWnd::PostNcDestroy
EXTRN	?OnChildNotify@CWnd@@MAEHIIJPAJ@Z:PROC		; CWnd::OnChildNotify
EXTRN	?OnTouchInputs@CWnd@@MAEHIPAUtagTOUCHINPUT@@@Z:PROC ; CWnd::OnTouchInputs
EXTRN	?OnTouchInput@CWnd@@MAEHVCPoint@@HHPAUtagTOUCHINPUT@@@Z:PROC ; CWnd::OnTouchInput
EXTRN	?GetGestureStatus@CWnd@@MAEKVCPoint@@@Z:PROC	; CWnd::GetGestureStatus
EXTRN	?OnGestureZoom@CWnd@@MAEHVCPoint@@J@Z:PROC	; CWnd::OnGestureZoom
EXTRN	?OnGesturePan@CWnd@@MAEHVCPoint@@0@Z:PROC	; CWnd::OnGesturePan
EXTRN	?OnGestureRotate@CWnd@@MAEHVCPoint@@N@Z:PROC	; CWnd::OnGestureRotate
EXTRN	?OnGestureTwoFingerTap@CWnd@@MAEHVCPoint@@@Z:PROC ; CWnd::OnGestureTwoFingerTap
EXTRN	?OnGesturePressAndTap@CWnd@@MAEHVCPoint@@J@Z:PROC ; CWnd::OnGesturePressAndTap
EXTRN	?ResizeDynamicLayout@CWnd@@MAEXXZ:PROC		; CWnd::ResizeDynamicLayout
EXTRN	?IsFrameWnd@CWnd@@UBEHXZ:PROC			; CWnd::IsFrameWnd
EXTRN	?OnFinalRelease@CWnd@@UAEXXZ:PROC		; CWnd::OnFinalRelease
EXTRN	?CreateControlContainer@CWnd@@MAEHPAPAVCOleControlContainer@@@Z:PROC ; CWnd::CreateControlContainer
EXTRN	?CreateControlSite@CWnd@@MAEHPAVCOleControlContainer@@PAPAVCOleControlSite@@IABU_GUID@@@Z:PROC ; CWnd::CreateControlSite
EXTRN	?GetRuntimeClass@CDialog@@UBEPAUCRuntimeClass@@XZ:PROC ; CDialog::GetRuntimeClass
EXTRN	?Create@CDialog@@UAEHPBDPAVCWnd@@@Z:PROC	; CDialog::Create
EXTRN	?Create@CDialog@@UAEHIPAVCWnd@@@Z:PROC		; CDialog::Create
EXTRN	?CreateIndirect@CDialog@@UAEHPBUDLGTEMPLATE@@PAVCWnd@@PAX@Z:PROC ; CDialog::CreateIndirect
EXTRN	?CreateIndirect@CDialog@@UAEHPAXPAVCWnd@@@Z:PROC ; CDialog::CreateIndirect
EXTRN	??0CDialog@@QAE@IPAVCWnd@@@Z:PROC		; CDialog::CDialog
EXTRN	?DoModal@CDialog@@UAEHXZ:PROC			; CDialog::DoModal
EXTRN	?OnInitDialog@CDialog@@UAEHXZ:PROC		; CDialog::OnInitDialog
EXTRN	?OnSetFont@CDialog@@UAEXPAVCFont@@@Z:PROC	; CDialog::OnSetFont
EXTRN	?OnCancel@CDialog@@MAEXXZ:PROC			; CDialog::OnCancel
EXTRN	??1CDialog@@UAE@XZ:PROC				; CDialog::~CDialog
EXTRN	?AssertValid@CDialog@@UBEXXZ:PROC		; CDialog::AssertValid
EXTRN	?Dump@CDialog@@UBEXAAVCDumpContext@@@Z:PROC	; CDialog::Dump
EXTRN	?PreTranslateMessage@CDialog@@UAEHPAUtagMSG@@@Z:PROC ; CDialog::PreTranslateMessage
EXTRN	?OnCmdMsg@CDialog@@UAEHIHPAXPAUAFX_CMDHANDLERINFO@@@Z:PROC ; CDialog::OnCmdMsg
EXTRN	?CheckAutoCenter@CDialog@@UAEHXZ:PROC		; CDialog::CheckAutoCenter
EXTRN	?SetOccDialogInfo@CDialog@@MAEHPAU_AFX_OCC_DIALOG_INFO@@@Z:PROC ; CDialog::SetOccDialogInfo
EXTRN	?GetOccDialogInfo@CDialog@@MAEPAU_AFX_OCC_DIALOG_INFO@@XZ:PROC ; CDialog::GetOccDialogInfo
EXTRN	?PreInitDialog@CDialog@@MAEXXZ:PROC		; CDialog::PreInitDialog
EXTRN	?AfxGetInstanceHandle@@YGPAUHINSTANCE__@@XZ:PROC ; AfxGetInstanceHandle
EXTRN	?AfxMessageBox@@YGHPBDII@Z:PROC			; AfxMessageBox
EXTRN	__imp_?TraceString@CTraceService@@SA_NPBDW4enTraceLevel@@@Z:PROC
EXTRN	__imp_??0CTraceServiceControl@@QAE@XZ:PROC
EXTRN	__imp_??1CTraceServiceControl@@UAE@XZ:PROC
EXTRN	??1CInitParameter@@UAE@XZ:PROC			; CInitParameter::~CInitParameter
EXTRN	??_ECInitParameter@@UAEPAXI@Z:PROC		; CInitParameter::`vector deleting destructor'
EXTRN	??0CServiceUnits@@QAE@XZ:PROC			; CServiceUnits::CServiceUnits
EXTRN	??1CServiceUnits@@UAE@XZ:PROC			; CServiceUnits::~CServiceUnits
EXTRN	?StartService@CServiceUnits@@QAE_NXZ:PROC	; CServiceUnits::StartService
EXTRN	?ConcludeService@CServiceUnits@@QAE_NXZ:PROC	; CServiceUnits::ConcludeService
EXTRN	?SetServiceUnitsSink@CServiceUnits@@QAE_NPAUIServiceUnitsSink@@@Z:PROC ; CServiceUnits::SetServiceUnitsSink
EXTRN	??_ECCorrespondServerDlg@@UAEPAXI@Z:PROC	; CCorrespondServerDlg::`vector deleting destructor'
EXTRN	@__security_check_cookie@4:PROC
EXTRN	___CxxFrameHandler3:PROC
EXTRN	_memset:PROC
EXTRN	??_7type_info@@6B@:QWORD			; type_info::`vftable'
EXTRN	___security_cookie:DWORD
;	COMDAT ?_OptionsStorage@?1??__local_stdio_printf_options@@9@4_KA
_BSS	SEGMENT
?_OptionsStorage@?1??__local_stdio_printf_options@@9@4_KA DQ 01H DUP (?) ; `__local_stdio_printf_options'::`2'::_OptionsStorage
_BSS	ENDS
;	COMDAT ??_R4CCorrespondServerDlg@@6BIServiceUnitsSink@@@
rdata$r	SEGMENT
??_R4CCorrespondServerDlg@@6BIServiceUnitsSink@@@ DD 00H ; CCorrespondServerDlg::`RTTI Complete Object Locator'
	DD	0a8H
	DD	00H
	DD	FLAT:??_R0?AVCCorrespondServerDlg@@@8
	DD	FLAT:??_R3CCorrespondServerDlg@@8
rdata$r	ENDS
;	COMDAT ??_R1KI@?0A@EA@IServiceUnitsSink@@8
rdata$r	SEGMENT
??_R1KI@?0A@EA@IServiceUnitsSink@@8 DD FLAT:??_R0?AUIServiceUnitsSink@@@8 ; IServiceUnitsSink::`RTTI Base Class Descriptor at (168,-1,0,64)'
	DD	00H
	DD	0a8H
	DD	0ffffffffH
	DD	00H
	DD	040H
	DD	FLAT:??_R3IServiceUnitsSink@@8
rdata$r	ENDS
;	COMDAT ??_R1A@?0A@EA@CCorrespondServerDlg@@8
rdata$r	SEGMENT
??_R1A@?0A@EA@CCorrespondServerDlg@@8 DD FLAT:??_R0?AVCCorrespondServerDlg@@@8 ; CCorrespondServerDlg::`RTTI Base Class Descriptor at (0,-1,0,64)'
	DD	05H
	DD	00H
	DD	0ffffffffH
	DD	00H
	DD	040H
	DD	FLAT:??_R3CCorrespondServerDlg@@8
rdata$r	ENDS
;	COMDAT ??_R2CCorrespondServerDlg@@8
rdata$r	SEGMENT
??_R2CCorrespondServerDlg@@8 DD FLAT:??_R1A@?0A@EA@CCorrespondServerDlg@@8 ; CCorrespondServerDlg::`RTTI Base Class Array'
	DD	FLAT:??_R1A@?0A@EA@CDialog@@8
	DD	FLAT:??_R1A@?0A@EA@CWnd@@8
	DD	FLAT:??_R1A@?0A@EA@CCmdTarget@@8
	DD	FLAT:??_R1A@?0A@EA@CObject@@8
	DD	FLAT:??_R1KI@?0A@EA@IServiceUnitsSink@@8
rdata$r	ENDS
;	COMDAT ??_R3CCorrespondServerDlg@@8
rdata$r	SEGMENT
??_R3CCorrespondServerDlg@@8 DD 00H			; CCorrespondServerDlg::`RTTI Class Hierarchy Descriptor'
	DD	01H
	DD	06H
	DD	FLAT:??_R2CCorrespondServerDlg@@8
rdata$r	ENDS
;	COMDAT ??_R0?AVCCorrespondServerDlg@@@8
data$r	SEGMENT
??_R0?AVCCorrespondServerDlg@@@8 DD FLAT:??_7type_info@@6B@ ; CCorrespondServerDlg `RTTI Type Descriptor'
	DD	00H
	DB	'.?AVCCorrespondServerDlg@@', 00H
data$r	ENDS
;	COMDAT ??_R4CCorrespondServerDlg@@6BCDialog@@@
rdata$r	SEGMENT
??_R4CCorrespondServerDlg@@6BCDialog@@@ DD 00H		; CCorrespondServerDlg::`RTTI Complete Object Locator'
	DD	00H
	DD	00H
	DD	FLAT:??_R0?AVCCorrespondServerDlg@@@8
	DD	FLAT:??_R3CCorrespondServerDlg@@8
rdata$r	ENDS
;	COMDAT ??_R1A@?0A@EA@IServiceUnitsSink@@8
rdata$r	SEGMENT
??_R1A@?0A@EA@IServiceUnitsSink@@8 DD FLAT:??_R0?AUIServiceUnitsSink@@@8 ; IServiceUnitsSink::`RTTI Base Class Descriptor at (0,-1,0,64)'
	DD	00H
	DD	00H
	DD	0ffffffffH
	DD	00H
	DD	040H
	DD	FLAT:??_R3IServiceUnitsSink@@8
rdata$r	ENDS
;	COMDAT ??_R2IServiceUnitsSink@@8
rdata$r	SEGMENT
??_R2IServiceUnitsSink@@8 DD FLAT:??_R1A@?0A@EA@IServiceUnitsSink@@8 ; IServiceUnitsSink::`RTTI Base Class Array'
rdata$r	ENDS
;	COMDAT ??_R3IServiceUnitsSink@@8
rdata$r	SEGMENT
??_R3IServiceUnitsSink@@8 DD 00H			; IServiceUnitsSink::`RTTI Class Hierarchy Descriptor'
	DD	00H
	DD	01H
	DD	FLAT:??_R2IServiceUnitsSink@@8
rdata$r	ENDS
;	COMDAT ??_R0?AUIServiceUnitsSink@@@8
data$r	SEGMENT
??_R0?AUIServiceUnitsSink@@@8 DD FLAT:??_7type_info@@6B@ ; IServiceUnitsSink `RTTI Type Descriptor'
	DD	00H
	DB	'.?AUIServiceUnitsSink@@', 00H
data$r	ENDS
;	COMDAT ??_R4IServiceUnitsSink@@6B@
rdata$r	SEGMENT
??_R4IServiceUnitsSink@@6B@ DD 00H			; IServiceUnitsSink::`RTTI Complete Object Locator'
	DD	00H
	DD	00H
	DD	FLAT:??_R0?AUIServiceUnitsSink@@@8
	DD	FLAT:??_R3IServiceUnitsSink@@8
rdata$r	ENDS
;	COMDAT ??_R1A@?0A@EA@CInitParameter@@8
rdata$r	SEGMENT
??_R1A@?0A@EA@CInitParameter@@8 DD FLAT:??_R0?AVCInitParameter@@@8 ; CInitParameter::`RTTI Base Class Descriptor at (0,-1,0,64)'
	DD	00H
	DD	00H
	DD	0ffffffffH
	DD	00H
	DD	040H
	DD	FLAT:??_R3CInitParameter@@8
rdata$r	ENDS
;	COMDAT ??_R2CInitParameter@@8
rdata$r	SEGMENT
??_R2CInitParameter@@8 DD FLAT:??_R1A@?0A@EA@CInitParameter@@8 ; CInitParameter::`RTTI Base Class Array'
rdata$r	ENDS
;	COMDAT ??_R3CInitParameter@@8
rdata$r	SEGMENT
??_R3CInitParameter@@8 DD 00H				; CInitParameter::`RTTI Class Hierarchy Descriptor'
	DD	00H
	DD	01H
	DD	FLAT:??_R2CInitParameter@@8
rdata$r	ENDS
;	COMDAT ??_R0?AVCInitParameter@@@8
data$r	SEGMENT
??_R0?AVCInitParameter@@@8 DD FLAT:??_7type_info@@6B@	; CInitParameter `RTTI Type Descriptor'
	DD	00H
	DB	'.?AVCInitParameter@@', 00H
data$r	ENDS
;	COMDAT ??_R4CInitParameter@@6B@
rdata$r	SEGMENT
??_R4CInitParameter@@6B@ DD 00H				; CInitParameter::`RTTI Complete Object Locator'
	DD	00H
	DD	00H
	DD	FLAT:??_R0?AVCInitParameter@@@8
	DD	FLAT:??_R3CInitParameter@@8
rdata$r	ENDS
;	COMDAT ??_C@_0CJ@LFENAACN@?$LH?$PO?N?q?U?$PN?T?Z?T?K?P?P?V?P?$KD?$KM?O?$LF?M?$LD?R?$KK?G?s?W?$KC?O?z?$LL?X?$LL@
CONST	SEGMENT
??_C@_0CJ@LFENAACN@?$LH?$PO?N?q?U?$PN?T?Z?T?K?P?P?V?P?$KD?$KM?O?$LF?M?$LD?R?$KK?G?s?W?$KC?O?z?$LL?X?$LL@ DB 0b7H
	DB	0feH, 0ceH, 0f1H, 0d5H, 0fdH, 0d4H, 0daH, 0d4H, 0cbH, 0d0H, 0d0H
	DB	0d6H, 0d0H, 0a3H, 0acH, 0cfH, 0b5H, 0cdH, 0b3H, 0d2H, 0aaH, 0c7H
	DB	0f3H, 0d7H, 0a2H, 0cfH, 0faH, 0bbH, 0d8H, 0bbH, 0b0H, 0c7H, 0ebH
	DB	0c7H, 0f3H, 0caH, 0a7H, 0b0H, 0dcH, 00H	; `string'
CONST	ENDS
;	COMDAT ?__LINE__Var@?0??OnBnClickedStopService@CCorrespondServerDlg@@IAEXXZ@4JA
_DATA	SEGMENT
?__LINE__Var@?0??OnBnClickedStopService@CCorrespondServerDlg@@IAEXXZ@4JA DD 0a0H ; `CCorrespondServerDlg::OnBnClickedStopService'::`1'::__LINE__Var
_DATA	ENDS
;	COMDAT ??_C@_0FC@GBHBGEDM@g?3?2?M?x?$LK?$PM?2happygamewh?2?$LH?$PO?N?q?$LG?K?2?O?$LF?M?$LD@
CONST	SEGMENT
??_C@_0FC@GBHBGEDM@g?3?2?M?x?$LK?$PM?2happygamewh?2?$LH?$PO?N?q?$LG?K?2?O?$LF?M?$LD@ DB 'g'
	DB	':\', 0cdH, 0f8H, 0baH, 0fcH, '\happygamewh\', 0b7H, 0feH, 0ceH
	DB	0f1H, 0b6H, 0cbH, '\', 0cfH, 0b5H, 0cdH, 0b3H, 0c4H, 0a3H, 0bfH
	DB	0e9H, '\', 0b7H, 0feH, 0ceH, 0f1H, 0c6H, 0f7H, 0d7H, 0e9H, 0bcH
	DB	0feH, '\', 0d4H, 0bcH, 0d5H, 0bdH, 0b7H, 0feH, 0ceH, 0f1H, 0c6H
	DB	0f7H, '\correspondserverdlg.cpp', 00H	; `string'
CONST	ENDS
;	COMDAT ?__LINE__Var@?0??OnBnClickedStartService@CCorrespondServerDlg@@IAEXXZ@4JA
_DATA	SEGMENT
?__LINE__Var@?0??OnBnClickedStartService@CCorrespondServerDlg@@IAEXXZ@4JA DD 090H ; `CCorrespondServerDlg::OnBnClickedStartService'::`1'::__LINE__Var
_DATA	ENDS
;	COMDAT ??_C@_0BJ@HLOOMBNP@?$LH?$PO?N?q?F?t?$LG?$KP?$LD?I?$LJ?$KG?5?$FL?5?$LG?K?$LP?Z?3?$CFd?5?$FN@
CONST	SEGMENT
??_C@_0BJ@HLOOMBNP@?$LH?$PO?N?q?F?t?$LG?$KP?$LD?I?$LJ?$KG?5?$FL?5?$LG?K?$LP?Z?3?$CFd?5?$FN@ DB 0b7H
	DB	0feH, 0ceH, 0f1H, 0c6H, 0f4H, 0b6H, 0afH, 0b3H, 0c9H, 0b9H, 0a6H
	DB	' [ ', 0b6H, 0cbH, 0bfH, 0daH, ':%d ]', 00H	; `string'
CONST	ENDS
;	COMDAT ??_C@_0BH@BGFEMKKL@?T?$LM?U?$LN?$LH?$PO?N?q?F?w?5?9?9?5?$FL?5?T?K?P?P?5?$FN@
CONST	SEGMENT
??_C@_0BH@BGFEMKKL@?T?$LM?U?$LN?$LH?$PO?N?q?F?w?5?9?9?5?$FL?5?T?K?P?P?5?$FN@ DB 0d4H
	DB	0bcH, 0d5H, 0bdH, 0b7H, 0feH, 0ceH, 0f1H, 0c6H, 0f7H, ' -- [ ', 0d4H
	DB	0cbH, 0d0H, 0d0H, ' ]', 00H			; `string'
CONST	ENDS
;	COMDAT ??_C@_0BC@OFPAKDFO@?U?$PN?T?Z?$LD?u?J?$LM?$LL?$KP?W?i?$LM?$PO?4?4?4@
CONST	SEGMENT
??_C@_0BC@OFPAKDFO@?U?$PN?T?Z?$LD?u?J?$LM?$LL?$KP?W?i?$LM?$PO?4?4?4@ DB 0d5H
	DB	0fdH, 0d4H, 0daH, 0b3H, 0f5H, 0caH, 0bcH, 0bbH, 0afH, 0d7H, 0e9H
	DB	0bcH, 0feH, '...', 00H			; `string'
CONST	ENDS
;	COMDAT ??_C@_0BJ@JPHOFEIP@?T?$LM?U?$LN?$LH?$PO?N?q?F?w?5?9?9?5?$FL?5?$LD?u?J?$LM?$LL?$KP?5?$FN@
CONST	SEGMENT
??_C@_0BJ@JPHOFEIP@?T?$LM?U?$LN?$LH?$PO?N?q?F?w?5?9?9?5?$FL?5?$LD?u?J?$LM?$LL?$KP?5?$FN@ DB 0d4H
	DB	0bcH, 0d5H, 0bdH, 0b7H, 0feH, 0ceH, 0f1H, 0c6H, 0f7H, ' -- [ ', 0b3H
	DB	0f5H, 0caH, 0bcH, 0bbH, 0afH, ' ]', 00H	; `string'
CONST	ENDS
;	COMDAT ??_C@_0N@HNGKNHMM@?$LH?$PO?N?q?M?$KD?V?$LJ?$LD?I?$LJ?$KG@
CONST	SEGMENT
??_C@_0N@HNGKNHMM@?$LH?$PO?N?q?M?$KD?V?$LJ?$LD?I?$LJ?$KG@ DB 0b7H, 0feH, 0ceH
	DB	0f1H, 0cdH, 0a3H, 0d6H, 0b9H, 0b3H, 0c9H, 0b9H, 0a6H, 00H ; `string'
CONST	ENDS
;	COMDAT ??_C@_0CN@ODIPAIBI@?T?$LM?U?$LN?$LH?$PO?N?q?F?w?U?$PN?T?Z?T?K?P?P?V?P?$KD?$KM?D?z?H?$LH?J?$LF?R?$KK?$LJ@
CONST	SEGMENT
??_C@_0CN@ODIPAIBI@?T?$LM?U?$LN?$LH?$PO?N?q?F?w?U?$PN?T?Z?T?K?P?P?V?P?$KD?$KM?D?z?H?$LH?J?$LF?R?$KK?$LJ@ DB 0d4H
	DB	0bcH, 0d5H, 0bdH, 0b7H, 0feH, 0ceH, 0f1H, 0c6H, 0f7H, 0d5H, 0fdH
	DB	0d4H, 0daH, 0d4H, 0cbH, 0d0H, 0d0H, 0d6H, 0d0H, 0a3H, 0acH, 0c4H
	DB	0faH, 0c8H, 0b7H, 0caH, 0b5H, 0d2H, 0aaH, 0b9H, 0d8H, 0b1H, 0d5H
	DB	0b7H, 0feH, 0ceH, 0f1H, 0c6H, 0f7H, 0c2H, 0f0H, 0a3H, 0bfH, 00H ; `string'
CONST	ENDS
;	COMDAT ??_C@_0BH@MJNLNDKI@?T?$LM?U?$LN?$LH?$PO?N?q?F?w?5?9?9?5?$FL?5?M?$KD?V?$LJ?5?$FN@
CONST	SEGMENT
??_C@_0BH@MJNLNDKI@?T?$LM?U?$LN?$LH?$PO?N?q?F?w?5?9?9?5?$FL?5?M?$KD?V?$LJ?5?$FN@ DB 0d4H
	DB	0bcH, 0d5H, 0bdH, 0b7H, 0feH, 0ceH, 0f1H, 0c6H, 0f7H, ' -- [ ', 0cdH
	DB	0a3H, 0d6H, 0b9H, ' ]', 00H			; `string'
CONST	ENDS
;	COMDAT ??_7CCorrespondServerDlg@@6BIServiceUnitsSink@@@
CONST	SEGMENT
??_7CCorrespondServerDlg@@6BIServiceUnitsSink@@@ DD FLAT:??_R4CCorrespondServerDlg@@6BIServiceUnitsSink@@@ ; CCorrespondServerDlg::`vftable'
	DD	FLAT:?OnServiceUnitsStatus@CCorrespondServerDlg@@UAEXW4enServiceStatus@@@Z
CONST	ENDS
;	COMDAT ??_7CCorrespondServerDlg@@6BCDialog@@@
CONST	SEGMENT
??_7CCorrespondServerDlg@@6BCDialog@@@ DD FLAT:??_R4CCorrespondServerDlg@@6BCDialog@@@ ; CCorrespondServerDlg::`vftable'
	DD	FLAT:?GetRuntimeClass@CDialog@@UBEPAUCRuntimeClass@@XZ
	DD	FLAT:??_ECCorrespondServerDlg@@UAEPAXI@Z
	DD	FLAT:?Serialize@CObject@@UAEXAAVCArchive@@@Z
	DD	FLAT:?AssertValid@CDialog@@UBEXXZ
	DD	FLAT:?Dump@CDialog@@UBEXAAVCDumpContext@@@Z
	DD	FLAT:?OnCmdMsg@CDialog@@UAEHIHPAXPAUAFX_CMDHANDLERINFO@@@Z
	DD	FLAT:?OnFinalRelease@CWnd@@UAEXXZ
	DD	FLAT:?IsInvokeAllowed@CCmdTarget@@UAEHJ@Z
	DD	FLAT:?GetDispatchIID@CCmdTarget@@UAEHPAU_GUID@@@Z
	DD	FLAT:?GetTypeInfoCount@CCmdTarget@@UAEIXZ
	DD	FLAT:?GetTypeLibCache@CCmdTarget@@UAEPAVCTypeLibCache@@XZ
	DD	FLAT:?GetTypeLib@CCmdTarget@@UAEJKPAPAUITypeLib@@@Z
	DD	FLAT:?GetMessageMap@CCorrespondServerDlg@@MBEPBUAFX_MSGMAP@@XZ
	DD	FLAT:?GetCommandMap@CCmdTarget@@MBEPBUAFX_OLECMDMAP@@XZ
	DD	FLAT:?GetDispatchMap@CCmdTarget@@MBEPBUAFX_DISPMAP@@XZ
	DD	FLAT:?GetConnectionMap@CCmdTarget@@MBEPBUAFX_CONNECTIONMAP@@XZ
	DD	FLAT:?GetInterfaceMap@CWnd@@MBEPBUAFX_INTERFACEMAP@@XZ
	DD	FLAT:?GetEventSinkMap@CCmdTarget@@MBEPBUAFX_EVENTSINKMAP@@XZ
	DD	FLAT:?OnCreateAggregates@CCmdTarget@@UAEHXZ
	DD	FLAT:?GetInterfaceHook@CCmdTarget@@UAEPAUIUnknown@@PBX@Z
	DD	FLAT:?GetExtraConnectionPoints@CCmdTarget@@MAEHPAVCPtrArray@@@Z
	DD	FLAT:?GetConnectionHook@CCmdTarget@@MAEPAUIConnectionPoint@@ABU_GUID@@@Z
	DD	FLAT:?PreSubclassWindow@CWnd@@UAEXXZ
	DD	FLAT:?Create@CWnd@@UAEHPBD0KABUtagRECT@@PAV1@IPAUCCreateContext@@@Z
	DD	FLAT:?CreateEx@CWnd@@UAEHKPBD0KABUtagRECT@@PAV1@IPAX@Z
	DD	FLAT:?CreateEx@CWnd@@UAEHKPBD0KHHHHPAUHWND__@@PAUHMENU__@@PAX@Z
	DD	FLAT:?DestroyWindow@CWnd@@UAEHXZ
	DD	FLAT:?PreCreateWindow@CWnd@@UAEHAAUtagCREATESTRUCTA@@@Z
	DD	FLAT:?CalcWindowRect@CWnd@@UAEXPAUtagRECT@@I@Z
	DD	FLAT:?GetMenu@CWnd@@UBEPAVCMenu@@XZ
	DD	FLAT:?SetMenu@CWnd@@UAEHPAVCMenu@@@Z
	DD	FLAT:?OnToolHitTest@CWnd@@UBEHVCPoint@@PAUtagTOOLINFOA@@@Z
	DD	FLAT:?GetScrollBarCtrl@CWnd@@UBEPAVCScrollBar@@H@Z
	DD	FLAT:?WinHelpA@CWnd@@UAEXKI@Z
	DD	FLAT:?HtmlHelpA@CWnd@@UAEXKI@Z
	DD	FLAT:?WinHelpInternal@CWnd@@UAEXKI@Z
	DD	FLAT:?ContinueModal@CWnd@@UAEHXZ
	DD	FLAT:?EndModalLoop@CWnd@@UAEXH@Z
	DD	FLAT:?OnDrawIconicThumbnailOrLivePreview@CWnd@@UAEXAAVCDC@@VCRect@@VCSize@@HAAH@Z
	DD	FLAT:?EnsureStdObj@CWnd@@UAEJXZ
	DD	FLAT:?get_accParent@CWnd@@UAEJPAPAUIDispatch@@@Z
	DD	FLAT:?get_accChildCount@CWnd@@UAEJPAJ@Z
	DD	FLAT:?get_accChild@CWnd@@UAEJUtagVARIANT@@PAPAUIDispatch@@@Z
	DD	FLAT:?get_accName@CWnd@@UAEJUtagVARIANT@@PAPA_W@Z
	DD	FLAT:?get_accValue@CWnd@@UAEJUtagVARIANT@@PAPA_W@Z
	DD	FLAT:?get_accDescription@CWnd@@UAEJUtagVARIANT@@PAPA_W@Z
	DD	FLAT:?get_accRole@CWnd@@UAEJUtagVARIANT@@PAU2@@Z
	DD	FLAT:?get_accState@CWnd@@UAEJUtagVARIANT@@PAU2@@Z
	DD	FLAT:?get_accHelp@CWnd@@UAEJUtagVARIANT@@PAPA_W@Z
	DD	FLAT:?get_accHelpTopic@CWnd@@UAEJPAPA_WUtagVARIANT@@PAJ@Z
	DD	FLAT:?get_accKeyboardShortcut@CWnd@@UAEJUtagVARIANT@@PAPA_W@Z
	DD	FLAT:?get_accFocus@CWnd@@UAEJPAUtagVARIANT@@@Z
	DD	FLAT:?get_accSelection@CWnd@@UAEJPAUtagVARIANT@@@Z
	DD	FLAT:?get_accDefaultAction@CWnd@@UAEJUtagVARIANT@@PAPA_W@Z
	DD	FLAT:?accSelect@CWnd@@UAEJJUtagVARIANT@@@Z
	DD	FLAT:?accLocation@CWnd@@UAEJPAJ000UtagVARIANT@@@Z
	DD	FLAT:?accNavigate@CWnd@@UAEJJUtagVARIANT@@PAU2@@Z
	DD	FLAT:?accHitTest@CWnd@@UAEJJJPAUtagVARIANT@@@Z
	DD	FLAT:?accDoDefaultAction@CWnd@@UAEJUtagVARIANT@@@Z
	DD	FLAT:?put_accName@CWnd@@UAEJUtagVARIANT@@PA_W@Z
	DD	FLAT:?put_accValue@CWnd@@UAEJUtagVARIANT@@PA_W@Z
	DD	FLAT:?SetProxy@CWnd@@UAEJPAUIAccessibleProxy@@@Z
	DD	FLAT:?CreateAccessibleProxy@CWnd@@UAEJIJPAJ@Z
	DD	FLAT:?OnCommand@CWnd@@MAEHIJ@Z
	DD	FLAT:?OnNotify@CWnd@@MAEHIJPAJ@Z
	DD	FLAT:?GetSuperWndProcAddr@CWnd@@MAEPAP6GJPAUHWND__@@IIJ@ZXZ
	DD	FLAT:?DoDataExchange@CCorrespondServerDlg@@MAEXPAVCDataExchange@@@Z
	DD	FLAT:?BeginModalState@CWnd@@UAEXXZ
	DD	FLAT:?EndModalState@CWnd@@UAEXXZ
	DD	FLAT:?PreTranslateMessage@CCorrespondServerDlg@@MAEHPAUtagMSG@@@Z
	DD	FLAT:?OnAmbientProperty@CWnd@@UAEHPAVCOleControlSite@@JPAUtagVARIANT@@@Z
	DD	FLAT:?WindowProc@CWnd@@MAEJIIJ@Z
	DD	FLAT:?OnWndMsg@CWnd@@MAEHIIJPAJ@Z
	DD	FLAT:?DefWindowProcA@CWnd@@MAEJIIJ@Z
	DD	FLAT:?PostNcDestroy@CWnd@@MAEXXZ
	DD	FLAT:?OnChildNotify@CWnd@@MAEHIIJPAJ@Z
	DD	FLAT:?OnTouchInputs@CWnd@@MAEHIPAUtagTOUCHINPUT@@@Z
	DD	FLAT:?OnTouchInput@CWnd@@MAEHVCPoint@@HHPAUtagTOUCHINPUT@@@Z
	DD	FLAT:?GetGestureStatus@CWnd@@MAEKVCPoint@@@Z
	DD	FLAT:?OnGestureZoom@CWnd@@MAEHVCPoint@@J@Z
	DD	FLAT:?OnGesturePan@CWnd@@MAEHVCPoint@@0@Z
	DD	FLAT:?OnGestureRotate@CWnd@@MAEHVCPoint@@N@Z
	DD	FLAT:?OnGestureTwoFingerTap@CWnd@@MAEHVCPoint@@@Z
	DD	FLAT:?OnGesturePressAndTap@CWnd@@MAEHVCPoint@@J@Z
	DD	FLAT:?ResizeDynamicLayout@CWnd@@MAEXXZ
	DD	FLAT:?CheckAutoCenter@CDialog@@UAEHXZ
	DD	FLAT:?IsFrameWnd@CWnd@@UBEHXZ
	DD	FLAT:?CreateControlContainer@CWnd@@MAEHPAPAVCOleControlContainer@@@Z
	DD	FLAT:?CreateControlSite@CWnd@@MAEHPAVCOleControlContainer@@PAPAVCOleControlSite@@IABU_GUID@@@Z
	DD	FLAT:?SetOccDialogInfo@CDialog@@MAEHPAU_AFX_OCC_DIALOG_INFO@@@Z
	DD	FLAT:?GetOccDialogInfo@CDialog@@MAEPAU_AFX_OCC_DIALOG_INFO@@XZ
	DD	FLAT:?Create@CDialog@@UAEHIPAVCWnd@@@Z
	DD	FLAT:?Create@CDialog@@UAEHPBDPAVCWnd@@@Z
	DD	FLAT:?CreateIndirect@CDialog@@UAEHPAXPAVCWnd@@@Z
	DD	FLAT:?CreateIndirect@CDialog@@UAEHPBUDLGTEMPLATE@@PAVCWnd@@PAX@Z
	DD	FLAT:?DoModal@CDialog@@UAEHXZ
	DD	FLAT:?OnInitDialog@CCorrespondServerDlg@@MAEHXZ
	DD	FLAT:?OnSetFont@CDialog@@UAEXPAVCFont@@@Z
	DD	FLAT:?OnOK@CCorrespondServerDlg@@MAEXXZ
	DD	FLAT:?OnCancel@CCorrespondServerDlg@@MAEXXZ
	DD	FLAT:?PreInitDialog@CDialog@@MAEXXZ
CONST	ENDS
;	COMDAT ??_7IServiceUnitsSink@@6B@
CONST	SEGMENT
??_7IServiceUnitsSink@@6B@ DD FLAT:??_R4IServiceUnitsSink@@6B@ ; IServiceUnitsSink::`vftable'
	DD	FLAT:__purecall
CONST	ENDS
;	COMDAT ??_7CInitParameter@@6B@
CONST	SEGMENT
??_7CInitParameter@@6B@ DD FLAT:??_R4CInitParameter@@6B@ ; CInitParameter::`vftable'
	DD	FLAT:??_ECInitParameter@@UAEPAXI@Z
CONST	ENDS
;	COMDAT ??_R2CCmdTarget@@8
rdata$r	SEGMENT
??_R2CCmdTarget@@8 DD FLAT:??_R1A@?0A@EA@CCmdTarget@@8	; CCmdTarget::`RTTI Base Class Array'
	DD	FLAT:??_R1A@?0A@EA@CObject@@8
rdata$r	ENDS
;	COMDAT ??_R3CCmdTarget@@8
rdata$r	SEGMENT
??_R3CCmdTarget@@8 DD 00H				; CCmdTarget::`RTTI Class Hierarchy Descriptor'
	DD	00H
	DD	02H
	DD	FLAT:??_R2CCmdTarget@@8
rdata$r	ENDS
;	COMDAT ??_R0?AVCCmdTarget@@@8
data$r	SEGMENT
??_R0?AVCCmdTarget@@@8 DD FLAT:??_7type_info@@6B@	; CCmdTarget `RTTI Type Descriptor'
	DD	00H
	DB	'.?AVCCmdTarget@@', 00H
data$r	ENDS
;	COMDAT ??_R1A@?0A@EA@CCmdTarget@@8
rdata$r	SEGMENT
??_R1A@?0A@EA@CCmdTarget@@8 DD FLAT:??_R0?AVCCmdTarget@@@8 ; CCmdTarget::`RTTI Base Class Descriptor at (0,-1,0,64)'
	DD	01H
	DD	00H
	DD	0ffffffffH
	DD	00H
	DD	040H
	DD	FLAT:??_R3CCmdTarget@@8
rdata$r	ENDS
;	COMDAT ??_R2CWnd@@8
rdata$r	SEGMENT
??_R2CWnd@@8 DD	FLAT:??_R1A@?0A@EA@CWnd@@8		; CWnd::`RTTI Base Class Array'
	DD	FLAT:??_R1A@?0A@EA@CCmdTarget@@8
	DD	FLAT:??_R1A@?0A@EA@CObject@@8
rdata$r	ENDS
;	COMDAT ??_R3CWnd@@8
rdata$r	SEGMENT
??_R3CWnd@@8 DD	00H					; CWnd::`RTTI Class Hierarchy Descriptor'
	DD	00H
	DD	03H
	DD	FLAT:??_R2CWnd@@8
rdata$r	ENDS
;	COMDAT ??_R0?AVCWnd@@@8
data$r	SEGMENT
??_R0?AVCWnd@@@8 DD FLAT:??_7type_info@@6B@		; CWnd `RTTI Type Descriptor'
	DD	00H
	DB	'.?AVCWnd@@', 00H
data$r	ENDS
;	COMDAT ??_R1A@?0A@EA@CWnd@@8
rdata$r	SEGMENT
??_R1A@?0A@EA@CWnd@@8 DD FLAT:??_R0?AVCWnd@@@8		; CWnd::`RTTI Base Class Descriptor at (0,-1,0,64)'
	DD	02H
	DD	00H
	DD	0ffffffffH
	DD	00H
	DD	040H
	DD	FLAT:??_R3CWnd@@8
rdata$r	ENDS
;	COMDAT ??_R2CDialog@@8
rdata$r	SEGMENT
??_R2CDialog@@8 DD FLAT:??_R1A@?0A@EA@CDialog@@8	; CDialog::`RTTI Base Class Array'
	DD	FLAT:??_R1A@?0A@EA@CWnd@@8
	DD	FLAT:??_R1A@?0A@EA@CCmdTarget@@8
	DD	FLAT:??_R1A@?0A@EA@CObject@@8
rdata$r	ENDS
;	COMDAT ??_R3CDialog@@8
rdata$r	SEGMENT
??_R3CDialog@@8 DD 00H					; CDialog::`RTTI Class Hierarchy Descriptor'
	DD	00H
	DD	04H
	DD	FLAT:??_R2CDialog@@8
rdata$r	ENDS
;	COMDAT ??_R0?AVCDialog@@@8
data$r	SEGMENT
??_R0?AVCDialog@@@8 DD FLAT:??_7type_info@@6B@		; CDialog `RTTI Type Descriptor'
	DD	00H
	DB	'.?AVCDialog@@', 00H
data$r	ENDS
;	COMDAT ??_R1A@?0A@EA@CDialog@@8
rdata$r	SEGMENT
??_R1A@?0A@EA@CDialog@@8 DD FLAT:??_R0?AVCDialog@@@8	; CDialog::`RTTI Base Class Descriptor at (0,-1,0,64)'
	DD	03H
	DD	00H
	DD	0ffffffffH
	DD	00H
	DD	040H
	DD	FLAT:??_R3CDialog@@8
rdata$r	ENDS
;	COMDAT ??_R2CObject@@8
rdata$r	SEGMENT
??_R2CObject@@8 DD FLAT:??_R1A@?0A@EA@CObject@@8	; CObject::`RTTI Base Class Array'
rdata$r	ENDS
;	COMDAT ??_R3CObject@@8
rdata$r	SEGMENT
??_R3CObject@@8 DD 00H					; CObject::`RTTI Class Hierarchy Descriptor'
	DD	00H
	DD	01H
	DD	FLAT:??_R2CObject@@8
rdata$r	ENDS
;	COMDAT ??_R0?AVCObject@@@8
data$r	SEGMENT
??_R0?AVCObject@@@8 DD FLAT:??_7type_info@@6B@		; CObject `RTTI Type Descriptor'
	DD	00H
	DB	'.?AVCObject@@', 00H
data$r	ENDS
;	COMDAT ??_R1A@?0A@EA@CObject@@8
rdata$r	SEGMENT
??_R1A@?0A@EA@CObject@@8 DD FLAT:??_R0?AVCObject@@@8	; CObject::`RTTI Base Class Descriptor at (0,-1,0,64)'
	DD	00H
	DD	00H
	DD	0ffffffffH
	DD	00H
	DD	040H
	DD	FLAT:??_R3CObject@@8
rdata$r	ENDS
;	COMDAT ??_C@_00CNPNBAHC@@
CONST	SEGMENT
??_C@_00CNPNBAHC@@ DB 00H				; `string'
CONST	ENDS
;	COMDAT xdata$x
xdata$x	SEGMENT
__catchsym$?OnBnClickedStopService@CCorrespondServerDlg@@IAEXXZ$2 DD 040H
	DD	00H
	DD	00H
	DD	FLAT:__catch$?OnBnClickedStopService@CCorrespondServerDlg@@IAEXXZ$0
__unwindtable$?OnBnClickedStopService@CCorrespondServerDlg@@IAEXXZ DD 0ffffffffH
	DD	00H
	DD	0ffffffffH
	DD	00H
__tryblocktable$?OnBnClickedStopService@CCorrespondServerDlg@@IAEXXZ DD 00H
	DD	00H
	DD	01H
	DD	01H
	DD	FLAT:__catchsym$?OnBnClickedStopService@CCorrespondServerDlg@@IAEXXZ$2
__ehfuncinfo$?OnBnClickedStopService@CCorrespondServerDlg@@IAEXXZ DD 019930522H
	DD	02H
	DD	FLAT:__unwindtable$?OnBnClickedStopService@CCorrespondServerDlg@@IAEXXZ
	DD	01H
	DD	FLAT:__tryblocktable$?OnBnClickedStopService@CCorrespondServerDlg@@IAEXXZ
	DD	2 DUP(00H)
	DD	00H
	DD	01H
xdata$x	ENDS
;	COMDAT xdata$x
xdata$x	SEGMENT
__catchsym$?OnBnClickedStartService@CCorrespondServerDlg@@IAEXXZ$2 DD 040H
	DD	00H
	DD	00H
	DD	FLAT:__catch$?OnBnClickedStartService@CCorrespondServerDlg@@IAEXXZ$0
__unwindtable$?OnBnClickedStartService@CCorrespondServerDlg@@IAEXXZ DD 0ffffffffH
	DD	00H
	DD	0ffffffffH
	DD	00H
__tryblocktable$?OnBnClickedStartService@CCorrespondServerDlg@@IAEXXZ DD 00H
	DD	00H
	DD	01H
	DD	01H
	DD	FLAT:__catchsym$?OnBnClickedStartService@CCorrespondServerDlg@@IAEXXZ$2
__ehfuncinfo$?OnBnClickedStartService@CCorrespondServerDlg@@IAEXXZ DD 019930522H
	DD	02H
	DD	FLAT:__unwindtable$?OnBnClickedStartService@CCorrespondServerDlg@@IAEXXZ
	DD	01H
	DD	FLAT:__tryblocktable$?OnBnClickedStartService@CCorrespondServerDlg@@IAEXXZ
	DD	2 DUP(00H)
	DD	00H
	DD	01H
xdata$x	ENDS
;	COMDAT xdata$x
xdata$x	SEGMENT
__unwindtable$??0CCorrespondServerDlg@@QAE@XZ DD 0ffffffffH
	DD	FLAT:__unwindfunclet$??0CCorrespondServerDlg@@QAE@XZ$0
	DD	00H
	DD	FLAT:__unwindfunclet$??0CCorrespondServerDlg@@QAE@XZ$1
__ehfuncinfo$??0CCorrespondServerDlg@@QAE@XZ DD 019930522H
	DD	02H
	DD	FLAT:__unwindtable$??0CCorrespondServerDlg@@QAE@XZ
	DD	2 DUP(00H)
	DD	2 DUP(00H)
	DD	00H
	DD	01H
xdata$x	ENDS
; Function compile flags: /Odtp /ZI
;	COMDAT ??_GCCorrespondServerDlg@@UAEPAXI@Z
_TEXT	SEGMENT
_this$ = -4						; size = 4
___flags$ = 8						; size = 4
??_GCCorrespondServerDlg@@UAEPAXI@Z PROC		; CCorrespondServerDlg::`scalar deleting destructor', COMDAT
; _this$ = ecx
  00000	55		 push	 ebp
  00001	8b ec		 mov	 ebp, esp
  00003	83 ec 44	 sub	 esp, 68			; 00000044H
  00006	53		 push	 ebx
  00007	56		 push	 esi
  00008	57		 push	 edi
  00009	89 4d fc	 mov	 DWORD PTR _this$[ebp], ecx
  0000c	8b 4d fc	 mov	 ecx, DWORD PTR _this$[ebp]
  0000f	e8 00 00 00 00	 call	 ??1CCorrespondServerDlg@@UAE@XZ ; CCorrespondServerDlg::~CCorrespondServerDlg
  00014	8b 45 08	 mov	 eax, DWORD PTR ___flags$[ebp]
  00017	83 e0 01	 and	 eax, 1
  0001a	74 24		 je	 SHORT $LN2@scalar
  0001c	8b 45 08	 mov	 eax, DWORD PTR ___flags$[ebp]
  0001f	83 e0 04	 and	 eax, 4
  00022	75 0b		 jne	 SHORT $LN3@scalar
  00024	8b 45 fc	 mov	 eax, DWORD PTR _this$[ebp]
  00027	50		 push	 eax
  00028	e8 00 00 00 00	 call	 ??3CObject@@SGXPAX@Z	; CObject::operator delete
  0002d	eb 11		 jmp	 SHORT $LN2@scalar
$LN3@scalar:
  0002f	68 b8 48 00 00	 push	 18616			; 000048b8H
  00034	8b 45 fc	 mov	 eax, DWORD PTR _this$[ebp]
  00037	50		 push	 eax
  00038	e8 00 00 00 00	 call	 ?__global_delete@@YAXPAXI@Z ; __global_delete
  0003d	83 c4 08	 add	 esp, 8
$LN2@scalar:
  00040	8b 45 fc	 mov	 eax, DWORD PTR _this$[ebp]
  00043	5f		 pop	 edi
  00044	5e		 pop	 esi
  00045	5b		 pop	 ebx
  00046	8b e5		 mov	 esp, ebp
  00048	5d		 pop	 ebp
  00049	c2 04 00	 ret	 4
??_GCCorrespondServerDlg@@UAEPAXI@Z ENDP		; CCorrespondServerDlg::`scalar deleting destructor'
_TEXT	ENDS
; Function compile flags: /Odtp /ZI
; File g:\网狐\happygamewh\服务端\系统模块\服务器组件\约战服务器\correspondserverdlg.cpp
;	COMDAT ?GetMessageMap@CCorrespondServerDlg@@MBEPBUAFX_MSGMAP@@XZ
_TEXT	SEGMENT
_this$ = -4						; size = 4
?GetMessageMap@CCorrespondServerDlg@@MBEPBUAFX_MSGMAP@@XZ PROC ; CCorrespondServerDlg::GetMessageMap, COMDAT
; _this$ = ecx

; 7    : BEGIN_MESSAGE_MAP(CCorrespondServerDlg, CDialog)

  00000	55		 push	 ebp
  00001	8b ec		 mov	 ebp, esp
  00003	83 ec 44	 sub	 esp, 68			; 00000044H
  00006	53		 push	 ebx
  00007	56		 push	 esi
  00008	57		 push	 edi
  00009	89 4d fc	 mov	 DWORD PTR _this$[ebp], ecx
  0000c	e8 00 00 00 00	 call	 ?GetThisMessageMap@CCorrespondServerDlg@@KGPBUAFX_MSGMAP@@XZ ; CCorrespondServerDlg::GetThisMessageMap
  00011	5f		 pop	 edi
  00012	5e		 pop	 esi
  00013	5b		 pop	 ebx
  00014	8b e5		 mov	 esp, ebp
  00016	5d		 pop	 ebp
  00017	c3		 ret	 0
?GetMessageMap@CCorrespondServerDlg@@MBEPBUAFX_MSGMAP@@XZ ENDP ; CCorrespondServerDlg::GetMessageMap
_TEXT	ENDS
; Function compile flags: /Odtp /ZI
; File g:\网狐\happygamewh\服务端\系统模块\服务器组件\约战服务器\correspondserverdlg.cpp
;	COMDAT ?GetThisMessageMap@CCorrespondServerDlg@@KGPBUAFX_MSGMAP@@XZ
_TEXT	SEGMENT
?GetThisMessageMap@CCorrespondServerDlg@@KGPBUAFX_MSGMAP@@XZ PROC ; CCorrespondServerDlg::GetThisMessageMap, COMDAT

; 7    : BEGIN_MESSAGE_MAP(CCorrespondServerDlg, CDialog)

  00000	55		 push	 ebp
  00001	8b ec		 mov	 ebp, esp
  00003	83 ec 40	 sub	 esp, 64			; 00000040H
  00006	53		 push	 ebx
  00007	56		 push	 esi
  00008	57		 push	 edi

; 8    : 	ON_WM_QUERYENDSESSION()
; 9    : 	ON_BN_CLICKED(IDC_STOP_SERVICE, OnBnClickedStopService)
; 10   : 	ON_BN_CLICKED(IDC_START_SERVICE, OnBnClickedStartService)
; 11   : END_MESSAGE_MAP()

  00009	b8 00 00 00 00	 mov	 eax, OFFSET ?messageMap@?1??GetThisMessageMap@CCorrespondServerDlg@@KGPBUAFX_MSGMAP@@XZ@4U3@B
  0000e	5f		 pop	 edi
  0000f	5e		 pop	 esi
  00010	5b		 pop	 ebx
  00011	8b e5		 mov	 esp, ebp
  00013	5d		 pop	 ebp
  00014	c3		 ret	 0
?GetThisMessageMap@CCorrespondServerDlg@@KGPBUAFX_MSGMAP@@XZ ENDP ; CCorrespondServerDlg::GetThisMessageMap
_TEXT	ENDS
; Function compile flags: /Odtp /ZI
; File g:\网狐\happygamewh\服务端\系统模块\服务器组件\约战服务器\correspondserverdlg.cpp
;	COMDAT ?OnQueryEndSession@CCorrespondServerDlg@@QAEHXZ
_TEXT	SEGMENT
_this$ = -4						; size = 4
?OnQueryEndSession@CCorrespondServerDlg@@QAEHXZ PROC	; CCorrespondServerDlg::OnQueryEndSession, COMDAT
; _this$ = ecx

; 176  : {

  00000	55		 push	 ebp
  00001	8b ec		 mov	 ebp, esp
  00003	83 ec 44	 sub	 esp, 68			; 00000044H
  00006	53		 push	 ebx
  00007	56		 push	 esi
  00008	57		 push	 edi
  00009	89 4d fc	 mov	 DWORD PTR _this$[ebp], ecx

; 177  : 	//提示消息
; 178  : 	if (m_ServiceUnits.GetServiceStatus()!=ServiceStatus_Stop)

  0000c	8b 4d fc	 mov	 ecx, DWORD PTR _this$[ebp]
  0000f	81 c1 ac 00 00
	00		 add	 ecx, 172		; 000000acH
  00015	e8 00 00 00 00	 call	 ?GetServiceStatus@CServiceUnits@@QAE?AW4enServiceStatus@@XZ ; CServiceUnits::GetServiceStatus
  0001a	85 c0		 test	 eax, eax
  0001c	74 14		 je	 SHORT $LN2@OnQueryEnd

; 179  : 	{
; 180  : 		CTraceService::TraceString(TEXT("服务正在运行中，系统要求注销回话请求失败"),TraceLevel_Warning);

  0001e	6a 02		 push	 2
  00020	68 00 00 00 00	 push	 OFFSET ??_C@_0CJ@LFENAACN@?$LH?$PO?N?q?U?$PN?T?Z?T?K?P?P?V?P?$KD?$KM?O?$LF?M?$LD?R?$KK?G?s?W?$KC?O?z?$LL?X?$LL@
  00025	ff 15 00 00 00
	00		 call	 DWORD PTR __imp_?TraceString@CTraceService@@SA_NPBDW4enTraceLevel@@@Z
  0002b	83 c4 08	 add	 esp, 8

; 181  : 		return FALSE;

  0002e	33 c0		 xor	 eax, eax
  00030	eb 05		 jmp	 SHORT $LN1@OnQueryEnd
$LN2@OnQueryEnd:

; 182  : 	}
; 183  : 
; 184  : 	return TRUE;

  00032	b8 01 00 00 00	 mov	 eax, 1
$LN1@OnQueryEnd:

; 185  : }

  00037	5f		 pop	 edi
  00038	5e		 pop	 esi
  00039	5b		 pop	 ebx
  0003a	8b e5		 mov	 esp, ebp
  0003c	5d		 pop	 ebp
  0003d	c3		 ret	 0
?OnQueryEndSession@CCorrespondServerDlg@@QAEHXZ ENDP	; CCorrespondServerDlg::OnQueryEndSession
_TEXT	ENDS
; Function compile flags: /Odtp /ZI
; File g:\网狐\happygamewh\服务端\系统模块\服务器组件\约战服务器\correspondserverdlg.cpp
;	COMDAT ?OnBnClickedStopService@CCorrespondServerDlg@@IAEXXZ
_TEXT	SEGMENT
_this$ = -20						; size = 4
__$EHRec$ = -16						; size = 16
?OnBnClickedStopService@CCorrespondServerDlg@@IAEXXZ PROC ; CCorrespondServerDlg::OnBnClickedStopService, COMDAT
; _this$ = ecx

; 160  : {

  00000	55		 push	 ebp
  00001	8b ec		 mov	 ebp, esp
  00003	6a ff		 push	 -1
  00005	68 00 00 00 00	 push	 __ehhandler$?OnBnClickedStopService@CCorrespondServerDlg@@IAEXXZ
  0000a	64 a1 00 00 00
	00		 mov	 eax, DWORD PTR fs:0
  00010	50		 push	 eax
  00011	51		 push	 ecx
  00012	83 ec 44	 sub	 esp, 68			; 00000044H
  00015	53		 push	 ebx
  00016	56		 push	 esi
  00017	57		 push	 edi
  00018	a1 00 00 00 00	 mov	 eax, DWORD PTR ___security_cookie
  0001d	33 c5		 xor	 eax, ebp
  0001f	50		 push	 eax
  00020	8d 45 f4	 lea	 eax, DWORD PTR __$EHRec$[ebp+4]
  00023	64 a3 00 00 00
	00		 mov	 DWORD PTR fs:0, eax
  00029	89 65 f0	 mov	 DWORD PTR __$EHRec$[ebp], esp
  0002c	89 4d ec	 mov	 DWORD PTR _this$[ebp], ecx

; 161  : 	//停止服务
; 162  : 	try

  0002f	c7 45 fc 00 00
	00 00		 mov	 DWORD PTR __$EHRec$[ebp+12], 0

; 163  : 	{
; 164  : 		m_ServiceUnits.ConcludeService();

  00036	8b 4d ec	 mov	 ecx, DWORD PTR _this$[ebp]
  00039	81 c1 ac 00 00
	00		 add	 ecx, 172		; 000000acH
  0003f	e8 00 00 00 00	 call	 ?ConcludeService@CServiceUnits@@QAE_NXZ ; CServiceUnits::ConcludeService

; 165  : 	}

  00044	eb 23		 jmp	 SHORT $LN5@OnBnClicke
__catch$?OnBnClickedStopService@CCorrespondServerDlg@@IAEXXZ$0:

; 166  : 	catch (...)
; 167  : 	{
; 168  : 		ASSERT(FALSE);

  00046	33 c0		 xor	 eax, eax
  00048	75 19		 jne	 SHORT $LN4@OnBnClicke
  0004a	8b 0d 00 00 00
	00		 mov	 ecx, DWORD PTR ?__LINE__Var@?0??OnBnClickedStopService@CCorrespondServerDlg@@IAEXXZ@4JA
  00050	83 c1 08	 add	 ecx, 8
  00053	51		 push	 ecx
  00054	68 00 00 00 00	 push	 OFFSET ??_C@_0FC@GBHBGEDM@g?3?2?M?x?$LK?$PM?2happygamewh?2?$LH?$PO?N?q?$LG?K?2?O?$LF?M?$LD@
  00059	e8 00 00 00 00	 call	 ?AfxAssertFailedLine@@YGHPBDH@Z ; AfxAssertFailedLine
  0005e	85 c0		 test	 eax, eax
  00060	74 01		 je	 SHORT $LN4@OnBnClicke
  00062	cc		 int	 3
$LN4@OnBnClicke:

; 169  : 	}

  00063	b8 00 00 00 00	 mov	 eax, $LN8@OnBnClicke
  00068	c3		 ret	 0
$LN5@OnBnClicke:
  00069	c7 45 fc ff ff
	ff ff		 mov	 DWORD PTR __$EHRec$[ebp+12], -1
  00070	eb 07		 jmp	 SHORT $LN1@OnBnClicke
$LN8@OnBnClicke:
  00072	c7 45 fc ff ff
	ff ff		 mov	 DWORD PTR __$EHRec$[ebp+12], -1
$LN1@OnBnClicke:

; 170  : 
; 171  : 	return;
; 172  : }

  00079	8b 4d f4	 mov	 ecx, DWORD PTR __$EHRec$[ebp+4]
  0007c	64 89 0d 00 00
	00 00		 mov	 DWORD PTR fs:0, ecx
  00083	59		 pop	 ecx
  00084	5f		 pop	 edi
  00085	5e		 pop	 esi
  00086	5b		 pop	 ebx
  00087	8b e5		 mov	 esp, ebp
  00089	5d		 pop	 ebp
  0008a	c3		 ret	 0
_TEXT	ENDS
;	COMDAT text$x
text$x	SEGMENT
__ehhandler$?OnBnClickedStopService@CCorrespondServerDlg@@IAEXXZ:
  00000	8b 54 24 08	 mov	 edx, DWORD PTR [esp+8]
  00004	8d 42 0c	 lea	 eax, DWORD PTR [edx+12]
  00007	8b 4a a8	 mov	 ecx, DWORD PTR [edx-88]
  0000a	33 c8		 xor	 ecx, eax
  0000c	e8 00 00 00 00	 call	 @__security_check_cookie@4
  00011	b8 00 00 00 00	 mov	 eax, OFFSET __ehfuncinfo$?OnBnClickedStopService@CCorrespondServerDlg@@IAEXXZ
  00016	e9 00 00 00 00	 jmp	 ___CxxFrameHandler3
text$x	ENDS
?OnBnClickedStopService@CCorrespondServerDlg@@IAEXXZ ENDP ; CCorrespondServerDlg::OnBnClickedStopService
; Function compile flags: /Odtp /ZI
; File g:\网狐\happygamewh\服务端\系统模块\服务器组件\约战服务器\correspondserverdlg.cpp
;	COMDAT ?OnBnClickedStartService@CCorrespondServerDlg@@IAEXXZ
_TEXT	SEGMENT
_this$ = -20						; size = 4
__$EHRec$ = -16						; size = 16
?OnBnClickedStartService@CCorrespondServerDlg@@IAEXXZ PROC ; CCorrespondServerDlg::OnBnClickedStartService, COMDAT
; _this$ = ecx

; 144  : {

  00000	55		 push	 ebp
  00001	8b ec		 mov	 ebp, esp
  00003	6a ff		 push	 -1
  00005	68 00 00 00 00	 push	 __ehhandler$?OnBnClickedStartService@CCorrespondServerDlg@@IAEXXZ
  0000a	64 a1 00 00 00
	00		 mov	 eax, DWORD PTR fs:0
  00010	50		 push	 eax
  00011	51		 push	 ecx
  00012	83 ec 44	 sub	 esp, 68			; 00000044H
  00015	53		 push	 ebx
  00016	56		 push	 esi
  00017	57		 push	 edi
  00018	a1 00 00 00 00	 mov	 eax, DWORD PTR ___security_cookie
  0001d	33 c5		 xor	 eax, ebp
  0001f	50		 push	 eax
  00020	8d 45 f4	 lea	 eax, DWORD PTR __$EHRec$[ebp+4]
  00023	64 a3 00 00 00
	00		 mov	 DWORD PTR fs:0, eax
  00029	89 65 f0	 mov	 DWORD PTR __$EHRec$[ebp], esp
  0002c	89 4d ec	 mov	 DWORD PTR _this$[ebp], ecx

; 145  : 	//启动服务
; 146  : 	try

  0002f	c7 45 fc 00 00
	00 00		 mov	 DWORD PTR __$EHRec$[ebp+12], 0

; 147  : 	{
; 148  : 		m_ServiceUnits.StartService();

  00036	8b 4d ec	 mov	 ecx, DWORD PTR _this$[ebp]
  00039	81 c1 ac 00 00
	00		 add	 ecx, 172		; 000000acH
  0003f	e8 00 00 00 00	 call	 ?StartService@CServiceUnits@@QAE_NXZ ; CServiceUnits::StartService

; 149  : 	}

  00044	eb 23		 jmp	 SHORT $LN5@OnBnClicke
__catch$?OnBnClickedStartService@CCorrespondServerDlg@@IAEXXZ$0:

; 150  : 	catch (...)
; 151  : 	{
; 152  : 		ASSERT(FALSE);

  00046	33 c0		 xor	 eax, eax
  00048	75 19		 jne	 SHORT $LN4@OnBnClicke
  0004a	8b 0d 00 00 00
	00		 mov	 ecx, DWORD PTR ?__LINE__Var@?0??OnBnClickedStartService@CCorrespondServerDlg@@IAEXXZ@4JA
  00050	83 c1 08	 add	 ecx, 8
  00053	51		 push	 ecx
  00054	68 00 00 00 00	 push	 OFFSET ??_C@_0FC@GBHBGEDM@g?3?2?M?x?$LK?$PM?2happygamewh?2?$LH?$PO?N?q?$LG?K?2?O?$LF?M?$LD@
  00059	e8 00 00 00 00	 call	 ?AfxAssertFailedLine@@YGHPBDH@Z ; AfxAssertFailedLine
  0005e	85 c0		 test	 eax, eax
  00060	74 01		 je	 SHORT $LN4@OnBnClicke
  00062	cc		 int	 3
$LN4@OnBnClicke:

; 153  : 	}

  00063	b8 00 00 00 00	 mov	 eax, $LN8@OnBnClicke
  00068	c3		 ret	 0
$LN5@OnBnClicke:
  00069	c7 45 fc ff ff
	ff ff		 mov	 DWORD PTR __$EHRec$[ebp+12], -1
  00070	eb 07		 jmp	 SHORT $LN1@OnBnClicke
$LN8@OnBnClicke:
  00072	c7 45 fc ff ff
	ff ff		 mov	 DWORD PTR __$EHRec$[ebp+12], -1
$LN1@OnBnClicke:

; 154  : 
; 155  : 	return;
; 156  : }

  00079	8b 4d f4	 mov	 ecx, DWORD PTR __$EHRec$[ebp+4]
  0007c	64 89 0d 00 00
	00 00		 mov	 DWORD PTR fs:0, ecx
  00083	59		 pop	 ecx
  00084	5f		 pop	 edi
  00085	5e		 pop	 esi
  00086	5b		 pop	 ebx
  00087	8b e5		 mov	 esp, ebp
  00089	5d		 pop	 ebp
  0008a	c3		 ret	 0
_TEXT	ENDS
;	COMDAT text$x
text$x	SEGMENT
__ehhandler$?OnBnClickedStartService@CCorrespondServerDlg@@IAEXXZ:
  00000	8b 54 24 08	 mov	 edx, DWORD PTR [esp+8]
  00004	8d 42 0c	 lea	 eax, DWORD PTR [edx+12]
  00007	8b 4a a8	 mov	 ecx, DWORD PTR [edx-88]
  0000a	33 c8		 xor	 ecx, eax
  0000c	e8 00 00 00 00	 call	 @__security_check_cookie@4
  00011	b8 00 00 00 00	 mov	 eax, OFFSET __ehfuncinfo$?OnBnClickedStartService@CCorrespondServerDlg@@IAEXXZ
  00016	e9 00 00 00 00	 jmp	 ___CxxFrameHandler3
text$x	ENDS
?OnBnClickedStartService@CCorrespondServerDlg@@IAEXXZ ENDP ; CCorrespondServerDlg::OnBnClickedStartService
; Function compile flags: /Odtp /ZI
; File g:\网狐\happygamewh\服务端\系统模块\服务器组件\约战服务器\correspondserverdlg.cpp
;	COMDAT ?OnServiceUnitsStatus@CCorrespondServerDlg@@UAEXW4enServiceStatus@@@Z
_TEXT	SEGMENT
tv209 = -704						; size = 4
tv64 = -704						; size = 4
$T1 = -700						; size = 44
_szString$2 = -528					; size = 512
_pszDescribe$3 = -16					; size = 4
_pszDescribe$4 = -12					; size = 4
_this$ = -8						; size = 4
__$ArrayPad$ = -4					; size = 4
_ServiceStatus$ = 8					; size = 4
?OnServiceUnitsStatus@CCorrespondServerDlg@@UAEXW4enServiceStatus@@@Z PROC ; CCorrespondServerDlg::OnServiceUnitsStatus, COMDAT
; _this$ = ecx

; 87   : {

  00000	55		 push	 ebp
  00001	8b ec		 mov	 ebp, esp
  00003	81 ec c0 02 00
	00		 sub	 esp, 704		; 000002c0H
  00009	a1 00 00 00 00	 mov	 eax, DWORD PTR ___security_cookie
  0000e	33 c5		 xor	 eax, ebp
  00010	89 45 fc	 mov	 DWORD PTR __$ArrayPad$[ebp], eax
  00013	53		 push	 ebx
  00014	56		 push	 esi
  00015	57		 push	 edi
  00016	89 4d f8	 mov	 DWORD PTR _this$[ebp], ecx

; 88   : 	//状态设置
; 89   : 	switch (ServiceStatus)

  00019	8b 45 08	 mov	 eax, DWORD PTR _ServiceStatus$[ebp]
  0001c	89 85 40 fd ff
	ff		 mov	 DWORD PTR tv64[ebp], eax
  00022	83 bd 40 fd ff
	ff 00		 cmp	 DWORD PTR tv64[ebp], 0
  00029	74 1b		 je	 SHORT $LN4@OnServiceU
  0002b	83 bd 40 fd ff
	ff 01		 cmp	 DWORD PTR tv64[ebp], 1
  00032	74 78		 je	 SHORT $LN5@OnServiceU
  00034	83 bd 40 fd ff
	ff 02		 cmp	 DWORD PTR tv64[ebp], 2
  0003b	0f 84 d1 00 00
	00		 je	 $LN6@OnServiceU
  00041	e9 91 01 00 00	 jmp	 $LN1@OnServiceU
$LN4@OnServiceU:

; 90   : 	{
; 91   : 	case ServiceStatus_Stop:	//停止状态
; 92   : 		{
; 93   : 			//设置标题
; 94   : 			SetWindowText(TEXT("约战服务器 -- [ 停止 ]"));

  00046	68 00 00 00 00	 push	 OFFSET ??_C@_0BH@MJNLNDKI@?T?$LM?U?$LN?$LH?$PO?N?q?F?w?5?9?9?5?$FL?5?M?$KD?V?$LJ?5?$FN@
  0004b	8b 4d f8	 mov	 ecx, DWORD PTR _this$[ebp]
  0004e	81 e9 a8 00 00
	00		 sub	 ecx, 168		; 000000a8H
  00054	e8 00 00 00 00	 call	 ?SetWindowTextA@CWnd@@QAEXPBD@Z ; CWnd::SetWindowTextA

; 95   : 
; 96   : 			//设置按钮
; 97   : 			GetDlgItem(IDC_STOP_SERVICE)->EnableWindow(FALSE);

  00059	6a 00		 push	 0
  0005b	68 ec 03 00 00	 push	 1004			; 000003ecH
  00060	8b 4d f8	 mov	 ecx, DWORD PTR _this$[ebp]
  00063	81 e9 a8 00 00
	00		 sub	 ecx, 168		; 000000a8H
  00069	e8 00 00 00 00	 call	 ?GetDlgItem@CWnd@@QBEPAV1@H@Z ; CWnd::GetDlgItem
  0006e	8b c8		 mov	 ecx, eax
  00070	e8 00 00 00 00	 call	 ?EnableWindow@CWnd@@QAEHH@Z ; CWnd::EnableWindow

; 98   : 			GetDlgItem(IDC_START_SERVICE)->EnableWindow(TRUE);

  00075	6a 01		 push	 1
  00077	68 eb 03 00 00	 push	 1003			; 000003ebH
  0007c	8b 4d f8	 mov	 ecx, DWORD PTR _this$[ebp]
  0007f	81 e9 a8 00 00
	00		 sub	 ecx, 168		; 000000a8H
  00085	e8 00 00 00 00	 call	 ?GetDlgItem@CWnd@@QBEPAV1@H@Z ; CWnd::GetDlgItem
  0008a	8b c8		 mov	 ecx, eax
  0008c	e8 00 00 00 00	 call	 ?EnableWindow@CWnd@@QAEHH@Z ; CWnd::EnableWindow

; 99   : 
; 100  : 			//提示信息
; 101  : 			LPCTSTR pszDescribe=TEXT("服务停止成功");

  00091	c7 45 f4 00 00
	00 00		 mov	 DWORD PTR _pszDescribe$4[ebp], OFFSET ??_C@_0N@HNGKNHMM@?$LH?$PO?N?q?M?$KD?V?$LJ?$LD?I?$LJ?$KG@

; 102  : 			CTraceService::TraceString(pszDescribe,TraceLevel_Normal);

  00098	6a 01		 push	 1
  0009a	8b 45 f4	 mov	 eax, DWORD PTR _pszDescribe$4[ebp]
  0009d	50		 push	 eax
  0009e	ff 15 00 00 00
	00		 call	 DWORD PTR __imp_?TraceString@CTraceService@@SA_NPBDW4enTraceLevel@@@Z
  000a4	83 c4 08	 add	 esp, 8

; 103  : 
; 104  : 			break;

  000a7	e9 2b 01 00 00	 jmp	 $LN1@OnServiceU
$LN5@OnServiceU:

; 105  : 		}
; 106  : 	case ServiceStatus_Config:	//配置状态
; 107  : 		{
; 108  : 			//设置标题
; 109  : 			SetWindowText(TEXT("约战服务器 -- [ 初始化 ]"));

  000ac	68 00 00 00 00	 push	 OFFSET ??_C@_0BJ@JPHOFEIP@?T?$LM?U?$LN?$LH?$PO?N?q?F?w?5?9?9?5?$FL?5?$LD?u?J?$LM?$LL?$KP?5?$FN@
  000b1	8b 4d f8	 mov	 ecx, DWORD PTR _this$[ebp]
  000b4	81 e9 a8 00 00
	00		 sub	 ecx, 168		; 000000a8H
  000ba	e8 00 00 00 00	 call	 ?SetWindowTextA@CWnd@@QAEXPBD@Z ; CWnd::SetWindowTextA

; 110  : 
; 111  : 			//设置按钮
; 112  : 			GetDlgItem(IDC_STOP_SERVICE)->EnableWindow(TRUE);

  000bf	6a 01		 push	 1
  000c1	68 ec 03 00 00	 push	 1004			; 000003ecH
  000c6	8b 4d f8	 mov	 ecx, DWORD PTR _this$[ebp]
  000c9	81 e9 a8 00 00
	00		 sub	 ecx, 168		; 000000a8H
  000cf	e8 00 00 00 00	 call	 ?GetDlgItem@CWnd@@QBEPAV1@H@Z ; CWnd::GetDlgItem
  000d4	8b c8		 mov	 ecx, eax
  000d6	e8 00 00 00 00	 call	 ?EnableWindow@CWnd@@QAEHH@Z ; CWnd::EnableWindow

; 113  : 			GetDlgItem(IDC_START_SERVICE)->EnableWindow(FALSE);

  000db	6a 00		 push	 0
  000dd	68 eb 03 00 00	 push	 1003			; 000003ebH
  000e2	8b 4d f8	 mov	 ecx, DWORD PTR _this$[ebp]
  000e5	81 e9 a8 00 00
	00		 sub	 ecx, 168		; 000000a8H
  000eb	e8 00 00 00 00	 call	 ?GetDlgItem@CWnd@@QBEPAV1@H@Z ; CWnd::GetDlgItem
  000f0	8b c8		 mov	 ecx, eax
  000f2	e8 00 00 00 00	 call	 ?EnableWindow@CWnd@@QAEHH@Z ; CWnd::EnableWindow

; 114  : 
; 115  : 			//提示信息
; 116  : 			LPCTSTR pszDescribe=TEXT("正在初始化组件...");

  000f7	c7 45 f0 00 00
	00 00		 mov	 DWORD PTR _pszDescribe$3[ebp], OFFSET ??_C@_0BC@OFPAKDFO@?U?$PN?T?Z?$LD?u?J?$LM?$LL?$KP?W?i?$LM?$PO?4?4?4@

; 117  : 			CTraceService::TraceString(pszDescribe,TraceLevel_Normal);

  000fe	6a 01		 push	 1
  00100	8b 45 f0	 mov	 eax, DWORD PTR _pszDescribe$3[ebp]
  00103	50		 push	 eax
  00104	ff 15 00 00 00
	00		 call	 DWORD PTR __imp_?TraceString@CTraceService@@SA_NPBDW4enTraceLevel@@@Z
  0010a	83 c4 08	 add	 esp, 8

; 118  : 
; 119  : 			break;

  0010d	e9 c5 00 00 00	 jmp	 $LN1@OnServiceU
$LN6@OnServiceU:

; 120  : 		}
; 121  : 	case ServiceStatus_Service:	//服务状态
; 122  : 		{
; 123  : 			//设置标题
; 124  : 			SetWindowText(TEXT("约战服务器 -- [ 运行 ]"));

  00112	68 00 00 00 00	 push	 OFFSET ??_C@_0BH@BGFEMKKL@?T?$LM?U?$LN?$LH?$PO?N?q?F?w?5?9?9?5?$FL?5?T?K?P?P?5?$FN@
  00117	8b 4d f8	 mov	 ecx, DWORD PTR _this$[ebp]
  0011a	81 e9 a8 00 00
	00		 sub	 ecx, 168		; 000000a8H
  00120	e8 00 00 00 00	 call	 ?SetWindowTextA@CWnd@@QAEXPBD@Z ; CWnd::SetWindowTextA

; 125  : 
; 126  : 			//设置按钮
; 127  : 			GetDlgItem(IDC_STOP_SERVICE)->EnableWindow(TRUE);

  00125	6a 01		 push	 1
  00127	68 ec 03 00 00	 push	 1004			; 000003ecH
  0012c	8b 4d f8	 mov	 ecx, DWORD PTR _this$[ebp]
  0012f	81 e9 a8 00 00
	00		 sub	 ecx, 168		; 000000a8H
  00135	e8 00 00 00 00	 call	 ?GetDlgItem@CWnd@@QBEPAV1@H@Z ; CWnd::GetDlgItem
  0013a	8b c8		 mov	 ecx, eax
  0013c	e8 00 00 00 00	 call	 ?EnableWindow@CWnd@@QAEHH@Z ; CWnd::EnableWindow

; 128  : 			GetDlgItem(IDC_START_SERVICE)->EnableWindow(FALSE);

  00141	6a 00		 push	 0
  00143	68 eb 03 00 00	 push	 1003			; 000003ebH
  00148	8b 4d f8	 mov	 ecx, DWORD PTR _this$[ebp]
  0014b	81 e9 a8 00 00
	00		 sub	 ecx, 168		; 000000a8H
  00151	e8 00 00 00 00	 call	 ?GetDlgItem@CWnd@@QBEPAV1@H@Z ; CWnd::GetDlgItem
  00156	8b c8		 mov	 ecx, eax
  00158	e8 00 00 00 00	 call	 ?EnableWindow@CWnd@@QAEHH@Z ; CWnd::EnableWindow

; 129  : 
; 130  : 			//提示信息
; 131  : 			TCHAR szString[512] = TEXT("");

  0015d	a0 00 00 00 00	 mov	 al, BYTE PTR ??_C@_00CNPNBAHC@@
  00162	88 85 f0 fd ff
	ff		 mov	 BYTE PTR _szString$2[ebp], al
  00168	68 ff 01 00 00	 push	 511			; 000001ffH
  0016d	6a 00		 push	 0
  0016f	8d 85 f1 fd ff
	ff		 lea	 eax, DWORD PTR _szString$2[ebp+1]
  00175	50		 push	 eax
  00176	e8 00 00 00 00	 call	 _memset
  0017b	83 c4 0c	 add	 esp, 12			; 0000000cH

; 132  : 			_sntprintf(szString, CountArray(szString), TEXT("服务启动成功 [ 端口:%d ]"), m_ServiceUnits.GetInitParameter().m_wServicePort);

  0017e	8d 85 44 fd ff
	ff		 lea	 eax, DWORD PTR $T1[ebp]
  00184	50		 push	 eax
  00185	8b 4d f8	 mov	 ecx, DWORD PTR _this$[ebp]
  00188	83 c1 04	 add	 ecx, 4
  0018b	e8 00 00 00 00	 call	 ?GetInitParameter@CServiceUnits@@QAE?AVCInitParameter@@XZ ; CServiceUnits::GetInitParameter
  00190	89 85 40 fd ff
	ff		 mov	 DWORD PTR tv209[ebp], eax
  00196	8b 8d 40 fd ff
	ff		 mov	 ecx, DWORD PTR tv209[ebp]
  0019c	0f b7 51 06	 movzx	 edx, WORD PTR [ecx+6]
  001a0	52		 push	 edx
  001a1	68 00 00 00 00	 push	 OFFSET ??_C@_0BJ@HLOOMBNP@?$LH?$PO?N?q?F?t?$LG?$KP?$LD?I?$LJ?$KG?5?$FL?5?$LG?K?$LP?Z?3?$CFd?5?$FN@
  001a6	68 00 02 00 00	 push	 512			; 00000200H
  001ab	8d 85 f0 fd ff
	ff		 lea	 eax, DWORD PTR _szString$2[ebp]
  001b1	50		 push	 eax
  001b2	e8 00 00 00 00	 call	 __snprintf
  001b7	83 c4 10	 add	 esp, 16			; 00000010H
  001ba	8d 8d 44 fd ff
	ff		 lea	 ecx, DWORD PTR $T1[ebp]
  001c0	e8 00 00 00 00	 call	 ??1CInitParameter@@UAE@XZ ; CInitParameter::~CInitParameter

; 133  : 			CTraceService::TraceString(szString,TraceLevel_Normal);

  001c5	6a 01		 push	 1
  001c7	8d 85 f0 fd ff
	ff		 lea	 eax, DWORD PTR _szString$2[ebp]
  001cd	50		 push	 eax
  001ce	ff 15 00 00 00
	00		 call	 DWORD PTR __imp_?TraceString@CTraceService@@SA_NPBDW4enTraceLevel@@@Z
  001d4	83 c4 08	 add	 esp, 8
$LN1@OnServiceU:

; 134  : 
; 135  : 			break;
; 136  : 		}
; 137  : 	}
; 138  : 
; 139  : 	return;
; 140  : }

  001d7	5f		 pop	 edi
  001d8	5e		 pop	 esi
  001d9	5b		 pop	 ebx
  001da	8b 4d fc	 mov	 ecx, DWORD PTR __$ArrayPad$[ebp]
  001dd	33 cd		 xor	 ecx, ebp
  001df	e8 00 00 00 00	 call	 @__security_check_cookie@4
  001e4	8b e5		 mov	 esp, ebp
  001e6	5d		 pop	 ebp
  001e7	c2 04 00	 ret	 4
?OnServiceUnitsStatus@CCorrespondServerDlg@@UAEXW4enServiceStatus@@@Z ENDP ; CCorrespondServerDlg::OnServiceUnitsStatus
_TEXT	ENDS
; Function compile flags: /Odtp /ZI
; File g:\网狐\happygamewh\服务端\系统模块\服务器组件\约战服务器\correspondserverdlg.cpp
;	COMDAT ?PreTranslateMessage@CCorrespondServerDlg@@MAEHPAUtagMSG@@@Z
_TEXT	SEGMENT
_this$ = -4						; size = 4
_pMsg$ = 8						; size = 4
?PreTranslateMessage@CCorrespondServerDlg@@MAEHPAUtagMSG@@@Z PROC ; CCorrespondServerDlg::PreTranslateMessage, COMDAT
; _this$ = ecx

; 75   : {

  00000	55		 push	 ebp
  00001	8b ec		 mov	 ebp, esp
  00003	83 ec 44	 sub	 esp, 68			; 00000044H
  00006	53		 push	 ebx
  00007	56		 push	 esi
  00008	57		 push	 edi
  00009	89 4d fc	 mov	 DWORD PTR _this$[ebp], ecx

; 76   : 	//按键过滤
; 77   : 	if ((pMsg->message==WM_KEYDOWN)&&(pMsg->wParam==VK_ESCAPE))

  0000c	8b 45 08	 mov	 eax, DWORD PTR _pMsg$[ebp]
  0000f	81 78 04 00 01
	00 00		 cmp	 DWORD PTR [eax+4], 256	; 00000100H
  00016	75 10		 jne	 SHORT $LN2@PreTransla
  00018	8b 45 08	 mov	 eax, DWORD PTR _pMsg$[ebp]
  0001b	83 78 08 1b	 cmp	 DWORD PTR [eax+8], 27	; 0000001bH
  0001f	75 07		 jne	 SHORT $LN2@PreTransla

; 78   : 	{
; 79   : 		return TRUE;

  00021	b8 01 00 00 00	 mov	 eax, 1
  00026	eb 0c		 jmp	 SHORT $LN1@PreTransla
$LN2@PreTransla:

; 80   : 	}
; 81   : 
; 82   : 	return __super::PreTranslateMessage(pMsg);

  00028	8b 45 08	 mov	 eax, DWORD PTR _pMsg$[ebp]
  0002b	50		 push	 eax
  0002c	8b 4d fc	 mov	 ecx, DWORD PTR _this$[ebp]
  0002f	e8 00 00 00 00	 call	 ?PreTranslateMessage@CDialog@@UAEHPAUtagMSG@@@Z ; CDialog::PreTranslateMessage
$LN1@PreTransla:

; 83   : }

  00034	5f		 pop	 edi
  00035	5e		 pop	 esi
  00036	5b		 pop	 ebx
  00037	8b e5		 mov	 esp, ebp
  00039	5d		 pop	 ebp
  0003a	c2 04 00	 ret	 4
?PreTranslateMessage@CCorrespondServerDlg@@MAEHPAUtagMSG@@@Z ENDP ; CCorrespondServerDlg::PreTranslateMessage
_TEXT	ENDS
; Function compile flags: /Odtp /ZI
; File g:\网狐\happygamewh\服务端\系统模块\服务器组件\约战服务器\correspondserverdlg.cpp
;	COMDAT ?OnCancel@CCorrespondServerDlg@@MAEXXZ
_TEXT	SEGMENT
_pszQuestion$1 = -8					; size = 4
_this$ = -4						; size = 4
?OnCancel@CCorrespondServerDlg@@MAEXXZ PROC		; CCorrespondServerDlg::OnCancel, COMDAT
; _this$ = ecx

; 59   : {

  00000	55		 push	 ebp
  00001	8b ec		 mov	 ebp, esp
  00003	83 ec 48	 sub	 esp, 72			; 00000048H
  00006	53		 push	 ebx
  00007	56		 push	 esi
  00008	57		 push	 edi
  00009	89 4d fc	 mov	 DWORD PTR _this$[ebp], ecx

; 60   : 	//关闭询问
; 61   : 	if (m_ServiceUnits.GetServiceStatus()!=ServiceStatus_Stop)

  0000c	8b 4d fc	 mov	 ecx, DWORD PTR _this$[ebp]
  0000f	81 c1 ac 00 00
	00		 add	 ecx, 172		; 000000acH
  00015	e8 00 00 00 00	 call	 ?GetServiceStatus@CServiceUnits@@QAE?AW4enServiceStatus@@XZ ; CServiceUnits::GetServiceStatus
  0001a	85 c0		 test	 eax, eax
  0001c	74 1e		 je	 SHORT $LN2@OnCancel

; 62   : 	{
; 63   : 		LPCTSTR pszQuestion=TEXT("约战服务器正在运行中，您确实要关闭服务器吗？");

  0001e	c7 45 f8 00 00
	00 00		 mov	 DWORD PTR _pszQuestion$1[ebp], OFFSET ??_C@_0CN@ODIPAIBI@?T?$LM?U?$LN?$LH?$PO?N?q?F?w?U?$PN?T?Z?T?K?P?P?V?P?$KD?$KM?D?z?H?$LH?J?$LF?R?$KK?$LJ@

; 64   : 		if (AfxMessageBox(pszQuestion,MB_YESNO|MB_DEFBUTTON2|MB_ICONQUESTION)!=IDYES) return;

  00025	6a 00		 push	 0
  00027	68 24 01 00 00	 push	 292			; 00000124H
  0002c	8b 45 f8	 mov	 eax, DWORD PTR _pszQuestion$1[ebp]
  0002f	50		 push	 eax
  00030	e8 00 00 00 00	 call	 ?AfxMessageBox@@YGHPBDII@Z ; AfxMessageBox
  00035	83 f8 06	 cmp	 eax, 6
  00038	74 02		 je	 SHORT $LN2@OnCancel
  0003a	eb 16		 jmp	 SHORT $LN1@OnCancel
$LN2@OnCancel:

; 65   : 	}
; 66   : 
; 67   : 	//停止服务
; 68   : 	m_ServiceUnits.ConcludeService();

  0003c	8b 4d fc	 mov	 ecx, DWORD PTR _this$[ebp]
  0003f	81 c1 ac 00 00
	00		 add	 ecx, 172		; 000000acH
  00045	e8 00 00 00 00	 call	 ?ConcludeService@CServiceUnits@@QAE_NXZ ; CServiceUnits::ConcludeService

; 69   : 
; 70   : 	__super::OnCancel();

  0004a	8b 4d fc	 mov	 ecx, DWORD PTR _this$[ebp]
  0004d	e8 00 00 00 00	 call	 ?OnCancel@CDialog@@MAEXXZ ; CDialog::OnCancel
$LN1@OnCancel:

; 71   : }

  00052	5f		 pop	 edi
  00053	5e		 pop	 esi
  00054	5b		 pop	 ebx
  00055	8b e5		 mov	 esp, ebp
  00057	5d		 pop	 ebp
  00058	c3		 ret	 0
?OnCancel@CCorrespondServerDlg@@MAEXXZ ENDP		; CCorrespondServerDlg::OnCancel
_TEXT	ENDS
; Function compile flags: /Odtp /ZI
; File g:\网狐\happygamewh\服务端\系统模块\服务器组件\约战服务器\correspondserverdlg.cpp
;	COMDAT ?OnOK@CCorrespondServerDlg@@MAEXXZ
_TEXT	SEGMENT
_this$ = -4						; size = 4
?OnOK@CCorrespondServerDlg@@MAEXXZ PROC			; CCorrespondServerDlg::OnOK, COMDAT
; _this$ = ecx

; 53   : {

  00000	55		 push	 ebp
  00001	8b ec		 mov	 ebp, esp
  00003	83 ec 44	 sub	 esp, 68			; 00000044H
  00006	53		 push	 ebx
  00007	56		 push	 esi
  00008	57		 push	 edi
  00009	89 4d fc	 mov	 DWORD PTR _this$[ebp], ecx

; 54   : 	return;
; 55   : }

  0000c	5f		 pop	 edi
  0000d	5e		 pop	 esi
  0000e	5b		 pop	 ebx
  0000f	8b e5		 mov	 esp, ebp
  00011	5d		 pop	 ebp
  00012	c3		 ret	 0
?OnOK@CCorrespondServerDlg@@MAEXXZ ENDP			; CCorrespondServerDlg::OnOK
_TEXT	ENDS
; Function compile flags: /Odtp /ZI
; File g:\网狐\happygamewh\服务端\系统模块\服务器组件\约战服务器\correspondserverdlg.cpp
;	COMDAT ?OnInitDialog@CCorrespondServerDlg@@MAEHXZ
_TEXT	SEGMENT
tv132 = -76						; size = 4
_hIcon$ = -8						; size = 4
_this$ = -4						; size = 4
?OnInitDialog@CCorrespondServerDlg@@MAEHXZ PROC		; CCorrespondServerDlg::OnInitDialog, COMDAT
; _this$ = ecx

; 34   : {

  00000	55		 push	 ebp
  00001	8b ec		 mov	 ebp, esp
  00003	83 ec 4c	 sub	 esp, 76			; 0000004cH
  00006	53		 push	 ebx
  00007	56		 push	 esi
  00008	57		 push	 edi
  00009	89 4d fc	 mov	 DWORD PTR _this$[ebp], ecx

; 35   : 	__super::OnInitDialog();

  0000c	8b 4d fc	 mov	 ecx, DWORD PTR _this$[ebp]
  0000f	e8 00 00 00 00	 call	 ?OnInitDialog@CDialog@@UAEHXZ ; CDialog::OnInitDialog

; 36   : 
; 37   : 	//设置标题
; 38   : 	SetWindowText(TEXT("约战服务器 -- [ 停止 ]"));

  00014	68 00 00 00 00	 push	 OFFSET ??_C@_0BH@MJNLNDKI@?T?$LM?U?$LN?$LH?$PO?N?q?F?w?5?9?9?5?$FL?5?M?$KD?V?$LJ?5?$FN@
  00019	8b 4d fc	 mov	 ecx, DWORD PTR _this$[ebp]
  0001c	e8 00 00 00 00	 call	 ?SetWindowTextA@CWnd@@QAEXPBD@Z ; CWnd::SetWindowTextA

; 39   : 
; 40   : 	//设置图标
; 41   : 	HICON hIcon=LoadIcon(AfxGetInstanceHandle(),MAKEINTRESOURCE(IDR_MAINFRAME));

  00021	68 80 00 00 00	 push	 128			; 00000080H
  00026	e8 00 00 00 00	 call	 ?AfxGetInstanceHandle@@YGPAUHINSTANCE__@@XZ ; AfxGetInstanceHandle
  0002b	50		 push	 eax
  0002c	ff 15 00 00 00
	00		 call	 DWORD PTR __imp__LoadIconA@8
  00032	89 45 f8	 mov	 DWORD PTR _hIcon$[ebp], eax

; 42   : 	SetIcon(hIcon,TRUE);

  00035	6a 01		 push	 1
  00037	8b 45 f8	 mov	 eax, DWORD PTR _hIcon$[ebp]
  0003a	50		 push	 eax
  0003b	8b 4d fc	 mov	 ecx, DWORD PTR _this$[ebp]
  0003e	e8 00 00 00 00	 call	 ?SetIcon@CWnd@@QAEPAUHICON__@@PAU2@H@Z ; CWnd::SetIcon

; 43   : 	SetIcon(hIcon,FALSE);

  00043	6a 00		 push	 0
  00045	8b 45 f8	 mov	 eax, DWORD PTR _hIcon$[ebp]
  00048	50		 push	 eax
  00049	8b 4d fc	 mov	 ecx, DWORD PTR _this$[ebp]
  0004c	e8 00 00 00 00	 call	 ?SetIcon@CWnd@@QAEPAUHICON__@@PAU2@H@Z ; CWnd::SetIcon

; 44   : 
; 45   : 	//设置组件
; 46   : 	m_ServiceUnits.SetServiceUnitsSink(this);

  00051	83 7d fc 00	 cmp	 DWORD PTR _this$[ebp], 0
  00055	74 0d		 je	 SHORT $LN3@OnInitDial
  00057	8b 45 fc	 mov	 eax, DWORD PTR _this$[ebp]
  0005a	05 a8 00 00 00	 add	 eax, 168		; 000000a8H
  0005f	89 45 b4	 mov	 DWORD PTR tv132[ebp], eax
  00062	eb 07		 jmp	 SHORT $LN4@OnInitDial
$LN3@OnInitDial:
  00064	c7 45 b4 00 00
	00 00		 mov	 DWORD PTR tv132[ebp], 0
$LN4@OnInitDial:
  0006b	8b 4d b4	 mov	 ecx, DWORD PTR tv132[ebp]
  0006e	51		 push	 ecx
  0006f	8b 4d fc	 mov	 ecx, DWORD PTR _this$[ebp]
  00072	81 c1 ac 00 00
	00		 add	 ecx, 172		; 000000acH
  00078	e8 00 00 00 00	 call	 ?SetServiceUnitsSink@CServiceUnits@@QAE_NPAUIServiceUnitsSink@@@Z ; CServiceUnits::SetServiceUnitsSink

; 47   : 
; 48   : 	return TRUE;

  0007d	b8 01 00 00 00	 mov	 eax, 1

; 49   : }

  00082	5f		 pop	 edi
  00083	5e		 pop	 esi
  00084	5b		 pop	 ebx
  00085	8b e5		 mov	 esp, ebp
  00087	5d		 pop	 ebp
  00088	c3		 ret	 0
?OnInitDialog@CCorrespondServerDlg@@MAEHXZ ENDP		; CCorrespondServerDlg::OnInitDialog
_TEXT	ENDS
; Function compile flags: /Odtp /ZI
; File g:\网狐\happygamewh\服务端\系统模块\服务器组件\约战服务器\correspondserverdlg.cpp
;	COMDAT ?DoDataExchange@CCorrespondServerDlg@@MAEXPAVCDataExchange@@@Z
_TEXT	SEGMENT
_this$ = -4						; size = 4
_pDX$ = 8						; size = 4
?DoDataExchange@CCorrespondServerDlg@@MAEXPAVCDataExchange@@@Z PROC ; CCorrespondServerDlg::DoDataExchange, COMDAT
; _this$ = ecx

; 27   : {

  00000	55		 push	 ebp
  00001	8b ec		 mov	 ebp, esp
  00003	83 ec 44	 sub	 esp, 68			; 00000044H
  00006	53		 push	 ebx
  00007	56		 push	 esi
  00008	57		 push	 edi
  00009	89 4d fc	 mov	 DWORD PTR _this$[ebp], ecx

; 28   : 	__super::DoDataExchange(pDX);

  0000c	8b 45 08	 mov	 eax, DWORD PTR _pDX$[ebp]
  0000f	50		 push	 eax
  00010	8b 4d fc	 mov	 ecx, DWORD PTR _this$[ebp]
  00013	e8 00 00 00 00	 call	 ?DoDataExchange@CWnd@@MAEXPAVCDataExchange@@@Z ; CWnd::DoDataExchange

; 29   : 	DDX_Control(pDX, IDC_TRACE_MESSAGE, m_TraceServiceControl);

  00018	8b 45 fc	 mov	 eax, DWORD PTR _this$[ebp]
  0001b	05 e8 07 00 00	 add	 eax, 2024		; 000007e8H
  00020	50		 push	 eax
  00021	68 ea 03 00 00	 push	 1002			; 000003eaH
  00026	8b 4d 08	 mov	 ecx, DWORD PTR _pDX$[ebp]
  00029	51		 push	 ecx
  0002a	e8 00 00 00 00	 call	 ?DDX_Control@@YGXPAVCDataExchange@@HAAVCWnd@@@Z ; DDX_Control

; 30   : }

  0002f	5f		 pop	 edi
  00030	5e		 pop	 esi
  00031	5b		 pop	 ebx
  00032	8b e5		 mov	 esp, ebp
  00034	5d		 pop	 ebp
  00035	c2 04 00	 ret	 4
?DoDataExchange@CCorrespondServerDlg@@MAEXPAVCDataExchange@@@Z ENDP ; CCorrespondServerDlg::DoDataExchange
_TEXT	ENDS
; Function compile flags: /Odtp /ZI
; File g:\网狐\happygamewh\服务端\系统模块\服务器组件\约战服务器\correspondserverdlg.cpp
;	COMDAT ??1CCorrespondServerDlg@@UAE@XZ
_TEXT	SEGMENT
_this$ = -4						; size = 4
??1CCorrespondServerDlg@@UAE@XZ PROC			; CCorrespondServerDlg::~CCorrespondServerDlg, COMDAT
; _this$ = ecx

; 22   : {

  00000	55		 push	 ebp
  00001	8b ec		 mov	 ebp, esp
  00003	83 ec 44	 sub	 esp, 68			; 00000044H
  00006	53		 push	 ebx
  00007	56		 push	 esi
  00008	57		 push	 edi
  00009	89 4d fc	 mov	 DWORD PTR _this$[ebp], ecx
  0000c	8b 45 fc	 mov	 eax, DWORD PTR _this$[ebp]
  0000f	c7 00 00 00 00
	00		 mov	 DWORD PTR [eax], OFFSET ??_7CCorrespondServerDlg@@6BCDialog@@@
  00015	8b 45 fc	 mov	 eax, DWORD PTR _this$[ebp]
  00018	c7 80 a8 00 00
	00 00 00 00 00	 mov	 DWORD PTR [eax+168], OFFSET ??_7CCorrespondServerDlg@@6BIServiceUnitsSink@@@

; 23   : }

  00022	8b 4d fc	 mov	 ecx, DWORD PTR _this$[ebp]
  00025	81 c1 e8 07 00
	00		 add	 ecx, 2024		; 000007e8H
  0002b	ff 15 00 00 00
	00		 call	 DWORD PTR __imp_??1CTraceServiceControl@@UAE@XZ
  00031	8b 4d fc	 mov	 ecx, DWORD PTR _this$[ebp]
  00034	81 c1 ac 00 00
	00		 add	 ecx, 172		; 000000acH
  0003a	e8 00 00 00 00	 call	 ??1CServiceUnits@@UAE@XZ ; CServiceUnits::~CServiceUnits
  0003f	8b 4d fc	 mov	 ecx, DWORD PTR _this$[ebp]
  00042	e8 00 00 00 00	 call	 ??1CDialog@@UAE@XZ	; CDialog::~CDialog
  00047	5f		 pop	 edi
  00048	5e		 pop	 esi
  00049	5b		 pop	 ebx
  0004a	8b e5		 mov	 esp, ebp
  0004c	5d		 pop	 ebp
  0004d	c3		 ret	 0
??1CCorrespondServerDlg@@UAE@XZ ENDP			; CCorrespondServerDlg::~CCorrespondServerDlg
_TEXT	ENDS
; Function compile flags: /Odtp /ZI
; File g:\网狐\happygamewh\服务端\系统模块\服务器组件\约战服务器\correspondserverdlg.cpp
;	COMDAT ??0CCorrespondServerDlg@@QAE@XZ
_TEXT	SEGMENT
_this$ = -16						; size = 4
__$EHRec$ = -12						; size = 12
??0CCorrespondServerDlg@@QAE@XZ PROC			; CCorrespondServerDlg::CCorrespondServerDlg, COMDAT
; _this$ = ecx

; 17   : {

  00000	55		 push	 ebp
  00001	8b ec		 mov	 ebp, esp
  00003	6a ff		 push	 -1
  00005	68 00 00 00 00	 push	 __ehhandler$??0CCorrespondServerDlg@@QAE@XZ
  0000a	64 a1 00 00 00
	00		 mov	 eax, DWORD PTR fs:0
  00010	50		 push	 eax
  00011	83 ec 44	 sub	 esp, 68			; 00000044H
  00014	53		 push	 ebx
  00015	56		 push	 esi
  00016	57		 push	 edi
  00017	a1 00 00 00 00	 mov	 eax, DWORD PTR ___security_cookie
  0001c	33 c5		 xor	 eax, ebp
  0001e	50		 push	 eax
  0001f	8d 45 f4	 lea	 eax, DWORD PTR __$EHRec$[ebp]
  00022	64 a3 00 00 00
	00		 mov	 DWORD PTR fs:0, eax
  00028	89 4d f0	 mov	 DWORD PTR _this$[ebp], ecx

; 16   : CCorrespondServerDlg::CCorrespondServerDlg() : CDialog(IDD_DLG_CORRESPOND_SERVER)

  0002b	6a 00		 push	 0
  0002d	6a 67		 push	 103			; 00000067H
  0002f	8b 4d f0	 mov	 ecx, DWORD PTR _this$[ebp]
  00032	e8 00 00 00 00	 call	 ??0CDialog@@QAE@IPAVCWnd@@@Z ; CDialog::CDialog
  00037	c7 45 fc 00 00
	00 00		 mov	 DWORD PTR __$EHRec$[ebp+8], 0

; 17   : {

  0003e	8b 4d f0	 mov	 ecx, DWORD PTR _this$[ebp]
  00041	81 c1 a8 00 00
	00		 add	 ecx, 168		; 000000a8H
  00047	e8 00 00 00 00	 call	 ??0IServiceUnitsSink@@QAE@XZ
  0004c	8b 45 f0	 mov	 eax, DWORD PTR _this$[ebp]
  0004f	c7 00 00 00 00
	00		 mov	 DWORD PTR [eax], OFFSET ??_7CCorrespondServerDlg@@6BCDialog@@@
  00055	8b 45 f0	 mov	 eax, DWORD PTR _this$[ebp]
  00058	c7 80 a8 00 00
	00 00 00 00 00	 mov	 DWORD PTR [eax+168], OFFSET ??_7CCorrespondServerDlg@@6BIServiceUnitsSink@@@
  00062	8b 4d f0	 mov	 ecx, DWORD PTR _this$[ebp]
  00065	81 c1 ac 00 00
	00		 add	 ecx, 172		; 000000acH
  0006b	e8 00 00 00 00	 call	 ??0CServiceUnits@@QAE@XZ ; CServiceUnits::CServiceUnits
  00070	c6 45 fc 01	 mov	 BYTE PTR __$EHRec$[ebp+8], 1
  00074	8b 4d f0	 mov	 ecx, DWORD PTR _this$[ebp]
  00077	81 c1 e8 07 00
	00		 add	 ecx, 2024		; 000007e8H
  0007d	ff 15 00 00 00
	00		 call	 DWORD PTR __imp_??0CTraceServiceControl@@QAE@XZ

; 18   : }

  00083	c7 45 fc ff ff
	ff ff		 mov	 DWORD PTR __$EHRec$[ebp+8], -1
  0008a	8b 45 f0	 mov	 eax, DWORD PTR _this$[ebp]
  0008d	8b 4d f4	 mov	 ecx, DWORD PTR __$EHRec$[ebp]
  00090	64 89 0d 00 00
	00 00		 mov	 DWORD PTR fs:0, ecx
  00097	59		 pop	 ecx
  00098	5f		 pop	 edi
  00099	5e		 pop	 esi
  0009a	5b		 pop	 ebx
  0009b	8b e5		 mov	 esp, ebp
  0009d	5d		 pop	 ebp
  0009e	c3		 ret	 0
_TEXT	ENDS
;	COMDAT text$x
text$x	SEGMENT
__unwindfunclet$??0CCorrespondServerDlg@@QAE@XZ$0:
  00000	8b 4d f0	 mov	 ecx, DWORD PTR _this$[ebp]
  00003	e9 00 00 00 00	 jmp	 ??1CDialog@@UAE@XZ	; CDialog::~CDialog
__unwindfunclet$??0CCorrespondServerDlg@@QAE@XZ$1:
  00008	8b 4d f0	 mov	 ecx, DWORD PTR _this$[ebp]
  0000b	81 c1 ac 00 00
	00		 add	 ecx, 172		; 000000acH
  00011	e9 00 00 00 00	 jmp	 ??1CServiceUnits@@UAE@XZ ; CServiceUnits::~CServiceUnits
__ehhandler$??0CCorrespondServerDlg@@QAE@XZ:
  00016	8b 54 24 08	 mov	 edx, DWORD PTR [esp+8]
  0001a	8d 42 0c	 lea	 eax, DWORD PTR [edx+12]
  0001d	8b 4a ac	 mov	 ecx, DWORD PTR [edx-84]
  00020	33 c8		 xor	 ecx, eax
  00022	e8 00 00 00 00	 call	 @__security_check_cookie@4
  00027	b8 00 00 00 00	 mov	 eax, OFFSET __ehfuncinfo$??0CCorrespondServerDlg@@QAE@XZ
  0002c	e9 00 00 00 00	 jmp	 ___CxxFrameHandler3
text$x	ENDS
??0CCorrespondServerDlg@@QAE@XZ ENDP			; CCorrespondServerDlg::CCorrespondServerDlg
; Function compile flags: /Odtp /ZI
; File g:\网狐\happygamewh\服务端\系统模块\服务器组件\约战服务器\serviceunits.h
;	COMDAT ?GetInitParameter@CServiceUnits@@QAE?AVCInitParameter@@XZ
_TEXT	SEGMENT
$T1 = -72						; size = 4
_this$ = -4						; size = 4
___$ReturnUdt$ = 8					; size = 4
?GetInitParameter@CServiceUnits@@QAE?AVCInitParameter@@XZ PROC ; CServiceUnits::GetInitParameter, COMDAT
; _this$ = ecx

; 73   : 	CInitParameter GetInitParameter() { return m_InitParameter; }

  00000	55		 push	 ebp
  00001	8b ec		 mov	 ebp, esp
  00003	83 ec 48	 sub	 esp, 72			; 00000048H
  00006	53		 push	 ebx
  00007	56		 push	 esi
  00008	57		 push	 edi
  00009	89 4d fc	 mov	 DWORD PTR _this$[ebp], ecx
  0000c	c7 45 b8 00 00
	00 00		 mov	 DWORD PTR $T1[ebp], 0
  00013	8b 45 fc	 mov	 eax, DWORD PTR _this$[ebp]
  00016	83 c0 4c	 add	 eax, 76			; 0000004cH
  00019	50		 push	 eax
  0001a	8b 4d 08	 mov	 ecx, DWORD PTR ___$ReturnUdt$[ebp]
  0001d	e8 00 00 00 00	 call	 ??0CInitParameter@@QAE@ABV0@@Z
  00022	8b 4d b8	 mov	 ecx, DWORD PTR $T1[ebp]
  00025	83 c9 01	 or	 ecx, 1
  00028	89 4d b8	 mov	 DWORD PTR $T1[ebp], ecx
  0002b	8b 45 08	 mov	 eax, DWORD PTR ___$ReturnUdt$[ebp]
  0002e	5f		 pop	 edi
  0002f	5e		 pop	 esi
  00030	5b		 pop	 ebx
  00031	8b e5		 mov	 esp, ebp
  00033	5d		 pop	 ebp
  00034	c2 04 00	 ret	 4
?GetInitParameter@CServiceUnits@@QAE?AVCInitParameter@@XZ ENDP ; CServiceUnits::GetInitParameter
_TEXT	ENDS
; Function compile flags: /Odtp /ZI
; File g:\网狐\happygamewh\服务端\系统模块\服务器组件\约战服务器\serviceunits.h
;	COMDAT ?GetServiceStatus@CServiceUnits@@QAE?AW4enServiceStatus@@XZ
_TEXT	SEGMENT
_this$ = -4						; size = 4
?GetServiceStatus@CServiceUnits@@QAE?AW4enServiceStatus@@XZ PROC ; CServiceUnits::GetServiceStatus, COMDAT
; _this$ = ecx

; 71   : 	enServiceStatus GetServiceStatus() { return m_ServiceStatus; }

  00000	55		 push	 ebp
  00001	8b ec		 mov	 ebp, esp
  00003	83 ec 44	 sub	 esp, 68			; 00000044H
  00006	53		 push	 ebx
  00007	56		 push	 esi
  00008	57		 push	 edi
  00009	89 4d fc	 mov	 DWORD PTR _this$[ebp], ecx
  0000c	8b 45 fc	 mov	 eax, DWORD PTR _this$[ebp]
  0000f	8b 40 04	 mov	 eax, DWORD PTR [eax+4]
  00012	5f		 pop	 edi
  00013	5e		 pop	 esi
  00014	5b		 pop	 ebx
  00015	8b e5		 mov	 esp, ebp
  00017	5d		 pop	 ebp
  00018	c3		 ret	 0
?GetServiceStatus@CServiceUnits@@QAE?AW4enServiceStatus@@XZ ENDP ; CServiceUnits::GetServiceStatus
_TEXT	ENDS
; Function compile flags: /Odtp /ZI
;	COMDAT ??0IServiceUnitsSink@@QAE@XZ
_TEXT	SEGMENT
_this$ = -4						; size = 4
??0IServiceUnitsSink@@QAE@XZ PROC			; IServiceUnitsSink::IServiceUnitsSink, COMDAT
; _this$ = ecx
  00000	55		 push	 ebp
  00001	8b ec		 mov	 ebp, esp
  00003	83 ec 44	 sub	 esp, 68			; 00000044H
  00006	53		 push	 ebx
  00007	56		 push	 esi
  00008	57		 push	 edi
  00009	89 4d fc	 mov	 DWORD PTR _this$[ebp], ecx
  0000c	8b 45 fc	 mov	 eax, DWORD PTR _this$[ebp]
  0000f	c7 00 00 00 00
	00		 mov	 DWORD PTR [eax], OFFSET ??_7IServiceUnitsSink@@6B@
  00015	8b 45 fc	 mov	 eax, DWORD PTR _this$[ebp]
  00018	5f		 pop	 edi
  00019	5e		 pop	 esi
  0001a	5b		 pop	 ebx
  0001b	8b e5		 mov	 esp, ebp
  0001d	5d		 pop	 ebp
  0001e	c3		 ret	 0
??0IServiceUnitsSink@@QAE@XZ ENDP			; IServiceUnitsSink::IServiceUnitsSink
_TEXT	ENDS
; Function compile flags: /Odtp /ZI
;	COMDAT ??_GCInitParameter@@UAEPAXI@Z
_TEXT	SEGMENT
_this$ = -4						; size = 4
___flags$ = 8						; size = 4
??_GCInitParameter@@UAEPAXI@Z PROC			; CInitParameter::`scalar deleting destructor', COMDAT
; _this$ = ecx
  00000	55		 push	 ebp
  00001	8b ec		 mov	 ebp, esp
  00003	83 ec 44	 sub	 esp, 68			; 00000044H
  00006	53		 push	 ebx
  00007	56		 push	 esi
  00008	57		 push	 edi
  00009	89 4d fc	 mov	 DWORD PTR _this$[ebp], ecx
  0000c	8b 4d fc	 mov	 ecx, DWORD PTR _this$[ebp]
  0000f	e8 00 00 00 00	 call	 ??1CInitParameter@@UAE@XZ ; CInitParameter::~CInitParameter
  00014	8b 45 08	 mov	 eax, DWORD PTR ___flags$[ebp]
  00017	83 e0 01	 and	 eax, 1
  0001a	74 0e		 je	 SHORT $LN2@scalar
  0001c	6a 2c		 push	 44			; 0000002cH
  0001e	8b 45 fc	 mov	 eax, DWORD PTR _this$[ebp]
  00021	50		 push	 eax
  00022	e8 00 00 00 00	 call	 ??3@YAXPAXI@Z		; operator delete
  00027	83 c4 08	 add	 esp, 8
$LN2@scalar:
  0002a	8b 45 fc	 mov	 eax, DWORD PTR _this$[ebp]
  0002d	5f		 pop	 edi
  0002e	5e		 pop	 esi
  0002f	5b		 pop	 ebx
  00030	8b e5		 mov	 esp, ebp
  00032	5d		 pop	 ebp
  00033	c2 04 00	 ret	 4
??_GCInitParameter@@UAEPAXI@Z ENDP			; CInitParameter::`scalar deleting destructor'
_TEXT	ENDS
; Function compile flags: /Odtp /ZI
;	COMDAT ??0CInitParameter@@QAE@ABV0@@Z
_TEXT	SEGMENT
_this$ = -4						; size = 4
___that$ = 8						; size = 4
??0CInitParameter@@QAE@ABV0@@Z PROC			; CInitParameter::CInitParameter, COMDAT
; _this$ = ecx
  00000	55		 push	 ebp
  00001	8b ec		 mov	 ebp, esp
  00003	83 ec 44	 sub	 esp, 68			; 00000044H
  00006	53		 push	 ebx
  00007	56		 push	 esi
  00008	57		 push	 edi
  00009	89 4d fc	 mov	 DWORD PTR _this$[ebp], ecx
  0000c	8b 45 fc	 mov	 eax, DWORD PTR _this$[ebp]
  0000f	c7 00 00 00 00
	00		 mov	 DWORD PTR [eax], OFFSET ??_7CInitParameter@@6B@
  00015	8b 45 fc	 mov	 eax, DWORD PTR _this$[ebp]
  00018	8b 4d 08	 mov	 ecx, DWORD PTR ___that$[ebp]
  0001b	66 8b 51 04	 mov	 dx, WORD PTR [ecx+4]
  0001f	66 89 50 04	 mov	 WORD PTR [eax+4], dx
  00023	8b 45 fc	 mov	 eax, DWORD PTR _this$[ebp]
  00026	8b 4d 08	 mov	 ecx, DWORD PTR ___that$[ebp]
  00029	66 8b 51 06	 mov	 dx, WORD PTR [ecx+6]
  0002d	66 89 50 06	 mov	 WORD PTR [eax+6], dx
  00031	8b 45 fc	 mov	 eax, DWORD PTR _this$[ebp]
  00034	8b 4d 08	 mov	 ecx, DWORD PTR ___that$[ebp]
  00037	66 8b 51 08	 mov	 dx, WORD PTR [ecx+8]
  0003b	66 89 50 08	 mov	 WORD PTR [eax+8], dx
  0003f	8b 75 08	 mov	 esi, DWORD PTR ___that$[ebp]
  00042	83 c6 0a	 add	 esi, 10			; 0000000aH
  00045	8b 7d fc	 mov	 edi, DWORD PTR _this$[ebp]
  00048	83 c7 0a	 add	 edi, 10			; 0000000aH
  0004b	b9 08 00 00 00	 mov	 ecx, 8
  00050	f3 a5		 rep movsd
  00052	8b 45 fc	 mov	 eax, DWORD PTR _this$[ebp]
  00055	5f		 pop	 edi
  00056	5e		 pop	 esi
  00057	5b		 pop	 ebx
  00058	8b e5		 mov	 esp, ebp
  0005a	5d		 pop	 ebp
  0005b	c2 04 00	 ret	 4
??0CInitParameter@@QAE@ABV0@@Z ENDP			; CInitParameter::CInitParameter
_TEXT	ENDS
; Function compile flags: /Odtp /ZI
; File c:\program files (x86)\microsoft visual studio\2017\community\vc\tools\msvc\14.16.27023\atlmfc\include\afx.h
;	COMDAT ?AfxAssertFailedLine@@YGHPBDH@Z
_TEXT	SEGMENT
_bResult$ = -36						; size = 4
_bQuit$ = -32						; size = 4
_msg$ = -28						; size = 28
_lpszFileName$ = 8					; size = 4
_nLine$ = 12						; size = 4
?AfxAssertFailedLine@@YGHPBDH@Z PROC			; AfxAssertFailedLine, COMDAT

; 312  : {

  00000	55		 push	 ebp
  00001	8b ec		 mov	 ebp, esp
  00003	83 ec 64	 sub	 esp, 100		; 00000064H
  00006	53		 push	 ebx
  00007	56		 push	 esi
  00008	57		 push	 edi

; 313  : 	// we remove WM_QUIT because if it is in the queue then the message box
; 314  : 	// won't display
; 315  : 	MSG msg;
; 316  : 	BOOL bQuit = PeekMessage(&msg, NULL, WM_QUIT, WM_QUIT, PM_REMOVE);

  00009	6a 01		 push	 1
  0000b	6a 12		 push	 18			; 00000012H
  0000d	6a 12		 push	 18			; 00000012H
  0000f	6a 00		 push	 0
  00011	8d 45 e4	 lea	 eax, DWORD PTR _msg$[ebp]
  00014	50		 push	 eax
  00015	ff 15 00 00 00
	00		 call	 DWORD PTR __imp__PeekMessageA@20
  0001b	89 45 e0	 mov	 DWORD PTR _bQuit$[ebp], eax

; 317  : 	BOOL bResult = _CrtDbgReport(_CRT_ASSERT, lpszFileName, nLine, NULL, NULL);

  0001e	6a 00		 push	 0
  00020	6a 00		 push	 0
  00022	8b 45 0c	 mov	 eax, DWORD PTR _nLine$[ebp]
  00025	50		 push	 eax
  00026	8b 4d 08	 mov	 ecx, DWORD PTR _lpszFileName$[ebp]
  00029	51		 push	 ecx
  0002a	6a 02		 push	 2
  0002c	ff 15 00 00 00
	00		 call	 DWORD PTR __imp___CrtDbgReport
  00032	83 c4 14	 add	 esp, 20			; 00000014H
  00035	89 45 dc	 mov	 DWORD PTR _bResult$[ebp], eax

; 318  : 	if (bQuit)

  00038	83 7d e0 00	 cmp	 DWORD PTR _bQuit$[ebp], 0
  0003c	74 0a		 je	 SHORT $LN2@AfxAssertF

; 319  : 		PostQuitMessage((int)msg.wParam);

  0003e	8b 45 ec	 mov	 eax, DWORD PTR _msg$[ebp+8]
  00041	50		 push	 eax
  00042	ff 15 00 00 00
	00		 call	 DWORD PTR __imp__PostQuitMessage@4
$LN2@AfxAssertF:

; 320  : 	return bResult;

  00048	8b 45 dc	 mov	 eax, DWORD PTR _bResult$[ebp]

; 321  : }

  0004b	5f		 pop	 edi
  0004c	5e		 pop	 esi
  0004d	5b		 pop	 ebx
  0004e	8b e5		 mov	 esp, ebp
  00050	5d		 pop	 ebp
  00051	c2 08 00	 ret	 8
?AfxAssertFailedLine@@YGHPBDH@Z ENDP			; AfxAssertFailedLine
_TEXT	ENDS
; Function compile flags: /Odtp /ZI
; File c:\program files (x86)\windows kits\10\include\10.0.17763.0\ucrt\stdio.h
;	COMDAT __snprintf
_TEXT	SEGMENT
__ArgList$ = -8						; size = 4
__Result$ = -4						; size = 4
__Buffer$ = 8						; size = 4
__BufferCount$ = 12					; size = 4
__Format$ = 16						; size = 4
__snprintf PROC						; COMDAT

; 1969 :     {

  00000	55		 push	 ebp
  00001	8b ec		 mov	 ebp, esp
  00003	83 ec 4c	 sub	 esp, 76			; 0000004cH
  00006	53		 push	 ebx
  00007	56		 push	 esi
  00008	57		 push	 edi

; 1970 :         int _Result;
; 1971 :         va_list _ArgList;
; 1972 :         __crt_va_start(_ArgList, _Format);

  00009	8d 45 14	 lea	 eax, DWORD PTR __Format$[ebp+4]
  0000c	89 45 f8	 mov	 DWORD PTR __ArgList$[ebp], eax

; 1973 :     #pragma warning(suppress:28719)    // 28719
; 1974 :         _Result = _vsnprintf(_Buffer, _BufferCount, _Format, _ArgList);

  0000f	8b 45 f8	 mov	 eax, DWORD PTR __ArgList$[ebp]
  00012	50		 push	 eax
  00013	8b 4d 10	 mov	 ecx, DWORD PTR __Format$[ebp]
  00016	51		 push	 ecx
  00017	8b 55 0c	 mov	 edx, DWORD PTR __BufferCount$[ebp]
  0001a	52		 push	 edx
  0001b	8b 45 08	 mov	 eax, DWORD PTR __Buffer$[ebp]
  0001e	50		 push	 eax
  0001f	e8 00 00 00 00	 call	 __vsnprintf
  00024	83 c4 10	 add	 esp, 16			; 00000010H
  00027	89 45 fc	 mov	 DWORD PTR __Result$[ebp], eax

; 1975 :         __crt_va_end(_ArgList);

  0002a	c7 45 f8 00 00
	00 00		 mov	 DWORD PTR __ArgList$[ebp], 0

; 1976 :         return _Result;

  00031	8b 45 fc	 mov	 eax, DWORD PTR __Result$[ebp]

; 1977 :     }

  00034	5f		 pop	 edi
  00035	5e		 pop	 esi
  00036	5b		 pop	 ebx
  00037	8b e5		 mov	 esp, ebp
  00039	5d		 pop	 ebp
  0003a	c3		 ret	 0
__snprintf ENDP
_TEXT	ENDS
; Function compile flags: /Odtp /ZI
; File c:\program files (x86)\windows kits\10\include\10.0.17763.0\ucrt\stdio.h
;	COMDAT __vsnprintf
_TEXT	SEGMENT
__Buffer$ = 8						; size = 4
__BufferCount$ = 12					; size = 4
__Format$ = 16						; size = 4
__ArgList$ = 20						; size = 4
__vsnprintf PROC					; COMDAT

; 1409 :     {

  00000	55		 push	 ebp
  00001	8b ec		 mov	 ebp, esp
  00003	83 ec 40	 sub	 esp, 64			; 00000040H
  00006	53		 push	 ebx
  00007	56		 push	 esi
  00008	57		 push	 edi

; 1410 :         #pragma warning(push)
; 1411 :         #pragma warning(disable: 4996) // Deprecation
; 1412 :         return _vsnprintf_l(_Buffer, _BufferCount, _Format, NULL, _ArgList);

  00009	8b 45 14	 mov	 eax, DWORD PTR __ArgList$[ebp]
  0000c	50		 push	 eax
  0000d	6a 00		 push	 0
  0000f	8b 4d 10	 mov	 ecx, DWORD PTR __Format$[ebp]
  00012	51		 push	 ecx
  00013	8b 55 0c	 mov	 edx, DWORD PTR __BufferCount$[ebp]
  00016	52		 push	 edx
  00017	8b 45 08	 mov	 eax, DWORD PTR __Buffer$[ebp]
  0001a	50		 push	 eax
  0001b	e8 00 00 00 00	 call	 __vsnprintf_l
  00020	83 c4 14	 add	 esp, 20			; 00000014H

; 1413 :         #pragma warning(pop)
; 1414 :     }

  00023	5f		 pop	 edi
  00024	5e		 pop	 esi
  00025	5b		 pop	 ebx
  00026	8b e5		 mov	 esp, ebp
  00028	5d		 pop	 ebp
  00029	c3		 ret	 0
__vsnprintf ENDP
_TEXT	ENDS
; Function compile flags: /Odtp /ZI
; File c:\program files (x86)\windows kits\10\include\10.0.17763.0\ucrt\stdio.h
;	COMDAT __vsnprintf_l
_TEXT	SEGMENT
tv74 = -72						; size = 4
__Result$ = -4						; size = 4
__Buffer$ = 8						; size = 4
__BufferCount$ = 12					; size = 4
__Format$ = 16						; size = 4
__Locale$ = 20						; size = 4
__ArgList$ = 24						; size = 4
__vsnprintf_l PROC					; COMDAT

; 1389 :     {

  00000	55		 push	 ebp
  00001	8b ec		 mov	 ebp, esp
  00003	83 ec 48	 sub	 esp, 72			; 00000048H
  00006	53		 push	 ebx
  00007	56		 push	 esi
  00008	57		 push	 edi

; 1390 :         int const _Result = __stdio_common_vsprintf(

  00009	8b 45 18	 mov	 eax, DWORD PTR __ArgList$[ebp]
  0000c	50		 push	 eax
  0000d	8b 4d 14	 mov	 ecx, DWORD PTR __Locale$[ebp]
  00010	51		 push	 ecx
  00011	8b 55 10	 mov	 edx, DWORD PTR __Format$[ebp]
  00014	52		 push	 edx
  00015	8b 45 0c	 mov	 eax, DWORD PTR __BufferCount$[ebp]
  00018	50		 push	 eax
  00019	8b 4d 08	 mov	 ecx, DWORD PTR __Buffer$[ebp]
  0001c	51		 push	 ecx
  0001d	e8 00 00 00 00	 call	 ___local_stdio_printf_options
  00022	8b 10		 mov	 edx, DWORD PTR [eax]
  00024	83 ca 01	 or	 edx, 1
  00027	8b 40 04	 mov	 eax, DWORD PTR [eax+4]
  0002a	50		 push	 eax
  0002b	52		 push	 edx
  0002c	ff 15 00 00 00
	00		 call	 DWORD PTR __imp____stdio_common_vsprintf
  00032	83 c4 1c	 add	 esp, 28			; 0000001cH
  00035	89 45 fc	 mov	 DWORD PTR __Result$[ebp], eax

; 1391 :             _CRT_INTERNAL_LOCAL_PRINTF_OPTIONS | _CRT_INTERNAL_PRINTF_LEGACY_VSPRINTF_NULL_TERMINATION,
; 1392 :             _Buffer, _BufferCount, _Format, _Locale, _ArgList);
; 1393 : 
; 1394 :         return _Result < 0 ? -1 : _Result;

  00038	83 7d fc 00	 cmp	 DWORD PTR __Result$[ebp], 0
  0003c	7d 09		 jge	 SHORT $LN3@vsnprintf_
  0003e	c7 45 b8 ff ff
	ff ff		 mov	 DWORD PTR tv74[ebp], -1
  00045	eb 06		 jmp	 SHORT $LN4@vsnprintf_
$LN3@vsnprintf_:
  00047	8b 45 fc	 mov	 eax, DWORD PTR __Result$[ebp]
  0004a	89 45 b8	 mov	 DWORD PTR tv74[ebp], eax
$LN4@vsnprintf_:
  0004d	8b 45 b8	 mov	 eax, DWORD PTR tv74[ebp]

; 1395 :     }

  00050	5f		 pop	 edi
  00051	5e		 pop	 esi
  00052	5b		 pop	 ebx
  00053	8b e5		 mov	 esp, ebp
  00055	5d		 pop	 ebp
  00056	c3		 ret	 0
__vsnprintf_l ENDP
_TEXT	ENDS
; Function compile flags: /Odtp /ZI
; File c:\program files (x86)\windows kits\10\include\10.0.17763.0\ucrt\corecrt_stdio_config.h
;	COMDAT ___local_stdio_printf_options
_TEXT	SEGMENT
___local_stdio_printf_options PROC			; COMDAT

; 86   :     {

  00000	55		 push	 ebp
  00001	8b ec		 mov	 ebp, esp
  00003	83 ec 40	 sub	 esp, 64			; 00000040H
  00006	53		 push	 ebx
  00007	56		 push	 esi
  00008	57		 push	 edi

; 87   :         static unsigned __int64 _OptionsStorage;
; 88   :         return &_OptionsStorage;

  00009	b8 00 00 00 00	 mov	 eax, OFFSET ?_OptionsStorage@?1??__local_stdio_printf_options@@9@4_KA ; `__local_stdio_printf_options'::`2'::_OptionsStorage

; 89   :     }

  0000e	5f		 pop	 edi
  0000f	5e		 pop	 esi
  00010	5b		 pop	 ebx
  00011	8b e5		 mov	 esp, ebp
  00013	5d		 pop	 ebp
  00014	c3		 ret	 0
___local_stdio_printf_options ENDP
_TEXT	ENDS
; Function compile flags: /Odtp /ZI
; File g:\网狐\happygamewh\服务端\系统模块\服务器组件\约战服务器\correspondserverdlg.cpp
;	COMDAT ?__empty_global_delete@@YAXPAXI@Z
_TEXT	SEGMENT
___formal$ = 8						; size = 4
___formal$ = 12						; size = 4
?__empty_global_delete@@YAXPAXI@Z PROC			; __empty_global_delete, COMDAT

  00000	55		 push	 ebp
  00001	8b ec		 mov	 ebp, esp
  00003	83 ec 40	 sub	 esp, 64			; 00000040H
  00006	53		 push	 ebx
  00007	56		 push	 esi
  00008	57		 push	 edi
  00009	5f		 pop	 edi
  0000a	5e		 pop	 esi
  0000b	5b		 pop	 ebx
  0000c	8b e5		 mov	 esp, ebp
  0000e	5d		 pop	 ebp
  0000f	c3		 ret	 0
?__empty_global_delete@@YAXPAXI@Z ENDP			; __empty_global_delete
_TEXT	ENDS
; Function compile flags: /Odtp /ZI
; File g:\网狐\happygamewh\服务端\系统模块\服务器组件\约战服务器\correspondserverdlg.cpp
;	COMDAT ?__empty_global_delete@@YAXPAX@Z
_TEXT	SEGMENT
___formal$ = 8						; size = 4
?__empty_global_delete@@YAXPAX@Z PROC			; __empty_global_delete, COMDAT

  00000	55		 push	 ebp
  00001	8b ec		 mov	 ebp, esp
  00003	83 ec 40	 sub	 esp, 64			; 00000040H
  00006	53		 push	 ebx
  00007	56		 push	 esi
  00008	57		 push	 edi
  00009	5f		 pop	 edi
  0000a	5e		 pop	 esi
  0000b	5b		 pop	 ebx
  0000c	8b e5		 mov	 esp, ebp
  0000e	5d		 pop	 ebp
  0000f	c3		 ret	 0
?__empty_global_delete@@YAXPAX@Z ENDP			; __empty_global_delete
_TEXT	ENDS
END
