; Listing generated by Microsoft (R) Optimizing Compiler Version 19.16.27032.1 

	TITLE	G:\网狐\HappyGameWH\服务端\系统模块\服务器组件\约战服务器\GlobalInfoManager.cpp
	.686P
	.XMM
	include listing.inc
	.model	flat

INCLUDELIB MSVCRTD
INCLUDELIB OLDNAMES

PUBLIC	?__empty_global_delete@@YAXPAX@Z		; __empty_global_delete
PUBLIC	?__empty_global_delete@@YAXPAXI@Z		; __empty_global_delete
PUBLIC	??2@YAPAXIPAX@Z					; operator new
PUBLIC	?AfxAssertFailedLine@@YGHPBDH@Z			; AfxAssertFailedLine
PUBLIC	?data@CPlex@@QAEPAXXZ				; CPlex::data
PUBLIC	??$HashKey@K@@YGIK@Z				; HashKey<unsigned long>
PUBLIC	?max@?$numeric_limits@H@std@@SAHXZ		; std::numeric_limits<int>::max
PUBLIC	??0_Container_proxy@std@@QAE@XZ			; std::_Container_proxy::_Container_proxy
PUBLIC	??0_Container_base12@std@@QAE@XZ		; std::_Container_base12::_Container_base12
PUBLIC	?_Getpfirst@_Container_base12@std@@QBEPAPAU_Iterator_base12@2@XZ ; std::_Container_base12::_Getpfirst
PUBLIC	?_Orphan_all@_Container_base12@std@@QAEXXZ	; std::_Container_base12::_Orphan_all
PUBLIC	??0_Iterator_base12@std@@QAE@XZ			; std::_Iterator_base12::_Iterator_base12
PUBLIC	??0_Iterator_base12@std@@QAE@ABU01@@Z		; std::_Iterator_base12::_Iterator_base12
PUBLIC	??4_Iterator_base12@std@@QAEAAU01@ABU01@@Z	; std::_Iterator_base12::operator=
PUBLIC	??1_Iterator_base12@std@@QAE@XZ			; std::_Iterator_base12::~_Iterator_base12
PUBLIC	?_Adopt@_Iterator_base12@std@@QAEXPBU_Container_base12@2@@Z ; std::_Iterator_base12::_Adopt
PUBLIC	?_Clrcont@_Iterator_base12@std@@QAEXXZ		; std::_Iterator_base12::_Clrcont
PUBLIC	?_Getcont@_Iterator_base12@std@@QBEPBU_Container_base12@2@XZ ; std::_Iterator_base12::_Getcont
PUBLIC	?_Getpnext@_Iterator_base12@std@@QAEPAPAU12@XZ	; std::_Iterator_base12::_Getpnext
PUBLIC	?_Orphan_me@_Iterator_base12@std@@QAEXXZ	; std::_Iterator_base12::_Orphan_me
PUBLIC	?_Allocate@_Default_allocate_traits@std@@SAPAXI@Z ; std::_Default_allocate_traits::_Allocate
PUBLIC	?_Adjust_manually_vector_aligned@std@@YAXAAPAXAAI@Z ; std::_Adjust_manually_vector_aligned
PUBLIC	??$_Min_value@I@std@@YAABIABI0@Z		; std::_Min_value<unsigned int>
PUBLIC	??$_Allocate@$07U_Default_allocate_traits@std@@$0A@@std@@YAPAXI@Z ; std::_Allocate<8,std::_Default_allocate_traits,0>
PUBLIC	??$_Deallocate@$07$0A@@std@@YAXPAXI@Z		; std::_Deallocate<8,0>
PUBLIC	?allocate@?$allocator@U_Container_proxy@std@@@std@@QAEPAU_Container_proxy@2@I@Z ; std::allocator<std::_Container_proxy>::allocate
PUBLIC	?deallocate@?$_Default_allocator_traits@V?$allocator@U_Container_proxy@std@@@std@@@std@@SAXAAV?$allocator@U_Container_proxy@std@@@2@QAU_Container_proxy@2@I@Z ; std::_Default_allocator_traits<std::allocator<std::_Container_proxy> >::deallocate
PUBLIC	??$destroy@U_Container_proxy@std@@@?$_Default_allocator_traits@V?$allocator@U_Container_proxy@std@@@std@@@std@@SAXAAV?$allocator@U_Container_proxy@std@@@1@QAU_Container_proxy@1@@Z ; std::_Default_allocator_traits<std::allocator<std::_Container_proxy> >::destroy<std::_Container_proxy>
PUBLIC	??$_Deallocate_plain@V?$allocator@U_Container_proxy@std@@@std@@$0A@@std@@YAXAAV?$allocator@U_Container_proxy@std@@@0@QAU_Container_proxy@0@@Z ; std::_Deallocate_plain<std::allocator<std::_Container_proxy>,0>
PUBLIC	??$_Unfancy@U_Container_proxy@std@@@std@@YAPAU_Container_proxy@0@PAU10@@Z ; std::_Unfancy<std::_Container_proxy>
PUBLIC	??$construct@U_Container_proxy@std@@U12@@?$_Default_allocator_traits@V?$allocator@U_Container_proxy@std@@@std@@@std@@SAXAAV?$allocator@U_Container_proxy@std@@@1@QAU_Container_proxy@1@$$QAU31@@Z ; std::_Default_allocator_traits<std::allocator<std::_Container_proxy> >::construct<std::_Container_proxy,std::_Container_proxy>
PUBLIC	??$_Get_size_of_n@$07@std@@YAII@Z		; std::_Get_size_of_n<8>
PUBLIC	??$_Allocate_manually_vector_aligned@U_Default_allocate_traits@std@@@std@@YAPAXI@Z ; std::_Allocate_manually_vector_aligned<std::_Default_allocate_traits>
PUBLIC	??$forward@U_Container_proxy@std@@@std@@YA$$QAU_Container_proxy@0@AAU10@@Z ; std::forward<std::_Container_proxy>
PUBLIC	??0?$CWHArray@PAVCGlobalServerItem@@ABQAV1@@@QAE@XZ ; CWHArray<CGlobalServerItem *,CGlobalServerItem * const &>::CWHArray<CGlobalServerItem *,CGlobalServerItem * const &>
PUBLIC	??1?$CWHArray@PAVCGlobalServerItem@@ABQAV1@@@UAE@XZ ; CWHArray<CGlobalServerItem *,CGlobalServerItem * const &>::~CWHArray<CGlobalServerItem *,CGlobalServerItem * const &>
PUBLIC	?GetCount@?$CWHArray@PAVCGlobalServerItem@@ABQAV1@@@QBEHXZ ; CWHArray<CGlobalServerItem *,CGlobalServerItem * const &>::GetCount
PUBLIC	?Add@?$CWHArray@PAVCGlobalServerItem@@ABQAV1@@@QAEHABQAVCGlobalServerItem@@@Z ; CWHArray<CGlobalServerItem *,CGlobalServerItem * const &>::Add
PUBLIC	?ElementAt@?$CWHArray@PAVCGlobalServerItem@@ABQAV1@@@QAEAAPAVCGlobalServerItem@@H@Z ; CWHArray<CGlobalServerItem *,CGlobalServerItem * const &>::ElementAt
PUBLIC	?SetSize@?$CWHArray@PAVCGlobalServerItem@@ABQAV1@@@QAEXH@Z ; CWHArray<CGlobalServerItem *,CGlobalServerItem * const &>::SetSize
PUBLIC	?SetAtGrow@?$CWHArray@PAVCGlobalServerItem@@ABQAV1@@@QAEXHABQAVCGlobalServerItem@@@Z ; CWHArray<CGlobalServerItem *,CGlobalServerItem * const &>::SetAtGrow
PUBLIC	?RemoveAt@?$CWHArray@PAVCGlobalServerItem@@ABQAV1@@@QAEXHH@Z ; CWHArray<CGlobalServerItem *,CGlobalServerItem * const &>::RemoveAt
PUBLIC	?RemoveAll@?$CWHArray@PAVCGlobalServerItem@@ABQAV1@@@QAEXXZ ; CWHArray<CGlobalServerItem *,CGlobalServerItem * const &>::RemoveAll
PUBLIC	??A?$CWHArray@PAVCGlobalServerItem@@ABQAV1@@@QAEAAPAVCGlobalServerItem@@H@Z ; CWHArray<CGlobalServerItem *,CGlobalServerItem * const &>::operator[]
PUBLIC	?AllocMemory@?$CWHArray@PAVCGlobalServerItem@@ABQAV1@@@QAEXH@Z ; CWHArray<CGlobalServerItem *,CGlobalServerItem * const &>::AllocMemory
PUBLIC	??_G?$CWHArray@PAVCGlobalServerItem@@ABQAV1@@@UAEPAXI@Z ; CWHArray<CGlobalServerItem *,CGlobalServerItem * const &>::`scalar deleting destructor'
PUBLIC	??0CGlobalUserItem@@IAE@XZ			; CGlobalUserItem::CGlobalUserItem
PUBLIC	??1CGlobalUserItem@@MAE@XZ			; CGlobalUserItem::~CGlobalUserItem
PUBLIC	?GetGameID@CGlobalUserItem@@QAEKXZ		; CGlobalUserItem::GetGameID
PUBLIC	?GetNickName@CGlobalUserItem@@QAEPBDXZ		; CGlobalUserItem::GetNickName
PUBLIC	?UpdateStatus@CGlobalUserItem@@QAEXGGE@Z	; CGlobalUserItem::UpdateStatus
PUBLIC	?EnumServerItem@CGlobalUserItem@@QAEPAVCGlobalServerItem@@G@Z ; CGlobalUserItem::EnumServerItem
PUBLIC	??_GCGlobalUserItem@@MAEPAXI@Z			; CGlobalUserItem::`scalar deleting destructor'
PUBLIC	??0?$CMap@KKPAVCGlobalUserItem@@PAV1@@@QAE@H@Z	; CMap<unsigned long,unsigned long,CGlobalUserItem *,CGlobalUserItem *>::CMap<unsigned long,unsigned long,CGlobalUserItem *,CGlobalUserItem *>
PUBLIC	?Lookup@?$CMap@KKPAVCGlobalUserItem@@PAV1@@@QBEHKAAPAVCGlobalUserItem@@@Z ; CMap<unsigned long,unsigned long,CGlobalUserItem *,CGlobalUserItem *>::Lookup
PUBLIC	??A?$CMap@KKPAVCGlobalUserItem@@PAV1@@@QAEAAPAVCGlobalUserItem@@K@Z ; CMap<unsigned long,unsigned long,CGlobalUserItem *,CGlobalUserItem *>::operator[]
PUBLIC	?SetAt@?$CMap@KKPAVCGlobalUserItem@@PAV1@@@QAEXKPAVCGlobalUserItem@@@Z ; CMap<unsigned long,unsigned long,CGlobalUserItem *,CGlobalUserItem *>::SetAt
PUBLIC	?RemoveKey@?$CMap@KKPAVCGlobalUserItem@@PAV1@@@QAEHK@Z ; CMap<unsigned long,unsigned long,CGlobalUserItem *,CGlobalUserItem *>::RemoveKey
PUBLIC	?RemoveAll@?$CMap@KKPAVCGlobalUserItem@@PAV1@@@QAEXXZ ; CMap<unsigned long,unsigned long,CGlobalUserItem *,CGlobalUserItem *>::RemoveAll
PUBLIC	?GetStartPosition@?$CMap@KKPAVCGlobalUserItem@@PAV1@@@QBEPAU__POSITION@@XZ ; CMap<unsigned long,unsigned long,CGlobalUserItem *,CGlobalUserItem *>::GetStartPosition
PUBLIC	?GetNextAssoc@?$CMap@KKPAVCGlobalUserItem@@PAV1@@@QBEXAAPAU__POSITION@@AAKAAPAVCGlobalUserItem@@@Z ; CMap<unsigned long,unsigned long,CGlobalUserItem *,CGlobalUserItem *>::GetNextAssoc
PUBLIC	?InitHashTable@?$CMap@KKPAVCGlobalUserItem@@PAV1@@@QAEXIH@Z ; CMap<unsigned long,unsigned long,CGlobalUserItem *,CGlobalUserItem *>::InitHashTable
PUBLIC	?NewAssoc@?$CMap@KKPAVCGlobalUserItem@@PAV1@@@IAEPAVCAssoc@1@K@Z ; CMap<unsigned long,unsigned long,CGlobalUserItem *,CGlobalUserItem *>::NewAssoc
PUBLIC	?FreeAssoc@?$CMap@KKPAVCGlobalUserItem@@PAV1@@@IAEXPAVCAssoc@1@@Z ; CMap<unsigned long,unsigned long,CGlobalUserItem *,CGlobalUserItem *>::FreeAssoc
PUBLIC	?GetAssocAt@?$CMap@KKPAVCGlobalUserItem@@PAV1@@@IBEPAVCAssoc@1@KAAI0@Z ; CMap<unsigned long,unsigned long,CGlobalUserItem *,CGlobalUserItem *>::GetAssocAt
PUBLIC	??1?$CMap@KKPAVCGlobalUserItem@@PAV1@@@UAE@XZ	; CMap<unsigned long,unsigned long,CGlobalUserItem *,CGlobalUserItem *>::~CMap<unsigned long,unsigned long,CGlobalUserItem *,CGlobalUserItem *>
PUBLIC	?Serialize@?$CMap@KKPAVCGlobalUserItem@@PAV1@@@UAEXAAVCArchive@@@Z ; CMap<unsigned long,unsigned long,CGlobalUserItem *,CGlobalUserItem *>::Serialize
PUBLIC	?Dump@?$CMap@KKPAVCGlobalUserItem@@PAV1@@@UBEXAAVCDumpContext@@@Z ; CMap<unsigned long,unsigned long,CGlobalUserItem *,CGlobalUserItem *>::Dump
PUBLIC	?AssertValid@?$CMap@KKPAVCGlobalUserItem@@PAV1@@@UBEXXZ ; CMap<unsigned long,unsigned long,CGlobalUserItem *,CGlobalUserItem *>::AssertValid
PUBLIC	??_G?$CMap@KKPAVCGlobalUserItem@@PAV1@@@UAEPAXI@Z ; CMap<unsigned long,unsigned long,CGlobalUserItem *,CGlobalUserItem *>::`scalar deleting destructor'
PUBLIC	??0CGlobalPlazaItem@@IAE@XZ			; CGlobalPlazaItem::CGlobalPlazaItem
PUBLIC	??1CGlobalPlazaItem@@MAE@XZ			; CGlobalPlazaItem::~CGlobalPlazaItem
PUBLIC	??_GCGlobalPlazaItem@@MAEPAXI@Z			; CGlobalPlazaItem::`scalar deleting destructor'
PUBLIC	??0CGlobalServerItem@@IAE@XZ			; CGlobalServerItem::CGlobalServerItem
PUBLIC	??1CGlobalServerItem@@MAE@XZ			; CGlobalServerItem::~CGlobalServerItem
PUBLIC	?GetKindID@CGlobalServerItem@@QAEGXZ		; CGlobalServerItem::GetKindID
PUBLIC	?GetServerID@CGlobalServerItem@@QAEGXZ		; CGlobalServerItem::GetServerID
PUBLIC	?GetTabelCount@CGlobalServerItem@@QAEGXZ	; CGlobalServerItem::GetTabelCount
PUBLIC	?SearchUserItem@CGlobalServerItem@@QAEPAVCGlobalUserItem@@K@Z ; CGlobalServerItem::SearchUserItem
PUBLIC	??_GCGlobalServerItem@@MAEPAXI@Z		; CGlobalServerItem::`scalar deleting destructor'
PUBLIC	??0CGlobalChatItem@@IAE@XZ			; CGlobalChatItem::CGlobalChatItem
PUBLIC	??1CGlobalChatItem@@MAE@XZ			; CGlobalChatItem::~CGlobalChatItem
PUBLIC	??_GCGlobalChatItem@@MAEPAXI@Z			; CGlobalChatItem::`scalar deleting destructor'
PUBLIC	??0?$CMap@GGPAVCGlobalPlazaItem@@PAV1@@@QAE@H@Z	; CMap<unsigned short,unsigned short,CGlobalPlazaItem *,CGlobalPlazaItem *>::CMap<unsigned short,unsigned short,CGlobalPlazaItem *,CGlobalPlazaItem *>
PUBLIC	?Lookup@?$CMap@GGPAVCGlobalPlazaItem@@PAV1@@@QBEHGAAPAVCGlobalPlazaItem@@@Z ; CMap<unsigned short,unsigned short,CGlobalPlazaItem *,CGlobalPlazaItem *>::Lookup
PUBLIC	??A?$CMap@GGPAVCGlobalPlazaItem@@PAV1@@@QAEAAPAVCGlobalPlazaItem@@G@Z ; CMap<unsigned short,unsigned short,CGlobalPlazaItem *,CGlobalPlazaItem *>::operator[]
PUBLIC	?SetAt@?$CMap@GGPAVCGlobalPlazaItem@@PAV1@@@QAEXGPAVCGlobalPlazaItem@@@Z ; CMap<unsigned short,unsigned short,CGlobalPlazaItem *,CGlobalPlazaItem *>::SetAt
PUBLIC	?RemoveKey@?$CMap@GGPAVCGlobalPlazaItem@@PAV1@@@QAEHG@Z ; CMap<unsigned short,unsigned short,CGlobalPlazaItem *,CGlobalPlazaItem *>::RemoveKey
PUBLIC	?RemoveAll@?$CMap@GGPAVCGlobalPlazaItem@@PAV1@@@QAEXXZ ; CMap<unsigned short,unsigned short,CGlobalPlazaItem *,CGlobalPlazaItem *>::RemoveAll
PUBLIC	?GetStartPosition@?$CMap@GGPAVCGlobalPlazaItem@@PAV1@@@QBEPAU__POSITION@@XZ ; CMap<unsigned short,unsigned short,CGlobalPlazaItem *,CGlobalPlazaItem *>::GetStartPosition
PUBLIC	?GetNextAssoc@?$CMap@GGPAVCGlobalPlazaItem@@PAV1@@@QBEXAAPAU__POSITION@@AAGAAPAVCGlobalPlazaItem@@@Z ; CMap<unsigned short,unsigned short,CGlobalPlazaItem *,CGlobalPlazaItem *>::GetNextAssoc
PUBLIC	?InitHashTable@?$CMap@GGPAVCGlobalPlazaItem@@PAV1@@@QAEXIH@Z ; CMap<unsigned short,unsigned short,CGlobalPlazaItem *,CGlobalPlazaItem *>::InitHashTable
PUBLIC	?NewAssoc@?$CMap@GGPAVCGlobalPlazaItem@@PAV1@@@IAEPAVCAssoc@1@G@Z ; CMap<unsigned short,unsigned short,CGlobalPlazaItem *,CGlobalPlazaItem *>::NewAssoc
PUBLIC	?FreeAssoc@?$CMap@GGPAVCGlobalPlazaItem@@PAV1@@@IAEXPAVCAssoc@1@@Z ; CMap<unsigned short,unsigned short,CGlobalPlazaItem *,CGlobalPlazaItem *>::FreeAssoc
PUBLIC	?GetAssocAt@?$CMap@GGPAVCGlobalPlazaItem@@PAV1@@@IBEPAVCAssoc@1@GAAI0@Z ; CMap<unsigned short,unsigned short,CGlobalPlazaItem *,CGlobalPlazaItem *>::GetAssocAt
PUBLIC	??1?$CMap@GGPAVCGlobalPlazaItem@@PAV1@@@UAE@XZ	; CMap<unsigned short,unsigned short,CGlobalPlazaItem *,CGlobalPlazaItem *>::~CMap<unsigned short,unsigned short,CGlobalPlazaItem *,CGlobalPlazaItem *>
PUBLIC	?Serialize@?$CMap@GGPAVCGlobalPlazaItem@@PAV1@@@UAEXAAVCArchive@@@Z ; CMap<unsigned short,unsigned short,CGlobalPlazaItem *,CGlobalPlazaItem *>::Serialize
PUBLIC	?Dump@?$CMap@GGPAVCGlobalPlazaItem@@PAV1@@@UBEXAAVCDumpContext@@@Z ; CMap<unsigned short,unsigned short,CGlobalPlazaItem *,CGlobalPlazaItem *>::Dump
PUBLIC	?AssertValid@?$CMap@GGPAVCGlobalPlazaItem@@PAV1@@@UBEXXZ ; CMap<unsigned short,unsigned short,CGlobalPlazaItem *,CGlobalPlazaItem *>::AssertValid
PUBLIC	??_G?$CMap@GGPAVCGlobalPlazaItem@@PAV1@@@UAEPAXI@Z ; CMap<unsigned short,unsigned short,CGlobalPlazaItem *,CGlobalPlazaItem *>::`scalar deleting destructor'
PUBLIC	??0?$CMap@GGPAVCGlobalServerItem@@PAV1@@@QAE@H@Z ; CMap<unsigned short,unsigned short,CGlobalServerItem *,CGlobalServerItem *>::CMap<unsigned short,unsigned short,CGlobalServerItem *,CGlobalServerItem *>
PUBLIC	?Lookup@?$CMap@GGPAVCGlobalServerItem@@PAV1@@@QBEHGAAPAVCGlobalServerItem@@@Z ; CMap<unsigned short,unsigned short,CGlobalServerItem *,CGlobalServerItem *>::Lookup
PUBLIC	??A?$CMap@GGPAVCGlobalServerItem@@PAV1@@@QAEAAPAVCGlobalServerItem@@G@Z ; CMap<unsigned short,unsigned short,CGlobalServerItem *,CGlobalServerItem *>::operator[]
PUBLIC	?SetAt@?$CMap@GGPAVCGlobalServerItem@@PAV1@@@QAEXGPAVCGlobalServerItem@@@Z ; CMap<unsigned short,unsigned short,CGlobalServerItem *,CGlobalServerItem *>::SetAt
PUBLIC	?RemoveKey@?$CMap@GGPAVCGlobalServerItem@@PAV1@@@QAEHG@Z ; CMap<unsigned short,unsigned short,CGlobalServerItem *,CGlobalServerItem *>::RemoveKey
PUBLIC	?RemoveAll@?$CMap@GGPAVCGlobalServerItem@@PAV1@@@QAEXXZ ; CMap<unsigned short,unsigned short,CGlobalServerItem *,CGlobalServerItem *>::RemoveAll
PUBLIC	?GetStartPosition@?$CMap@GGPAVCGlobalServerItem@@PAV1@@@QBEPAU__POSITION@@XZ ; CMap<unsigned short,unsigned short,CGlobalServerItem *,CGlobalServerItem *>::GetStartPosition
PUBLIC	?GetNextAssoc@?$CMap@GGPAVCGlobalServerItem@@PAV1@@@QBEXAAPAU__POSITION@@AAGAAPAVCGlobalServerItem@@@Z ; CMap<unsigned short,unsigned short,CGlobalServerItem *,CGlobalServerItem *>::GetNextAssoc
PUBLIC	?InitHashTable@?$CMap@GGPAVCGlobalServerItem@@PAV1@@@QAEXIH@Z ; CMap<unsigned short,unsigned short,CGlobalServerItem *,CGlobalServerItem *>::InitHashTable
PUBLIC	?NewAssoc@?$CMap@GGPAVCGlobalServerItem@@PAV1@@@IAEPAVCAssoc@1@G@Z ; CMap<unsigned short,unsigned short,CGlobalServerItem *,CGlobalServerItem *>::NewAssoc
PUBLIC	?FreeAssoc@?$CMap@GGPAVCGlobalServerItem@@PAV1@@@IAEXPAVCAssoc@1@@Z ; CMap<unsigned short,unsigned short,CGlobalServerItem *,CGlobalServerItem *>::FreeAssoc
PUBLIC	?GetAssocAt@?$CMap@GGPAVCGlobalServerItem@@PAV1@@@IBEPAVCAssoc@1@GAAI0@Z ; CMap<unsigned short,unsigned short,CGlobalServerItem *,CGlobalServerItem *>::GetAssocAt
PUBLIC	??1?$CMap@GGPAVCGlobalServerItem@@PAV1@@@UAE@XZ	; CMap<unsigned short,unsigned short,CGlobalServerItem *,CGlobalServerItem *>::~CMap<unsigned short,unsigned short,CGlobalServerItem *,CGlobalServerItem *>
PUBLIC	?Serialize@?$CMap@GGPAVCGlobalServerItem@@PAV1@@@UAEXAAVCArchive@@@Z ; CMap<unsigned short,unsigned short,CGlobalServerItem *,CGlobalServerItem *>::Serialize
PUBLIC	?Dump@?$CMap@GGPAVCGlobalServerItem@@PAV1@@@UBEXAAVCDumpContext@@@Z ; CMap<unsigned short,unsigned short,CGlobalServerItem *,CGlobalServerItem *>::Dump
PUBLIC	?AssertValid@?$CMap@GGPAVCGlobalServerItem@@PAV1@@@UBEXXZ ; CMap<unsigned short,unsigned short,CGlobalServerItem *,CGlobalServerItem *>::AssertValid
PUBLIC	??_G?$CMap@GGPAVCGlobalServerItem@@PAV1@@@UAEPAXI@Z ; CMap<unsigned short,unsigned short,CGlobalServerItem *,CGlobalServerItem *>::`scalar deleting destructor'
PUBLIC	??0?$CMap@GGPAVCGlobalChatItem@@PAV1@@@QAE@H@Z	; CMap<unsigned short,unsigned short,CGlobalChatItem *,CGlobalChatItem *>::CMap<unsigned short,unsigned short,CGlobalChatItem *,CGlobalChatItem *>
PUBLIC	?Lookup@?$CMap@GGPAVCGlobalChatItem@@PAV1@@@QBEHGAAPAVCGlobalChatItem@@@Z ; CMap<unsigned short,unsigned short,CGlobalChatItem *,CGlobalChatItem *>::Lookup
PUBLIC	??A?$CMap@GGPAVCGlobalChatItem@@PAV1@@@QAEAAPAVCGlobalChatItem@@G@Z ; CMap<unsigned short,unsigned short,CGlobalChatItem *,CGlobalChatItem *>::operator[]
PUBLIC	?SetAt@?$CMap@GGPAVCGlobalChatItem@@PAV1@@@QAEXGPAVCGlobalChatItem@@@Z ; CMap<unsigned short,unsigned short,CGlobalChatItem *,CGlobalChatItem *>::SetAt
PUBLIC	?RemoveKey@?$CMap@GGPAVCGlobalChatItem@@PAV1@@@QAEHG@Z ; CMap<unsigned short,unsigned short,CGlobalChatItem *,CGlobalChatItem *>::RemoveKey
PUBLIC	?RemoveAll@?$CMap@GGPAVCGlobalChatItem@@PAV1@@@QAEXXZ ; CMap<unsigned short,unsigned short,CGlobalChatItem *,CGlobalChatItem *>::RemoveAll
PUBLIC	?GetStartPosition@?$CMap@GGPAVCGlobalChatItem@@PAV1@@@QBEPAU__POSITION@@XZ ; CMap<unsigned short,unsigned short,CGlobalChatItem *,CGlobalChatItem *>::GetStartPosition
PUBLIC	?GetNextAssoc@?$CMap@GGPAVCGlobalChatItem@@PAV1@@@QBEXAAPAU__POSITION@@AAGAAPAVCGlobalChatItem@@@Z ; CMap<unsigned short,unsigned short,CGlobalChatItem *,CGlobalChatItem *>::GetNextAssoc
PUBLIC	?InitHashTable@?$CMap@GGPAVCGlobalChatItem@@PAV1@@@QAEXIH@Z ; CMap<unsigned short,unsigned short,CGlobalChatItem *,CGlobalChatItem *>::InitHashTable
PUBLIC	?NewAssoc@?$CMap@GGPAVCGlobalChatItem@@PAV1@@@IAEPAVCAssoc@1@G@Z ; CMap<unsigned short,unsigned short,CGlobalChatItem *,CGlobalChatItem *>::NewAssoc
PUBLIC	?FreeAssoc@?$CMap@GGPAVCGlobalChatItem@@PAV1@@@IAEXPAVCAssoc@1@@Z ; CMap<unsigned short,unsigned short,CGlobalChatItem *,CGlobalChatItem *>::FreeAssoc
PUBLIC	?GetAssocAt@?$CMap@GGPAVCGlobalChatItem@@PAV1@@@IBEPAVCAssoc@1@GAAI0@Z ; CMap<unsigned short,unsigned short,CGlobalChatItem *,CGlobalChatItem *>::GetAssocAt
PUBLIC	??1?$CMap@GGPAVCGlobalChatItem@@PAV1@@@UAE@XZ	; CMap<unsigned short,unsigned short,CGlobalChatItem *,CGlobalChatItem *>::~CMap<unsigned short,unsigned short,CGlobalChatItem *,CGlobalChatItem *>
PUBLIC	?Serialize@?$CMap@GGPAVCGlobalChatItem@@PAV1@@@UAEXAAVCArchive@@@Z ; CMap<unsigned short,unsigned short,CGlobalChatItem *,CGlobalChatItem *>::Serialize
PUBLIC	?Dump@?$CMap@GGPAVCGlobalChatItem@@PAV1@@@UBEXAAVCDumpContext@@@Z ; CMap<unsigned short,unsigned short,CGlobalChatItem *,CGlobalChatItem *>::Dump
PUBLIC	?AssertValid@?$CMap@GGPAVCGlobalChatItem@@PAV1@@@UBEXXZ ; CMap<unsigned short,unsigned short,CGlobalChatItem *,CGlobalChatItem *>::AssertValid
PUBLIC	??_G?$CMap@GGPAVCGlobalChatItem@@PAV1@@@UAEPAXI@Z ; CMap<unsigned short,unsigned short,CGlobalChatItem *,CGlobalChatItem *>::`scalar deleting destructor'
PUBLIC	??0?$CWHArray@PAUtagServerTableCount@@ABQAU1@@@QAE@XZ ; CWHArray<tagServerTableCount *,tagServerTableCount * const &>::CWHArray<tagServerTableCount *,tagServerTableCount * const &>
PUBLIC	??1?$CWHArray@PAUtagServerTableCount@@ABQAU1@@@UAE@XZ ; CWHArray<tagServerTableCount *,tagServerTableCount * const &>::~CWHArray<tagServerTableCount *,tagServerTableCount * const &>
PUBLIC	?GetCount@?$CWHArray@PAUtagServerTableCount@@ABQAU1@@@QBEHXZ ; CWHArray<tagServerTableCount *,tagServerTableCount * const &>::GetCount
PUBLIC	?Add@?$CWHArray@PAUtagServerTableCount@@ABQAU1@@@QAEHABQAUtagServerTableCount@@@Z ; CWHArray<tagServerTableCount *,tagServerTableCount * const &>::Add
PUBLIC	?GetAt@?$CWHArray@PAUtagServerTableCount@@ABQAU1@@@QAEAAPAUtagServerTableCount@@H@Z ; CWHArray<tagServerTableCount *,tagServerTableCount * const &>::GetAt
PUBLIC	?SetSize@?$CWHArray@PAUtagServerTableCount@@ABQAU1@@@QAEXH@Z ; CWHArray<tagServerTableCount *,tagServerTableCount * const &>::SetSize
PUBLIC	?SetAtGrow@?$CWHArray@PAUtagServerTableCount@@ABQAU1@@@QAEXHABQAUtagServerTableCount@@@Z ; CWHArray<tagServerTableCount *,tagServerTableCount * const &>::SetAtGrow
PUBLIC	?RemoveAt@?$CWHArray@PAUtagServerTableCount@@ABQAU1@@@QAEXHH@Z ; CWHArray<tagServerTableCount *,tagServerTableCount * const &>::RemoveAt
PUBLIC	?RemoveAll@?$CWHArray@PAUtagServerTableCount@@ABQAU1@@@QAEXXZ ; CWHArray<tagServerTableCount *,tagServerTableCount * const &>::RemoveAll
PUBLIC	?AllocMemory@?$CWHArray@PAUtagServerTableCount@@ABQAU1@@@QAEXH@Z ; CWHArray<tagServerTableCount *,tagServerTableCount * const &>::AllocMemory
PUBLIC	??_G?$CWHArray@PAUtagServerTableCount@@ABQAU1@@@UAEPAXI@Z ; CWHArray<tagServerTableCount *,tagServerTableCount * const &>::`scalar deleting destructor'
PUBLIC	??0?$CMap@KKPAUtagPersonalTableInfo@@AAPAU1@@@QAE@H@Z ; CMap<unsigned long,unsigned long,tagPersonalTableInfo *,tagPersonalTableInfo * &>::CMap<unsigned long,unsigned long,tagPersonalTableInfo *,tagPersonalTableInfo * &>
PUBLIC	?Lookup@?$CMap@KKPAUtagPersonalTableInfo@@AAPAU1@@@QBEHKAAPAUtagPersonalTableInfo@@@Z ; CMap<unsigned long,unsigned long,tagPersonalTableInfo *,tagPersonalTableInfo * &>::Lookup
PUBLIC	??A?$CMap@KKPAUtagPersonalTableInfo@@AAPAU1@@@QAEAAPAUtagPersonalTableInfo@@K@Z ; CMap<unsigned long,unsigned long,tagPersonalTableInfo *,tagPersonalTableInfo * &>::operator[]
PUBLIC	?SetAt@?$CMap@KKPAUtagPersonalTableInfo@@AAPAU1@@@QAEXKAAPAUtagPersonalTableInfo@@@Z ; CMap<unsigned long,unsigned long,tagPersonalTableInfo *,tagPersonalTableInfo * &>::SetAt
PUBLIC	?RemoveKey@?$CMap@KKPAUtagPersonalTableInfo@@AAPAU1@@@QAEHK@Z ; CMap<unsigned long,unsigned long,tagPersonalTableInfo *,tagPersonalTableInfo * &>::RemoveKey
PUBLIC	?RemoveAll@?$CMap@KKPAUtagPersonalTableInfo@@AAPAU1@@@QAEXXZ ; CMap<unsigned long,unsigned long,tagPersonalTableInfo *,tagPersonalTableInfo * &>::RemoveAll
PUBLIC	?GetStartPosition@?$CMap@KKPAUtagPersonalTableInfo@@AAPAU1@@@QBEPAU__POSITION@@XZ ; CMap<unsigned long,unsigned long,tagPersonalTableInfo *,tagPersonalTableInfo * &>::GetStartPosition
PUBLIC	?GetNextAssoc@?$CMap@KKPAUtagPersonalTableInfo@@AAPAU1@@@QBEXAAPAU__POSITION@@AAKAAPAUtagPersonalTableInfo@@@Z ; CMap<unsigned long,unsigned long,tagPersonalTableInfo *,tagPersonalTableInfo * &>::GetNextAssoc
PUBLIC	?InitHashTable@?$CMap@KKPAUtagPersonalTableInfo@@AAPAU1@@@QAEXIH@Z ; CMap<unsigned long,unsigned long,tagPersonalTableInfo *,tagPersonalTableInfo * &>::InitHashTable
PUBLIC	?NewAssoc@?$CMap@KKPAUtagPersonalTableInfo@@AAPAU1@@@IAEPAVCAssoc@1@K@Z ; CMap<unsigned long,unsigned long,tagPersonalTableInfo *,tagPersonalTableInfo * &>::NewAssoc
PUBLIC	?FreeAssoc@?$CMap@KKPAUtagPersonalTableInfo@@AAPAU1@@@IAEXPAVCAssoc@1@@Z ; CMap<unsigned long,unsigned long,tagPersonalTableInfo *,tagPersonalTableInfo * &>::FreeAssoc
PUBLIC	?GetAssocAt@?$CMap@KKPAUtagPersonalTableInfo@@AAPAU1@@@IBEPAVCAssoc@1@KAAI0@Z ; CMap<unsigned long,unsigned long,tagPersonalTableInfo *,tagPersonalTableInfo * &>::GetAssocAt
PUBLIC	??1?$CMap@KKPAUtagPersonalTableInfo@@AAPAU1@@@UAE@XZ ; CMap<unsigned long,unsigned long,tagPersonalTableInfo *,tagPersonalTableInfo * &>::~CMap<unsigned long,unsigned long,tagPersonalTableInfo *,tagPersonalTableInfo * &>
PUBLIC	?Serialize@?$CMap@KKPAUtagPersonalTableInfo@@AAPAU1@@@UAEXAAVCArchive@@@Z ; CMap<unsigned long,unsigned long,tagPersonalTableInfo *,tagPersonalTableInfo * &>::Serialize
PUBLIC	?Dump@?$CMap@KKPAUtagPersonalTableInfo@@AAPAU1@@@UBEXAAVCDumpContext@@@Z ; CMap<unsigned long,unsigned long,tagPersonalTableInfo *,tagPersonalTableInfo * &>::Dump
PUBLIC	?AssertValid@?$CMap@KKPAUtagPersonalTableInfo@@AAPAU1@@@UBEXXZ ; CMap<unsigned long,unsigned long,tagPersonalTableInfo *,tagPersonalTableInfo * &>::AssertValid
PUBLIC	??_G?$CMap@KKPAUtagPersonalTableInfo@@AAPAU1@@@UAEPAXI@Z ; CMap<unsigned long,unsigned long,tagPersonalTableInfo *,tagPersonalTableInfo * &>::`scalar deleting destructor'
PUBLIC	??0?$allocator@UtagPersonalTableInfo@@@std@@QAE@XZ ; std::allocator<tagPersonalTableInfo>::allocator<tagPersonalTableInfo>
PUBLIC	?deallocate@?$allocator@UtagPersonalTableInfo@@@std@@QAEXQAUtagPersonalTableInfo@@I@Z ; std::allocator<tagPersonalTableInfo>::deallocate
PUBLIC	?allocate@?$allocator@UtagPersonalTableInfo@@@std@@QAEPAUtagPersonalTableInfo@@I@Z ; std::allocator<tagPersonalTableInfo>::allocate
PUBLIC	?max_size@?$_Default_allocator_traits@V?$allocator@UtagPersonalTableInfo@@@std@@@std@@SAIABV?$allocator@UtagPersonalTableInfo@@@2@@Z ; std::_Default_allocator_traits<std::allocator<tagPersonalTableInfo> >::max_size
PUBLIC	??0?$_Vector_alloc@U?$_Vec_base_types@UtagPersonalTableInfo@@V?$allocator@UtagPersonalTableInfo@@@std@@@std@@@std@@QAE@XZ ; std::_Vector_alloc<std::_Vec_base_types<tagPersonalTableInfo,std::allocator<tagPersonalTableInfo> > >::_Vector_alloc<std::_Vec_base_types<tagPersonalTableInfo,std::allocator<tagPersonalTableInfo> > >
PUBLIC	??1?$_Vector_alloc@U?$_Vec_base_types@UtagPersonalTableInfo@@V?$allocator@UtagPersonalTableInfo@@@std@@@std@@@std@@QAE@XZ ; std::_Vector_alloc<std::_Vec_base_types<tagPersonalTableInfo,std::allocator<tagPersonalTableInfo> > >::~_Vector_alloc<std::_Vec_base_types<tagPersonalTableInfo,std::allocator<tagPersonalTableInfo> > >
PUBLIC	?_Alloc_proxy@?$_Vector_alloc@U?$_Vec_base_types@UtagPersonalTableInfo@@V?$allocator@UtagPersonalTableInfo@@@std@@@std@@@std@@QAEXXZ ; std::_Vector_alloc<std::_Vec_base_types<tagPersonalTableInfo,std::allocator<tagPersonalTableInfo> > >::_Alloc_proxy
PUBLIC	?_Free_proxy@?$_Vector_alloc@U?$_Vec_base_types@UtagPersonalTableInfo@@V?$allocator@UtagPersonalTableInfo@@@std@@@std@@@std@@QAEXXZ ; std::_Vector_alloc<std::_Vec_base_types<tagPersonalTableInfo,std::allocator<tagPersonalTableInfo> > >::_Free_proxy
PUBLIC	?_Getpfirst@?$_Vector_alloc@U?$_Vec_base_types@UtagPersonalTableInfo@@V?$allocator@UtagPersonalTableInfo@@@std@@@std@@@std@@QBEPAPAU_Iterator_base12@2@XZ ; std::_Vector_alloc<std::_Vec_base_types<tagPersonalTableInfo,std::allocator<tagPersonalTableInfo> > >::_Getpfirst
PUBLIC	?_Myproxy@?$_Vector_alloc@U?$_Vec_base_types@UtagPersonalTableInfo@@V?$allocator@UtagPersonalTableInfo@@@std@@@std@@@std@@QAEAAPAU_Container_proxy@2@XZ ; std::_Vector_alloc<std::_Vec_base_types<tagPersonalTableInfo,std::allocator<tagPersonalTableInfo> > >::_Myproxy
PUBLIC	?_Orphan_all@?$_Vector_alloc@U?$_Vec_base_types@UtagPersonalTableInfo@@V?$allocator@UtagPersonalTableInfo@@@std@@@std@@@std@@QAEXXZ ; std::_Vector_alloc<std::_Vec_base_types<tagPersonalTableInfo,std::allocator<tagPersonalTableInfo> > >::_Orphan_all
PUBLIC	?_Getal@?$_Vector_alloc@U?$_Vec_base_types@UtagPersonalTableInfo@@V?$allocator@UtagPersonalTableInfo@@@std@@@std@@@std@@QAEAAV?$allocator@UtagPersonalTableInfo@@@2@XZ ; std::_Vector_alloc<std::_Vec_base_types<tagPersonalTableInfo,std::allocator<tagPersonalTableInfo> > >::_Getal
PUBLIC	?_Getal@?$_Vector_alloc@U?$_Vec_base_types@UtagPersonalTableInfo@@V?$allocator@UtagPersonalTableInfo@@@std@@@std@@@std@@QBEABV?$allocator@UtagPersonalTableInfo@@@2@XZ ; std::_Vector_alloc<std::_Vec_base_types<tagPersonalTableInfo,std::allocator<tagPersonalTableInfo> > >::_Getal
PUBLIC	?_Get_data@?$_Vector_alloc@U?$_Vec_base_types@UtagPersonalTableInfo@@V?$allocator@UtagPersonalTableInfo@@@std@@@std@@@std@@QAEAAV?$_Vector_val@U?$_Simple_types@UtagPersonalTableInfo@@@std@@@2@XZ ; std::_Vector_alloc<std::_Vec_base_types<tagPersonalTableInfo,std::allocator<tagPersonalTableInfo> > >::_Get_data
PUBLIC	?_Get_data@?$_Vector_alloc@U?$_Vec_base_types@UtagPersonalTableInfo@@V?$allocator@UtagPersonalTableInfo@@@std@@@std@@@std@@QBEABV?$_Vector_val@U?$_Simple_types@UtagPersonalTableInfo@@@std@@@2@XZ ; std::_Vector_alloc<std::_Vec_base_types<tagPersonalTableInfo,std::allocator<tagPersonalTableInfo> > >::_Get_data
PUBLIC	?_Myfirst@?$_Vector_alloc@U?$_Vec_base_types@UtagPersonalTableInfo@@V?$allocator@UtagPersonalTableInfo@@@std@@@std@@@std@@QAEAAPAUtagPersonalTableInfo@@XZ ; std::_Vector_alloc<std::_Vec_base_types<tagPersonalTableInfo,std::allocator<tagPersonalTableInfo> > >::_Myfirst
PUBLIC	?_Myfirst@?$_Vector_alloc@U?$_Vec_base_types@UtagPersonalTableInfo@@V?$allocator@UtagPersonalTableInfo@@@std@@@std@@@std@@QBEABQAUtagPersonalTableInfo@@XZ ; std::_Vector_alloc<std::_Vec_base_types<tagPersonalTableInfo,std::allocator<tagPersonalTableInfo> > >::_Myfirst
PUBLIC	?_Mylast@?$_Vector_alloc@U?$_Vec_base_types@UtagPersonalTableInfo@@V?$allocator@UtagPersonalTableInfo@@@std@@@std@@@std@@QAEAAPAUtagPersonalTableInfo@@XZ ; std::_Vector_alloc<std::_Vec_base_types<tagPersonalTableInfo,std::allocator<tagPersonalTableInfo> > >::_Mylast
PUBLIC	?_Mylast@?$_Vector_alloc@U?$_Vec_base_types@UtagPersonalTableInfo@@V?$allocator@UtagPersonalTableInfo@@@std@@@std@@@std@@QBEABQAUtagPersonalTableInfo@@XZ ; std::_Vector_alloc<std::_Vec_base_types<tagPersonalTableInfo,std::allocator<tagPersonalTableInfo> > >::_Mylast
PUBLIC	?_Myend@?$_Vector_alloc@U?$_Vec_base_types@UtagPersonalTableInfo@@V?$allocator@UtagPersonalTableInfo@@@std@@@std@@@std@@QAEAAPAUtagPersonalTableInfo@@XZ ; std::_Vector_alloc<std::_Vec_base_types<tagPersonalTableInfo,std::allocator<tagPersonalTableInfo> > >::_Myend
PUBLIC	?_Myend@?$_Vector_alloc@U?$_Vec_base_types@UtagPersonalTableInfo@@V?$allocator@UtagPersonalTableInfo@@@std@@@std@@@std@@QBEABQAUtagPersonalTableInfo@@XZ ; std::_Vector_alloc<std::_Vec_base_types<tagPersonalTableInfo,std::allocator<tagPersonalTableInfo> > >::_Myend
PUBLIC	??0?$_Vector_val@U?$_Simple_types@UtagPersonalTableInfo@@@std@@@std@@QAE@XZ ; std::_Vector_val<std::_Simple_types<tagPersonalTableInfo> >::_Vector_val<std::_Simple_types<tagPersonalTableInfo> >
PUBLIC	?_Get_first@?$_Compressed_pair@V?$allocator@UtagPersonalTableInfo@@@std@@V?$_Vector_val@U?$_Simple_types@UtagPersonalTableInfo@@@std@@@2@$00@std@@QAEAAV?$allocator@UtagPersonalTableInfo@@@2@XZ ; std::_Compressed_pair<std::allocator<tagPersonalTableInfo>,std::_Vector_val<std::_Simple_types<tagPersonalTableInfo> >,1>::_Get_first
PUBLIC	?_Get_first@?$_Compressed_pair@V?$allocator@UtagPersonalTableInfo@@@std@@V?$_Vector_val@U?$_Simple_types@UtagPersonalTableInfo@@@std@@@2@$00@std@@QBEABV?$allocator@UtagPersonalTableInfo@@@2@XZ ; std::_Compressed_pair<std::allocator<tagPersonalTableInfo>,std::_Vector_val<std::_Simple_types<tagPersonalTableInfo> >,1>::_Get_first
PUBLIC	?_Get_second@?$_Compressed_pair@V?$allocator@UtagPersonalTableInfo@@@std@@V?$_Vector_val@U?$_Simple_types@UtagPersonalTableInfo@@@std@@@2@$00@std@@QAEAAV?$_Vector_val@U?$_Simple_types@UtagPersonalTableInfo@@@std@@@2@XZ ; std::_Compressed_pair<std::allocator<tagPersonalTableInfo>,std::_Vector_val<std::_Simple_types<tagPersonalTableInfo> >,1>::_Get_second
PUBLIC	?_Get_second@?$_Compressed_pair@V?$allocator@UtagPersonalTableInfo@@@std@@V?$_Vector_val@U?$_Simple_types@UtagPersonalTableInfo@@@std@@@2@$00@std@@QBEABV?$_Vector_val@U?$_Simple_types@UtagPersonalTableInfo@@@std@@@2@XZ ; std::_Compressed_pair<std::allocator<tagPersonalTableInfo>,std::_Vector_val<std::_Simple_types<tagPersonalTableInfo> >,1>::_Get_second
PUBLIC	??0?$vector@UtagPersonalTableInfo@@V?$allocator@UtagPersonalTableInfo@@@std@@@std@@QAE@XZ ; std::vector<tagPersonalTableInfo,std::allocator<tagPersonalTableInfo> >::vector<tagPersonalTableInfo,std::allocator<tagPersonalTableInfo> >
PUBLIC	??1?$vector@UtagPersonalTableInfo@@V?$allocator@UtagPersonalTableInfo@@@std@@@std@@QAE@XZ ; std::vector<tagPersonalTableInfo,std::allocator<tagPersonalTableInfo> >::~vector<tagPersonalTableInfo,std::allocator<tagPersonalTableInfo> >
PUBLIC	?push_back@?$vector@UtagPersonalTableInfo@@V?$allocator@UtagPersonalTableInfo@@@std@@@std@@QAEXABUtagPersonalTableInfo@@@Z ; std::vector<tagPersonalTableInfo,std::allocator<tagPersonalTableInfo> >::push_back
PUBLIC	?erase@?$vector@UtagPersonalTableInfo@@V?$allocator@UtagPersonalTableInfo@@@std@@@std@@QAE?AV?$_Vector_iterator@V?$_Vector_val@U?$_Simple_types@UtagPersonalTableInfo@@@std@@@std@@@2@V?$_Vector_const_iterator@V?$_Vector_val@U?$_Simple_types@UtagPersonalTableInfo@@@std@@@std@@@2@@Z ; std::vector<tagPersonalTableInfo,std::allocator<tagPersonalTableInfo> >::erase
PUBLIC	?begin@?$vector@UtagPersonalTableInfo@@V?$allocator@UtagPersonalTableInfo@@@std@@@std@@QAE?AV?$_Vector_iterator@V?$_Vector_val@U?$_Simple_types@UtagPersonalTableInfo@@@std@@@std@@@2@XZ ; std::vector<tagPersonalTableInfo,std::allocator<tagPersonalTableInfo> >::begin
PUBLIC	?size@?$vector@UtagPersonalTableInfo@@V?$allocator@UtagPersonalTableInfo@@@std@@@std@@QBEIXZ ; std::vector<tagPersonalTableInfo,std::allocator<tagPersonalTableInfo> >::size
PUBLIC	?max_size@?$vector@UtagPersonalTableInfo@@V?$allocator@UtagPersonalTableInfo@@@std@@@std@@QBEIXZ ; std::vector<tagPersonalTableInfo,std::allocator<tagPersonalTableInfo> >::max_size
PUBLIC	?capacity@?$vector@UtagPersonalTableInfo@@V?$allocator@UtagPersonalTableInfo@@@std@@@std@@QBEIXZ ; std::vector<tagPersonalTableInfo,std::allocator<tagPersonalTableInfo> >::capacity
PUBLIC	?_Has_unused_capacity@?$vector@UtagPersonalTableInfo@@V?$allocator@UtagPersonalTableInfo@@@std@@@std@@ABE_NXZ ; std::vector<tagPersonalTableInfo,std::allocator<tagPersonalTableInfo> >::_Has_unused_capacity
PUBLIC	??A?$vector@UtagPersonalTableInfo@@V?$allocator@UtagPersonalTableInfo@@@std@@@std@@QAEAAUtagPersonalTableInfo@@I@Z ; std::vector<tagPersonalTableInfo,std::allocator<tagPersonalTableInfo> >::operator[]
PUBLIC	?_Umove@?$vector@UtagPersonalTableInfo@@V?$allocator@UtagPersonalTableInfo@@@std@@@std@@AAEPAUtagPersonalTableInfo@@PAU3@00@Z ; std::vector<tagPersonalTableInfo,std::allocator<tagPersonalTableInfo> >::_Umove
PUBLIC	?_Umove_if_noexcept1@?$vector@UtagPersonalTableInfo@@V?$allocator@UtagPersonalTableInfo@@@std@@@std@@AAEXPAUtagPersonalTableInfo@@00U?$integral_constant@_N$00@2@@Z ; std::vector<tagPersonalTableInfo,std::allocator<tagPersonalTableInfo> >::_Umove_if_noexcept1
PUBLIC	?_Umove_if_noexcept@?$vector@UtagPersonalTableInfo@@V?$allocator@UtagPersonalTableInfo@@@std@@@std@@AAEXPAUtagPersonalTableInfo@@00@Z ; std::vector<tagPersonalTableInfo,std::allocator<tagPersonalTableInfo> >::_Umove_if_noexcept
PUBLIC	?_Destroy@?$vector@UtagPersonalTableInfo@@V?$allocator@UtagPersonalTableInfo@@@std@@@std@@AAEXPAUtagPersonalTableInfo@@0@Z ; std::vector<tagPersonalTableInfo,std::allocator<tagPersonalTableInfo> >::_Destroy
PUBLIC	?_Calculate_growth@?$vector@UtagPersonalTableInfo@@V?$allocator@UtagPersonalTableInfo@@@std@@@std@@ABEII@Z ; std::vector<tagPersonalTableInfo,std::allocator<tagPersonalTableInfo> >::_Calculate_growth
PUBLIC	?_Change_array@?$vector@UtagPersonalTableInfo@@V?$allocator@UtagPersonalTableInfo@@@std@@@std@@AAEXQAUtagPersonalTableInfo@@II@Z ; std::vector<tagPersonalTableInfo,std::allocator<tagPersonalTableInfo> >::_Change_array
PUBLIC	?_Tidy@?$vector@UtagPersonalTableInfo@@V?$allocator@UtagPersonalTableInfo@@@std@@@std@@AAEXXZ ; std::vector<tagPersonalTableInfo,std::allocator<tagPersonalTableInfo> >::_Tidy
PUBLIC	?_Xlength@?$vector@UtagPersonalTableInfo@@V?$allocator@UtagPersonalTableInfo@@@std@@@std@@CAXXZ ; std::vector<tagPersonalTableInfo,std::allocator<tagPersonalTableInfo> >::_Xlength
PUBLIC	?_Orphan_range@?$vector@UtagPersonalTableInfo@@V?$allocator@UtagPersonalTableInfo@@@std@@@std@@ABEXPAUtagPersonalTableInfo@@0@Z ; std::vector<tagPersonalTableInfo,std::allocator<tagPersonalTableInfo> >::_Orphan_range
PUBLIC	??0?$allocator@UCMD_CS_S_RegisterPersonal@@@std@@QAE@XZ ; std::allocator<CMD_CS_S_RegisterPersonal>::allocator<CMD_CS_S_RegisterPersonal>
PUBLIC	?deallocate@?$allocator@UCMD_CS_S_RegisterPersonal@@@std@@QAEXQAUCMD_CS_S_RegisterPersonal@@I@Z ; std::allocator<CMD_CS_S_RegisterPersonal>::deallocate
PUBLIC	?allocate@?$allocator@UCMD_CS_S_RegisterPersonal@@@std@@QAEPAUCMD_CS_S_RegisterPersonal@@I@Z ; std::allocator<CMD_CS_S_RegisterPersonal>::allocate
PUBLIC	?max_size@?$_Default_allocator_traits@V?$allocator@UCMD_CS_S_RegisterPersonal@@@std@@@std@@SAIABV?$allocator@UCMD_CS_S_RegisterPersonal@@@2@@Z ; std::_Default_allocator_traits<std::allocator<CMD_CS_S_RegisterPersonal> >::max_size
PUBLIC	??0?$_Vector_alloc@U?$_Vec_base_types@UCMD_CS_S_RegisterPersonal@@V?$allocator@UCMD_CS_S_RegisterPersonal@@@std@@@std@@@std@@QAE@XZ ; std::_Vector_alloc<std::_Vec_base_types<CMD_CS_S_RegisterPersonal,std::allocator<CMD_CS_S_RegisterPersonal> > >::_Vector_alloc<std::_Vec_base_types<CMD_CS_S_RegisterPersonal,std::allocator<CMD_CS_S_RegisterPersonal> > >
PUBLIC	??1?$_Vector_alloc@U?$_Vec_base_types@UCMD_CS_S_RegisterPersonal@@V?$allocator@UCMD_CS_S_RegisterPersonal@@@std@@@std@@@std@@QAE@XZ ; std::_Vector_alloc<std::_Vec_base_types<CMD_CS_S_RegisterPersonal,std::allocator<CMD_CS_S_RegisterPersonal> > >::~_Vector_alloc<std::_Vec_base_types<CMD_CS_S_RegisterPersonal,std::allocator<CMD_CS_S_RegisterPersonal> > >
PUBLIC	?_Alloc_proxy@?$_Vector_alloc@U?$_Vec_base_types@UCMD_CS_S_RegisterPersonal@@V?$allocator@UCMD_CS_S_RegisterPersonal@@@std@@@std@@@std@@QAEXXZ ; std::_Vector_alloc<std::_Vec_base_types<CMD_CS_S_RegisterPersonal,std::allocator<CMD_CS_S_RegisterPersonal> > >::_Alloc_proxy
PUBLIC	?_Free_proxy@?$_Vector_alloc@U?$_Vec_base_types@UCMD_CS_S_RegisterPersonal@@V?$allocator@UCMD_CS_S_RegisterPersonal@@@std@@@std@@@std@@QAEXXZ ; std::_Vector_alloc<std::_Vec_base_types<CMD_CS_S_RegisterPersonal,std::allocator<CMD_CS_S_RegisterPersonal> > >::_Free_proxy
PUBLIC	?_Getpfirst@?$_Vector_alloc@U?$_Vec_base_types@UCMD_CS_S_RegisterPersonal@@V?$allocator@UCMD_CS_S_RegisterPersonal@@@std@@@std@@@std@@QBEPAPAU_Iterator_base12@2@XZ ; std::_Vector_alloc<std::_Vec_base_types<CMD_CS_S_RegisterPersonal,std::allocator<CMD_CS_S_RegisterPersonal> > >::_Getpfirst
PUBLIC	?_Myproxy@?$_Vector_alloc@U?$_Vec_base_types@UCMD_CS_S_RegisterPersonal@@V?$allocator@UCMD_CS_S_RegisterPersonal@@@std@@@std@@@std@@QAEAAPAU_Container_proxy@2@XZ ; std::_Vector_alloc<std::_Vec_base_types<CMD_CS_S_RegisterPersonal,std::allocator<CMD_CS_S_RegisterPersonal> > >::_Myproxy
PUBLIC	?_Orphan_all@?$_Vector_alloc@U?$_Vec_base_types@UCMD_CS_S_RegisterPersonal@@V?$allocator@UCMD_CS_S_RegisterPersonal@@@std@@@std@@@std@@QAEXXZ ; std::_Vector_alloc<std::_Vec_base_types<CMD_CS_S_RegisterPersonal,std::allocator<CMD_CS_S_RegisterPersonal> > >::_Orphan_all
PUBLIC	?_Getal@?$_Vector_alloc@U?$_Vec_base_types@UCMD_CS_S_RegisterPersonal@@V?$allocator@UCMD_CS_S_RegisterPersonal@@@std@@@std@@@std@@QAEAAV?$allocator@UCMD_CS_S_RegisterPersonal@@@2@XZ ; std::_Vector_alloc<std::_Vec_base_types<CMD_CS_S_RegisterPersonal,std::allocator<CMD_CS_S_RegisterPersonal> > >::_Getal
PUBLIC	?_Getal@?$_Vector_alloc@U?$_Vec_base_types@UCMD_CS_S_RegisterPersonal@@V?$allocator@UCMD_CS_S_RegisterPersonal@@@std@@@std@@@std@@QBEABV?$allocator@UCMD_CS_S_RegisterPersonal@@@2@XZ ; std::_Vector_alloc<std::_Vec_base_types<CMD_CS_S_RegisterPersonal,std::allocator<CMD_CS_S_RegisterPersonal> > >::_Getal
PUBLIC	?_Get_data@?$_Vector_alloc@U?$_Vec_base_types@UCMD_CS_S_RegisterPersonal@@V?$allocator@UCMD_CS_S_RegisterPersonal@@@std@@@std@@@std@@QAEAAV?$_Vector_val@U?$_Simple_types@UCMD_CS_S_RegisterPersonal@@@std@@@2@XZ ; std::_Vector_alloc<std::_Vec_base_types<CMD_CS_S_RegisterPersonal,std::allocator<CMD_CS_S_RegisterPersonal> > >::_Get_data
PUBLIC	?_Get_data@?$_Vector_alloc@U?$_Vec_base_types@UCMD_CS_S_RegisterPersonal@@V?$allocator@UCMD_CS_S_RegisterPersonal@@@std@@@std@@@std@@QBEABV?$_Vector_val@U?$_Simple_types@UCMD_CS_S_RegisterPersonal@@@std@@@2@XZ ; std::_Vector_alloc<std::_Vec_base_types<CMD_CS_S_RegisterPersonal,std::allocator<CMD_CS_S_RegisterPersonal> > >::_Get_data
PUBLIC	?_Myfirst@?$_Vector_alloc@U?$_Vec_base_types@UCMD_CS_S_RegisterPersonal@@V?$allocator@UCMD_CS_S_RegisterPersonal@@@std@@@std@@@std@@QAEAAPAUCMD_CS_S_RegisterPersonal@@XZ ; std::_Vector_alloc<std::_Vec_base_types<CMD_CS_S_RegisterPersonal,std::allocator<CMD_CS_S_RegisterPersonal> > >::_Myfirst
PUBLIC	?_Myfirst@?$_Vector_alloc@U?$_Vec_base_types@UCMD_CS_S_RegisterPersonal@@V?$allocator@UCMD_CS_S_RegisterPersonal@@@std@@@std@@@std@@QBEABQAUCMD_CS_S_RegisterPersonal@@XZ ; std::_Vector_alloc<std::_Vec_base_types<CMD_CS_S_RegisterPersonal,std::allocator<CMD_CS_S_RegisterPersonal> > >::_Myfirst
PUBLIC	?_Mylast@?$_Vector_alloc@U?$_Vec_base_types@UCMD_CS_S_RegisterPersonal@@V?$allocator@UCMD_CS_S_RegisterPersonal@@@std@@@std@@@std@@QAEAAPAUCMD_CS_S_RegisterPersonal@@XZ ; std::_Vector_alloc<std::_Vec_base_types<CMD_CS_S_RegisterPersonal,std::allocator<CMD_CS_S_RegisterPersonal> > >::_Mylast
PUBLIC	?_Mylast@?$_Vector_alloc@U?$_Vec_base_types@UCMD_CS_S_RegisterPersonal@@V?$allocator@UCMD_CS_S_RegisterPersonal@@@std@@@std@@@std@@QBEABQAUCMD_CS_S_RegisterPersonal@@XZ ; std::_Vector_alloc<std::_Vec_base_types<CMD_CS_S_RegisterPersonal,std::allocator<CMD_CS_S_RegisterPersonal> > >::_Mylast
PUBLIC	?_Myend@?$_Vector_alloc@U?$_Vec_base_types@UCMD_CS_S_RegisterPersonal@@V?$allocator@UCMD_CS_S_RegisterPersonal@@@std@@@std@@@std@@QAEAAPAUCMD_CS_S_RegisterPersonal@@XZ ; std::_Vector_alloc<std::_Vec_base_types<CMD_CS_S_RegisterPersonal,std::allocator<CMD_CS_S_RegisterPersonal> > >::_Myend
PUBLIC	?_Myend@?$_Vector_alloc@U?$_Vec_base_types@UCMD_CS_S_RegisterPersonal@@V?$allocator@UCMD_CS_S_RegisterPersonal@@@std@@@std@@@std@@QBEABQAUCMD_CS_S_RegisterPersonal@@XZ ; std::_Vector_alloc<std::_Vec_base_types<CMD_CS_S_RegisterPersonal,std::allocator<CMD_CS_S_RegisterPersonal> > >::_Myend
PUBLIC	??0?$_Vector_val@U?$_Simple_types@UCMD_CS_S_RegisterPersonal@@@std@@@std@@QAE@XZ ; std::_Vector_val<std::_Simple_types<CMD_CS_S_RegisterPersonal> >::_Vector_val<std::_Simple_types<CMD_CS_S_RegisterPersonal> >
PUBLIC	?_Get_first@?$_Compressed_pair@V?$allocator@UCMD_CS_S_RegisterPersonal@@@std@@V?$_Vector_val@U?$_Simple_types@UCMD_CS_S_RegisterPersonal@@@std@@@2@$00@std@@QAEAAV?$allocator@UCMD_CS_S_RegisterPersonal@@@2@XZ ; std::_Compressed_pair<std::allocator<CMD_CS_S_RegisterPersonal>,std::_Vector_val<std::_Simple_types<CMD_CS_S_RegisterPersonal> >,1>::_Get_first
PUBLIC	?_Get_first@?$_Compressed_pair@V?$allocator@UCMD_CS_S_RegisterPersonal@@@std@@V?$_Vector_val@U?$_Simple_types@UCMD_CS_S_RegisterPersonal@@@std@@@2@$00@std@@QBEABV?$allocator@UCMD_CS_S_RegisterPersonal@@@2@XZ ; std::_Compressed_pair<std::allocator<CMD_CS_S_RegisterPersonal>,std::_Vector_val<std::_Simple_types<CMD_CS_S_RegisterPersonal> >,1>::_Get_first
PUBLIC	?_Get_second@?$_Compressed_pair@V?$allocator@UCMD_CS_S_RegisterPersonal@@@std@@V?$_Vector_val@U?$_Simple_types@UCMD_CS_S_RegisterPersonal@@@std@@@2@$00@std@@QAEAAV?$_Vector_val@U?$_Simple_types@UCMD_CS_S_RegisterPersonal@@@std@@@2@XZ ; std::_Compressed_pair<std::allocator<CMD_CS_S_RegisterPersonal>,std::_Vector_val<std::_Simple_types<CMD_CS_S_RegisterPersonal> >,1>::_Get_second
PUBLIC	?_Get_second@?$_Compressed_pair@V?$allocator@UCMD_CS_S_RegisterPersonal@@@std@@V?$_Vector_val@U?$_Simple_types@UCMD_CS_S_RegisterPersonal@@@std@@@2@$00@std@@QBEABV?$_Vector_val@U?$_Simple_types@UCMD_CS_S_RegisterPersonal@@@std@@@2@XZ ; std::_Compressed_pair<std::allocator<CMD_CS_S_RegisterPersonal>,std::_Vector_val<std::_Simple_types<CMD_CS_S_RegisterPersonal> >,1>::_Get_second
PUBLIC	??0?$vector@UCMD_CS_S_RegisterPersonal@@V?$allocator@UCMD_CS_S_RegisterPersonal@@@std@@@std@@QAE@XZ ; std::vector<CMD_CS_S_RegisterPersonal,std::allocator<CMD_CS_S_RegisterPersonal> >::vector<CMD_CS_S_RegisterPersonal,std::allocator<CMD_CS_S_RegisterPersonal> >
PUBLIC	??1?$vector@UCMD_CS_S_RegisterPersonal@@V?$allocator@UCMD_CS_S_RegisterPersonal@@@std@@@std@@QAE@XZ ; std::vector<CMD_CS_S_RegisterPersonal,std::allocator<CMD_CS_S_RegisterPersonal> >::~vector<CMD_CS_S_RegisterPersonal,std::allocator<CMD_CS_S_RegisterPersonal> >
PUBLIC	?push_back@?$vector@UCMD_CS_S_RegisterPersonal@@V?$allocator@UCMD_CS_S_RegisterPersonal@@@std@@@std@@QAEXABUCMD_CS_S_RegisterPersonal@@@Z ; std::vector<CMD_CS_S_RegisterPersonal,std::allocator<CMD_CS_S_RegisterPersonal> >::push_back
PUBLIC	?size@?$vector@UCMD_CS_S_RegisterPersonal@@V?$allocator@UCMD_CS_S_RegisterPersonal@@@std@@@std@@QBEIXZ ; std::vector<CMD_CS_S_RegisterPersonal,std::allocator<CMD_CS_S_RegisterPersonal> >::size
PUBLIC	?max_size@?$vector@UCMD_CS_S_RegisterPersonal@@V?$allocator@UCMD_CS_S_RegisterPersonal@@@std@@@std@@QBEIXZ ; std::vector<CMD_CS_S_RegisterPersonal,std::allocator<CMD_CS_S_RegisterPersonal> >::max_size
PUBLIC	?capacity@?$vector@UCMD_CS_S_RegisterPersonal@@V?$allocator@UCMD_CS_S_RegisterPersonal@@@std@@@std@@QBEIXZ ; std::vector<CMD_CS_S_RegisterPersonal,std::allocator<CMD_CS_S_RegisterPersonal> >::capacity
PUBLIC	?_Has_unused_capacity@?$vector@UCMD_CS_S_RegisterPersonal@@V?$allocator@UCMD_CS_S_RegisterPersonal@@@std@@@std@@ABE_NXZ ; std::vector<CMD_CS_S_RegisterPersonal,std::allocator<CMD_CS_S_RegisterPersonal> >::_Has_unused_capacity
PUBLIC	??A?$vector@UCMD_CS_S_RegisterPersonal@@V?$allocator@UCMD_CS_S_RegisterPersonal@@@std@@@std@@QAEAAUCMD_CS_S_RegisterPersonal@@I@Z ; std::vector<CMD_CS_S_RegisterPersonal,std::allocator<CMD_CS_S_RegisterPersonal> >::operator[]
PUBLIC	?_Umove@?$vector@UCMD_CS_S_RegisterPersonal@@V?$allocator@UCMD_CS_S_RegisterPersonal@@@std@@@std@@AAEPAUCMD_CS_S_RegisterPersonal@@PAU3@00@Z ; std::vector<CMD_CS_S_RegisterPersonal,std::allocator<CMD_CS_S_RegisterPersonal> >::_Umove
PUBLIC	?_Umove_if_noexcept1@?$vector@UCMD_CS_S_RegisterPersonal@@V?$allocator@UCMD_CS_S_RegisterPersonal@@@std@@@std@@AAEXPAUCMD_CS_S_RegisterPersonal@@00U?$integral_constant@_N$00@2@@Z ; std::vector<CMD_CS_S_RegisterPersonal,std::allocator<CMD_CS_S_RegisterPersonal> >::_Umove_if_noexcept1
PUBLIC	?_Umove_if_noexcept@?$vector@UCMD_CS_S_RegisterPersonal@@V?$allocator@UCMD_CS_S_RegisterPersonal@@@std@@@std@@AAEXPAUCMD_CS_S_RegisterPersonal@@00@Z ; std::vector<CMD_CS_S_RegisterPersonal,std::allocator<CMD_CS_S_RegisterPersonal> >::_Umove_if_noexcept
PUBLIC	?_Destroy@?$vector@UCMD_CS_S_RegisterPersonal@@V?$allocator@UCMD_CS_S_RegisterPersonal@@@std@@@std@@AAEXPAUCMD_CS_S_RegisterPersonal@@0@Z ; std::vector<CMD_CS_S_RegisterPersonal,std::allocator<CMD_CS_S_RegisterPersonal> >::_Destroy
PUBLIC	?_Calculate_growth@?$vector@UCMD_CS_S_RegisterPersonal@@V?$allocator@UCMD_CS_S_RegisterPersonal@@@std@@@std@@ABEII@Z ; std::vector<CMD_CS_S_RegisterPersonal,std::allocator<CMD_CS_S_RegisterPersonal> >::_Calculate_growth
PUBLIC	?_Change_array@?$vector@UCMD_CS_S_RegisterPersonal@@V?$allocator@UCMD_CS_S_RegisterPersonal@@@std@@@std@@AAEXQAUCMD_CS_S_RegisterPersonal@@II@Z ; std::vector<CMD_CS_S_RegisterPersonal,std::allocator<CMD_CS_S_RegisterPersonal> >::_Change_array
PUBLIC	?_Tidy@?$vector@UCMD_CS_S_RegisterPersonal@@V?$allocator@UCMD_CS_S_RegisterPersonal@@@std@@@std@@AAEXXZ ; std::vector<CMD_CS_S_RegisterPersonal,std::allocator<CMD_CS_S_RegisterPersonal> >::_Tidy
PUBLIC	?_Xlength@?$vector@UCMD_CS_S_RegisterPersonal@@V?$allocator@UCMD_CS_S_RegisterPersonal@@@std@@@std@@CAXXZ ; std::vector<CMD_CS_S_RegisterPersonal,std::allocator<CMD_CS_S_RegisterPersonal> >::_Xlength
PUBLIC	?_Orphan_range@?$vector@UCMD_CS_S_RegisterPersonal@@V?$allocator@UCMD_CS_S_RegisterPersonal@@@std@@@std@@ABEXPAUCMD_CS_S_RegisterPersonal@@0@Z ; std::vector<CMD_CS_S_RegisterPersonal,std::allocator<CMD_CS_S_RegisterPersonal> >::_Orphan_range
PUBLIC	??0CGlobalInfoManager@@QAE@XZ			; CGlobalInfoManager::CGlobalInfoManager
PUBLIC	??1CGlobalInfoManager@@UAE@XZ			; CGlobalInfoManager::~CGlobalInfoManager
PUBLIC	?ResetData@CGlobalInfoManager@@QAEXXZ		; CGlobalInfoManager::ResetData
PUBLIC	?SearchTableByID@CGlobalInfoManager@@QAEPAUtagPersonalTableInfo@@K@Z ; CGlobalInfoManager::SearchTableByID
PUBLIC	?SearchTableByTableIDAndServerID@CGlobalInfoManager@@QAEPAUtagPersonalTableInfo@@KK@Z ; CGlobalInfoManager::SearchTableByTableIDAndServerID
PUBLIC	?AddFreeServerTable@CGlobalInfoManager@@QAE_NK@Z ; CGlobalInfoManager::AddFreeServerTable
PUBLIC	?AddServerTable@CGlobalInfoManager@@QAE_NKUtagPersonalTableInfo@@@Z ; CGlobalInfoManager::AddServerTable
PUBLIC	?RemoveFreeServerTable@CGlobalInfoManager@@QAE_NK@Z ; CGlobalInfoManager::RemoveFreeServerTable
PUBLIC	?RemoveServerTable@CGlobalInfoManager@@QAE_NKK@Z ; CGlobalInfoManager::RemoveServerTable
PUBLIC	?RemoveServerTable@CGlobalInfoManager@@QAE_NK@Z	; CGlobalInfoManager::RemoveServerTable
PUBLIC	?GetFreeServer@CGlobalInfoManager@@QAEKKKE@Z	; CGlobalInfoManager::GetFreeServer
PUBLIC	?GetFreeServerCount@CGlobalInfoManager@@QAEKK@Z	; CGlobalInfoManager::GetFreeServerCount
PUBLIC	?RandPersonalRoomID@CGlobalInfoManager@@QAEKXZ	; CGlobalInfoManager::RandPersonalRoomID
PUBLIC	?GetHostCreatePersonalRoom@CGlobalInfoManager@@QAEXAAUtagHostCreatRoomInfo@@@Z ; CGlobalInfoManager::GetHostCreatePersonalRoom
PUBLIC	?GetHostCreatePersonalRoomCount@CGlobalInfoManager@@QAEHKK@Z ; CGlobalInfoManager::GetHostCreatePersonalRoomCount
PUBLIC	?AddPersonalMaxCreate@CGlobalInfoManager@@QAE_NUCMD_CS_S_RegisterPersonal@@@Z ; CGlobalInfoManager::AddPersonalMaxCreate
PUBLIC	?CanCreatePersonalRoom@CGlobalInfoManager@@QAE_NKK@Z ; CGlobalInfoManager::CanCreatePersonalRoom
PUBLIC	?DeleteUserItem@CGlobalInfoManager@@QAE_NKG@Z	; CGlobalInfoManager::DeleteUserItem
PUBLIC	?ActiveUserItem@CGlobalInfoManager@@QAE_NAAUtagGlobalUserInfo@@G@Z ; CGlobalInfoManager::ActiveUserItem
PUBLIC	?DeletePlazaItem@CGlobalInfoManager@@QAE_NG@Z	; CGlobalInfoManager::DeletePlazaItem
PUBLIC	?ActivePlazaItem@CGlobalInfoManager@@QAE_NGAAUtagGamePlaza@@@Z ; CGlobalInfoManager::ActivePlazaItem
PUBLIC	?DeleteServerItem@CGlobalInfoManager@@QAE_NG@Z	; CGlobalInfoManager::DeleteServerItem
PUBLIC	?ActiveServerItem@CGlobalInfoManager@@QAE_NGAAUtagGameServer@@@Z ; CGlobalInfoManager::ActiveServerItem
PUBLIC	?DeleteChatItem@CGlobalInfoManager@@QAE_NG@Z	; CGlobalInfoManager::DeleteChatItem
PUBLIC	?ActiveChatItem@CGlobalInfoManager@@QAE_NGAAUtagChatServer@@@Z ; CGlobalInfoManager::ActiveChatItem
PUBLIC	?SearchPlazaItem@CGlobalInfoManager@@QAEPAVCGlobalPlazaItem@@G@Z ; CGlobalInfoManager::SearchPlazaItem
PUBLIC	?SearchServerItem@CGlobalInfoManager@@QAEPAVCGlobalServerItem@@G@Z ; CGlobalInfoManager::SearchServerItem
PUBLIC	?SearchChatItem@CGlobalInfoManager@@QAEPAVCGlobalChatItem@@G@Z ; CGlobalInfoManager::SearchChatItem
PUBLIC	?SearchUserItemByUserID@CGlobalInfoManager@@QAEPAVCGlobalUserItem@@K@Z ; CGlobalInfoManager::SearchUserItemByUserID
PUBLIC	?SearchUserItemByGameID@CGlobalInfoManager@@QAEPAVCGlobalUserItem@@K@Z ; CGlobalInfoManager::SearchUserItemByGameID
PUBLIC	?SearchUserItemByNickName@CGlobalInfoManager@@QAEPAVCGlobalUserItem@@PBD@Z ; CGlobalInfoManager::SearchUserItemByNickName
PUBLIC	?EnumUserItem@CGlobalInfoManager@@QAEPAVCGlobalUserItem@@AAPAU__POSITION@@@Z ; CGlobalInfoManager::EnumUserItem
PUBLIC	?EnumPlazaItem@CGlobalInfoManager@@QAEPAVCGlobalPlazaItem@@AAPAU__POSITION@@@Z ; CGlobalInfoManager::EnumPlazaItem
PUBLIC	?EnumServerItem@CGlobalInfoManager@@QAEPAVCGlobalServerItem@@AAPAU__POSITION@@@Z ; CGlobalInfoManager::EnumServerItem
PUBLIC	?EnumChatItem@CGlobalInfoManager@@QAEPAVCGlobalChatItem@@AAPAU__POSITION@@@Z ; CGlobalInfoManager::EnumChatItem
PUBLIC	?CreateGlobalUserItem@CGlobalInfoManager@@AAEPAVCGlobalUserItem@@XZ ; CGlobalInfoManager::CreateGlobalUserItem
PUBLIC	?CreateGlobalPlazaItem@CGlobalInfoManager@@AAEPAVCGlobalPlazaItem@@XZ ; CGlobalInfoManager::CreateGlobalPlazaItem
PUBLIC	?CreateGlobalServerItem@CGlobalInfoManager@@AAEPAVCGlobalServerItem@@XZ ; CGlobalInfoManager::CreateGlobalServerItem
PUBLIC	?CreateGlobalChatItem@CGlobalInfoManager@@AAEPAVCGlobalChatItem@@XZ ; CGlobalInfoManager::CreateGlobalChatItem
PUBLIC	?FreeGlobalUserItem@CGlobalInfoManager@@AAE_NPAVCGlobalUserItem@@@Z ; CGlobalInfoManager::FreeGlobalUserItem
PUBLIC	?FreeGlobalPlazaItem@CGlobalInfoManager@@AAE_NPAVCGlobalPlazaItem@@@Z ; CGlobalInfoManager::FreeGlobalPlazaItem
PUBLIC	?FreeGlobalServerItem@CGlobalInfoManager@@AAE_NPAVCGlobalServerItem@@@Z ; CGlobalInfoManager::FreeGlobalServerItem
PUBLIC	?FreeGlobalChatItem@CGlobalInfoManager@@AAE_NPAVCGlobalChatItem@@@Z ; CGlobalInfoManager::FreeGlobalChatItem
PUBLIC	??_GCGlobalInfoManager@@UAEPAXI@Z		; CGlobalInfoManager::`scalar deleting destructor'
PUBLIC	??0?$_Vector_const_iterator@V?$_Vector_val@U?$_Simple_types@UtagPersonalTableInfo@@@std@@@std@@@std@@QAE@PAUtagPersonalTableInfo@@PBU_Container_base12@1@@Z ; std::_Vector_const_iterator<std::_Vector_val<std::_Simple_types<tagPersonalTableInfo> > >::_Vector_const_iterator<std::_Vector_val<std::_Simple_types<tagPersonalTableInfo> > >
PUBLIC	?_Verify_offset@?$_Vector_const_iterator@V?$_Vector_val@U?$_Simple_types@UtagPersonalTableInfo@@@std@@@std@@@std@@QBEXH@Z ; std::_Vector_const_iterator<std::_Vector_val<std::_Simple_types<tagPersonalTableInfo> > >::_Verify_offset
PUBLIC	??Y?$_Vector_const_iterator@V?$_Vector_val@U?$_Simple_types@UtagPersonalTableInfo@@@std@@@std@@@std@@QAEAAV01@H@Z ; std::_Vector_const_iterator<std::_Vector_val<std::_Simple_types<tagPersonalTableInfo> > >::operator+=
PUBLIC	??1?$_Vector_const_iterator@V?$_Vector_val@U?$_Simple_types@UtagPersonalTableInfo@@@std@@@std@@@std@@QAE@XZ ; std::_Vector_const_iterator<std::_Vector_val<std::_Simple_types<tagPersonalTableInfo> > >::~_Vector_const_iterator<std::_Vector_val<std::_Simple_types<tagPersonalTableInfo> > >
PUBLIC	??0?$_Vector_const_iterator@V?$_Vector_val@U?$_Simple_types@UtagPersonalTableInfo@@@std@@@std@@@std@@QAE@ABV01@@Z ; std::_Vector_const_iterator<std::_Vector_val<std::_Simple_types<tagPersonalTableInfo> > >::_Vector_const_iterator<std::_Vector_val<std::_Simple_types<tagPersonalTableInfo> > >
PUBLIC	??0?$_Vector_const_iterator@V?$_Vector_val@U?$_Simple_types@UtagPersonalTableInfo@@@std@@@std@@@std@@QAE@$$QAV01@@Z ; std::_Vector_const_iterator<std::_Vector_val<std::_Simple_types<tagPersonalTableInfo> > >::_Vector_const_iterator<std::_Vector_val<std::_Simple_types<tagPersonalTableInfo> > >
PUBLIC	??0?$_Vector_iterator@V?$_Vector_val@U?$_Simple_types@UtagPersonalTableInfo@@@std@@@std@@@std@@QAE@PAUtagPersonalTableInfo@@PBU_Container_base12@1@@Z ; std::_Vector_iterator<std::_Vector_val<std::_Simple_types<tagPersonalTableInfo> > >::_Vector_iterator<std::_Vector_val<std::_Simple_types<tagPersonalTableInfo> > >
PUBLIC	??Y?$_Vector_iterator@V?$_Vector_val@U?$_Simple_types@UtagPersonalTableInfo@@@std@@@std@@@std@@QAEAAV01@H@Z ; std::_Vector_iterator<std::_Vector_val<std::_Simple_types<tagPersonalTableInfo> > >::operator+=
PUBLIC	??H?$_Vector_iterator@V?$_Vector_val@U?$_Simple_types@UtagPersonalTableInfo@@@std@@@std@@@std@@QBE?AV01@H@Z ; std::_Vector_iterator<std::_Vector_val<std::_Simple_types<tagPersonalTableInfo> > >::operator+
PUBLIC	??1?$_Vector_iterator@V?$_Vector_val@U?$_Simple_types@UtagPersonalTableInfo@@@std@@@std@@@std@@QAE@XZ ; std::_Vector_iterator<std::_Vector_val<std::_Simple_types<tagPersonalTableInfo> > >::~_Vector_iterator<std::_Vector_val<std::_Simple_types<tagPersonalTableInfo> > >
PUBLIC	??0?$_Vector_iterator@V?$_Vector_val@U?$_Simple_types@UtagPersonalTableInfo@@@std@@@std@@@std@@QAE@ABV01@@Z ; std::_Vector_iterator<std::_Vector_val<std::_Simple_types<tagPersonalTableInfo> > >::_Vector_iterator<std::_Vector_val<std::_Simple_types<tagPersonalTableInfo> > >
PUBLIC	??$emplace_back@ABUCMD_CS_S_RegisterPersonal@@@?$vector@UCMD_CS_S_RegisterPersonal@@V?$allocator@UCMD_CS_S_RegisterPersonal@@@std@@@std@@QAE@ABUCMD_CS_S_RegisterPersonal@@@Z ; std::vector<CMD_CS_S_RegisterPersonal,std::allocator<CMD_CS_S_RegisterPersonal> >::emplace_back<CMD_CS_S_RegisterPersonal const &>
PUBLIC	??$forward@ABUCMD_CS_S_RegisterPersonal@@@std@@YAABUCMD_CS_S_RegisterPersonal@@ABU1@@Z ; std::forward<CMD_CS_S_RegisterPersonal const &>
PUBLIC	??$_Emplace_back_with_unused_capacity@ABUCMD_CS_S_RegisterPersonal@@@?$vector@UCMD_CS_S_RegisterPersonal@@V?$allocator@UCMD_CS_S_RegisterPersonal@@@std@@@std@@AAE@ABUCMD_CS_S_RegisterPersonal@@@Z ; std::vector<CMD_CS_S_RegisterPersonal,std::allocator<CMD_CS_S_RegisterPersonal> >::_Emplace_back_with_unused_capacity<CMD_CS_S_RegisterPersonal const &>
PUBLIC	??$_Unfancy@UCMD_CS_S_RegisterPersonal@@@std@@YAPAUCMD_CS_S_RegisterPersonal@@PAU1@@Z ; std::_Unfancy<CMD_CS_S_RegisterPersonal>
PUBLIC	??$construct@UCMD_CS_S_RegisterPersonal@@ABU1@@?$_Default_allocator_traits@V?$allocator@UCMD_CS_S_RegisterPersonal@@@std@@@std@@SAXAAV?$allocator@UCMD_CS_S_RegisterPersonal@@@1@QAUCMD_CS_S_RegisterPersonal@@ABU3@@Z ; std::_Default_allocator_traits<std::allocator<CMD_CS_S_RegisterPersonal> >::construct<CMD_CS_S_RegisterPersonal,CMD_CS_S_RegisterPersonal const &>
PUBLIC	??$_Emplace_reallocate@ABUCMD_CS_S_RegisterPersonal@@@?$vector@UCMD_CS_S_RegisterPersonal@@V?$allocator@UCMD_CS_S_RegisterPersonal@@@std@@@std@@QAEPAUCMD_CS_S_RegisterPersonal@@QAU2@ABU2@@Z ; std::vector<CMD_CS_S_RegisterPersonal,std::allocator<CMD_CS_S_RegisterPersonal> >::_Emplace_reallocate<CMD_CS_S_RegisterPersonal const &>
PUBLIC	??$addressof@V?$_Vector_val@U?$_Simple_types@UtagPersonalTableInfo@@@std@@@std@@@std@@YAPAV?$_Vector_val@U?$_Simple_types@UtagPersonalTableInfo@@@std@@@0@AAV10@@Z ; std::addressof<std::_Vector_val<std::_Simple_types<tagPersonalTableInfo> > >
PUBLIC	??$_Move_unchecked@PAUtagPersonalTableInfo@@PAU1@@std@@YAPAUtagPersonalTableInfo@@PAU1@00@Z ; std::_Move_unchecked<tagPersonalTableInfo *,tagPersonalTableInfo *>
PUBLIC	??$_Unfancy@UtagPersonalTableInfo@@@std@@YAPAUtagPersonalTableInfo@@PAU1@@Z ; std::_Unfancy<tagPersonalTableInfo>
PUBLIC	??$destroy@UtagPersonalTableInfo@@@?$_Default_allocator_traits@V?$allocator@UtagPersonalTableInfo@@@std@@@std@@SAXAAV?$allocator@UtagPersonalTableInfo@@@1@QAUtagPersonalTableInfo@@@Z ; std::_Default_allocator_traits<std::allocator<tagPersonalTableInfo> >::destroy<tagPersonalTableInfo>
PUBLIC	??$emplace_back@ABUtagPersonalTableInfo@@@?$vector@UtagPersonalTableInfo@@V?$allocator@UtagPersonalTableInfo@@@std@@@std@@QAE@ABUtagPersonalTableInfo@@@Z ; std::vector<tagPersonalTableInfo,std::allocator<tagPersonalTableInfo> >::emplace_back<tagPersonalTableInfo const &>
PUBLIC	??$forward@ABUtagPersonalTableInfo@@@std@@YAABUtagPersonalTableInfo@@ABU1@@Z ; std::forward<tagPersonalTableInfo const &>
PUBLIC	??$_Emplace_back_with_unused_capacity@ABUtagPersonalTableInfo@@@?$vector@UtagPersonalTableInfo@@V?$allocator@UtagPersonalTableInfo@@@std@@@std@@AAE@ABUtagPersonalTableInfo@@@Z ; std::vector<tagPersonalTableInfo,std::allocator<tagPersonalTableInfo> >::_Emplace_back_with_unused_capacity<tagPersonalTableInfo const &>
PUBLIC	??$construct@UtagPersonalTableInfo@@ABU1@@?$_Default_allocator_traits@V?$allocator@UtagPersonalTableInfo@@@std@@@std@@SAXAAV?$allocator@UtagPersonalTableInfo@@@1@QAUtagPersonalTableInfo@@ABU3@@Z ; std::_Default_allocator_traits<std::allocator<tagPersonalTableInfo> >::construct<tagPersonalTableInfo,tagPersonalTableInfo const &>
PUBLIC	??$_Emplace_reallocate@ABUtagPersonalTableInfo@@@?$vector@UtagPersonalTableInfo@@V?$allocator@UtagPersonalTableInfo@@@std@@@std@@QAEPAUtagPersonalTableInfo@@QAU2@ABU2@@Z ; std::vector<tagPersonalTableInfo,std::allocator<tagPersonalTableInfo> >::_Emplace_reallocate<tagPersonalTableInfo const &>
PUBLIC	??$?0$$V@?$_Compressed_pair@V?$allocator@UCMD_CS_S_RegisterPersonal@@@std@@V?$_Vector_val@U?$_Simple_types@UCMD_CS_S_RegisterPersonal@@@std@@@2@$00@std@@QAE@U_Zero_then_variadic_args_t@1@@Z ; std::_Compressed_pair<std::allocator<CMD_CS_S_RegisterPersonal>,std::_Vector_val<std::_Simple_types<CMD_CS_S_RegisterPersonal> >,1>::_Compressed_pair<std::allocator<CMD_CS_S_RegisterPersonal>,std::_Vector_val<std::_Simple_types<CMD_CS_S_RegisterPersonal> >,1><>
PUBLIC	??$?0$$V@?$_Compressed_pair@V?$allocator@UtagPersonalTableInfo@@@std@@V?$_Vector_val@U?$_Simple_types@UtagPersonalTableInfo@@@std@@@2@$00@std@@QAE@U_Zero_then_variadic_args_t@1@@Z ; std::_Compressed_pair<std::allocator<tagPersonalTableInfo>,std::_Vector_val<std::_Simple_types<tagPersonalTableInfo> >,1>::_Compressed_pair<std::allocator<tagPersonalTableInfo>,std::_Vector_val<std::_Simple_types<tagPersonalTableInfo> >,1><>
PUBLIC	??$?0UCMD_CS_S_RegisterPersonal@@@?$allocator@U_Container_proxy@std@@@std@@QAE@ABV?$allocator@UCMD_CS_S_RegisterPersonal@@@1@@Z ; std::allocator<std::_Container_proxy>::allocator<std::_Container_proxy><CMD_CS_S_RegisterPersonal>
PUBLIC	??$addressof@V?$_Vector_val@U?$_Simple_types@UCMD_CS_S_RegisterPersonal@@@std@@@std@@@std@@YAPAV?$_Vector_val@U?$_Simple_types@UCMD_CS_S_RegisterPersonal@@@std@@@0@AAV10@@Z ; std::addressof<std::_Vector_val<std::_Simple_types<CMD_CS_S_RegisterPersonal> > >
PUBLIC	??$_Destroy_range@V?$allocator@UCMD_CS_S_RegisterPersonal@@@std@@@std@@YAXPAUCMD_CS_S_RegisterPersonal@@0AAV?$allocator@UCMD_CS_S_RegisterPersonal@@@0@@Z ; std::_Destroy_range<std::allocator<CMD_CS_S_RegisterPersonal> >
PUBLIC	??$?0UtagPersonalTableInfo@@@?$allocator@U_Container_proxy@std@@@std@@QAE@ABV?$allocator@UtagPersonalTableInfo@@@1@@Z ; std::allocator<std::_Container_proxy>::allocator<std::_Container_proxy><tagPersonalTableInfo>
PUBLIC	??$_Destroy_range@V?$allocator@UtagPersonalTableInfo@@@std@@@std@@YAXPAUtagPersonalTableInfo@@0AAV?$allocator@UtagPersonalTableInfo@@@0@@Z ; std::_Destroy_range<std::allocator<tagPersonalTableInfo> >
PUBLIC	??0CPair@?$CMap@KKPAVCGlobalUserItem@@PAV1@@@IAE@K@Z ; CMap<unsigned long,unsigned long,CGlobalUserItem *,CGlobalUserItem *>::CPair::CPair
PUBLIC	??0CAssoc@?$CMap@KKPAVCGlobalUserItem@@PAV1@@@QAE@K@Z ; CMap<unsigned long,unsigned long,CGlobalUserItem *,CGlobalUserItem *>::CAssoc::CAssoc
PUBLIC	??$CompareElements@KK@@YGHPBK0@Z		; CompareElements<unsigned long,unsigned long>
PUBLIC	??$SerializeElements@K@@YGXAAVCArchive@@PAKH@Z	; SerializeElements<unsigned long>
PUBLIC	??$SerializeElements@PAVCGlobalUserItem@@@@YGXAAVCArchive@@PAPAVCGlobalUserItem@@H@Z ; SerializeElements<CGlobalUserItem *>
PUBLIC	??$DumpElements@K@@YGXAAVCDumpContext@@PBKH@Z	; DumpElements<unsigned long>
PUBLIC	??$DumpElements@PAVCGlobalUserItem@@@@YGXAAVCDumpContext@@PBQAVCGlobalUserItem@@H@Z ; DumpElements<CGlobalUserItem *>
PUBLIC	??0CPair@?$CMap@GGPAVCGlobalPlazaItem@@PAV1@@@IAE@G@Z ; CMap<unsigned short,unsigned short,CGlobalPlazaItem *,CGlobalPlazaItem *>::CPair::CPair
PUBLIC	??0CAssoc@?$CMap@GGPAVCGlobalPlazaItem@@PAV1@@@QAE@G@Z ; CMap<unsigned short,unsigned short,CGlobalPlazaItem *,CGlobalPlazaItem *>::CAssoc::CAssoc
PUBLIC	??$HashKey@G@@YGIG@Z				; HashKey<unsigned short>
PUBLIC	??$CompareElements@GG@@YGHPBG0@Z		; CompareElements<unsigned short,unsigned short>
PUBLIC	??$SerializeElements@G@@YGXAAVCArchive@@PAGH@Z	; SerializeElements<unsigned short>
PUBLIC	??$SerializeElements@PAVCGlobalPlazaItem@@@@YGXAAVCArchive@@PAPAVCGlobalPlazaItem@@H@Z ; SerializeElements<CGlobalPlazaItem *>
PUBLIC	??$DumpElements@G@@YGXAAVCDumpContext@@PBGH@Z	; DumpElements<unsigned short>
PUBLIC	??$DumpElements@PAVCGlobalPlazaItem@@@@YGXAAVCDumpContext@@PBQAVCGlobalPlazaItem@@H@Z ; DumpElements<CGlobalPlazaItem *>
PUBLIC	??0CPair@?$CMap@GGPAVCGlobalServerItem@@PAV1@@@IAE@G@Z ; CMap<unsigned short,unsigned short,CGlobalServerItem *,CGlobalServerItem *>::CPair::CPair
PUBLIC	??0CAssoc@?$CMap@GGPAVCGlobalServerItem@@PAV1@@@QAE@G@Z ; CMap<unsigned short,unsigned short,CGlobalServerItem *,CGlobalServerItem *>::CAssoc::CAssoc
PUBLIC	??$SerializeElements@PAVCGlobalServerItem@@@@YGXAAVCArchive@@PAPAVCGlobalServerItem@@H@Z ; SerializeElements<CGlobalServerItem *>
PUBLIC	??$DumpElements@PAVCGlobalServerItem@@@@YGXAAVCDumpContext@@PBQAVCGlobalServerItem@@H@Z ; DumpElements<CGlobalServerItem *>
PUBLIC	??0CPair@?$CMap@GGPAVCGlobalChatItem@@PAV1@@@IAE@G@Z ; CMap<unsigned short,unsigned short,CGlobalChatItem *,CGlobalChatItem *>::CPair::CPair
PUBLIC	??0CAssoc@?$CMap@GGPAVCGlobalChatItem@@PAV1@@@QAE@G@Z ; CMap<unsigned short,unsigned short,CGlobalChatItem *,CGlobalChatItem *>::CAssoc::CAssoc
PUBLIC	??$SerializeElements@PAVCGlobalChatItem@@@@YGXAAVCArchive@@PAPAVCGlobalChatItem@@H@Z ; SerializeElements<CGlobalChatItem *>
PUBLIC	??$DumpElements@PAVCGlobalChatItem@@@@YGXAAVCDumpContext@@PBQAVCGlobalChatItem@@H@Z ; DumpElements<CGlobalChatItem *>
PUBLIC	??0CPair@?$CMap@KKPAUtagPersonalTableInfo@@AAPAU1@@@IAE@K@Z ; CMap<unsigned long,unsigned long,tagPersonalTableInfo *,tagPersonalTableInfo * &>::CPair::CPair
PUBLIC	??0CAssoc@?$CMap@KKPAUtagPersonalTableInfo@@AAPAU1@@@QAE@K@Z ; CMap<unsigned long,unsigned long,tagPersonalTableInfo *,tagPersonalTableInfo * &>::CAssoc::CAssoc
PUBLIC	??$SerializeElements@PAUtagPersonalTableInfo@@@@YGXAAVCArchive@@PAPAUtagPersonalTableInfo@@H@Z ; SerializeElements<tagPersonalTableInfo *>
PUBLIC	??$DumpElements@PAUtagPersonalTableInfo@@@@YGXAAVCDumpContext@@PBQAUtagPersonalTableInfo@@H@Z ; DumpElements<tagPersonalTableInfo *>
PUBLIC	??$_Ptr_move_cat@UtagPersonalTableInfo@@U1@@std@@YA?AU_Really_trivial_ptr_iterator_tag@0@ABQAUtagPersonalTableInfo@@0@Z ; std::_Ptr_move_cat<tagPersonalTableInfo,tagPersonalTableInfo>
PUBLIC	??$_Move_unchecked1@PAUtagPersonalTableInfo@@PAU1@@std@@YAPAUtagPersonalTableInfo@@PAU1@00U_Trivially_copyable_ptr_iterator_tag@0@@Z ; std::_Move_unchecked1<tagPersonalTableInfo *,tagPersonalTableInfo *>
PUBLIC	??$_Destroy_range1@V?$allocator@UCMD_CS_S_RegisterPersonal@@@std@@@std@@YAXPAUCMD_CS_S_RegisterPersonal@@0AAV?$allocator@UCMD_CS_S_RegisterPersonal@@@0@U?$integral_constant@_N$00@0@@Z ; std::_Destroy_range1<std::allocator<CMD_CS_S_RegisterPersonal> >
PUBLIC	??$_Destroy_range1@V?$allocator@UtagPersonalTableInfo@@@std@@@std@@YAXPAUtagPersonalTableInfo@@0AAV?$allocator@UtagPersonalTableInfo@@@0@U?$integral_constant@_N$00@0@@Z ; std::_Destroy_range1<std::allocator<tagPersonalTableInfo> >
PUBLIC	??$_Uninitialized_move@PAUCMD_CS_S_RegisterPersonal@@PAU1@V?$allocator@UCMD_CS_S_RegisterPersonal@@@std@@@std@@YAPAUCMD_CS_S_RegisterPersonal@@QAU1@0PAU1@AAV?$allocator@UCMD_CS_S_RegisterPersonal@@@0@@Z ; std::_Uninitialized_move<CMD_CS_S_RegisterPersonal *,CMD_CS_S_RegisterPersonal *,std::allocator<CMD_CS_S_RegisterPersonal> >
PUBLIC	??$_Uninitialized_move@PAUtagPersonalTableInfo@@PAU1@V?$allocator@UtagPersonalTableInfo@@@std@@@std@@YAPAUtagPersonalTableInfo@@QAU1@0PAU1@AAV?$allocator@UtagPersonalTableInfo@@@0@@Z ; std::_Uninitialized_move<tagPersonalTableInfo *,tagPersonalTableInfo *,std::allocator<tagPersonalTableInfo> >
PUBLIC	??$_Get_size_of_n@$0NB@@std@@YAII@Z		; std::_Get_size_of_n<209>
PUBLIC	??$_Copy_memmove@PAUtagPersonalTableInfo@@PAU1@@std@@YAPAUtagPersonalTableInfo@@PAU1@00@Z ; std::_Copy_memmove<tagPersonalTableInfo *,tagPersonalTableInfo *>
PUBLIC	??$_Get_unwrapped@UCMD_CS_S_RegisterPersonal@@@std@@YAPAUCMD_CS_S_RegisterPersonal@@QAU1@@Z ; std::_Get_unwrapped<CMD_CS_S_RegisterPersonal>
PUBLIC	??$_Idl_distance@PAUCMD_CS_S_RegisterPersonal@@PAU1@@std@@YA@ABQAUCMD_CS_S_RegisterPersonal@@0@Z ; std::_Idl_distance<CMD_CS_S_RegisterPersonal *,CMD_CS_S_RegisterPersonal *>
PUBLIC	??$_Idl_distance1@PAUCMD_CS_S_RegisterPersonal@@PAU1@@std@@YAHABQAUCMD_CS_S_RegisterPersonal@@0Urandom_access_iterator_tag@0@@Z ; std::_Idl_distance1<CMD_CS_S_RegisterPersonal *,CMD_CS_S_RegisterPersonal *>
PUBLIC	??$_Get_unwrapped_n@UCMD_CS_S_RegisterPersonal@@H$0A@@std@@YAPAUCMD_CS_S_RegisterPersonal@@QAU1@H@Z ; std::_Get_unwrapped_n<CMD_CS_S_RegisterPersonal,int,0>
PUBLIC	??$_Ptr_move_cat@UCMD_CS_S_RegisterPersonal@@U1@@std@@YA?AU_Really_trivial_ptr_iterator_tag@0@ABQAUCMD_CS_S_RegisterPersonal@@0@Z ; std::_Ptr_move_cat<CMD_CS_S_RegisterPersonal,CMD_CS_S_RegisterPersonal>
PUBLIC	??$_Uninitialized_move_al_unchecked@UCMD_CS_S_RegisterPersonal@@U1@V?$allocator@UCMD_CS_S_RegisterPersonal@@@std@@@std@@YAPAUCMD_CS_S_RegisterPersonal@@QAU1@00AAV?$allocator@UCMD_CS_S_RegisterPersonal@@@0@U_Really_trivial_ptr_iterator_tag@0@U?$integral_constant@_N$00@0@@Z ; std::_Uninitialized_move_al_unchecked<CMD_CS_S_RegisterPersonal,CMD_CS_S_RegisterPersonal,std::allocator<CMD_CS_S_RegisterPersonal> >
PUBLIC	??$_Seek_wrapped@UCMD_CS_S_RegisterPersonal@@@std@@YAXAAPAUCMD_CS_S_RegisterPersonal@@QAU1@@Z ; std::_Seek_wrapped<CMD_CS_S_RegisterPersonal>
PUBLIC	??$_Get_unwrapped@UtagPersonalTableInfo@@@std@@YAPAUtagPersonalTableInfo@@QAU1@@Z ; std::_Get_unwrapped<tagPersonalTableInfo>
PUBLIC	??$_Idl_distance@PAUtagPersonalTableInfo@@PAU1@@std@@YA@ABQAUtagPersonalTableInfo@@0@Z ; std::_Idl_distance<tagPersonalTableInfo *,tagPersonalTableInfo *>
PUBLIC	??$_Idl_distance1@PAUtagPersonalTableInfo@@PAU1@@std@@YAHABQAUtagPersonalTableInfo@@0Urandom_access_iterator_tag@0@@Z ; std::_Idl_distance1<tagPersonalTableInfo *,tagPersonalTableInfo *>
PUBLIC	??$_Get_unwrapped_n@UtagPersonalTableInfo@@H$0A@@std@@YAPAUtagPersonalTableInfo@@QAU1@H@Z ; std::_Get_unwrapped_n<tagPersonalTableInfo,int,0>
PUBLIC	??$_Uninitialized_move_al_unchecked@UtagPersonalTableInfo@@U1@V?$allocator@UtagPersonalTableInfo@@@std@@@std@@YAPAUtagPersonalTableInfo@@QAU1@00AAV?$allocator@UtagPersonalTableInfo@@@0@U_Really_trivial_ptr_iterator_tag@0@U?$integral_constant@_N$00@0@@Z ; std::_Uninitialized_move_al_unchecked<tagPersonalTableInfo,tagPersonalTableInfo,std::allocator<tagPersonalTableInfo> >
PUBLIC	??$_Seek_wrapped@UtagPersonalTableInfo@@@std@@YAXAAPAUtagPersonalTableInfo@@QAU1@@Z ; std::_Seek_wrapped<tagPersonalTableInfo>
PUBLIC	??$_Copy_memmove@PAUCMD_CS_S_RegisterPersonal@@PAU1@@std@@YAPAUCMD_CS_S_RegisterPersonal@@PAU1@00@Z ; std::_Copy_memmove<CMD_CS_S_RegisterPersonal *,CMD_CS_S_RegisterPersonal *>
PUBLIC	??_C@_00CNPNBAHC@@				; `string'
PUBLIC	??_C@_0BB@FCMFBGOM@invalid?5argument@		; `string'
PUBLIC	??_C@_02DKCKIIND@?$CFs@				; `string'
PUBLIC	??_C@_1CG@JNLFBNGN@?$AA?$CC?$AAi?$AAn?$AAv?$AAa?$AAl?$AAi?$AAd?$AA?5?$AAa?$AAr?$AAg?$AAu?$AAm?$AAe@ ; `string'
PUBLIC	??_C@_0BJ@LFDBABJJ@ITERATOR?5LIST?5CORRUPTED?$CB@ ; `string'
PUBLIC	??_C@_0GJ@EJIMBHLG@c?3?2program?5files?5?$CIx86?$CJ?2microsof@ ; `string'
PUBLIC	??_C@_1NC@FANNPLN@?$AAc?$AA?3?$AA?2?$AAp?$AAr?$AAo?$AAg?$AAr?$AAa?$AAm?$AA?5?$AAf?$AAi?$AAl?$AAe@ ; `string'
PUBLIC	??_C@_1EE@KLDMFDFL@?$AAs?$AAt?$AAd?$AA?3?$AA?3?$AA_?$AAI?$AAt?$AAe?$AAr?$AAa?$AAt?$AAo?$AAr?$AA_@ ; `string'
PUBLIC	??_C@_1DG@PLBPCAEM@?$AA?$CC?$AAI?$AAT?$AAE?$AAR?$AAA?$AAT?$AAO?$AAR?$AA?5?$AAL?$AAI?$AAS?$AAT?$AA?5@ ; `string'
PUBLIC	?__LINE__Var@?0??_Adjust_manually_vector_aligned@std@@YAXAAPAXAAI@Z@4JA ; `std::_Adjust_manually_vector_aligned'::`1'::__LINE__Var
PUBLIC	??_C@_0GJ@FFDBCFBF@c?3?2program?5files?5?$CIx86?$CJ?2microsof@ ; `string'
PUBLIC	??_C@_1NC@PIOGAKBO@?$AAc?$AA?3?$AA?2?$AAp?$AAr?$AAo?$AAg?$AAr?$AAa?$AAm?$AA?5?$AAf?$AAi?$AAl?$AAe@ ; `string'
PUBLIC	??_C@_1EK@NIFDJFDG@?$AAs?$AAt?$AAd?$AA?3?$AA?3?$AA_?$AAA?$AAd?$AAj?$AAu?$AAs?$AAt?$AA_?$AAm?$AAa@ ; `string'
PUBLIC	??_C@_0HC@HBCNBCLF@c?3?2program?5files?5?$CIx86?$CJ?2microsof@ ; `string'
PUBLIC	??_C@_05PLCFPPOI@with?5@			; `string'
PUBLIC	??_C@_09HCLNAIDE@?5elements@			; `string'
PUBLIC	??_C@_01EEMJAFIK@?6@				; `string'
PUBLIC	??_C@_1EO@GFNCMDLA@?$AAs?$AAt?$AAd?$AA?3?$AA?3?$AA_?$AAA?$AAl?$AAl?$AAo?$AAc?$AAa?$AAt?$AAe?$AA_@ ; `string'
PUBLIC	??_R1A@?0A@EA@CObject@@8			; CObject::`RTTI Base Class Descriptor at (0,-1,0,64)'
PUBLIC	??_R0?AVCObject@@@8				; CObject `RTTI Type Descriptor'
PUBLIC	??_R3CObject@@8					; CObject::`RTTI Class Hierarchy Descriptor'
PUBLIC	??_R2CObject@@8					; CObject::`RTTI Base Class Array'
PUBLIC	??_7?$CWHArray@PAVCGlobalServerItem@@ABQAV1@@@6B@ ; CWHArray<CGlobalServerItem *,CGlobalServerItem * const &>::`vftable'
PUBLIC	??_7CGlobalUserItem@@6B@			; CGlobalUserItem::`vftable'
PUBLIC	??_7?$CMap@KKPAVCGlobalUserItem@@PAV1@@@6B@	; CMap<unsigned long,unsigned long,CGlobalUserItem *,CGlobalUserItem *>::`vftable'
PUBLIC	??_7CGlobalPlazaItem@@6B@			; CGlobalPlazaItem::`vftable'
PUBLIC	??_7CGlobalServerItem@@6B@			; CGlobalServerItem::`vftable'
PUBLIC	??_7CGlobalChatItem@@6B@			; CGlobalChatItem::`vftable'
PUBLIC	??_7?$CMap@GGPAVCGlobalPlazaItem@@PAV1@@@6B@	; CMap<unsigned short,unsigned short,CGlobalPlazaItem *,CGlobalPlazaItem *>::`vftable'
PUBLIC	??_7?$CMap@GGPAVCGlobalServerItem@@PAV1@@@6B@	; CMap<unsigned short,unsigned short,CGlobalServerItem *,CGlobalServerItem *>::`vftable'
PUBLIC	??_7?$CMap@GGPAVCGlobalChatItem@@PAV1@@@6B@	; CMap<unsigned short,unsigned short,CGlobalChatItem *,CGlobalChatItem *>::`vftable'
PUBLIC	??_7?$CWHArray@PAUtagServerTableCount@@ABQAU1@@@6B@ ; CWHArray<tagServerTableCount *,tagServerTableCount * const &>::`vftable'
PUBLIC	??_7?$CMap@KKPAUtagPersonalTableInfo@@AAPAU1@@@6B@ ; CMap<unsigned long,unsigned long,tagPersonalTableInfo *,tagPersonalTableInfo * &>::`vftable'
PUBLIC	??_7CGlobalInfoManager@@6B@			; CGlobalInfoManager::`vftable'
PUBLIC	?__LINE__Var@?0???1CGlobalInfoManager@@UAE@XZ@4JA ; `CGlobalInfoManager::~CGlobalInfoManager'::`1'::__LINE__Var
PUBLIC	??_C@_0FA@MAJEPLPJ@g?3?2?M?x?$LK?$PM?2happygamewh?2?$LH?$PO?N?q?$LG?K?2?O?$LF?M?$LD@ ; `string'
PUBLIC	?__LINE__Var@?0??RemoveServerTable@CGlobalInfoManager@@QAE_NKK@Z@4JA ; `CGlobalInfoManager::RemoveServerTable'::`1'::__LINE__Var
PUBLIC	?__LINE__Var@?0??RemoveServerTable@CGlobalInfoManager@@QAE_NK@Z@4JA ; `CGlobalInfoManager::RemoveServerTable'::`1'::__LINE__Var
PUBLIC	?__LINE__Var@?0??DeleteUserItem@CGlobalInfoManager@@QAE_NKG@Z@4JA ; `CGlobalInfoManager::DeleteUserItem'::`1'::__LINE__Var
PUBLIC	?__LINE__Var@?0??ActiveUserItem@CGlobalInfoManager@@QAE_NAAUtagGlobalUserInfo@@G@Z@4JA ; `CGlobalInfoManager::ActiveUserItem'::`1'::__LINE__Var
PUBLIC	?__LINE__Var@?0??DeletePlazaItem@CGlobalInfoManager@@QAE_NG@Z@4JA ; `CGlobalInfoManager::DeletePlazaItem'::`1'::__LINE__Var
PUBLIC	?__LINE__Var@?0??ActivePlazaItem@CGlobalInfoManager@@QAE_NGAAUtagGamePlaza@@@Z@4JA ; `CGlobalInfoManager::ActivePlazaItem'::`1'::__LINE__Var
PUBLIC	?__LINE__Var@?0??DeleteServerItem@CGlobalInfoManager@@QAE_NG@Z@4JA ; `CGlobalInfoManager::DeleteServerItem'::`1'::__LINE__Var
PUBLIC	?__LINE__Var@?0??ActiveServerItem@CGlobalInfoManager@@QAE_NGAAUtagGameServer@@@Z@4JA ; `CGlobalInfoManager::ActiveServerItem'::`1'::__LINE__Var
PUBLIC	?__LINE__Var@?0??DeleteChatItem@CGlobalInfoManager@@QAE_NG@Z@4JA ; `CGlobalInfoManager::DeleteChatItem'::`1'::__LINE__Var
PUBLIC	?__LINE__Var@?0??ActiveChatItem@CGlobalInfoManager@@QAE_NGAAUtagChatServer@@@Z@4JA ; `CGlobalInfoManager::ActiveChatItem'::`1'::__LINE__Var
PUBLIC	?__LINE__Var@?0??FreeGlobalUserItem@CGlobalInfoManager@@AAE_NPAVCGlobalUserItem@@@Z@4JA ; `CGlobalInfoManager::FreeGlobalUserItem'::`1'::__LINE__Var
PUBLIC	?__LINE__Var@?0??FreeGlobalPlazaItem@CGlobalInfoManager@@AAE_NPAVCGlobalPlazaItem@@@Z@4JA ; `CGlobalInfoManager::FreeGlobalPlazaItem'::`1'::__LINE__Var
PUBLIC	?__LINE__Var@?0??FreeGlobalServerItem@CGlobalInfoManager@@AAE_NPAVCGlobalServerItem@@@Z@4JA ; `CGlobalInfoManager::FreeGlobalServerItem'::`1'::__LINE__Var
PUBLIC	?__LINE__Var@?0??FreeGlobalChatItem@CGlobalInfoManager@@AAE_NPAVCGlobalChatItem@@@Z@4JA ; `CGlobalInfoManager::FreeGlobalChatItem'::`1'::__LINE__Var
PUBLIC	??_C@_0BO@PFKOHNJC@vector?5subscript?5out?5of?5range@ ; `string'
PUBLIC	??_C@_0GH@FKAHJGEE@c?3?2program?5files?5?$CIx86?$CJ?2microsof@ ; `string'
PUBLIC	??_C@_1MO@OJBMIJHH@?$AAc?$AA?3?$AA?2?$AAp?$AAr?$AAo?$AAg?$AAr?$AAa?$AAm?$AA?5?$AAf?$AAi?$AAl?$AAe@ ; `string'
PUBLIC	??_C@_1OG@HDLNKHLM@?$AAs?$AAt?$AAd?$AA?3?$AA?3?$AAv?$AAe?$AAc?$AAt?$AAo?$AAr?$AA?$DM?$AAs?$AAt?$AAr@ ; `string'
PUBLIC	??_C@_1EA@LEKOKFNB@?$AA?$CC?$AAv?$AAe?$AAc?$AAt?$AAo?$AAr?$AA?5?$AAs?$AAu?$AAb?$AAs?$AAc?$AAr?$AAi@ ; `string'
PUBLIC	??_C@_1NC@IPECMLIE@?$AAs?$AAt?$AAd?$AA?3?$AA?3?$AAv?$AAe?$AAc?$AAt?$AAo?$AAr?$AA?$DM?$AAs?$AAt?$AAr@ ; `string'
PUBLIC	??_C@_0CE@EAMOGAIE@vector?5erase?5iterator?5outside?5r@ ; `string'
PUBLIC	??_C@_1MG@DGHPNNHF@?$AAs?$AAt?$AAd?$AA?3?$AA?3?$AAv?$AAe?$AAc?$AAt?$AAo?$AAr?$AA?$DM?$AAs?$AAt?$AAr@ ; `string'
PUBLIC	??_C@_1EM@BEMPOGMM@?$AA?$CC?$AAv?$AAe?$AAc?$AAt?$AAo?$AAr?$AA?5?$AAe?$AAr?$AAa?$AAs?$AAe?$AA?5?$AAi@ ; `string'
PUBLIC	??_C@_0CO@LHPFLLJB@cannot?5seek?5value?9initialized?5v@ ; `string'
PUBLIC	??_C@_1PM@OPIBNBPL@?$AAs?$AAt?$AAd?$AA?3?$AA?3?$AA_?$AAV?$AAe?$AAc?$AAt?$AAo?$AAr?$AA_?$AAc?$AAo@ ; `string'
PUBLIC	??_C@_1GA@EIHBFEJD@?$AA?$CC?$AAc?$AAa?$AAn?$AAn?$AAo?$AAt?$AA?5?$AAs?$AAe?$AAe?$AAk?$AA?5?$AAv?$AAa@ ; `string'
PUBLIC	??_C@_0CJ@DIFMEJBE@cannot?5seek?5vector?5iterator?5bef@ ; `string'
PUBLIC	??_C@_1FG@JCGKNFIB@?$AA?$CC?$AAc?$AAa?$AAn?$AAn?$AAo?$AAt?$AA?5?$AAs?$AAe?$AAe?$AAk?$AA?5?$AAv?$AAe@ ; `string'
PUBLIC	??_C@_0CG@JDIOCKHH@cannot?5seek?5vector?5iterator?5aft@ ; `string'
PUBLIC	??_C@_1FA@LCODAPOP@?$AA?$CC?$AAc?$AAa?$AAn?$AAn?$AAo?$AAt?$AA?5?$AAs?$AAe?$AAe?$AAk?$AA?5?$AAv?$AAe@ ; `string'
PUBLIC	??_C@_0DF@LDFGAABH@g?3?2?M?x?$LK?$PM?2happygamewh?2?$LH?$PO?N?q?$LG?K?2?O?$LF?M?$LD@ ; `string'
PUBLIC	??_C@_03OHJIHPJH@?6?7?$FL@			; `string'
PUBLIC	??_C@_04OAFLPOMH@?$FN?5?$DN?5@			; `string'
PUBLIC	??_C@_0BD@OLBABOEK@vector?$DMT?$DO?5too?5long@	; `string'
PUBLIC	??_R4CGlobalUserItem@@6B@			; CGlobalUserItem::`RTTI Complete Object Locator'
PUBLIC	??_R0?AVCGlobalUserItem@@@8			; CGlobalUserItem `RTTI Type Descriptor'
PUBLIC	??_R3CGlobalUserItem@@8				; CGlobalUserItem::`RTTI Class Hierarchy Descriptor'
PUBLIC	??_R2CGlobalUserItem@@8				; CGlobalUserItem::`RTTI Base Class Array'
PUBLIC	??_R1A@?0A@EA@CGlobalUserItem@@8		; CGlobalUserItem::`RTTI Base Class Descriptor at (0,-1,0,64)'
PUBLIC	??_R4CGlobalPlazaItem@@6B@			; CGlobalPlazaItem::`RTTI Complete Object Locator'
PUBLIC	??_R0?AVCGlobalPlazaItem@@@8			; CGlobalPlazaItem `RTTI Type Descriptor'
PUBLIC	??_R3CGlobalPlazaItem@@8			; CGlobalPlazaItem::`RTTI Class Hierarchy Descriptor'
PUBLIC	??_R2CGlobalPlazaItem@@8			; CGlobalPlazaItem::`RTTI Base Class Array'
PUBLIC	??_R1A@?0A@EA@CGlobalPlazaItem@@8		; CGlobalPlazaItem::`RTTI Base Class Descriptor at (0,-1,0,64)'
PUBLIC	??_R4CGlobalServerItem@@6B@			; CGlobalServerItem::`RTTI Complete Object Locator'
PUBLIC	??_R0?AVCGlobalServerItem@@@8			; CGlobalServerItem `RTTI Type Descriptor'
PUBLIC	??_R3CGlobalServerItem@@8			; CGlobalServerItem::`RTTI Class Hierarchy Descriptor'
PUBLIC	??_R2CGlobalServerItem@@8			; CGlobalServerItem::`RTTI Base Class Array'
PUBLIC	??_R1A@?0A@EA@CGlobalServerItem@@8		; CGlobalServerItem::`RTTI Base Class Descriptor at (0,-1,0,64)'
PUBLIC	??_R4CGlobalChatItem@@6B@			; CGlobalChatItem::`RTTI Complete Object Locator'
PUBLIC	??_R0?AVCGlobalChatItem@@@8			; CGlobalChatItem `RTTI Type Descriptor'
PUBLIC	??_R3CGlobalChatItem@@8				; CGlobalChatItem::`RTTI Class Hierarchy Descriptor'
PUBLIC	??_R2CGlobalChatItem@@8				; CGlobalChatItem::`RTTI Base Class Array'
PUBLIC	??_R1A@?0A@EA@CGlobalChatItem@@8		; CGlobalChatItem::`RTTI Base Class Descriptor at (0,-1,0,64)'
PUBLIC	??_R4?$CWHArray@PAVCGlobalServerItem@@ABQAV1@@@6B@ ; CWHArray<CGlobalServerItem *,CGlobalServerItem * const &>::`RTTI Complete Object Locator'
PUBLIC	??_R0?AV?$CWHArray@PAVCGlobalServerItem@@ABQAV1@@@@8 ; CWHArray<CGlobalServerItem *,CGlobalServerItem * const &> `RTTI Type Descriptor'
PUBLIC	??_R3?$CWHArray@PAVCGlobalServerItem@@ABQAV1@@@8 ; CWHArray<CGlobalServerItem *,CGlobalServerItem * const &>::`RTTI Class Hierarchy Descriptor'
PUBLIC	??_R2?$CWHArray@PAVCGlobalServerItem@@ABQAV1@@@8 ; CWHArray<CGlobalServerItem *,CGlobalServerItem * const &>::`RTTI Base Class Array'
PUBLIC	??_R1A@?0A@EA@?$CWHArray@PAVCGlobalServerItem@@ABQAV1@@@8 ; CWHArray<CGlobalServerItem *,CGlobalServerItem * const &>::`RTTI Base Class Descriptor at (0,-1,0,64)'
PUBLIC	??_R4?$CMap@KKPAVCGlobalUserItem@@PAV1@@@6B@	; CMap<unsigned long,unsigned long,CGlobalUserItem *,CGlobalUserItem *>::`RTTI Complete Object Locator'
PUBLIC	??_R0?AV?$CMap@KKPAVCGlobalUserItem@@PAV1@@@@8	; CMap<unsigned long,unsigned long,CGlobalUserItem *,CGlobalUserItem *> `RTTI Type Descriptor'
PUBLIC	??_R3?$CMap@KKPAVCGlobalUserItem@@PAV1@@@8	; CMap<unsigned long,unsigned long,CGlobalUserItem *,CGlobalUserItem *>::`RTTI Class Hierarchy Descriptor'
PUBLIC	??_R2?$CMap@KKPAVCGlobalUserItem@@PAV1@@@8	; CMap<unsigned long,unsigned long,CGlobalUserItem *,CGlobalUserItem *>::`RTTI Base Class Array'
PUBLIC	??_R1A@?0A@EA@?$CMap@KKPAVCGlobalUserItem@@PAV1@@@8 ; CMap<unsigned long,unsigned long,CGlobalUserItem *,CGlobalUserItem *>::`RTTI Base Class Descriptor at (0,-1,0,64)'
PUBLIC	??_R4?$CMap@GGPAVCGlobalPlazaItem@@PAV1@@@6B@	; CMap<unsigned short,unsigned short,CGlobalPlazaItem *,CGlobalPlazaItem *>::`RTTI Complete Object Locator'
PUBLIC	??_R0?AV?$CMap@GGPAVCGlobalPlazaItem@@PAV1@@@@8	; CMap<unsigned short,unsigned short,CGlobalPlazaItem *,CGlobalPlazaItem *> `RTTI Type Descriptor'
PUBLIC	??_R3?$CMap@GGPAVCGlobalPlazaItem@@PAV1@@@8	; CMap<unsigned short,unsigned short,CGlobalPlazaItem *,CGlobalPlazaItem *>::`RTTI Class Hierarchy Descriptor'
PUBLIC	??_R2?$CMap@GGPAVCGlobalPlazaItem@@PAV1@@@8	; CMap<unsigned short,unsigned short,CGlobalPlazaItem *,CGlobalPlazaItem *>::`RTTI Base Class Array'
PUBLIC	??_R1A@?0A@EA@?$CMap@GGPAVCGlobalPlazaItem@@PAV1@@@8 ; CMap<unsigned short,unsigned short,CGlobalPlazaItem *,CGlobalPlazaItem *>::`RTTI Base Class Descriptor at (0,-1,0,64)'
PUBLIC	??_R4?$CMap@GGPAVCGlobalServerItem@@PAV1@@@6B@	; CMap<unsigned short,unsigned short,CGlobalServerItem *,CGlobalServerItem *>::`RTTI Complete Object Locator'
PUBLIC	??_R0?AV?$CMap@GGPAVCGlobalServerItem@@PAV1@@@@8 ; CMap<unsigned short,unsigned short,CGlobalServerItem *,CGlobalServerItem *> `RTTI Type Descriptor'
PUBLIC	??_R3?$CMap@GGPAVCGlobalServerItem@@PAV1@@@8	; CMap<unsigned short,unsigned short,CGlobalServerItem *,CGlobalServerItem *>::`RTTI Class Hierarchy Descriptor'
PUBLIC	??_R2?$CMap@GGPAVCGlobalServerItem@@PAV1@@@8	; CMap<unsigned short,unsigned short,CGlobalServerItem *,CGlobalServerItem *>::`RTTI Base Class Array'
PUBLIC	??_R1A@?0A@EA@?$CMap@GGPAVCGlobalServerItem@@PAV1@@@8 ; CMap<unsigned short,unsigned short,CGlobalServerItem *,CGlobalServerItem *>::`RTTI Base Class Descriptor at (0,-1,0,64)'
PUBLIC	??_R4?$CMap@GGPAVCGlobalChatItem@@PAV1@@@6B@	; CMap<unsigned short,unsigned short,CGlobalChatItem *,CGlobalChatItem *>::`RTTI Complete Object Locator'
PUBLIC	??_R0?AV?$CMap@GGPAVCGlobalChatItem@@PAV1@@@@8	; CMap<unsigned short,unsigned short,CGlobalChatItem *,CGlobalChatItem *> `RTTI Type Descriptor'
PUBLIC	??_R3?$CMap@GGPAVCGlobalChatItem@@PAV1@@@8	; CMap<unsigned short,unsigned short,CGlobalChatItem *,CGlobalChatItem *>::`RTTI Class Hierarchy Descriptor'
PUBLIC	??_R2?$CMap@GGPAVCGlobalChatItem@@PAV1@@@8	; CMap<unsigned short,unsigned short,CGlobalChatItem *,CGlobalChatItem *>::`RTTI Base Class Array'
PUBLIC	??_R1A@?0A@EA@?$CMap@GGPAVCGlobalChatItem@@PAV1@@@8 ; CMap<unsigned short,unsigned short,CGlobalChatItem *,CGlobalChatItem *>::`RTTI Base Class Descriptor at (0,-1,0,64)'
PUBLIC	??_R4?$CMap@KKPAUtagPersonalTableInfo@@AAPAU1@@@6B@ ; CMap<unsigned long,unsigned long,tagPersonalTableInfo *,tagPersonalTableInfo * &>::`RTTI Complete Object Locator'
PUBLIC	??_R0?AV?$CMap@KKPAUtagPersonalTableInfo@@AAPAU1@@@@8 ; CMap<unsigned long,unsigned long,tagPersonalTableInfo *,tagPersonalTableInfo * &> `RTTI Type Descriptor'
PUBLIC	??_R3?$CMap@KKPAUtagPersonalTableInfo@@AAPAU1@@@8 ; CMap<unsigned long,unsigned long,tagPersonalTableInfo *,tagPersonalTableInfo * &>::`RTTI Class Hierarchy Descriptor'
PUBLIC	??_R2?$CMap@KKPAUtagPersonalTableInfo@@AAPAU1@@@8 ; CMap<unsigned long,unsigned long,tagPersonalTableInfo *,tagPersonalTableInfo * &>::`RTTI Base Class Array'
PUBLIC	??_R1A@?0A@EA@?$CMap@KKPAUtagPersonalTableInfo@@AAPAU1@@@8 ; CMap<unsigned long,unsigned long,tagPersonalTableInfo *,tagPersonalTableInfo * &>::`RTTI Base Class Descriptor at (0,-1,0,64)'
PUBLIC	??_R4?$CWHArray@PAUtagServerTableCount@@ABQAU1@@@6B@ ; CWHArray<tagServerTableCount *,tagServerTableCount * const &>::`RTTI Complete Object Locator'
PUBLIC	??_R0?AV?$CWHArray@PAUtagServerTableCount@@ABQAU1@@@@8 ; CWHArray<tagServerTableCount *,tagServerTableCount * const &> `RTTI Type Descriptor'
PUBLIC	??_R3?$CWHArray@PAUtagServerTableCount@@ABQAU1@@@8 ; CWHArray<tagServerTableCount *,tagServerTableCount * const &>::`RTTI Class Hierarchy Descriptor'
PUBLIC	??_R2?$CWHArray@PAUtagServerTableCount@@ABQAU1@@@8 ; CWHArray<tagServerTableCount *,tagServerTableCount * const &>::`RTTI Base Class Array'
PUBLIC	??_R1A@?0A@EA@?$CWHArray@PAUtagServerTableCount@@ABQAU1@@@8 ; CWHArray<tagServerTableCount *,tagServerTableCount * const &>::`RTTI Base Class Descriptor at (0,-1,0,64)'
PUBLIC	??_R4CGlobalInfoManager@@6B@			; CGlobalInfoManager::`RTTI Complete Object Locator'
PUBLIC	??_R0?AVCGlobalInfoManager@@@8			; CGlobalInfoManager `RTTI Type Descriptor'
PUBLIC	??_R3CGlobalInfoManager@@8			; CGlobalInfoManager::`RTTI Class Hierarchy Descriptor'
PUBLIC	??_R2CGlobalInfoManager@@8			; CGlobalInfoManager::`RTTI Base Class Array'
PUBLIC	??_R1A@?0A@EA@CGlobalInfoManager@@8		; CGlobalInfoManager::`RTTI Base Class Descriptor at (0,-1,0,64)'
EXTRN	??2@YAPAXI@Z:PROC				; operator new
EXTRN	??3@YAXPAXI@Z:PROC				; operator delete
EXTRN	?__global_delete@@YAXPAXI@Z:PROC		; __global_delete
EXTRN	??_U@YAPAXI@Z:PROC				; operator new[]
EXTRN	??_V@YAXPAX@Z:PROC				; operator delete[]
EXTRN	__imp___invalid_parameter:PROC
EXTRN	_memcpy:PROC
EXTRN	_memmove:PROC
EXTRN	_memset:PROC
EXTRN	__imp__lstrcpynA@12:PROC
EXTRN	__imp__PeekMessageA@20:PROC
EXTRN	__imp__PostQuitMessage@4:PROC
EXTRN	__imp__ldiv:PROC
EXTRN	__imp__srand:PROC
EXTRN	__imp__rand:PROC
EXTRN	__imp___CrtDbgReport:PROC
EXTRN	?AfxAssertValidObject@@YGXPBVCObject@@PBDH@Z:PROC ; AfxAssertValidObject
EXTRN	?AfxThrowInvalidArgException@@YGXXZ:PROC	; AfxThrowInvalidArgException
EXTRN	?GetRuntimeClass@CObject@@UBEPAUCRuntimeClass@@XZ:PROC ; CObject::GetRuntimeClass
EXTRN	??1CObject@@UAE@XZ:PROC				; CObject::~CObject
EXTRN	??3CObject@@SGXPAX@Z:PROC			; CObject::operator delete
EXTRN	??0CObject@@IAE@XZ:PROC				; CObject::CObject
EXTRN	?Serialize@CObject@@UAEXAAVCArchive@@@Z:PROC	; CObject::Serialize
EXTRN	?AssertValid@CObject@@UBEXXZ:PROC		; CObject::AssertValid
EXTRN	?Dump@CObject@@UBEXAAVCDumpContext@@@Z:PROC	; CObject::Dump
EXTRN	?AfxIsValidAddress@@YGHPBXIH@Z:PROC		; AfxIsValidAddress
EXTRN	??_U@YAPAXIPBDH@Z:PROC				; operator new[]
EXTRN	?IsStoring@CArchive@@QBEHXZ:PROC		; CArchive::IsStoring
EXTRN	?EnsureRead@CArchive@@QAEXPAXI@Z:PROC		; CArchive::EnsureRead
EXTRN	?Write@CArchive@@QAEXPBXI@Z:PROC		; CArchive::Write
EXTRN	?ReadCount@CArchive@@QAEKXZ:PROC		; CArchive::ReadCount
EXTRN	?WriteCount@CArchive@@QAEXK@Z:PROC		; CArchive::WriteCount
EXTRN	?GetDepth@CDumpContext@@QBEHXZ:PROC		; CDumpContext::GetDepth
EXTRN	??6CDumpContext@@QAEAAV0@PBD@Z:PROC		; CDumpContext::operator<<
EXTRN	??6CDumpContext@@QAEAAV0@H@Z:PROC		; CDumpContext::operator<<
EXTRN	??0CMapStringToPtr@@QAE@H@Z:PROC		; CMapStringToPtr::CMapStringToPtr
EXTRN	?Lookup@CMapStringToPtr@@QBEHPBDAAPAX@Z:PROC	; CMapStringToPtr::Lookup
EXTRN	??ACMapStringToPtr@@QAEAAPAXPBD@Z:PROC		; CMapStringToPtr::operator[]
EXTRN	?RemoveKey@CMapStringToPtr@@QAEHPBD@Z:PROC	; CMapStringToPtr::RemoveKey
EXTRN	?RemoveAll@CMapStringToPtr@@QAEXXZ:PROC		; CMapStringToPtr::RemoveAll
EXTRN	?InitHashTable@CMapStringToPtr@@QAEXIH@Z:PROC	; CMapStringToPtr::InitHashTable
EXTRN	??1CMapStringToPtr@@UAE@XZ:PROC			; CMapStringToPtr::~CMapStringToPtr
EXTRN	?Create@CPlex@@SGPAU1@AAPAU1@II@Z:PROC		; CPlex::Create
EXTRN	?FreeDataChain@CPlex@@QAEXXZ:PROC		; CPlex::FreeDataChain
EXTRN	__imp_??0_Lockit@std@@QAE@H@Z:PROC
EXTRN	__imp_??1_Lockit@std@@QAE@XZ:PROC
EXTRN	?_Xlength_error@std@@YAXPBD@Z:PROC		; std::_Xlength_error
EXTRN	??_E?$CWHArray@PAVCGlobalServerItem@@ABQAV1@@@UAEPAXI@Z:PROC ; CWHArray<CGlobalServerItem *,CGlobalServerItem * const &>::`vector deleting destructor'
EXTRN	??_ECGlobalUserItem@@MAEPAXI@Z:PROC		; CGlobalUserItem::`vector deleting destructor'
EXTRN	??_E?$CMap@KKPAVCGlobalUserItem@@PAV1@@@UAEPAXI@Z:PROC ; CMap<unsigned long,unsigned long,CGlobalUserItem *,CGlobalUserItem *>::`vector deleting destructor'
EXTRN	??_ECGlobalPlazaItem@@MAEPAXI@Z:PROC		; CGlobalPlazaItem::`vector deleting destructor'
EXTRN	??_ECGlobalServerItem@@MAEPAXI@Z:PROC		; CGlobalServerItem::`vector deleting destructor'
EXTRN	??_ECGlobalChatItem@@MAEPAXI@Z:PROC		; CGlobalChatItem::`vector deleting destructor'
EXTRN	??_E?$CMap@GGPAVCGlobalPlazaItem@@PAV1@@@UAEPAXI@Z:PROC ; CMap<unsigned short,unsigned short,CGlobalPlazaItem *,CGlobalPlazaItem *>::`vector deleting destructor'
EXTRN	??_E?$CMap@GGPAVCGlobalServerItem@@PAV1@@@UAEPAXI@Z:PROC ; CMap<unsigned short,unsigned short,CGlobalServerItem *,CGlobalServerItem *>::`vector deleting destructor'
EXTRN	??_E?$CMap@GGPAVCGlobalChatItem@@PAV1@@@UAEPAXI@Z:PROC ; CMap<unsigned short,unsigned short,CGlobalChatItem *,CGlobalChatItem *>::`vector deleting destructor'
EXTRN	??_E?$CWHArray@PAUtagServerTableCount@@ABQAU1@@@UAEPAXI@Z:PROC ; CWHArray<tagServerTableCount *,tagServerTableCount * const &>::`vector deleting destructor'
EXTRN	??_E?$CMap@KKPAUtagPersonalTableInfo@@AAPAU1@@@UAEPAXI@Z:PROC ; CMap<unsigned long,unsigned long,tagPersonalTableInfo *,tagPersonalTableInfo * &>::`vector deleting destructor'
EXTRN	??_ECGlobalInfoManager@@UAEPAXI@Z:PROC		; CGlobalInfoManager::`vector deleting destructor'
EXTRN	@__security_check_cookie@4:PROC
EXTRN	__CxxThrowException@8:PROC
EXTRN	___CxxFrameHandler3:PROC
EXTRN	_memset:PROC
EXTRN	??_7type_info@@6B@:QWORD			; type_info::`vftable'
EXTRN	___security_cookie:DWORD
;	COMDAT ??_R1A@?0A@EA@CGlobalInfoManager@@8
rdata$r	SEGMENT
??_R1A@?0A@EA@CGlobalInfoManager@@8 DD FLAT:??_R0?AVCGlobalInfoManager@@@8 ; CGlobalInfoManager::`RTTI Base Class Descriptor at (0,-1,0,64)'
	DD	00H
	DD	00H
	DD	0ffffffffH
	DD	00H
	DD	040H
	DD	FLAT:??_R3CGlobalInfoManager@@8
rdata$r	ENDS
;	COMDAT ??_R2CGlobalInfoManager@@8
rdata$r	SEGMENT
??_R2CGlobalInfoManager@@8 DD FLAT:??_R1A@?0A@EA@CGlobalInfoManager@@8 ; CGlobalInfoManager::`RTTI Base Class Array'
rdata$r	ENDS
;	COMDAT ??_R3CGlobalInfoManager@@8
rdata$r	SEGMENT
??_R3CGlobalInfoManager@@8 DD 00H			; CGlobalInfoManager::`RTTI Class Hierarchy Descriptor'
	DD	00H
	DD	01H
	DD	FLAT:??_R2CGlobalInfoManager@@8
rdata$r	ENDS
;	COMDAT ??_R0?AVCGlobalInfoManager@@@8
data$r	SEGMENT
??_R0?AVCGlobalInfoManager@@@8 DD FLAT:??_7type_info@@6B@ ; CGlobalInfoManager `RTTI Type Descriptor'
	DD	00H
	DB	'.?AVCGlobalInfoManager@@', 00H
data$r	ENDS
;	COMDAT ??_R4CGlobalInfoManager@@6B@
rdata$r	SEGMENT
??_R4CGlobalInfoManager@@6B@ DD 00H			; CGlobalInfoManager::`RTTI Complete Object Locator'
	DD	00H
	DD	00H
	DD	FLAT:??_R0?AVCGlobalInfoManager@@@8
	DD	FLAT:??_R3CGlobalInfoManager@@8
rdata$r	ENDS
;	COMDAT ??_R1A@?0A@EA@?$CWHArray@PAUtagServerTableCount@@ABQAU1@@@8
rdata$r	SEGMENT
??_R1A@?0A@EA@?$CWHArray@PAUtagServerTableCount@@ABQAU1@@@8 DD FLAT:??_R0?AV?$CWHArray@PAUtagServerTableCount@@ABQAU1@@@@8 ; CWHArray<tagServerTableCount *,tagServerTableCount * const &>::`RTTI Base Class Descriptor at (0,-1,0,64)'
	DD	00H
	DD	00H
	DD	0ffffffffH
	DD	00H
	DD	040H
	DD	FLAT:??_R3?$CWHArray@PAUtagServerTableCount@@ABQAU1@@@8
rdata$r	ENDS
;	COMDAT ??_R2?$CWHArray@PAUtagServerTableCount@@ABQAU1@@@8
rdata$r	SEGMENT
??_R2?$CWHArray@PAUtagServerTableCount@@ABQAU1@@@8 DD FLAT:??_R1A@?0A@EA@?$CWHArray@PAUtagServerTableCount@@ABQAU1@@@8 ; CWHArray<tagServerTableCount *,tagServerTableCount * const &>::`RTTI Base Class Array'
rdata$r	ENDS
;	COMDAT ??_R3?$CWHArray@PAUtagServerTableCount@@ABQAU1@@@8
rdata$r	SEGMENT
??_R3?$CWHArray@PAUtagServerTableCount@@ABQAU1@@@8 DD 00H ; CWHArray<tagServerTableCount *,tagServerTableCount * const &>::`RTTI Class Hierarchy Descriptor'
	DD	00H
	DD	01H
	DD	FLAT:??_R2?$CWHArray@PAUtagServerTableCount@@ABQAU1@@@8
rdata$r	ENDS
;	COMDAT ??_R0?AV?$CWHArray@PAUtagServerTableCount@@ABQAU1@@@@8
data$r	SEGMENT
??_R0?AV?$CWHArray@PAUtagServerTableCount@@ABQAU1@@@@8 DD FLAT:??_7type_info@@6B@ ; CWHArray<tagServerTableCount *,tagServerTableCount * const &> `RTTI Type Descriptor'
	DD	00H
	DB	'.?AV?$CWHArray@PAUtagServerTableCount@@ABQAU1@@@', 00H
data$r	ENDS
;	COMDAT ??_R4?$CWHArray@PAUtagServerTableCount@@ABQAU1@@@6B@
rdata$r	SEGMENT
??_R4?$CWHArray@PAUtagServerTableCount@@ABQAU1@@@6B@ DD 00H ; CWHArray<tagServerTableCount *,tagServerTableCount * const &>::`RTTI Complete Object Locator'
	DD	00H
	DD	00H
	DD	FLAT:??_R0?AV?$CWHArray@PAUtagServerTableCount@@ABQAU1@@@@8
	DD	FLAT:??_R3?$CWHArray@PAUtagServerTableCount@@ABQAU1@@@8
rdata$r	ENDS
;	COMDAT ??_R1A@?0A@EA@?$CMap@KKPAUtagPersonalTableInfo@@AAPAU1@@@8
rdata$r	SEGMENT
??_R1A@?0A@EA@?$CMap@KKPAUtagPersonalTableInfo@@AAPAU1@@@8 DD FLAT:??_R0?AV?$CMap@KKPAUtagPersonalTableInfo@@AAPAU1@@@@8 ; CMap<unsigned long,unsigned long,tagPersonalTableInfo *,tagPersonalTableInfo * &>::`RTTI Base Class Descriptor at (0,-1,0,64)'
	DD	01H
	DD	00H
	DD	0ffffffffH
	DD	00H
	DD	040H
	DD	FLAT:??_R3?$CMap@KKPAUtagPersonalTableInfo@@AAPAU1@@@8
rdata$r	ENDS
;	COMDAT ??_R2?$CMap@KKPAUtagPersonalTableInfo@@AAPAU1@@@8
rdata$r	SEGMENT
??_R2?$CMap@KKPAUtagPersonalTableInfo@@AAPAU1@@@8 DD FLAT:??_R1A@?0A@EA@?$CMap@KKPAUtagPersonalTableInfo@@AAPAU1@@@8 ; CMap<unsigned long,unsigned long,tagPersonalTableInfo *,tagPersonalTableInfo * &>::`RTTI Base Class Array'
	DD	FLAT:??_R1A@?0A@EA@CObject@@8
rdata$r	ENDS
;	COMDAT ??_R3?$CMap@KKPAUtagPersonalTableInfo@@AAPAU1@@@8
rdata$r	SEGMENT
??_R3?$CMap@KKPAUtagPersonalTableInfo@@AAPAU1@@@8 DD 00H ; CMap<unsigned long,unsigned long,tagPersonalTableInfo *,tagPersonalTableInfo * &>::`RTTI Class Hierarchy Descriptor'
	DD	00H
	DD	02H
	DD	FLAT:??_R2?$CMap@KKPAUtagPersonalTableInfo@@AAPAU1@@@8
rdata$r	ENDS
;	COMDAT ??_R0?AV?$CMap@KKPAUtagPersonalTableInfo@@AAPAU1@@@@8
data$r	SEGMENT
??_R0?AV?$CMap@KKPAUtagPersonalTableInfo@@AAPAU1@@@@8 DD FLAT:??_7type_info@@6B@ ; CMap<unsigned long,unsigned long,tagPersonalTableInfo *,tagPersonalTableInfo * &> `RTTI Type Descriptor'
	DD	00H
	DB	'.?AV?$CMap@KKPAUtagPersonalTableInfo@@AAPAU1@@@', 00H
data$r	ENDS
;	COMDAT ??_R4?$CMap@KKPAUtagPersonalTableInfo@@AAPAU1@@@6B@
rdata$r	SEGMENT
??_R4?$CMap@KKPAUtagPersonalTableInfo@@AAPAU1@@@6B@ DD 00H ; CMap<unsigned long,unsigned long,tagPersonalTableInfo *,tagPersonalTableInfo * &>::`RTTI Complete Object Locator'
	DD	00H
	DD	00H
	DD	FLAT:??_R0?AV?$CMap@KKPAUtagPersonalTableInfo@@AAPAU1@@@@8
	DD	FLAT:??_R3?$CMap@KKPAUtagPersonalTableInfo@@AAPAU1@@@8
rdata$r	ENDS
;	COMDAT ??_R1A@?0A@EA@?$CMap@GGPAVCGlobalChatItem@@PAV1@@@8
rdata$r	SEGMENT
??_R1A@?0A@EA@?$CMap@GGPAVCGlobalChatItem@@PAV1@@@8 DD FLAT:??_R0?AV?$CMap@GGPAVCGlobalChatItem@@PAV1@@@@8 ; CMap<unsigned short,unsigned short,CGlobalChatItem *,CGlobalChatItem *>::`RTTI Base Class Descriptor at (0,-1,0,64)'
	DD	01H
	DD	00H
	DD	0ffffffffH
	DD	00H
	DD	040H
	DD	FLAT:??_R3?$CMap@GGPAVCGlobalChatItem@@PAV1@@@8
rdata$r	ENDS
;	COMDAT ??_R2?$CMap@GGPAVCGlobalChatItem@@PAV1@@@8
rdata$r	SEGMENT
??_R2?$CMap@GGPAVCGlobalChatItem@@PAV1@@@8 DD FLAT:??_R1A@?0A@EA@?$CMap@GGPAVCGlobalChatItem@@PAV1@@@8 ; CMap<unsigned short,unsigned short,CGlobalChatItem *,CGlobalChatItem *>::`RTTI Base Class Array'
	DD	FLAT:??_R1A@?0A@EA@CObject@@8
rdata$r	ENDS
;	COMDAT ??_R3?$CMap@GGPAVCGlobalChatItem@@PAV1@@@8
rdata$r	SEGMENT
??_R3?$CMap@GGPAVCGlobalChatItem@@PAV1@@@8 DD 00H	; CMap<unsigned short,unsigned short,CGlobalChatItem *,CGlobalChatItem *>::`RTTI Class Hierarchy Descriptor'
	DD	00H
	DD	02H
	DD	FLAT:??_R2?$CMap@GGPAVCGlobalChatItem@@PAV1@@@8
rdata$r	ENDS
;	COMDAT ??_R0?AV?$CMap@GGPAVCGlobalChatItem@@PAV1@@@@8
data$r	SEGMENT
??_R0?AV?$CMap@GGPAVCGlobalChatItem@@PAV1@@@@8 DD FLAT:??_7type_info@@6B@ ; CMap<unsigned short,unsigned short,CGlobalChatItem *,CGlobalChatItem *> `RTTI Type Descriptor'
	DD	00H
	DB	'.?AV?$CMap@GGPAVCGlobalChatItem@@PAV1@@@', 00H
data$r	ENDS
;	COMDAT ??_R4?$CMap@GGPAVCGlobalChatItem@@PAV1@@@6B@
rdata$r	SEGMENT
??_R4?$CMap@GGPAVCGlobalChatItem@@PAV1@@@6B@ DD 00H	; CMap<unsigned short,unsigned short,CGlobalChatItem *,CGlobalChatItem *>::`RTTI Complete Object Locator'
	DD	00H
	DD	00H
	DD	FLAT:??_R0?AV?$CMap@GGPAVCGlobalChatItem@@PAV1@@@@8
	DD	FLAT:??_R3?$CMap@GGPAVCGlobalChatItem@@PAV1@@@8
rdata$r	ENDS
;	COMDAT ??_R1A@?0A@EA@?$CMap@GGPAVCGlobalServerItem@@PAV1@@@8
rdata$r	SEGMENT
??_R1A@?0A@EA@?$CMap@GGPAVCGlobalServerItem@@PAV1@@@8 DD FLAT:??_R0?AV?$CMap@GGPAVCGlobalServerItem@@PAV1@@@@8 ; CMap<unsigned short,unsigned short,CGlobalServerItem *,CGlobalServerItem *>::`RTTI Base Class Descriptor at (0,-1,0,64)'
	DD	01H
	DD	00H
	DD	0ffffffffH
	DD	00H
	DD	040H
	DD	FLAT:??_R3?$CMap@GGPAVCGlobalServerItem@@PAV1@@@8
rdata$r	ENDS
;	COMDAT ??_R2?$CMap@GGPAVCGlobalServerItem@@PAV1@@@8
rdata$r	SEGMENT
??_R2?$CMap@GGPAVCGlobalServerItem@@PAV1@@@8 DD FLAT:??_R1A@?0A@EA@?$CMap@GGPAVCGlobalServerItem@@PAV1@@@8 ; CMap<unsigned short,unsigned short,CGlobalServerItem *,CGlobalServerItem *>::`RTTI Base Class Array'
	DD	FLAT:??_R1A@?0A@EA@CObject@@8
rdata$r	ENDS
;	COMDAT ??_R3?$CMap@GGPAVCGlobalServerItem@@PAV1@@@8
rdata$r	SEGMENT
??_R3?$CMap@GGPAVCGlobalServerItem@@PAV1@@@8 DD 00H	; CMap<unsigned short,unsigned short,CGlobalServerItem *,CGlobalServerItem *>::`RTTI Class Hierarchy Descriptor'
	DD	00H
	DD	02H
	DD	FLAT:??_R2?$CMap@GGPAVCGlobalServerItem@@PAV1@@@8
rdata$r	ENDS
;	COMDAT ??_R0?AV?$CMap@GGPAVCGlobalServerItem@@PAV1@@@@8
data$r	SEGMENT
??_R0?AV?$CMap@GGPAVCGlobalServerItem@@PAV1@@@@8 DD FLAT:??_7type_info@@6B@ ; CMap<unsigned short,unsigned short,CGlobalServerItem *,CGlobalServerItem *> `RTTI Type Descriptor'
	DD	00H
	DB	'.?AV?$CMap@GGPAVCGlobalServerItem@@PAV1@@@', 00H
data$r	ENDS
;	COMDAT ??_R4?$CMap@GGPAVCGlobalServerItem@@PAV1@@@6B@
rdata$r	SEGMENT
??_R4?$CMap@GGPAVCGlobalServerItem@@PAV1@@@6B@ DD 00H	; CMap<unsigned short,unsigned short,CGlobalServerItem *,CGlobalServerItem *>::`RTTI Complete Object Locator'
	DD	00H
	DD	00H
	DD	FLAT:??_R0?AV?$CMap@GGPAVCGlobalServerItem@@PAV1@@@@8
	DD	FLAT:??_R3?$CMap@GGPAVCGlobalServerItem@@PAV1@@@8
rdata$r	ENDS
;	COMDAT ??_R1A@?0A@EA@?$CMap@GGPAVCGlobalPlazaItem@@PAV1@@@8
rdata$r	SEGMENT
??_R1A@?0A@EA@?$CMap@GGPAVCGlobalPlazaItem@@PAV1@@@8 DD FLAT:??_R0?AV?$CMap@GGPAVCGlobalPlazaItem@@PAV1@@@@8 ; CMap<unsigned short,unsigned short,CGlobalPlazaItem *,CGlobalPlazaItem *>::`RTTI Base Class Descriptor at (0,-1,0,64)'
	DD	01H
	DD	00H
	DD	0ffffffffH
	DD	00H
	DD	040H
	DD	FLAT:??_R3?$CMap@GGPAVCGlobalPlazaItem@@PAV1@@@8
rdata$r	ENDS
;	COMDAT ??_R2?$CMap@GGPAVCGlobalPlazaItem@@PAV1@@@8
rdata$r	SEGMENT
??_R2?$CMap@GGPAVCGlobalPlazaItem@@PAV1@@@8 DD FLAT:??_R1A@?0A@EA@?$CMap@GGPAVCGlobalPlazaItem@@PAV1@@@8 ; CMap<unsigned short,unsigned short,CGlobalPlazaItem *,CGlobalPlazaItem *>::`RTTI Base Class Array'
	DD	FLAT:??_R1A@?0A@EA@CObject@@8
rdata$r	ENDS
;	COMDAT ??_R3?$CMap@GGPAVCGlobalPlazaItem@@PAV1@@@8
rdata$r	SEGMENT
??_R3?$CMap@GGPAVCGlobalPlazaItem@@PAV1@@@8 DD 00H	; CMap<unsigned short,unsigned short,CGlobalPlazaItem *,CGlobalPlazaItem *>::`RTTI Class Hierarchy Descriptor'
	DD	00H
	DD	02H
	DD	FLAT:??_R2?$CMap@GGPAVCGlobalPlazaItem@@PAV1@@@8
rdata$r	ENDS
;	COMDAT ??_R0?AV?$CMap@GGPAVCGlobalPlazaItem@@PAV1@@@@8
data$r	SEGMENT
??_R0?AV?$CMap@GGPAVCGlobalPlazaItem@@PAV1@@@@8 DD FLAT:??_7type_info@@6B@ ; CMap<unsigned short,unsigned short,CGlobalPlazaItem *,CGlobalPlazaItem *> `RTTI Type Descriptor'
	DD	00H
	DB	'.?AV?$CMap@GGPAVCGlobalPlazaItem@@PAV1@@@', 00H
data$r	ENDS
;	COMDAT ??_R4?$CMap@GGPAVCGlobalPlazaItem@@PAV1@@@6B@
rdata$r	SEGMENT
??_R4?$CMap@GGPAVCGlobalPlazaItem@@PAV1@@@6B@ DD 00H	; CMap<unsigned short,unsigned short,CGlobalPlazaItem *,CGlobalPlazaItem *>::`RTTI Complete Object Locator'
	DD	00H
	DD	00H
	DD	FLAT:??_R0?AV?$CMap@GGPAVCGlobalPlazaItem@@PAV1@@@@8
	DD	FLAT:??_R3?$CMap@GGPAVCGlobalPlazaItem@@PAV1@@@8
rdata$r	ENDS
;	COMDAT ??_R1A@?0A@EA@?$CMap@KKPAVCGlobalUserItem@@PAV1@@@8
rdata$r	SEGMENT
??_R1A@?0A@EA@?$CMap@KKPAVCGlobalUserItem@@PAV1@@@8 DD FLAT:??_R0?AV?$CMap@KKPAVCGlobalUserItem@@PAV1@@@@8 ; CMap<unsigned long,unsigned long,CGlobalUserItem *,CGlobalUserItem *>::`RTTI Base Class Descriptor at (0,-1,0,64)'
	DD	01H
	DD	00H
	DD	0ffffffffH
	DD	00H
	DD	040H
	DD	FLAT:??_R3?$CMap@KKPAVCGlobalUserItem@@PAV1@@@8
rdata$r	ENDS
;	COMDAT ??_R2?$CMap@KKPAVCGlobalUserItem@@PAV1@@@8
rdata$r	SEGMENT
??_R2?$CMap@KKPAVCGlobalUserItem@@PAV1@@@8 DD FLAT:??_R1A@?0A@EA@?$CMap@KKPAVCGlobalUserItem@@PAV1@@@8 ; CMap<unsigned long,unsigned long,CGlobalUserItem *,CGlobalUserItem *>::`RTTI Base Class Array'
	DD	FLAT:??_R1A@?0A@EA@CObject@@8
rdata$r	ENDS
;	COMDAT ??_R3?$CMap@KKPAVCGlobalUserItem@@PAV1@@@8
rdata$r	SEGMENT
??_R3?$CMap@KKPAVCGlobalUserItem@@PAV1@@@8 DD 00H	; CMap<unsigned long,unsigned long,CGlobalUserItem *,CGlobalUserItem *>::`RTTI Class Hierarchy Descriptor'
	DD	00H
	DD	02H
	DD	FLAT:??_R2?$CMap@KKPAVCGlobalUserItem@@PAV1@@@8
rdata$r	ENDS
;	COMDAT ??_R0?AV?$CMap@KKPAVCGlobalUserItem@@PAV1@@@@8
data$r	SEGMENT
??_R0?AV?$CMap@KKPAVCGlobalUserItem@@PAV1@@@@8 DD FLAT:??_7type_info@@6B@ ; CMap<unsigned long,unsigned long,CGlobalUserItem *,CGlobalUserItem *> `RTTI Type Descriptor'
	DD	00H
	DB	'.?AV?$CMap@KKPAVCGlobalUserItem@@PAV1@@@', 00H
data$r	ENDS
;	COMDAT ??_R4?$CMap@KKPAVCGlobalUserItem@@PAV1@@@6B@
rdata$r	SEGMENT
??_R4?$CMap@KKPAVCGlobalUserItem@@PAV1@@@6B@ DD 00H	; CMap<unsigned long,unsigned long,CGlobalUserItem *,CGlobalUserItem *>::`RTTI Complete Object Locator'
	DD	00H
	DD	00H
	DD	FLAT:??_R0?AV?$CMap@KKPAVCGlobalUserItem@@PAV1@@@@8
	DD	FLAT:??_R3?$CMap@KKPAVCGlobalUserItem@@PAV1@@@8
rdata$r	ENDS
;	COMDAT ??_R1A@?0A@EA@?$CWHArray@PAVCGlobalServerItem@@ABQAV1@@@8
rdata$r	SEGMENT
??_R1A@?0A@EA@?$CWHArray@PAVCGlobalServerItem@@ABQAV1@@@8 DD FLAT:??_R0?AV?$CWHArray@PAVCGlobalServerItem@@ABQAV1@@@@8 ; CWHArray<CGlobalServerItem *,CGlobalServerItem * const &>::`RTTI Base Class Descriptor at (0,-1,0,64)'
	DD	00H
	DD	00H
	DD	0ffffffffH
	DD	00H
	DD	040H
	DD	FLAT:??_R3?$CWHArray@PAVCGlobalServerItem@@ABQAV1@@@8
rdata$r	ENDS
;	COMDAT ??_R2?$CWHArray@PAVCGlobalServerItem@@ABQAV1@@@8
rdata$r	SEGMENT
??_R2?$CWHArray@PAVCGlobalServerItem@@ABQAV1@@@8 DD FLAT:??_R1A@?0A@EA@?$CWHArray@PAVCGlobalServerItem@@ABQAV1@@@8 ; CWHArray<CGlobalServerItem *,CGlobalServerItem * const &>::`RTTI Base Class Array'
rdata$r	ENDS
;	COMDAT ??_R3?$CWHArray@PAVCGlobalServerItem@@ABQAV1@@@8
rdata$r	SEGMENT
??_R3?$CWHArray@PAVCGlobalServerItem@@ABQAV1@@@8 DD 00H	; CWHArray<CGlobalServerItem *,CGlobalServerItem * const &>::`RTTI Class Hierarchy Descriptor'
	DD	00H
	DD	01H
	DD	FLAT:??_R2?$CWHArray@PAVCGlobalServerItem@@ABQAV1@@@8
rdata$r	ENDS
;	COMDAT ??_R0?AV?$CWHArray@PAVCGlobalServerItem@@ABQAV1@@@@8
data$r	SEGMENT
??_R0?AV?$CWHArray@PAVCGlobalServerItem@@ABQAV1@@@@8 DD FLAT:??_7type_info@@6B@ ; CWHArray<CGlobalServerItem *,CGlobalServerItem * const &> `RTTI Type Descriptor'
	DD	00H
	DB	'.?AV?$CWHArray@PAVCGlobalServerItem@@ABQAV1@@@', 00H
data$r	ENDS
;	COMDAT ??_R4?$CWHArray@PAVCGlobalServerItem@@ABQAV1@@@6B@
rdata$r	SEGMENT
??_R4?$CWHArray@PAVCGlobalServerItem@@ABQAV1@@@6B@ DD 00H ; CWHArray<CGlobalServerItem *,CGlobalServerItem * const &>::`RTTI Complete Object Locator'
	DD	00H
	DD	00H
	DD	FLAT:??_R0?AV?$CWHArray@PAVCGlobalServerItem@@ABQAV1@@@@8
	DD	FLAT:??_R3?$CWHArray@PAVCGlobalServerItem@@ABQAV1@@@8
rdata$r	ENDS
;	COMDAT ??_R1A@?0A@EA@CGlobalChatItem@@8
rdata$r	SEGMENT
??_R1A@?0A@EA@CGlobalChatItem@@8 DD FLAT:??_R0?AVCGlobalChatItem@@@8 ; CGlobalChatItem::`RTTI Base Class Descriptor at (0,-1,0,64)'
	DD	00H
	DD	00H
	DD	0ffffffffH
	DD	00H
	DD	040H
	DD	FLAT:??_R3CGlobalChatItem@@8
rdata$r	ENDS
;	COMDAT ??_R2CGlobalChatItem@@8
rdata$r	SEGMENT
??_R2CGlobalChatItem@@8 DD FLAT:??_R1A@?0A@EA@CGlobalChatItem@@8 ; CGlobalChatItem::`RTTI Base Class Array'
rdata$r	ENDS
;	COMDAT ??_R3CGlobalChatItem@@8
rdata$r	SEGMENT
??_R3CGlobalChatItem@@8 DD 00H				; CGlobalChatItem::`RTTI Class Hierarchy Descriptor'
	DD	00H
	DD	01H
	DD	FLAT:??_R2CGlobalChatItem@@8
rdata$r	ENDS
;	COMDAT ??_R0?AVCGlobalChatItem@@@8
data$r	SEGMENT
??_R0?AVCGlobalChatItem@@@8 DD FLAT:??_7type_info@@6B@	; CGlobalChatItem `RTTI Type Descriptor'
	DD	00H
	DB	'.?AVCGlobalChatItem@@', 00H
data$r	ENDS
;	COMDAT ??_R4CGlobalChatItem@@6B@
rdata$r	SEGMENT
??_R4CGlobalChatItem@@6B@ DD 00H			; CGlobalChatItem::`RTTI Complete Object Locator'
	DD	00H
	DD	00H
	DD	FLAT:??_R0?AVCGlobalChatItem@@@8
	DD	FLAT:??_R3CGlobalChatItem@@8
rdata$r	ENDS
;	COMDAT ??_R1A@?0A@EA@CGlobalServerItem@@8
rdata$r	SEGMENT
??_R1A@?0A@EA@CGlobalServerItem@@8 DD FLAT:??_R0?AVCGlobalServerItem@@@8 ; CGlobalServerItem::`RTTI Base Class Descriptor at (0,-1,0,64)'
	DD	00H
	DD	00H
	DD	0ffffffffH
	DD	00H
	DD	040H
	DD	FLAT:??_R3CGlobalServerItem@@8
rdata$r	ENDS
;	COMDAT ??_R2CGlobalServerItem@@8
rdata$r	SEGMENT
??_R2CGlobalServerItem@@8 DD FLAT:??_R1A@?0A@EA@CGlobalServerItem@@8 ; CGlobalServerItem::`RTTI Base Class Array'
rdata$r	ENDS
;	COMDAT ??_R3CGlobalServerItem@@8
rdata$r	SEGMENT
??_R3CGlobalServerItem@@8 DD 00H			; CGlobalServerItem::`RTTI Class Hierarchy Descriptor'
	DD	00H
	DD	01H
	DD	FLAT:??_R2CGlobalServerItem@@8
rdata$r	ENDS
;	COMDAT ??_R0?AVCGlobalServerItem@@@8
data$r	SEGMENT
??_R0?AVCGlobalServerItem@@@8 DD FLAT:??_7type_info@@6B@ ; CGlobalServerItem `RTTI Type Descriptor'
	DD	00H
	DB	'.?AVCGlobalServerItem@@', 00H
data$r	ENDS
;	COMDAT ??_R4CGlobalServerItem@@6B@
rdata$r	SEGMENT
??_R4CGlobalServerItem@@6B@ DD 00H			; CGlobalServerItem::`RTTI Complete Object Locator'
	DD	00H
	DD	00H
	DD	FLAT:??_R0?AVCGlobalServerItem@@@8
	DD	FLAT:??_R3CGlobalServerItem@@8
rdata$r	ENDS
;	COMDAT ??_R1A@?0A@EA@CGlobalPlazaItem@@8
rdata$r	SEGMENT
??_R1A@?0A@EA@CGlobalPlazaItem@@8 DD FLAT:??_R0?AVCGlobalPlazaItem@@@8 ; CGlobalPlazaItem::`RTTI Base Class Descriptor at (0,-1,0,64)'
	DD	00H
	DD	00H
	DD	0ffffffffH
	DD	00H
	DD	040H
	DD	FLAT:??_R3CGlobalPlazaItem@@8
rdata$r	ENDS
;	COMDAT ??_R2CGlobalPlazaItem@@8
rdata$r	SEGMENT
??_R2CGlobalPlazaItem@@8 DD FLAT:??_R1A@?0A@EA@CGlobalPlazaItem@@8 ; CGlobalPlazaItem::`RTTI Base Class Array'
rdata$r	ENDS
;	COMDAT ??_R3CGlobalPlazaItem@@8
rdata$r	SEGMENT
??_R3CGlobalPlazaItem@@8 DD 00H				; CGlobalPlazaItem::`RTTI Class Hierarchy Descriptor'
	DD	00H
	DD	01H
	DD	FLAT:??_R2CGlobalPlazaItem@@8
rdata$r	ENDS
;	COMDAT ??_R0?AVCGlobalPlazaItem@@@8
data$r	SEGMENT
??_R0?AVCGlobalPlazaItem@@@8 DD FLAT:??_7type_info@@6B@	; CGlobalPlazaItem `RTTI Type Descriptor'
	DD	00H
	DB	'.?AVCGlobalPlazaItem@@', 00H
data$r	ENDS
;	COMDAT ??_R4CGlobalPlazaItem@@6B@
rdata$r	SEGMENT
??_R4CGlobalPlazaItem@@6B@ DD 00H			; CGlobalPlazaItem::`RTTI Complete Object Locator'
	DD	00H
	DD	00H
	DD	FLAT:??_R0?AVCGlobalPlazaItem@@@8
	DD	FLAT:??_R3CGlobalPlazaItem@@8
rdata$r	ENDS
;	COMDAT ??_R1A@?0A@EA@CGlobalUserItem@@8
rdata$r	SEGMENT
??_R1A@?0A@EA@CGlobalUserItem@@8 DD FLAT:??_R0?AVCGlobalUserItem@@@8 ; CGlobalUserItem::`RTTI Base Class Descriptor at (0,-1,0,64)'
	DD	00H
	DD	00H
	DD	0ffffffffH
	DD	00H
	DD	040H
	DD	FLAT:??_R3CGlobalUserItem@@8
rdata$r	ENDS
;	COMDAT ??_R2CGlobalUserItem@@8
rdata$r	SEGMENT
??_R2CGlobalUserItem@@8 DD FLAT:??_R1A@?0A@EA@CGlobalUserItem@@8 ; CGlobalUserItem::`RTTI Base Class Array'
rdata$r	ENDS
;	COMDAT ??_R3CGlobalUserItem@@8
rdata$r	SEGMENT
??_R3CGlobalUserItem@@8 DD 00H				; CGlobalUserItem::`RTTI Class Hierarchy Descriptor'
	DD	00H
	DD	01H
	DD	FLAT:??_R2CGlobalUserItem@@8
rdata$r	ENDS
;	COMDAT ??_R0?AVCGlobalUserItem@@@8
data$r	SEGMENT
??_R0?AVCGlobalUserItem@@@8 DD FLAT:??_7type_info@@6B@	; CGlobalUserItem `RTTI Type Descriptor'
	DD	00H
	DB	'.?AVCGlobalUserItem@@', 00H
data$r	ENDS
;	COMDAT ??_R4CGlobalUserItem@@6B@
rdata$r	SEGMENT
??_R4CGlobalUserItem@@6B@ DD 00H			; CGlobalUserItem::`RTTI Complete Object Locator'
	DD	00H
	DD	00H
	DD	FLAT:??_R0?AVCGlobalUserItem@@@8
	DD	FLAT:??_R3CGlobalUserItem@@8
rdata$r	ENDS
;	COMDAT ??_C@_0BD@OLBABOEK@vector?$DMT?$DO?5too?5long@
CONST	SEGMENT
??_C@_0BD@OLBABOEK@vector?$DMT?$DO?5too?5long@ DB 'vector<T> too long', 00H ; `string'
CONST	ENDS
;	COMDAT ??_C@_04OAFLPOMH@?$FN?5?$DN?5@
CONST	SEGMENT
??_C@_04OAFLPOMH@?$FN?5?$DN?5@ DB '] = ', 00H		; `string'
CONST	ENDS
;	COMDAT ??_C@_03OHJIHPJH@?6?7?$FL@
CONST	SEGMENT
??_C@_03OHJIHPJH@?6?7?$FL@ DB 0aH, 09H, '[', 00H	; `string'
CONST	ENDS
;	COMDAT ??_C@_0DF@LDFGAABH@g?3?2?M?x?$LK?$PM?2happygamewh?2?$LH?$PO?N?q?$LG?K?2?O?$LF?M?$LD@
CONST	SEGMENT
??_C@_0DF@LDFGAABH@g?3?2?M?x?$LK?$PM?2happygamewh?2?$LH?$PO?N?q?$LG?K?2?O?$LF?M?$LD@ DB 'g'
	DB	':\', 0cdH, 0f8H, 0baH, 0fcH, '\happygamewh\', 0b7H, 0feH, 0ceH
	DB	0f1H, 0b6H, 0cbH, '\', 0cfH, 0b5H, 0cdH, 0b3H, 0c4H, 0a3H, 0bfH
	DB	0e9H, '\', 0c8H, 0abH, 0beH, 0d6H, 0b6H, 0a8H, 0d2H, 0e5H, '\a'
	DB	'rray.h', 00H				; `string'
CONST	ENDS
;	COMDAT ??_C@_1FA@LCODAPOP@?$AA?$CC?$AAc?$AAa?$AAn?$AAn?$AAo?$AAt?$AA?5?$AAs?$AAe?$AAe?$AAk?$AA?5?$AAv?$AAe@
CONST	SEGMENT
??_C@_1FA@LCODAPOP@?$AA?$CC?$AAc?$AAa?$AAn?$AAn?$AAo?$AAt?$AA?5?$AAs?$AAe?$AAe?$AAk?$AA?5?$AAv?$AAe@ DB '"'
	DB	00H, 'c', 00H, 'a', 00H, 'n', 00H, 'n', 00H, 'o', 00H, 't', 00H
	DB	' ', 00H, 's', 00H, 'e', 00H, 'e', 00H, 'k', 00H, ' ', 00H, 'v'
	DB	00H, 'e', 00H, 'c', 00H, 't', 00H, 'o', 00H, 'r', 00H, ' ', 00H
	DB	'i', 00H, 't', 00H, 'e', 00H, 'r', 00H, 'a', 00H, 't', 00H, 'o'
	DB	00H, 'r', 00H, ' ', 00H, 'a', 00H, 'f', 00H, 't', 00H, 'e', 00H
	DB	'r', 00H, ' ', 00H, 'e', 00H, 'n', 00H, 'd', 00H, '"', 00H, 00H
	DB	00H						; `string'
CONST	ENDS
;	COMDAT ??_C@_0CG@JDIOCKHH@cannot?5seek?5vector?5iterator?5aft@
CONST	SEGMENT
??_C@_0CG@JDIOCKHH@cannot?5seek?5vector?5iterator?5aft@ DB 'cannot seek v'
	DB	'ector iterator after end', 00H		; `string'
CONST	ENDS
;	COMDAT ??_C@_1FG@JCGKNFIB@?$AA?$CC?$AAc?$AAa?$AAn?$AAn?$AAo?$AAt?$AA?5?$AAs?$AAe?$AAe?$AAk?$AA?5?$AAv?$AAe@
CONST	SEGMENT
??_C@_1FG@JCGKNFIB@?$AA?$CC?$AAc?$AAa?$AAn?$AAn?$AAo?$AAt?$AA?5?$AAs?$AAe?$AAe?$AAk?$AA?5?$AAv?$AAe@ DB '"'
	DB	00H, 'c', 00H, 'a', 00H, 'n', 00H, 'n', 00H, 'o', 00H, 't', 00H
	DB	' ', 00H, 's', 00H, 'e', 00H, 'e', 00H, 'k', 00H, ' ', 00H, 'v'
	DB	00H, 'e', 00H, 'c', 00H, 't', 00H, 'o', 00H, 'r', 00H, ' ', 00H
	DB	'i', 00H, 't', 00H, 'e', 00H, 'r', 00H, 'a', 00H, 't', 00H, 'o'
	DB	00H, 'r', 00H, ' ', 00H, 'b', 00H, 'e', 00H, 'f', 00H, 'o', 00H
	DB	'r', 00H, 'e', 00H, ' ', 00H, 'b', 00H, 'e', 00H, 'g', 00H, 'i'
	DB	00H, 'n', 00H, '"', 00H, 00H, 00H		; `string'
CONST	ENDS
;	COMDAT ??_C@_0CJ@DIFMEJBE@cannot?5seek?5vector?5iterator?5bef@
CONST	SEGMENT
??_C@_0CJ@DIFMEJBE@cannot?5seek?5vector?5iterator?5bef@ DB 'cannot seek v'
	DB	'ector iterator before begin', 00H		; `string'
CONST	ENDS
;	COMDAT ??_C@_1GA@EIHBFEJD@?$AA?$CC?$AAc?$AAa?$AAn?$AAn?$AAo?$AAt?$AA?5?$AAs?$AAe?$AAe?$AAk?$AA?5?$AAv?$AAa@
CONST	SEGMENT
??_C@_1GA@EIHBFEJD@?$AA?$CC?$AAc?$AAa?$AAn?$AAn?$AAo?$AAt?$AA?5?$AAs?$AAe?$AAe?$AAk?$AA?5?$AAv?$AAa@ DB '"'
	DB	00H, 'c', 00H, 'a', 00H, 'n', 00H, 'n', 00H, 'o', 00H, 't', 00H
	DB	' ', 00H, 's', 00H, 'e', 00H, 'e', 00H, 'k', 00H, ' ', 00H, 'v'
	DB	00H, 'a', 00H, 'l', 00H, 'u', 00H, 'e', 00H, '-', 00H, 'i', 00H
	DB	'n', 00H, 'i', 00H, 't', 00H, 'i', 00H, 'a', 00H, 'l', 00H, 'i'
	DB	00H, 'z', 00H, 'e', 00H, 'd', 00H, ' ', 00H, 'v', 00H, 'e', 00H
	DB	'c', 00H, 't', 00H, 'o', 00H, 'r', 00H, ' ', 00H, 'i', 00H, 't'
	DB	00H, 'e', 00H, 'r', 00H, 'a', 00H, 't', 00H, 'o', 00H, 'r', 00H
	DB	'"', 00H, 00H, 00H				; `string'
CONST	ENDS
;	COMDAT ??_C@_1PM@OPIBNBPL@?$AAs?$AAt?$AAd?$AA?3?$AA?3?$AA_?$AAV?$AAe?$AAc?$AAt?$AAo?$AAr?$AA_?$AAc?$AAo@
CONST	SEGMENT
??_C@_1PM@OPIBNBPL@?$AAs?$AAt?$AAd?$AA?3?$AA?3?$AA_?$AAV?$AAe?$AAc?$AAt?$AAo?$AAr?$AA_?$AAc?$AAo@ DB 's'
	DB	00H, 't', 00H, 'd', 00H, ':', 00H, ':', 00H, '_', 00H, 'V', 00H
	DB	'e', 00H, 'c', 00H, 't', 00H, 'o', 00H, 'r', 00H, '_', 00H, 'c'
	DB	00H, 'o', 00H, 'n', 00H, 's', 00H, 't', 00H, '_', 00H, 'i', 00H
	DB	't', 00H, 'e', 00H, 'r', 00H, 'a', 00H, 't', 00H, 'o', 00H, 'r'
	DB	00H, '<', 00H, 'c', 00H, 'l', 00H, 'a', 00H, 's', 00H, 's', 00H
	DB	' ', 00H, 's', 00H, 't', 00H, 'd', 00H, ':', 00H, ':', 00H, '_'
	DB	00H, 'V', 00H, 'e', 00H, 'c', 00H, 't', 00H, 'o', 00H, 'r', 00H
	DB	'_', 00H, 'v', 00H, 'a', 00H, 'l', 00H, '<', 00H, 's', 00H, 't'
	DB	00H, 'r', 00H, 'u', 00H, 'c', 00H, 't', 00H, ' ', 00H, 's', 00H
	DB	't', 00H, 'd', 00H, ':', 00H, ':', 00H, '_', 00H, 'S', 00H, 'i'
	DB	00H, 'm', 00H, 'p', 00H, 'l', 00H, 'e', 00H, '_', 00H, 't', 00H
	DB	'y', 00H, 'p', 00H, 'e', 00H, 's', 00H, '<', 00H, 's', 00H, 't'
	DB	00H, 'r', 00H, 'u', 00H, 'c', 00H, 't', 00H, ' ', 00H, 't', 00H
	DB	'a', 00H, 'g', 00H, 'P', 00H, 'e', 00H, 'r', 00H, 's', 00H, 'o'
	DB	00H, 'n', 00H, 'a', 00H, 'l', 00H, 'T', 00H, 'a', 00H, 'b', 00H
	DB	'l', 00H, 'e', 00H, 'I', 00H, 'n', 00H, 'f', 00H, 'o', 00H, '>'
	DB	00H, ' ', 00H, '>', 00H, ' ', 00H, '>', 00H, ':', 00H, ':', 00H
	DB	'_', 00H, 'V', 00H, 'e', 00H, 'r', 00H, 'i', 00H, 'f', 00H, 'y'
	DB	00H, '_', 00H, 'o', 00H, 'f', 00H, 'f', 00H, 's', 00H, 'e', 00H
	DB	't', 00H, 00H, 00H				; `string'
CONST	ENDS
;	COMDAT ??_C@_0CO@LHPFLLJB@cannot?5seek?5value?9initialized?5v@
CONST	SEGMENT
??_C@_0CO@LHPFLLJB@cannot?5seek?5value?9initialized?5v@ DB 'cannot seek v'
	DB	'alue-initialized vector iterator', 00H	; `string'
CONST	ENDS
;	COMDAT ??_C@_1EM@BEMPOGMM@?$AA?$CC?$AAv?$AAe?$AAc?$AAt?$AAo?$AAr?$AA?5?$AAe?$AAr?$AAa?$AAs?$AAe?$AA?5?$AAi@
CONST	SEGMENT
??_C@_1EM@BEMPOGMM@?$AA?$CC?$AAv?$AAe?$AAc?$AAt?$AAo?$AAr?$AA?5?$AAe?$AAr?$AAa?$AAs?$AAe?$AA?5?$AAi@ DB '"'
	DB	00H, 'v', 00H, 'e', 00H, 'c', 00H, 't', 00H, 'o', 00H, 'r', 00H
	DB	' ', 00H, 'e', 00H, 'r', 00H, 'a', 00H, 's', 00H, 'e', 00H, ' '
	DB	00H, 'i', 00H, 't', 00H, 'e', 00H, 'r', 00H, 'a', 00H, 't', 00H
	DB	'o', 00H, 'r', 00H, ' ', 00H, 'o', 00H, 'u', 00H, 't', 00H, 's'
	DB	00H, 'i', 00H, 'd', 00H, 'e', 00H, ' ', 00H, 'r', 00H, 'a', 00H
	DB	'n', 00H, 'g', 00H, 'e', 00H, '"', 00H, 00H, 00H ; `string'
CONST	ENDS
;	COMDAT ??_C@_1MG@DGHPNNHF@?$AAs?$AAt?$AAd?$AA?3?$AA?3?$AAv?$AAe?$AAc?$AAt?$AAo?$AAr?$AA?$DM?$AAs?$AAt?$AAr@
CONST	SEGMENT
??_C@_1MG@DGHPNNHF@?$AAs?$AAt?$AAd?$AA?3?$AA?3?$AAv?$AAe?$AAc?$AAt?$AAo?$AAr?$AA?$DM?$AAs?$AAt?$AAr@ DB 's'
	DB	00H, 't', 00H, 'd', 00H, ':', 00H, ':', 00H, 'v', 00H, 'e', 00H
	DB	'c', 00H, 't', 00H, 'o', 00H, 'r', 00H, '<', 00H, 's', 00H, 't'
	DB	00H, 'r', 00H, 'u', 00H, 'c', 00H, 't', 00H, ' ', 00H, 't', 00H
	DB	'a', 00H, 'g', 00H, 'P', 00H, 'e', 00H, 'r', 00H, 's', 00H, 'o'
	DB	00H, 'n', 00H, 'a', 00H, 'l', 00H, 'T', 00H, 'a', 00H, 'b', 00H
	DB	'l', 00H, 'e', 00H, 'I', 00H, 'n', 00H, 'f', 00H, 'o', 00H, ','
	DB	00H, 'c', 00H, 'l', 00H, 'a', 00H, 's', 00H, 's', 00H, ' ', 00H
	DB	's', 00H, 't', 00H, 'd', 00H, ':', 00H, ':', 00H, 'a', 00H, 'l'
	DB	00H, 'l', 00H, 'o', 00H, 'c', 00H, 'a', 00H, 't', 00H, 'o', 00H
	DB	'r', 00H, '<', 00H, 's', 00H, 't', 00H, 'r', 00H, 'u', 00H, 'c'
	DB	00H, 't', 00H, ' ', 00H, 't', 00H, 'a', 00H, 'g', 00H, 'P', 00H
	DB	'e', 00H, 'r', 00H, 's', 00H, 'o', 00H, 'n', 00H, 'a', 00H, 'l'
	DB	00H, 'T', 00H, 'a', 00H, 'b', 00H, 'l', 00H, 'e', 00H, 'I', 00H
	DB	'n', 00H, 'f', 00H, 'o', 00H, '>', 00H, ' ', 00H, '>', 00H, ':'
	DB	00H, ':', 00H, 'e', 00H, 'r', 00H, 'a', 00H, 's', 00H, 'e', 00H
	DB	00H, 00H					; `string'
CONST	ENDS
;	COMDAT ??_C@_0CE@EAMOGAIE@vector?5erase?5iterator?5outside?5r@
CONST	SEGMENT
??_C@_0CE@EAMOGAIE@vector?5erase?5iterator?5outside?5r@ DB 'vector erase '
	DB	'iterator outside range', 00H		; `string'
CONST	ENDS
;	COMDAT ??_C@_1NC@IPECMLIE@?$AAs?$AAt?$AAd?$AA?3?$AA?3?$AAv?$AAe?$AAc?$AAt?$AAo?$AAr?$AA?$DM?$AAs?$AAt?$AAr@
CONST	SEGMENT
??_C@_1NC@IPECMLIE@?$AAs?$AAt?$AAd?$AA?3?$AA?3?$AAv?$AAe?$AAc?$AAt?$AAo?$AAr?$AA?$DM?$AAs?$AAt?$AAr@ DB 's'
	DB	00H, 't', 00H, 'd', 00H, ':', 00H, ':', 00H, 'v', 00H, 'e', 00H
	DB	'c', 00H, 't', 00H, 'o', 00H, 'r', 00H, '<', 00H, 's', 00H, 't'
	DB	00H, 'r', 00H, 'u', 00H, 'c', 00H, 't', 00H, ' ', 00H, 't', 00H
	DB	'a', 00H, 'g', 00H, 'P', 00H, 'e', 00H, 'r', 00H, 's', 00H, 'o'
	DB	00H, 'n', 00H, 'a', 00H, 'l', 00H, 'T', 00H, 'a', 00H, 'b', 00H
	DB	'l', 00H, 'e', 00H, 'I', 00H, 'n', 00H, 'f', 00H, 'o', 00H, ','
	DB	00H, 'c', 00H, 'l', 00H, 'a', 00H, 's', 00H, 's', 00H, ' ', 00H
	DB	's', 00H, 't', 00H, 'd', 00H, ':', 00H, ':', 00H, 'a', 00H, 'l'
	DB	00H, 'l', 00H, 'o', 00H, 'c', 00H, 'a', 00H, 't', 00H, 'o', 00H
	DB	'r', 00H, '<', 00H, 's', 00H, 't', 00H, 'r', 00H, 'u', 00H, 'c'
	DB	00H, 't', 00H, ' ', 00H, 't', 00H, 'a', 00H, 'g', 00H, 'P', 00H
	DB	'e', 00H, 'r', 00H, 's', 00H, 'o', 00H, 'n', 00H, 'a', 00H, 'l'
	DB	00H, 'T', 00H, 'a', 00H, 'b', 00H, 'l', 00H, 'e', 00H, 'I', 00H
	DB	'n', 00H, 'f', 00H, 'o', 00H, '>', 00H, ' ', 00H, '>', 00H, ':'
	DB	00H, ':', 00H, 'o', 00H, 'p', 00H, 'e', 00H, 'r', 00H, 'a', 00H
	DB	't', 00H, 'o', 00H, 'r', 00H, ' ', 00H, '[', 00H, ']', 00H, 00H
	DB	00H						; `string'
CONST	ENDS
;	COMDAT ??_C@_1EA@LEKOKFNB@?$AA?$CC?$AAv?$AAe?$AAc?$AAt?$AAo?$AAr?$AA?5?$AAs?$AAu?$AAb?$AAs?$AAc?$AAr?$AAi@
CONST	SEGMENT
??_C@_1EA@LEKOKFNB@?$AA?$CC?$AAv?$AAe?$AAc?$AAt?$AAo?$AAr?$AA?5?$AAs?$AAu?$AAb?$AAs?$AAc?$AAr?$AAi@ DB '"'
	DB	00H, 'v', 00H, 'e', 00H, 'c', 00H, 't', 00H, 'o', 00H, 'r', 00H
	DB	' ', 00H, 's', 00H, 'u', 00H, 'b', 00H, 's', 00H, 'c', 00H, 'r'
	DB	00H, 'i', 00H, 'p', 00H, 't', 00H, ' ', 00H, 'o', 00H, 'u', 00H
	DB	't', 00H, ' ', 00H, 'o', 00H, 'f', 00H, ' ', 00H, 'r', 00H, 'a'
	DB	00H, 'n', 00H, 'g', 00H, 'e', 00H, '"', 00H, 00H, 00H ; `string'
CONST	ENDS
;	COMDAT ??_C@_1OG@HDLNKHLM@?$AAs?$AAt?$AAd?$AA?3?$AA?3?$AAv?$AAe?$AAc?$AAt?$AAo?$AAr?$AA?$DM?$AAs?$AAt?$AAr@
CONST	SEGMENT
??_C@_1OG@HDLNKHLM@?$AAs?$AAt?$AAd?$AA?3?$AA?3?$AAv?$AAe?$AAc?$AAt?$AAo?$AAr?$AA?$DM?$AAs?$AAt?$AAr@ DB 's'
	DB	00H, 't', 00H, 'd', 00H, ':', 00H, ':', 00H, 'v', 00H, 'e', 00H
	DB	'c', 00H, 't', 00H, 'o', 00H, 'r', 00H, '<', 00H, 's', 00H, 't'
	DB	00H, 'r', 00H, 'u', 00H, 'c', 00H, 't', 00H, ' ', 00H, 'C', 00H
	DB	'M', 00H, 'D', 00H, '_', 00H, 'C', 00H, 'S', 00H, '_', 00H, 'S'
	DB	00H, '_', 00H, 'R', 00H, 'e', 00H, 'g', 00H, 'i', 00H, 's', 00H
	DB	't', 00H, 'e', 00H, 'r', 00H, 'P', 00H, 'e', 00H, 'r', 00H, 's'
	DB	00H, 'o', 00H, 'n', 00H, 'a', 00H, 'l', 00H, ',', 00H, 'c', 00H
	DB	'l', 00H, 'a', 00H, 's', 00H, 's', 00H, ' ', 00H, 's', 00H, 't'
	DB	00H, 'd', 00H, ':', 00H, ':', 00H, 'a', 00H, 'l', 00H, 'l', 00H
	DB	'o', 00H, 'c', 00H, 'a', 00H, 't', 00H, 'o', 00H, 'r', 00H, '<'
	DB	00H, 's', 00H, 't', 00H, 'r', 00H, 'u', 00H, 'c', 00H, 't', 00H
	DB	' ', 00H, 'C', 00H, 'M', 00H, 'D', 00H, '_', 00H, 'C', 00H, 'S'
	DB	00H, '_', 00H, 'S', 00H, '_', 00H, 'R', 00H, 'e', 00H, 'g', 00H
	DB	'i', 00H, 's', 00H, 't', 00H, 'e', 00H, 'r', 00H, 'P', 00H, 'e'
	DB	00H, 'r', 00H, 's', 00H, 'o', 00H, 'n', 00H, 'a', 00H, 'l', 00H
	DB	'>', 00H, ' ', 00H, '>', 00H, ':', 00H, ':', 00H, 'o', 00H, 'p'
	DB	00H, 'e', 00H, 'r', 00H, 'a', 00H, 't', 00H, 'o', 00H, 'r', 00H
	DB	' ', 00H, '[', 00H, ']', 00H, 00H, 00H	; `string'
CONST	ENDS
;	COMDAT ??_C@_1MO@OJBMIJHH@?$AAc?$AA?3?$AA?2?$AAp?$AAr?$AAo?$AAg?$AAr?$AAa?$AAm?$AA?5?$AAf?$AAi?$AAl?$AAe@
CONST	SEGMENT
??_C@_1MO@OJBMIJHH@?$AAc?$AA?3?$AA?2?$AAp?$AAr?$AAo?$AAg?$AAr?$AAa?$AAm?$AA?5?$AAf?$AAi?$AAl?$AAe@ DB 'c'
	DB	00H, ':', 00H, '\', 00H, 'p', 00H, 'r', 00H, 'o', 00H, 'g', 00H
	DB	'r', 00H, 'a', 00H, 'm', 00H, ' ', 00H, 'f', 00H, 'i', 00H, 'l'
	DB	00H, 'e', 00H, 's', 00H, ' ', 00H, '(', 00H, 'x', 00H, '8', 00H
	DB	'6', 00H, ')', 00H, '\', 00H, 'm', 00H, 'i', 00H, 'c', 00H, 'r'
	DB	00H, 'o', 00H, 's', 00H, 'o', 00H, 'f', 00H, 't', 00H, ' ', 00H
	DB	'v', 00H, 'i', 00H, 's', 00H, 'u', 00H, 'a', 00H, 'l', 00H, ' '
	DB	00H, 's', 00H, 't', 00H, 'u', 00H, 'd', 00H, 'i', 00H, 'o', 00H
	DB	'\', 00H, '2', 00H, '0', 00H, '1', 00H, '7', 00H, '\', 00H, 'c'
	DB	00H, 'o', 00H, 'm', 00H, 'm', 00H, 'u', 00H, 'n', 00H, 'i', 00H
	DB	't', 00H, 'y', 00H, '\', 00H, 'v', 00H, 'c', 00H, '\', 00H, 't'
	DB	00H, 'o', 00H, 'o', 00H, 'l', 00H, 's', 00H, '\', 00H, 'm', 00H
	DB	's', 00H, 'v', 00H, 'c', 00H, '\', 00H, '1', 00H, '4', 00H, '.'
	DB	00H, '1', 00H, '6', 00H, '.', 00H, '2', 00H, '7', 00H, '0', 00H
	DB	'2', 00H, '3', 00H, '\', 00H, 'i', 00H, 'n', 00H, 'c', 00H, 'l'
	DB	00H, 'u', 00H, 'd', 00H, 'e', 00H, '\', 00H, 'v', 00H, 'e', 00H
	DB	'c', 00H, 't', 00H, 'o', 00H, 'r', 00H, 00H, 00H ; `string'
CONST	ENDS
;	COMDAT ??_C@_0GH@FKAHJGEE@c?3?2program?5files?5?$CIx86?$CJ?2microsof@
CONST	SEGMENT
??_C@_0GH@FKAHJGEE@c?3?2program?5files?5?$CIx86?$CJ?2microsof@ DB 'c:\pro'
	DB	'gram files (x86)\microsoft visual studio\2017\community\vc\to'
	DB	'ols\msvc\14.16.27023\include\vector', 00H	; `string'
CONST	ENDS
;	COMDAT ??_C@_0BO@PFKOHNJC@vector?5subscript?5out?5of?5range@
CONST	SEGMENT
??_C@_0BO@PFKOHNJC@vector?5subscript?5out?5of?5range@ DB 'vector subscrip'
	DB	't out of range', 00H			; `string'
CONST	ENDS
;	COMDAT ?__LINE__Var@?0??FreeGlobalChatItem@CGlobalInfoManager@@AAE_NPAVCGlobalChatItem@@@Z@4JA
_DATA	SEGMENT
?__LINE__Var@?0??FreeGlobalChatItem@CGlobalInfoManager@@AAE_NPAVCGlobalChatItem@@@Z@4JA DD 04ccH ; `CGlobalInfoManager::FreeGlobalChatItem'::`1'::__LINE__Var
_DATA	ENDS
;	COMDAT ?__LINE__Var@?0??FreeGlobalServerItem@CGlobalInfoManager@@AAE_NPAVCGlobalServerItem@@@Z@4JA
_DATA	SEGMENT
?__LINE__Var@?0??FreeGlobalServerItem@CGlobalInfoManager@@AAE_NPAVCGlobalServerItem@@@Z@4JA DD 04b7H ; `CGlobalInfoManager::FreeGlobalServerItem'::`1'::__LINE__Var
_DATA	ENDS
;	COMDAT ?__LINE__Var@?0??FreeGlobalPlazaItem@CGlobalInfoManager@@AAE_NPAVCGlobalPlazaItem@@@Z@4JA
_DATA	SEGMENT
?__LINE__Var@?0??FreeGlobalPlazaItem@CGlobalInfoManager@@AAE_NPAVCGlobalPlazaItem@@@Z@4JA DD 04a5H ; `CGlobalInfoManager::FreeGlobalPlazaItem'::`1'::__LINE__Var
_DATA	ENDS
;	COMDAT ?__LINE__Var@?0??FreeGlobalUserItem@CGlobalInfoManager@@AAE_NPAVCGlobalUserItem@@@Z@4JA
_DATA	SEGMENT
?__LINE__Var@?0??FreeGlobalUserItem@CGlobalInfoManager@@AAE_NPAVCGlobalUserItem@@@Z@4JA DD 0490H ; `CGlobalInfoManager::FreeGlobalUserItem'::`1'::__LINE__Var
_DATA	ENDS
;	COMDAT ?__LINE__Var@?0??ActiveChatItem@CGlobalInfoManager@@QAE_NGAAUtagChatServer@@@Z@4JA
_DATA	SEGMENT
?__LINE__Var@?0??ActiveChatItem@CGlobalInfoManager@@QAE_NGAAUtagChatServer@@@Z@4JA DD 03a3H ; `CGlobalInfoManager::ActiveChatItem'::`1'::__LINE__Var
_DATA	ENDS
;	COMDAT ?__LINE__Var@?0??DeleteChatItem@CGlobalInfoManager@@QAE_NG@Z@4JA
_DATA	SEGMENT
?__LINE__Var@?0??DeleteChatItem@CGlobalInfoManager@@QAE_NG@Z@4JA DD 0391H ; `CGlobalInfoManager::DeleteChatItem'::`1'::__LINE__Var
_DATA	ENDS
;	COMDAT ?__LINE__Var@?0??ActiveServerItem@CGlobalInfoManager@@QAE_NGAAUtagGameServer@@@Z@4JA
_DATA	SEGMENT
?__LINE__Var@?0??ActiveServerItem@CGlobalInfoManager@@QAE_NGAAUtagGameServer@@@Z@4JA DD 0359H ; `CGlobalInfoManager::ActiveServerItem'::`1'::__LINE__Var
_DATA	ENDS
;	COMDAT ?__LINE__Var@?0??DeleteServerItem@CGlobalInfoManager@@QAE_NG@Z@4JA
_DATA	SEGMENT
?__LINE__Var@?0??DeleteServerItem@CGlobalInfoManager@@QAE_NG@Z@4JA DD 0306H ; `CGlobalInfoManager::DeleteServerItem'::`1'::__LINE__Var
_DATA	ENDS
;	COMDAT ?__LINE__Var@?0??ActivePlazaItem@CGlobalInfoManager@@QAE_NGAAUtagGamePlaza@@@Z@4JA
_DATA	SEGMENT
?__LINE__Var@?0??ActivePlazaItem@CGlobalInfoManager@@QAE_NGAAUtagGamePlaza@@@Z@4JA DD 02e9H ; `CGlobalInfoManager::ActivePlazaItem'::`1'::__LINE__Var
_DATA	ENDS
;	COMDAT ?__LINE__Var@?0??DeletePlazaItem@CGlobalInfoManager@@QAE_NG@Z@4JA
_DATA	SEGMENT
?__LINE__Var@?0??DeletePlazaItem@CGlobalInfoManager@@QAE_NG@Z@4JA DD 02d7H ; `CGlobalInfoManager::DeletePlazaItem'::`1'::__LINE__Var
_DATA	ENDS
;	COMDAT ?__LINE__Var@?0??ActiveUserItem@CGlobalInfoManager@@QAE_NAAUtagGlobalUserInfo@@G@Z@4JA
_DATA	SEGMENT
?__LINE__Var@?0??ActiveUserItem@CGlobalInfoManager@@QAE_NAAUtagGlobalUserInfo@@G@Z@4JA DD 0296H ; `CGlobalInfoManager::ActiveUserItem'::`1'::__LINE__Var
_DATA	ENDS
;	COMDAT ?__LINE__Var@?0??DeleteUserItem@CGlobalInfoManager@@QAE_NKG@Z@4JA
_DATA	SEGMENT
?__LINE__Var@?0??DeleteUserItem@CGlobalInfoManager@@QAE_NKG@Z@4JA DD 0264H ; `CGlobalInfoManager::DeleteUserItem'::`1'::__LINE__Var
_DATA	ENDS
;	COMDAT ?__LINE__Var@?0??RemoveServerTable@CGlobalInfoManager@@QAE_NK@Z@4JA
_DATA	SEGMENT
?__LINE__Var@?0??RemoveServerTable@CGlobalInfoManager@@QAE_NK@Z@4JA DD 01b4H ; `CGlobalInfoManager::RemoveServerTable'::`1'::__LINE__Var
_DATA	ENDS
;	COMDAT ?__LINE__Var@?0??RemoveServerTable@CGlobalInfoManager@@QAE_NKK@Z@4JA
_DATA	SEGMENT
?__LINE__Var@?0??RemoveServerTable@CGlobalInfoManager@@QAE_NKK@Z@4JA DD 0181H ; `CGlobalInfoManager::RemoveServerTable'::`1'::__LINE__Var
_DATA	ENDS
;	COMDAT ??_C@_0FA@MAJEPLPJ@g?3?2?M?x?$LK?$PM?2happygamewh?2?$LH?$PO?N?q?$LG?K?2?O?$LF?M?$LD@
CONST	SEGMENT
??_C@_0FA@MAJEPLPJ@g?3?2?M?x?$LK?$PM?2happygamewh?2?$LH?$PO?N?q?$LG?K?2?O?$LF?M?$LD@ DB 'g'
	DB	':\', 0cdH, 0f8H, 0baH, 0fcH, '\happygamewh\', 0b7H, 0feH, 0ceH
	DB	0f1H, 0b6H, 0cbH, '\', 0cfH, 0b5H, 0cdH, 0b3H, 0c4H, 0a3H, 0bfH
	DB	0e9H, '\', 0b7H, 0feH, 0ceH, 0f1H, 0c6H, 0f7H, 0d7H, 0e9H, 0bcH
	DB	0feH, '\', 0d4H, 0bcH, 0d5H, 0bdH, 0b7H, 0feH, 0ceH, 0f1H, 0c6H
	DB	0f7H, '\globalinfomanager.cpp', 00H		; `string'
CONST	ENDS
;	COMDAT ?__LINE__Var@?0???1CGlobalInfoManager@@UAE@XZ@4JA
_DATA	SEGMENT
?__LINE__Var@?0???1CGlobalInfoManager@@UAE@XZ@4JA DD 08eH ; `CGlobalInfoManager::~CGlobalInfoManager'::`1'::__LINE__Var
_DATA	ENDS
;	COMDAT ??_7CGlobalInfoManager@@6B@
CONST	SEGMENT
??_7CGlobalInfoManager@@6B@ DD FLAT:??_R4CGlobalInfoManager@@6B@ ; CGlobalInfoManager::`vftable'
	DD	FLAT:??_ECGlobalInfoManager@@UAEPAXI@Z
CONST	ENDS
;	COMDAT ??_7?$CMap@KKPAUtagPersonalTableInfo@@AAPAU1@@@6B@
CONST	SEGMENT
??_7?$CMap@KKPAUtagPersonalTableInfo@@AAPAU1@@@6B@ DD FLAT:??_R4?$CMap@KKPAUtagPersonalTableInfo@@AAPAU1@@@6B@ ; CMap<unsigned long,unsigned long,tagPersonalTableInfo *,tagPersonalTableInfo * &>::`vftable'
	DD	FLAT:?GetRuntimeClass@CObject@@UBEPAUCRuntimeClass@@XZ
	DD	FLAT:??_E?$CMap@KKPAUtagPersonalTableInfo@@AAPAU1@@@UAEPAXI@Z
	DD	FLAT:?Serialize@?$CMap@KKPAUtagPersonalTableInfo@@AAPAU1@@@UAEXAAVCArchive@@@Z
	DD	FLAT:?AssertValid@?$CMap@KKPAUtagPersonalTableInfo@@AAPAU1@@@UBEXXZ
	DD	FLAT:?Dump@?$CMap@KKPAUtagPersonalTableInfo@@AAPAU1@@@UBEXAAVCDumpContext@@@Z
CONST	ENDS
;	COMDAT ??_7?$CWHArray@PAUtagServerTableCount@@ABQAU1@@@6B@
CONST	SEGMENT
??_7?$CWHArray@PAUtagServerTableCount@@ABQAU1@@@6B@ DD FLAT:??_R4?$CWHArray@PAUtagServerTableCount@@ABQAU1@@@6B@ ; CWHArray<tagServerTableCount *,tagServerTableCount * const &>::`vftable'
	DD	FLAT:??_E?$CWHArray@PAUtagServerTableCount@@ABQAU1@@@UAEPAXI@Z
CONST	ENDS
;	COMDAT ??_7?$CMap@GGPAVCGlobalChatItem@@PAV1@@@6B@
CONST	SEGMENT
??_7?$CMap@GGPAVCGlobalChatItem@@PAV1@@@6B@ DD FLAT:??_R4?$CMap@GGPAVCGlobalChatItem@@PAV1@@@6B@ ; CMap<unsigned short,unsigned short,CGlobalChatItem *,CGlobalChatItem *>::`vftable'
	DD	FLAT:?GetRuntimeClass@CObject@@UBEPAUCRuntimeClass@@XZ
	DD	FLAT:??_E?$CMap@GGPAVCGlobalChatItem@@PAV1@@@UAEPAXI@Z
	DD	FLAT:?Serialize@?$CMap@GGPAVCGlobalChatItem@@PAV1@@@UAEXAAVCArchive@@@Z
	DD	FLAT:?AssertValid@?$CMap@GGPAVCGlobalChatItem@@PAV1@@@UBEXXZ
	DD	FLAT:?Dump@?$CMap@GGPAVCGlobalChatItem@@PAV1@@@UBEXAAVCDumpContext@@@Z
CONST	ENDS
;	COMDAT ??_7?$CMap@GGPAVCGlobalServerItem@@PAV1@@@6B@
CONST	SEGMENT
??_7?$CMap@GGPAVCGlobalServerItem@@PAV1@@@6B@ DD FLAT:??_R4?$CMap@GGPAVCGlobalServerItem@@PAV1@@@6B@ ; CMap<unsigned short,unsigned short,CGlobalServerItem *,CGlobalServerItem *>::`vftable'
	DD	FLAT:?GetRuntimeClass@CObject@@UBEPAUCRuntimeClass@@XZ
	DD	FLAT:??_E?$CMap@GGPAVCGlobalServerItem@@PAV1@@@UAEPAXI@Z
	DD	FLAT:?Serialize@?$CMap@GGPAVCGlobalServerItem@@PAV1@@@UAEXAAVCArchive@@@Z
	DD	FLAT:?AssertValid@?$CMap@GGPAVCGlobalServerItem@@PAV1@@@UBEXXZ
	DD	FLAT:?Dump@?$CMap@GGPAVCGlobalServerItem@@PAV1@@@UBEXAAVCDumpContext@@@Z
CONST	ENDS
;	COMDAT ??_7?$CMap@GGPAVCGlobalPlazaItem@@PAV1@@@6B@
CONST	SEGMENT
??_7?$CMap@GGPAVCGlobalPlazaItem@@PAV1@@@6B@ DD FLAT:??_R4?$CMap@GGPAVCGlobalPlazaItem@@PAV1@@@6B@ ; CMap<unsigned short,unsigned short,CGlobalPlazaItem *,CGlobalPlazaItem *>::`vftable'
	DD	FLAT:?GetRuntimeClass@CObject@@UBEPAUCRuntimeClass@@XZ
	DD	FLAT:??_E?$CMap@GGPAVCGlobalPlazaItem@@PAV1@@@UAEPAXI@Z
	DD	FLAT:?Serialize@?$CMap@GGPAVCGlobalPlazaItem@@PAV1@@@UAEXAAVCArchive@@@Z
	DD	FLAT:?AssertValid@?$CMap@GGPAVCGlobalPlazaItem@@PAV1@@@UBEXXZ
	DD	FLAT:?Dump@?$CMap@GGPAVCGlobalPlazaItem@@PAV1@@@UBEXAAVCDumpContext@@@Z
CONST	ENDS
;	COMDAT ??_7CGlobalChatItem@@6B@
CONST	SEGMENT
??_7CGlobalChatItem@@6B@ DD FLAT:??_R4CGlobalChatItem@@6B@ ; CGlobalChatItem::`vftable'
	DD	FLAT:??_ECGlobalChatItem@@MAEPAXI@Z
CONST	ENDS
;	COMDAT ??_7CGlobalServerItem@@6B@
CONST	SEGMENT
??_7CGlobalServerItem@@6B@ DD FLAT:??_R4CGlobalServerItem@@6B@ ; CGlobalServerItem::`vftable'
	DD	FLAT:??_ECGlobalServerItem@@MAEPAXI@Z
CONST	ENDS
;	COMDAT ??_7CGlobalPlazaItem@@6B@
CONST	SEGMENT
??_7CGlobalPlazaItem@@6B@ DD FLAT:??_R4CGlobalPlazaItem@@6B@ ; CGlobalPlazaItem::`vftable'
	DD	FLAT:??_ECGlobalPlazaItem@@MAEPAXI@Z
CONST	ENDS
;	COMDAT ??_7?$CMap@KKPAVCGlobalUserItem@@PAV1@@@6B@
CONST	SEGMENT
??_7?$CMap@KKPAVCGlobalUserItem@@PAV1@@@6B@ DD FLAT:??_R4?$CMap@KKPAVCGlobalUserItem@@PAV1@@@6B@ ; CMap<unsigned long,unsigned long,CGlobalUserItem *,CGlobalUserItem *>::`vftable'
	DD	FLAT:?GetRuntimeClass@CObject@@UBEPAUCRuntimeClass@@XZ
	DD	FLAT:??_E?$CMap@KKPAVCGlobalUserItem@@PAV1@@@UAEPAXI@Z
	DD	FLAT:?Serialize@?$CMap@KKPAVCGlobalUserItem@@PAV1@@@UAEXAAVCArchive@@@Z
	DD	FLAT:?AssertValid@?$CMap@KKPAVCGlobalUserItem@@PAV1@@@UBEXXZ
	DD	FLAT:?Dump@?$CMap@KKPAVCGlobalUserItem@@PAV1@@@UBEXAAVCDumpContext@@@Z
CONST	ENDS
;	COMDAT ??_7CGlobalUserItem@@6B@
CONST	SEGMENT
??_7CGlobalUserItem@@6B@ DD FLAT:??_R4CGlobalUserItem@@6B@ ; CGlobalUserItem::`vftable'
	DD	FLAT:??_ECGlobalUserItem@@MAEPAXI@Z
CONST	ENDS
;	COMDAT ??_7?$CWHArray@PAVCGlobalServerItem@@ABQAV1@@@6B@
CONST	SEGMENT
??_7?$CWHArray@PAVCGlobalServerItem@@ABQAV1@@@6B@ DD FLAT:??_R4?$CWHArray@PAVCGlobalServerItem@@ABQAV1@@@6B@ ; CWHArray<CGlobalServerItem *,CGlobalServerItem * const &>::`vftable'
	DD	FLAT:??_E?$CWHArray@PAVCGlobalServerItem@@ABQAV1@@@UAEPAXI@Z
CONST	ENDS
;	COMDAT ??_R2CObject@@8
rdata$r	SEGMENT
??_R2CObject@@8 DD FLAT:??_R1A@?0A@EA@CObject@@8	; CObject::`RTTI Base Class Array'
rdata$r	ENDS
;	COMDAT ??_R3CObject@@8
rdata$r	SEGMENT
??_R3CObject@@8 DD 00H					; CObject::`RTTI Class Hierarchy Descriptor'
	DD	00H
	DD	01H
	DD	FLAT:??_R2CObject@@8
rdata$r	ENDS
;	COMDAT ??_R0?AVCObject@@@8
data$r	SEGMENT
??_R0?AVCObject@@@8 DD FLAT:??_7type_info@@6B@		; CObject `RTTI Type Descriptor'
	DD	00H
	DB	'.?AVCObject@@', 00H
data$r	ENDS
;	COMDAT ??_R1A@?0A@EA@CObject@@8
rdata$r	SEGMENT
??_R1A@?0A@EA@CObject@@8 DD FLAT:??_R0?AVCObject@@@8	; CObject::`RTTI Base Class Descriptor at (0,-1,0,64)'
	DD	00H
	DD	00H
	DD	0ffffffffH
	DD	00H
	DD	040H
	DD	FLAT:??_R3CObject@@8
rdata$r	ENDS
;	COMDAT ??_C@_1EO@GFNCMDLA@?$AAs?$AAt?$AAd?$AA?3?$AA?3?$AA_?$AAA?$AAl?$AAl?$AAo?$AAc?$AAa?$AAt?$AAe?$AA_@
CONST	SEGMENT
??_C@_1EO@GFNCMDLA@?$AAs?$AAt?$AAd?$AA?3?$AA?3?$AA_?$AAA?$AAl?$AAl?$AAo?$AAc?$AAa?$AAt?$AAe?$AA_@ DB 's'
	DB	00H, 't', 00H, 'd', 00H, ':', 00H, ':', 00H, '_', 00H, 'A', 00H
	DB	'l', 00H, 'l', 00H, 'o', 00H, 'c', 00H, 'a', 00H, 't', 00H, 'e'
	DB	00H, '_', 00H, 'm', 00H, 'a', 00H, 'n', 00H, 'u', 00H, 'a', 00H
	DB	'l', 00H, 'l', 00H, 'y', 00H, '_', 00H, 'v', 00H, 'e', 00H, 'c'
	DB	00H, 't', 00H, 'o', 00H, 'r', 00H, '_', 00H, 'a', 00H, 'l', 00H
	DB	'i', 00H, 'g', 00H, 'n', 00H, 'e', 00H, 'd', 00H, 00H, 00H ; `string'
CONST	ENDS
;	COMDAT ??_C@_01EEMJAFIK@?6@
CONST	SEGMENT
??_C@_01EEMJAFIK@?6@ DB 0aH, 00H			; `string'
CONST	ENDS
;	COMDAT ??_C@_09HCLNAIDE@?5elements@
CONST	SEGMENT
??_C@_09HCLNAIDE@?5elements@ DB ' elements', 00H	; `string'
CONST	ENDS
;	COMDAT ??_C@_05PLCFPPOI@with?5@
CONST	SEGMENT
??_C@_05PLCFPPOI@with?5@ DB 'with ', 00H		; `string'
CONST	ENDS
;	COMDAT ??_C@_0HC@HBCNBCLF@c?3?2program?5files?5?$CIx86?$CJ?2microsof@
CONST	SEGMENT
??_C@_0HC@HBCNBCLF@c?3?2program?5files?5?$CIx86?$CJ?2microsof@ DB 'c:\pro'
	DB	'gram files (x86)\microsoft visual studio\2017\community\vc\to'
	DB	'ols\msvc\14.16.27023\atlmfc\include\afxtempl.h', 00H ; `string'
CONST	ENDS
;	COMDAT ??_C@_1EK@NIFDJFDG@?$AAs?$AAt?$AAd?$AA?3?$AA?3?$AA_?$AAA?$AAd?$AAj?$AAu?$AAs?$AAt?$AA_?$AAm?$AAa@
CONST	SEGMENT
??_C@_1EK@NIFDJFDG@?$AAs?$AAt?$AAd?$AA?3?$AA?3?$AA_?$AAA?$AAd?$AAj?$AAu?$AAs?$AAt?$AA_?$AAm?$AAa@ DB 's'
	DB	00H, 't', 00H, 'd', 00H, ':', 00H, ':', 00H, '_', 00H, 'A', 00H
	DB	'd', 00H, 'j', 00H, 'u', 00H, 's', 00H, 't', 00H, '_', 00H, 'm'
	DB	00H, 'a', 00H, 'n', 00H, 'u', 00H, 'a', 00H, 'l', 00H, 'l', 00H
	DB	'y', 00H, '_', 00H, 'v', 00H, 'e', 00H, 'c', 00H, 't', 00H, 'o'
	DB	00H, 'r', 00H, '_', 00H, 'a', 00H, 'l', 00H, 'i', 00H, 'g', 00H
	DB	'n', 00H, 'e', 00H, 'd', 00H, 00H, 00H	; `string'
CONST	ENDS
;	COMDAT ??_C@_1NC@PIOGAKBO@?$AAc?$AA?3?$AA?2?$AAp?$AAr?$AAo?$AAg?$AAr?$AAa?$AAm?$AA?5?$AAf?$AAi?$AAl?$AAe@
CONST	SEGMENT
??_C@_1NC@PIOGAKBO@?$AAc?$AA?3?$AA?2?$AAp?$AAr?$AAo?$AAg?$AAr?$AAa?$AAm?$AA?5?$AAf?$AAi?$AAl?$AAe@ DB 'c'
	DB	00H, ':', 00H, '\', 00H, 'p', 00H, 'r', 00H, 'o', 00H, 'g', 00H
	DB	'r', 00H, 'a', 00H, 'm', 00H, ' ', 00H, 'f', 00H, 'i', 00H, 'l'
	DB	00H, 'e', 00H, 's', 00H, ' ', 00H, '(', 00H, 'x', 00H, '8', 00H
	DB	'6', 00H, ')', 00H, '\', 00H, 'm', 00H, 'i', 00H, 'c', 00H, 'r'
	DB	00H, 'o', 00H, 's', 00H, 'o', 00H, 'f', 00H, 't', 00H, ' ', 00H
	DB	'v', 00H, 'i', 00H, 's', 00H, 'u', 00H, 'a', 00H, 'l', 00H, ' '
	DB	00H, 's', 00H, 't', 00H, 'u', 00H, 'd', 00H, 'i', 00H, 'o', 00H
	DB	'\', 00H, '2', 00H, '0', 00H, '1', 00H, '7', 00H, '\', 00H, 'c'
	DB	00H, 'o', 00H, 'm', 00H, 'm', 00H, 'u', 00H, 'n', 00H, 'i', 00H
	DB	't', 00H, 'y', 00H, '\', 00H, 'v', 00H, 'c', 00H, '\', 00H, 't'
	DB	00H, 'o', 00H, 'o', 00H, 'l', 00H, 's', 00H, '\', 00H, 'm', 00H
	DB	's', 00H, 'v', 00H, 'c', 00H, '\', 00H, '1', 00H, '4', 00H, '.'
	DB	00H, '1', 00H, '6', 00H, '.', 00H, '2', 00H, '7', 00H, '0', 00H
	DB	'2', 00H, '3', 00H, '\', 00H, 'i', 00H, 'n', 00H, 'c', 00H, 'l'
	DB	00H, 'u', 00H, 'd', 00H, 'e', 00H, '\', 00H, 'x', 00H, 'm', 00H
	DB	'e', 00H, 'm', 00H, 'o', 00H, 'r', 00H, 'y', 00H, '0', 00H, 00H
	DB	00H						; `string'
CONST	ENDS
;	COMDAT ??_C@_0GJ@FFDBCFBF@c?3?2program?5files?5?$CIx86?$CJ?2microsof@
CONST	SEGMENT
??_C@_0GJ@FFDBCFBF@c?3?2program?5files?5?$CIx86?$CJ?2microsof@ DB 'c:\pro'
	DB	'gram files (x86)\microsoft visual studio\2017\community\vc\to'
	DB	'ols\msvc\14.16.27023\include\xmemory0', 00H	; `string'
CONST	ENDS
;	COMDAT ?__LINE__Var@?0??_Adjust_manually_vector_aligned@std@@YAXAAPAXAAI@Z@4JA
_DATA	SEGMENT
?__LINE__Var@?0??_Adjust_manually_vector_aligned@std@@YAXAAPAXAAI@Z@4JA DD 072H ; `std::_Adjust_manually_vector_aligned'::`1'::__LINE__Var
_DATA	ENDS
;	COMDAT ??_C@_1DG@PLBPCAEM@?$AA?$CC?$AAI?$AAT?$AAE?$AAR?$AAA?$AAT?$AAO?$AAR?$AA?5?$AAL?$AAI?$AAS?$AAT?$AA?5@
CONST	SEGMENT
??_C@_1DG@PLBPCAEM@?$AA?$CC?$AAI?$AAT?$AAE?$AAR?$AAA?$AAT?$AAO?$AAR?$AA?5?$AAL?$AAI?$AAS?$AAT?$AA?5@ DB '"'
	DB	00H, 'I', 00H, 'T', 00H, 'E', 00H, 'R', 00H, 'A', 00H, 'T', 00H
	DB	'O', 00H, 'R', 00H, ' ', 00H, 'L', 00H, 'I', 00H, 'S', 00H, 'T'
	DB	00H, ' ', 00H, 'C', 00H, 'O', 00H, 'R', 00H, 'R', 00H, 'U', 00H
	DB	'P', 00H, 'T', 00H, 'E', 00H, 'D', 00H, '!', 00H, '"', 00H, 00H
	DB	00H						; `string'
CONST	ENDS
;	COMDAT ??_C@_1EE@KLDMFDFL@?$AAs?$AAt?$AAd?$AA?3?$AA?3?$AA_?$AAI?$AAt?$AAe?$AAr?$AAa?$AAt?$AAo?$AAr?$AA_@
CONST	SEGMENT
??_C@_1EE@KLDMFDFL@?$AAs?$AAt?$AAd?$AA?3?$AA?3?$AA_?$AAI?$AAt?$AAe?$AAr?$AAa?$AAt?$AAo?$AAr?$AA_@ DB 's'
	DB	00H, 't', 00H, 'd', 00H, ':', 00H, ':', 00H, '_', 00H, 'I', 00H
	DB	't', 00H, 'e', 00H, 'r', 00H, 'a', 00H, 't', 00H, 'o', 00H, 'r'
	DB	00H, '_', 00H, 'b', 00H, 'a', 00H, 's', 00H, 'e', 00H, '1', 00H
	DB	'2', 00H, ':', 00H, ':', 00H, '_', 00H, 'O', 00H, 'r', 00H, 'p'
	DB	00H, 'h', 00H, 'a', 00H, 'n', 00H, '_', 00H, 'm', 00H, 'e', 00H
	DB	00H, 00H					; `string'
CONST	ENDS
;	COMDAT ??_C@_1NC@FANNPLN@?$AAc?$AA?3?$AA?2?$AAp?$AAr?$AAo?$AAg?$AAr?$AAa?$AAm?$AA?5?$AAf?$AAi?$AAl?$AAe@
CONST	SEGMENT
??_C@_1NC@FANNPLN@?$AAc?$AA?3?$AA?2?$AAp?$AAr?$AAo?$AAg?$AAr?$AAa?$AAm?$AA?5?$AAf?$AAi?$AAl?$AAe@ DB 'c'
	DB	00H, ':', 00H, '\', 00H, 'p', 00H, 'r', 00H, 'o', 00H, 'g', 00H
	DB	'r', 00H, 'a', 00H, 'm', 00H, ' ', 00H, 'f', 00H, 'i', 00H, 'l'
	DB	00H, 'e', 00H, 's', 00H, ' ', 00H, '(', 00H, 'x', 00H, '8', 00H
	DB	'6', 00H, ')', 00H, '\', 00H, 'm', 00H, 'i', 00H, 'c', 00H, 'r'
	DB	00H, 'o', 00H, 's', 00H, 'o', 00H, 'f', 00H, 't', 00H, ' ', 00H
	DB	'v', 00H, 'i', 00H, 's', 00H, 'u', 00H, 'a', 00H, 'l', 00H, ' '
	DB	00H, 's', 00H, 't', 00H, 'u', 00H, 'd', 00H, 'i', 00H, 'o', 00H
	DB	'\', 00H, '2', 00H, '0', 00H, '1', 00H, '7', 00H, '\', 00H, 'c'
	DB	00H, 'o', 00H, 'm', 00H, 'm', 00H, 'u', 00H, 'n', 00H, 'i', 00H
	DB	't', 00H, 'y', 00H, '\', 00H, 'v', 00H, 'c', 00H, '\', 00H, 't'
	DB	00H, 'o', 00H, 'o', 00H, 'l', 00H, 's', 00H, '\', 00H, 'm', 00H
	DB	's', 00H, 'v', 00H, 'c', 00H, '\', 00H, '1', 00H, '4', 00H, '.'
	DB	00H, '1', 00H, '6', 00H, '.', 00H, '2', 00H, '7', 00H, '0', 00H
	DB	'2', 00H, '3', 00H, '\', 00H, 'i', 00H, 'n', 00H, 'c', 00H, 'l'
	DB	00H, 'u', 00H, 'd', 00H, 'e', 00H, '\', 00H, 'x', 00H, 'u', 00H
	DB	't', 00H, 'i', 00H, 'l', 00H, 'i', 00H, 't', 00H, 'y', 00H, 00H
	DB	00H						; `string'
CONST	ENDS
;	COMDAT ??_C@_0GJ@EJIMBHLG@c?3?2program?5files?5?$CIx86?$CJ?2microsof@
CONST	SEGMENT
??_C@_0GJ@EJIMBHLG@c?3?2program?5files?5?$CIx86?$CJ?2microsof@ DB 'c:\pro'
	DB	'gram files (x86)\microsoft visual studio\2017\community\vc\to'
	DB	'ols\msvc\14.16.27023\include\xutility', 00H	; `string'
CONST	ENDS
;	COMDAT ??_C@_0BJ@LFDBABJJ@ITERATOR?5LIST?5CORRUPTED?$CB@
CONST	SEGMENT
??_C@_0BJ@LFDBABJJ@ITERATOR?5LIST?5CORRUPTED?$CB@ DB 'ITERATOR LIST CORRU'
	DB	'PTED!', 00H					; `string'
CONST	ENDS
;	COMDAT ??_C@_1CG@JNLFBNGN@?$AA?$CC?$AAi?$AAn?$AAv?$AAa?$AAl?$AAi?$AAd?$AA?5?$AAa?$AAr?$AAg?$AAu?$AAm?$AAe@
CONST	SEGMENT
??_C@_1CG@JNLFBNGN@?$AA?$CC?$AAi?$AAn?$AAv?$AAa?$AAl?$AAi?$AAd?$AA?5?$AAa?$AAr?$AAg?$AAu?$AAm?$AAe@ DB '"'
	DB	00H, 'i', 00H, 'n', 00H, 'v', 00H, 'a', 00H, 'l', 00H, 'i', 00H
	DB	'd', 00H, ' ', 00H, 'a', 00H, 'r', 00H, 'g', 00H, 'u', 00H, 'm'
	DB	00H, 'e', 00H, 'n', 00H, 't', 00H, '"', 00H, 00H, 00H ; `string'
CONST	ENDS
;	COMDAT ??_C@_02DKCKIIND@?$CFs@
CONST	SEGMENT
??_C@_02DKCKIIND@?$CFs@ DB '%s', 00H			; `string'
CONST	ENDS
;	COMDAT ??_C@_0BB@FCMFBGOM@invalid?5argument@
CONST	SEGMENT
??_C@_0BB@FCMFBGOM@invalid?5argument@ DB 'invalid argument', 00H ; `string'
CONST	ENDS
;	COMDAT ??_C@_00CNPNBAHC@@
CONST	SEGMENT
??_C@_00CNPNBAHC@@ DB 00H				; `string'
CONST	ENDS
;	COMDAT xdata$x
xdata$x	SEGMENT
__catchsym$??$_Emplace_reallocate@ABUtagPersonalTableInfo@@@?$vector@UtagPersonalTableInfo@@V?$allocator@UtagPersonalTableInfo@@@std@@@std@@QAEPAUtagPersonalTableInfo@@QAU2@ABU2@@Z$2 DD 040H
	DD	00H
	DD	00H
	DD	FLAT:__catch$??$_Emplace_reallocate@ABUtagPersonalTableInfo@@@?$vector@UtagPersonalTableInfo@@V?$allocator@UtagPersonalTableInfo@@@std@@@std@@QAEPAUtagPersonalTableInfo@@QAU2@ABU2@@Z$0
__unwindtable$??$_Emplace_reallocate@ABUtagPersonalTableInfo@@@?$vector@UtagPersonalTableInfo@@V?$allocator@UtagPersonalTableInfo@@@std@@@std@@QAEPAUtagPersonalTableInfo@@QAU2@ABU2@@Z DD 0ffffffffH
	DD	00H
	DD	0ffffffffH
	DD	00H
__tryblocktable$??$_Emplace_reallocate@ABUtagPersonalTableInfo@@@?$vector@UtagPersonalTableInfo@@V?$allocator@UtagPersonalTableInfo@@@std@@@std@@QAEPAUtagPersonalTableInfo@@QAU2@ABU2@@Z DD 00H
	DD	00H
	DD	01H
	DD	01H
	DD	FLAT:__catchsym$??$_Emplace_reallocate@ABUtagPersonalTableInfo@@@?$vector@UtagPersonalTableInfo@@V?$allocator@UtagPersonalTableInfo@@@std@@@std@@QAEPAUtagPersonalTableInfo@@QAU2@ABU2@@Z$2
__ehfuncinfo$??$_Emplace_reallocate@ABUtagPersonalTableInfo@@@?$vector@UtagPersonalTableInfo@@V?$allocator@UtagPersonalTableInfo@@@std@@@std@@QAEPAUtagPersonalTableInfo@@QAU2@ABU2@@Z DD 019930522H
	DD	02H
	DD	FLAT:__unwindtable$??$_Emplace_reallocate@ABUtagPersonalTableInfo@@@?$vector@UtagPersonalTableInfo@@V?$allocator@UtagPersonalTableInfo@@@std@@@std@@QAEPAUtagPersonalTableInfo@@QAU2@ABU2@@Z
	DD	01H
	DD	FLAT:__tryblocktable$??$_Emplace_reallocate@ABUtagPersonalTableInfo@@@?$vector@UtagPersonalTableInfo@@V?$allocator@UtagPersonalTableInfo@@@std@@@std@@QAEPAUtagPersonalTableInfo@@QAU2@ABU2@@Z
	DD	2 DUP(00H)
	DD	00H
	DD	01H
xdata$x	ENDS
;	COMDAT xdata$x
xdata$x	SEGMENT
__catchsym$??$_Emplace_reallocate@ABUCMD_CS_S_RegisterPersonal@@@?$vector@UCMD_CS_S_RegisterPersonal@@V?$allocator@UCMD_CS_S_RegisterPersonal@@@std@@@std@@QAEPAUCMD_CS_S_RegisterPersonal@@QAU2@ABU2@@Z$2 DD 040H
	DD	00H
	DD	00H
	DD	FLAT:__catch$??$_Emplace_reallocate@ABUCMD_CS_S_RegisterPersonal@@@?$vector@UCMD_CS_S_RegisterPersonal@@V?$allocator@UCMD_CS_S_RegisterPersonal@@@std@@@std@@QAEPAUCMD_CS_S_RegisterPersonal@@QAU2@ABU2@@Z$0
__unwindtable$??$_Emplace_reallocate@ABUCMD_CS_S_RegisterPersonal@@@?$vector@UCMD_CS_S_RegisterPersonal@@V?$allocator@UCMD_CS_S_RegisterPersonal@@@std@@@std@@QAEPAUCMD_CS_S_RegisterPersonal@@QAU2@ABU2@@Z DD 0ffffffffH
	DD	00H
	DD	0ffffffffH
	DD	00H
__tryblocktable$??$_Emplace_reallocate@ABUCMD_CS_S_RegisterPersonal@@@?$vector@UCMD_CS_S_RegisterPersonal@@V?$allocator@UCMD_CS_S_RegisterPersonal@@@std@@@std@@QAEPAUCMD_CS_S_RegisterPersonal@@QAU2@ABU2@@Z DD 00H
	DD	00H
	DD	01H
	DD	01H
	DD	FLAT:__catchsym$??$_Emplace_reallocate@ABUCMD_CS_S_RegisterPersonal@@@?$vector@UCMD_CS_S_RegisterPersonal@@V?$allocator@UCMD_CS_S_RegisterPersonal@@@std@@@std@@QAEPAUCMD_CS_S_RegisterPersonal@@QAU2@ABU2@@Z$2
__ehfuncinfo$??$_Emplace_reallocate@ABUCMD_CS_S_RegisterPersonal@@@?$vector@UCMD_CS_S_RegisterPersonal@@V?$allocator@UCMD_CS_S_RegisterPersonal@@@std@@@std@@QAEPAUCMD_CS_S_RegisterPersonal@@QAU2@ABU2@@Z DD 019930522H
	DD	02H
	DD	FLAT:__unwindtable$??$_Emplace_reallocate@ABUCMD_CS_S_RegisterPersonal@@@?$vector@UCMD_CS_S_RegisterPersonal@@V?$allocator@UCMD_CS_S_RegisterPersonal@@@std@@@std@@QAEPAUCMD_CS_S_RegisterPersonal@@QAU2@ABU2@@Z
	DD	01H
	DD	FLAT:__tryblocktable$??$_Emplace_reallocate@ABUCMD_CS_S_RegisterPersonal@@@?$vector@UCMD_CS_S_RegisterPersonal@@V?$allocator@UCMD_CS_S_RegisterPersonal@@@std@@@std@@QAEPAUCMD_CS_S_RegisterPersonal@@QAU2@ABU2@@Z
	DD	2 DUP(00H)
	DD	00H
	DD	01H
xdata$x	ENDS
;	COMDAT xdata$x
xdata$x	SEGMENT
__unwindtable$??H?$_Vector_iterator@V?$_Vector_val@U?$_Simple_types@UtagPersonalTableInfo@@@std@@@std@@@std@@QBE?AV01@H@Z DD 0ffffffffH
	DD	FLAT:__unwindfunclet$??H?$_Vector_iterator@V?$_Vector_val@U?$_Simple_types@UtagPersonalTableInfo@@@std@@@std@@@std@@QBE?AV01@H@Z$0
__ehfuncinfo$??H?$_Vector_iterator@V?$_Vector_val@U?$_Simple_types@UtagPersonalTableInfo@@@std@@@std@@@std@@QBE?AV01@H@Z DD 019930522H
	DD	01H
	DD	FLAT:__unwindtable$??H?$_Vector_iterator@V?$_Vector_val@U?$_Simple_types@UtagPersonalTableInfo@@@std@@@std@@@std@@QBE?AV01@H@Z
	DD	2 DUP(00H)
	DD	2 DUP(00H)
	DD	00H
	DD	01H
xdata$x	ENDS
;	COMDAT xdata$x
xdata$x	SEGMENT
__catchsym$?CreateGlobalChatItem@CGlobalInfoManager@@AAEPAVCGlobalChatItem@@XZ$3 DD 040H
	DD	00H
	DD	00H
	DD	FLAT:__catch$?CreateGlobalChatItem@CGlobalInfoManager@@AAEPAVCGlobalChatItem@@XZ$0
__tryblocktable$?CreateGlobalChatItem@CGlobalInfoManager@@AAEPAVCGlobalChatItem@@XZ DD 00H
	DD	01H
	DD	02H
	DD	01H
	DD	FLAT:__catchsym$?CreateGlobalChatItem@CGlobalInfoManager@@AAEPAVCGlobalChatItem@@XZ$3
__unwindtable$?CreateGlobalChatItem@CGlobalInfoManager@@AAEPAVCGlobalChatItem@@XZ DD 0ffffffffH
	DD	00H
	DD	00H
	DD	FLAT:__unwindfunclet$?CreateGlobalChatItem@CGlobalInfoManager@@AAEPAVCGlobalChatItem@@XZ$2
	DD	0ffffffffH
	DD	00H
__ehfuncinfo$?CreateGlobalChatItem@CGlobalInfoManager@@AAEPAVCGlobalChatItem@@XZ DD 019930522H
	DD	03H
	DD	FLAT:__unwindtable$?CreateGlobalChatItem@CGlobalInfoManager@@AAEPAVCGlobalChatItem@@XZ
	DD	01H
	DD	FLAT:__tryblocktable$?CreateGlobalChatItem@CGlobalInfoManager@@AAEPAVCGlobalChatItem@@XZ
	DD	2 DUP(00H)
	DD	00H
	DD	01H
xdata$x	ENDS
;	COMDAT xdata$x
xdata$x	SEGMENT
__catchsym$?CreateGlobalServerItem@CGlobalInfoManager@@AAEPAVCGlobalServerItem@@XZ$3 DD 040H
	DD	00H
	DD	00H
	DD	FLAT:__catch$?CreateGlobalServerItem@CGlobalInfoManager@@AAEPAVCGlobalServerItem@@XZ$0
__tryblocktable$?CreateGlobalServerItem@CGlobalInfoManager@@AAEPAVCGlobalServerItem@@XZ DD 00H
	DD	01H
	DD	02H
	DD	01H
	DD	FLAT:__catchsym$?CreateGlobalServerItem@CGlobalInfoManager@@AAEPAVCGlobalServerItem@@XZ$3
__unwindtable$?CreateGlobalServerItem@CGlobalInfoManager@@AAEPAVCGlobalServerItem@@XZ DD 0ffffffffH
	DD	00H
	DD	00H
	DD	FLAT:__unwindfunclet$?CreateGlobalServerItem@CGlobalInfoManager@@AAEPAVCGlobalServerItem@@XZ$2
	DD	0ffffffffH
	DD	00H
__ehfuncinfo$?CreateGlobalServerItem@CGlobalInfoManager@@AAEPAVCGlobalServerItem@@XZ DD 019930522H
	DD	03H
	DD	FLAT:__unwindtable$?CreateGlobalServerItem@CGlobalInfoManager@@AAEPAVCGlobalServerItem@@XZ
	DD	01H
	DD	FLAT:__tryblocktable$?CreateGlobalServerItem@CGlobalInfoManager@@AAEPAVCGlobalServerItem@@XZ
	DD	2 DUP(00H)
	DD	00H
	DD	01H
xdata$x	ENDS
;	COMDAT xdata$x
xdata$x	SEGMENT
__catchsym$?CreateGlobalPlazaItem@CGlobalInfoManager@@AAEPAVCGlobalPlazaItem@@XZ$3 DD 040H
	DD	00H
	DD	00H
	DD	FLAT:__catch$?CreateGlobalPlazaItem@CGlobalInfoManager@@AAEPAVCGlobalPlazaItem@@XZ$0
__tryblocktable$?CreateGlobalPlazaItem@CGlobalInfoManager@@AAEPAVCGlobalPlazaItem@@XZ DD 00H
	DD	01H
	DD	02H
	DD	01H
	DD	FLAT:__catchsym$?CreateGlobalPlazaItem@CGlobalInfoManager@@AAEPAVCGlobalPlazaItem@@XZ$3
__unwindtable$?CreateGlobalPlazaItem@CGlobalInfoManager@@AAEPAVCGlobalPlazaItem@@XZ DD 0ffffffffH
	DD	00H
	DD	00H
	DD	FLAT:__unwindfunclet$?CreateGlobalPlazaItem@CGlobalInfoManager@@AAEPAVCGlobalPlazaItem@@XZ$2
	DD	0ffffffffH
	DD	00H
__ehfuncinfo$?CreateGlobalPlazaItem@CGlobalInfoManager@@AAEPAVCGlobalPlazaItem@@XZ DD 019930522H
	DD	03H
	DD	FLAT:__unwindtable$?CreateGlobalPlazaItem@CGlobalInfoManager@@AAEPAVCGlobalPlazaItem@@XZ
	DD	01H
	DD	FLAT:__tryblocktable$?CreateGlobalPlazaItem@CGlobalInfoManager@@AAEPAVCGlobalPlazaItem@@XZ
	DD	2 DUP(00H)
	DD	00H
	DD	01H
xdata$x	ENDS
;	COMDAT xdata$x
xdata$x	SEGMENT
__catchsym$?CreateGlobalUserItem@CGlobalInfoManager@@AAEPAVCGlobalUserItem@@XZ$3 DD 040H
	DD	00H
	DD	00H
	DD	FLAT:__catch$?CreateGlobalUserItem@CGlobalInfoManager@@AAEPAVCGlobalUserItem@@XZ$0
__tryblocktable$?CreateGlobalUserItem@CGlobalInfoManager@@AAEPAVCGlobalUserItem@@XZ DD 00H
	DD	01H
	DD	02H
	DD	01H
	DD	FLAT:__catchsym$?CreateGlobalUserItem@CGlobalInfoManager@@AAEPAVCGlobalUserItem@@XZ$3
__unwindtable$?CreateGlobalUserItem@CGlobalInfoManager@@AAEPAVCGlobalUserItem@@XZ DD 0ffffffffH
	DD	00H
	DD	00H
	DD	FLAT:__unwindfunclet$?CreateGlobalUserItem@CGlobalInfoManager@@AAEPAVCGlobalUserItem@@XZ$2
	DD	0ffffffffH
	DD	00H
__ehfuncinfo$?CreateGlobalUserItem@CGlobalInfoManager@@AAEPAVCGlobalUserItem@@XZ DD 019930522H
	DD	03H
	DD	FLAT:__unwindtable$?CreateGlobalUserItem@CGlobalInfoManager@@AAEPAVCGlobalUserItem@@XZ
	DD	01H
	DD	FLAT:__tryblocktable$?CreateGlobalUserItem@CGlobalInfoManager@@AAEPAVCGlobalUserItem@@XZ
	DD	2 DUP(00H)
	DD	00H
	DD	01H
xdata$x	ENDS
;	COMDAT xdata$x
xdata$x	SEGMENT
__catchsym$?DeleteServerItem@CGlobalInfoManager@@QAE_NG@Z$5 DD 040H
	DD	00H
	DD	00H
	DD	FLAT:__catch$?DeleteServerItem@CGlobalInfoManager@@QAE_NG@Z$2
__catchsym$?DeleteServerItem@CGlobalInfoManager@@QAE_NG@Z$4 DD 040H
	DD	00H
	DD	00H
	DD	FLAT:__catch$?DeleteServerItem@CGlobalInfoManager@@QAE_NG@Z$0
__unwindtable$?DeleteServerItem@CGlobalInfoManager@@QAE_NG@Z DD 0ffffffffH
	DD	00H
	DD	0ffffffffH
	DD	00H
	DD	0ffffffffH
	DD	00H
	DD	0ffffffffH
	DD	00H
__ehfuncinfo$?DeleteServerItem@CGlobalInfoManager@@QAE_NG@Z DD 019930522H
	DD	04H
	DD	FLAT:__unwindtable$?DeleteServerItem@CGlobalInfoManager@@QAE_NG@Z
	DD	02H
	DD	FLAT:__tryblocktable$?DeleteServerItem@CGlobalInfoManager@@QAE_NG@Z
	DD	2 DUP(00H)
	DD	00H
	DD	01H
__tryblocktable$?DeleteServerItem@CGlobalInfoManager@@QAE_NG@Z DD 00H
	DD	00H
	DD	01H
	DD	01H
	DD	FLAT:__catchsym$?DeleteServerItem@CGlobalInfoManager@@QAE_NG@Z$4
	DD	02H
	DD	02H
	DD	03H
	DD	01H
	DD	FLAT:__catchsym$?DeleteServerItem@CGlobalInfoManager@@QAE_NG@Z$5
xdata$x	ENDS
;	COMDAT xdata$x
xdata$x	SEGMENT
__catchsym$?RemoveServerTable@CGlobalInfoManager@@QAE_NK@Z$2 DD 040H
	DD	00H
	DD	00H
	DD	FLAT:__catch$?RemoveServerTable@CGlobalInfoManager@@QAE_NK@Z$0
__unwindtable$?RemoveServerTable@CGlobalInfoManager@@QAE_NK@Z DD 0ffffffffH
	DD	00H
	DD	0ffffffffH
	DD	00H
__tryblocktable$?RemoveServerTable@CGlobalInfoManager@@QAE_NK@Z DD 00H
	DD	00H
	DD	01H
	DD	01H
	DD	FLAT:__catchsym$?RemoveServerTable@CGlobalInfoManager@@QAE_NK@Z$2
__ehfuncinfo$?RemoveServerTable@CGlobalInfoManager@@QAE_NK@Z DD 019930522H
	DD	02H
	DD	FLAT:__unwindtable$?RemoveServerTable@CGlobalInfoManager@@QAE_NK@Z
	DD	01H
	DD	FLAT:__tryblocktable$?RemoveServerTable@CGlobalInfoManager@@QAE_NK@Z
	DD	2 DUP(00H)
	DD	00H
	DD	01H
xdata$x	ENDS
;	COMDAT xdata$x
xdata$x	SEGMENT
__catchsym$?RemoveServerTable@CGlobalInfoManager@@QAE_NKK@Z$6 DD 040H
	DD	00H
	DD	00H
	DD	FLAT:__catch$?RemoveServerTable@CGlobalInfoManager@@QAE_NKK@Z$0
__tryblocktable$?RemoveServerTable@CGlobalInfoManager@@QAE_NKK@Z DD 02H
	DD	02H
	DD	03H
	DD	01H
	DD	FLAT:__catchsym$?RemoveServerTable@CGlobalInfoManager@@QAE_NKK@Z$6
__unwindtable$?RemoveServerTable@CGlobalInfoManager@@QAE_NKK@Z DD 0ffffffffH
	DD	FLAT:__unwindfunclet$?RemoveServerTable@CGlobalInfoManager@@QAE_NKK@Z$2
	DD	00H
	DD	FLAT:__unwindfunclet$?RemoveServerTable@CGlobalInfoManager@@QAE_NKK@Z$3
	DD	0ffffffffH
	DD	00H
	DD	0ffffffffH
	DD	00H
__ehfuncinfo$?RemoveServerTable@CGlobalInfoManager@@QAE_NKK@Z DD 019930522H
	DD	04H
	DD	FLAT:__unwindtable$?RemoveServerTable@CGlobalInfoManager@@QAE_NKK@Z
	DD	01H
	DD	FLAT:__tryblocktable$?RemoveServerTable@CGlobalInfoManager@@QAE_NKK@Z
	DD	2 DUP(00H)
	DD	00H
	DD	01H
xdata$x	ENDS
;	COMDAT xdata$x
xdata$x	SEGMENT
__catchsym$??1CGlobalInfoManager@@UAE@XZ$33 DD 040H
	DD	00H
	DD	00H
	DD	FLAT:__catch$??1CGlobalInfoManager@@UAE@XZ$14
__catchsym$??1CGlobalInfoManager@@UAE@XZ$32 DD 040H
	DD	00H
	DD	00H
	DD	FLAT:__catch$??1CGlobalInfoManager@@UAE@XZ$12
__catchsym$??1CGlobalInfoManager@@UAE@XZ$31 DD 040H
	DD	00H
	DD	00H
	DD	FLAT:__catch$??1CGlobalInfoManager@@UAE@XZ$10
__catchsym$??1CGlobalInfoManager@@UAE@XZ$30 DD 040H
	DD	00H
	DD	00H
	DD	FLAT:__catch$??1CGlobalInfoManager@@UAE@XZ$8
__catchsym$??1CGlobalInfoManager@@UAE@XZ$29 DD 040H
	DD	00H
	DD	00H
	DD	FLAT:__catch$??1CGlobalInfoManager@@UAE@XZ$6
__catchsym$??1CGlobalInfoManager@@UAE@XZ$28 DD 040H
	DD	00H
	DD	00H
	DD	FLAT:__catch$??1CGlobalInfoManager@@UAE@XZ$4
__catchsym$??1CGlobalInfoManager@@UAE@XZ$27 DD 040H
	DD	00H
	DD	00H
	DD	FLAT:__catch$??1CGlobalInfoManager@@UAE@XZ$2
__catchsym$??1CGlobalInfoManager@@UAE@XZ$26 DD 040H
	DD	00H
	DD	00H
	DD	FLAT:__catch$??1CGlobalInfoManager@@UAE@XZ$0
__ehfuncinfo$??1CGlobalInfoManager@@UAE@XZ DD 019930522H
	DD	01aH
	DD	FLAT:__unwindtable$??1CGlobalInfoManager@@UAE@XZ
	DD	08H
	DD	FLAT:__tryblocktable$??1CGlobalInfoManager@@UAE@XZ
	DD	2 DUP(00H)
	DD	00H
	DD	05H
__tryblocktable$??1CGlobalInfoManager@@UAE@XZ DD 0aH
	DD	0aH
	DD	0bH
	DD	01H
	DD	FLAT:__catchsym$??1CGlobalInfoManager@@UAE@XZ$26
	DD	0cH
	DD	0cH
	DD	0dH
	DD	01H
	DD	FLAT:__catchsym$??1CGlobalInfoManager@@UAE@XZ$27
	DD	0eH
	DD	0eH
	DD	0fH
	DD	01H
	DD	FLAT:__catchsym$??1CGlobalInfoManager@@UAE@XZ$28
	DD	010H
	DD	010H
	DD	011H
	DD	01H
	DD	FLAT:__catchsym$??1CGlobalInfoManager@@UAE@XZ$29
	DD	012H
	DD	012H
	DD	013H
	DD	01H
	DD	FLAT:__catchsym$??1CGlobalInfoManager@@UAE@XZ$30
	DD	014H
	DD	014H
	DD	015H
	DD	01H
	DD	FLAT:__catchsym$??1CGlobalInfoManager@@UAE@XZ$31
	DD	016H
	DD	016H
	DD	017H
	DD	01H
	DD	FLAT:__catchsym$??1CGlobalInfoManager@@UAE@XZ$32
	DD	018H
	DD	018H
	DD	019H
	DD	01H
	DD	FLAT:__catchsym$??1CGlobalInfoManager@@UAE@XZ$33
__unwindtable$??1CGlobalInfoManager@@UAE@XZ DD 0ffffffffH
	DD	FLAT:__unwindfunclet$??1CGlobalInfoManager@@UAE@XZ$16
	DD	00H
	DD	FLAT:__unwindfunclet$??1CGlobalInfoManager@@UAE@XZ$17
	DD	01H
	DD	FLAT:__unwindfunclet$??1CGlobalInfoManager@@UAE@XZ$18
	DD	02H
	DD	FLAT:__unwindfunclet$??1CGlobalInfoManager@@UAE@XZ$19
	DD	03H
	DD	FLAT:__unwindfunclet$??1CGlobalInfoManager@@UAE@XZ$20
	DD	04H
	DD	FLAT:__unwindfunclet$??1CGlobalInfoManager@@UAE@XZ$21
	DD	05H
	DD	FLAT:__unwindfunclet$??1CGlobalInfoManager@@UAE@XZ$22
	DD	06H
	DD	FLAT:__unwindfunclet$??1CGlobalInfoManager@@UAE@XZ$23
	DD	07H
	DD	FLAT:__unwindfunclet$??1CGlobalInfoManager@@UAE@XZ$24
	DD	08H
	DD	FLAT:__unwindfunclet$??1CGlobalInfoManager@@UAE@XZ$25
	DD	09H
	DD	00H
	DD	09H
	DD	00H
	DD	09H
	DD	00H
	DD	09H
	DD	00H
	DD	09H
	DD	00H
	DD	09H
	DD	00H
	DD	09H
	DD	00H
	DD	09H
	DD	00H
	DD	09H
	DD	00H
	DD	09H
	DD	00H
	DD	09H
	DD	00H
	DD	09H
	DD	00H
	DD	09H
	DD	00H
	DD	09H
	DD	00H
	DD	09H
	DD	00H
	DD	09H
	DD	00H
xdata$x	ENDS
;	COMDAT xdata$x
xdata$x	SEGMENT
__ehfuncinfo$??0CGlobalInfoManager@@QAE@XZ DD 019930522H
	DD	0aH
	DD	FLAT:__unwindtable$??0CGlobalInfoManager@@QAE@XZ
	DD	2 DUP(00H)
	DD	2 DUP(00H)
	DD	00H
	DD	01H
__unwindtable$??0CGlobalInfoManager@@QAE@XZ DD 0ffffffffH
	DD	FLAT:__unwindfunclet$??0CGlobalInfoManager@@QAE@XZ$0
	DD	00H
	DD	FLAT:__unwindfunclet$??0CGlobalInfoManager@@QAE@XZ$1
	DD	01H
	DD	FLAT:__unwindfunclet$??0CGlobalInfoManager@@QAE@XZ$2
	DD	02H
	DD	FLAT:__unwindfunclet$??0CGlobalInfoManager@@QAE@XZ$3
	DD	03H
	DD	FLAT:__unwindfunclet$??0CGlobalInfoManager@@QAE@XZ$4
	DD	04H
	DD	FLAT:__unwindfunclet$??0CGlobalInfoManager@@QAE@XZ$5
	DD	05H
	DD	FLAT:__unwindfunclet$??0CGlobalInfoManager@@QAE@XZ$6
	DD	06H
	DD	FLAT:__unwindfunclet$??0CGlobalInfoManager@@QAE@XZ$7
	DD	07H
	DD	FLAT:__unwindfunclet$??0CGlobalInfoManager@@QAE@XZ$8
	DD	08H
	DD	FLAT:__unwindfunclet$??0CGlobalInfoManager@@QAE@XZ$9
xdata$x	ENDS
;	COMDAT xdata$x
xdata$x	SEGMENT
__unwindtable$?_Orphan_range@?$vector@UCMD_CS_S_RegisterPersonal@@V?$allocator@UCMD_CS_S_RegisterPersonal@@@std@@@std@@ABEXPAUCMD_CS_S_RegisterPersonal@@0@Z DD 0ffffffffH
	DD	FLAT:__unwindfunclet$?_Orphan_range@?$vector@UCMD_CS_S_RegisterPersonal@@V?$allocator@UCMD_CS_S_RegisterPersonal@@@std@@@std@@ABEXPAUCMD_CS_S_RegisterPersonal@@0@Z$0
__ehfuncinfo$?_Orphan_range@?$vector@UCMD_CS_S_RegisterPersonal@@V?$allocator@UCMD_CS_S_RegisterPersonal@@@std@@@std@@ABEXPAUCMD_CS_S_RegisterPersonal@@0@Z DD 019930522H
	DD	01H
	DD	FLAT:__unwindtable$?_Orphan_range@?$vector@UCMD_CS_S_RegisterPersonal@@V?$allocator@UCMD_CS_S_RegisterPersonal@@@std@@@std@@ABEXPAUCMD_CS_S_RegisterPersonal@@0@Z
	DD	2 DUP(00H)
	DD	2 DUP(00H)
	DD	00H
	DD	01H
xdata$x	ENDS
;	COMDAT xdata$x
xdata$x	SEGMENT
__ehfuncinfo$??1?$vector@UCMD_CS_S_RegisterPersonal@@V?$allocator@UCMD_CS_S_RegisterPersonal@@@std@@@std@@QAE@XZ DD 019930522H
	DD	00H
	DD	00H
	DD	2 DUP(00H)
	DD	2 DUP(00H)
	DD	00H
	DD	05H
xdata$x	ENDS
;	COMDAT xdata$x
xdata$x	SEGMENT
__ehfuncinfo$??0?$vector@UCMD_CS_S_RegisterPersonal@@V?$allocator@UCMD_CS_S_RegisterPersonal@@@std@@@std@@QAE@XZ DD 019930522H
	DD	00H
	DD	00H
	DD	2 DUP(00H)
	DD	2 DUP(00H)
	DD	00H
	DD	05H
xdata$x	ENDS
;	COMDAT xdata$x
xdata$x	SEGMENT
__ehfuncinfo$??1?$_Vector_alloc@U?$_Vec_base_types@UCMD_CS_S_RegisterPersonal@@V?$allocator@UCMD_CS_S_RegisterPersonal@@@std@@@std@@@std@@QAE@XZ DD 019930522H
	DD	00H
	DD	00H
	DD	2 DUP(00H)
	DD	2 DUP(00H)
	DD	00H
	DD	05H
xdata$x	ENDS
;	COMDAT xdata$x
xdata$x	SEGMENT
__unwindtable$?_Orphan_range@?$vector@UtagPersonalTableInfo@@V?$allocator@UtagPersonalTableInfo@@@std@@@std@@ABEXPAUtagPersonalTableInfo@@0@Z DD 0ffffffffH
	DD	FLAT:__unwindfunclet$?_Orphan_range@?$vector@UtagPersonalTableInfo@@V?$allocator@UtagPersonalTableInfo@@@std@@@std@@ABEXPAUtagPersonalTableInfo@@0@Z$0
__ehfuncinfo$?_Orphan_range@?$vector@UtagPersonalTableInfo@@V?$allocator@UtagPersonalTableInfo@@@std@@@std@@ABEXPAUtagPersonalTableInfo@@0@Z DD 019930522H
	DD	01H
	DD	FLAT:__unwindtable$?_Orphan_range@?$vector@UtagPersonalTableInfo@@V?$allocator@UtagPersonalTableInfo@@@std@@@std@@ABEXPAUtagPersonalTableInfo@@0@Z
	DD	2 DUP(00H)
	DD	2 DUP(00H)
	DD	00H
	DD	01H
xdata$x	ENDS
;	COMDAT xdata$x
xdata$x	SEGMENT
__ehfuncinfo$?begin@?$vector@UtagPersonalTableInfo@@V?$allocator@UtagPersonalTableInfo@@@std@@@std@@QAE?AV?$_Vector_iterator@V?$_Vector_val@U?$_Simple_types@UtagPersonalTableInfo@@@std@@@std@@@2@XZ DD 019930522H
	DD	00H
	DD	00H
	DD	2 DUP(00H)
	DD	2 DUP(00H)
	DD	00H
	DD	05H
xdata$x	ENDS
;	COMDAT xdata$x
xdata$x	SEGMENT
__unwindtable$?erase@?$vector@UtagPersonalTableInfo@@V?$allocator@UtagPersonalTableInfo@@@std@@@std@@QAE?AV?$_Vector_iterator@V?$_Vector_val@U?$_Simple_types@UtagPersonalTableInfo@@@std@@@std@@@2@V?$_Vector_const_iterator@V?$_Vector_val@U?$_Simple_types@UtagPersonalTableInfo@@@std@@@std@@@2@@Z DD 0ffffffffH
	DD	FLAT:__unwindfunclet$?erase@?$vector@UtagPersonalTableInfo@@V?$allocator@UtagPersonalTableInfo@@@std@@@std@@QAE?AV?$_Vector_iterator@V?$_Vector_val@U?$_Simple_types@UtagPersonalTableInfo@@@std@@@std@@@2@V?$_Vector_const_iterator@V?$_Vector_val@U?$_Simple_types@UtagPersonalTableInfo@@@std@@@std@@@2@@Z$0
__ehfuncinfo$?erase@?$vector@UtagPersonalTableInfo@@V?$allocator@UtagPersonalTableInfo@@@std@@@std@@QAE?AV?$_Vector_iterator@V?$_Vector_val@U?$_Simple_types@UtagPersonalTableInfo@@@std@@@std@@@2@V?$_Vector_const_iterator@V?$_Vector_val@U?$_Simple_types@UtagPersonalTableInfo@@@std@@@std@@@2@@Z DD 019930522H
	DD	01H
	DD	FLAT:__unwindtable$?erase@?$vector@UtagPersonalTableInfo@@V?$allocator@UtagPersonalTableInfo@@@std@@@std@@QAE?AV?$_Vector_iterator@V?$_Vector_val@U?$_Simple_types@UtagPersonalTableInfo@@@std@@@std@@@2@V?$_Vector_const_iterator@V?$_Vector_val@U?$_Simple_types@UtagPersonalTableInfo@@@std@@@std@@@2@@Z
	DD	2 DUP(00H)
	DD	2 DUP(00H)
	DD	00H
	DD	01H
xdata$x	ENDS
;	COMDAT xdata$x
xdata$x	SEGMENT
__ehfuncinfo$??1?$vector@UtagPersonalTableInfo@@V?$allocator@UtagPersonalTableInfo@@@std@@@std@@QAE@XZ DD 019930522H
	DD	00H
	DD	00H
	DD	2 DUP(00H)
	DD	2 DUP(00H)
	DD	00H
	DD	05H
xdata$x	ENDS
;	COMDAT xdata$x
xdata$x	SEGMENT
__ehfuncinfo$??0?$vector@UtagPersonalTableInfo@@V?$allocator@UtagPersonalTableInfo@@@std@@@std@@QAE@XZ DD 019930522H
	DD	00H
	DD	00H
	DD	2 DUP(00H)
	DD	2 DUP(00H)
	DD	00H
	DD	05H
xdata$x	ENDS
;	COMDAT xdata$x
xdata$x	SEGMENT
__ehfuncinfo$??1?$_Vector_alloc@U?$_Vec_base_types@UtagPersonalTableInfo@@V?$allocator@UtagPersonalTableInfo@@@std@@@std@@@std@@QAE@XZ DD 019930522H
	DD	00H
	DD	00H
	DD	2 DUP(00H)
	DD	2 DUP(00H)
	DD	00H
	DD	05H
xdata$x	ENDS
;	COMDAT xdata$x
xdata$x	SEGMENT
__ehfuncinfo$??1?$CMap@KKPAUtagPersonalTableInfo@@AAPAU1@@@UAE@XZ DD 019930522H
	DD	00H
	DD	00H
	DD	2 DUP(00H)
	DD	2 DUP(00H)
	DD	00H
	DD	05H
xdata$x	ENDS
;	COMDAT xdata$x
xdata$x	SEGMENT
__unwindtable$??0?$CMap@KKPAUtagPersonalTableInfo@@AAPAU1@@@QAE@H@Z DD 0ffffffffH
	DD	FLAT:__unwindfunclet$??0?$CMap@KKPAUtagPersonalTableInfo@@AAPAU1@@@QAE@H@Z$0
__ehfuncinfo$??0?$CMap@KKPAUtagPersonalTableInfo@@AAPAU1@@@QAE@H@Z DD 019930522H
	DD	01H
	DD	FLAT:__unwindtable$??0?$CMap@KKPAUtagPersonalTableInfo@@AAPAU1@@@QAE@H@Z
	DD	2 DUP(00H)
	DD	2 DUP(00H)
	DD	00H
	DD	01H
xdata$x	ENDS
;	COMDAT xdata$x
xdata$x	SEGMENT
__ehfuncinfo$??1?$CMap@GGPAVCGlobalChatItem@@PAV1@@@UAE@XZ DD 019930522H
	DD	00H
	DD	00H
	DD	2 DUP(00H)
	DD	2 DUP(00H)
	DD	00H
	DD	05H
xdata$x	ENDS
;	COMDAT xdata$x
xdata$x	SEGMENT
__unwindtable$??0?$CMap@GGPAVCGlobalChatItem@@PAV1@@@QAE@H@Z DD 0ffffffffH
	DD	FLAT:__unwindfunclet$??0?$CMap@GGPAVCGlobalChatItem@@PAV1@@@QAE@H@Z$0
__ehfuncinfo$??0?$CMap@GGPAVCGlobalChatItem@@PAV1@@@QAE@H@Z DD 019930522H
	DD	01H
	DD	FLAT:__unwindtable$??0?$CMap@GGPAVCGlobalChatItem@@PAV1@@@QAE@H@Z
	DD	2 DUP(00H)
	DD	2 DUP(00H)
	DD	00H
	DD	01H
xdata$x	ENDS
;	COMDAT xdata$x
xdata$x	SEGMENT
__ehfuncinfo$??1?$CMap@GGPAVCGlobalServerItem@@PAV1@@@UAE@XZ DD 019930522H
	DD	00H
	DD	00H
	DD	2 DUP(00H)
	DD	2 DUP(00H)
	DD	00H
	DD	05H
xdata$x	ENDS
;	COMDAT xdata$x
xdata$x	SEGMENT
__unwindtable$??0?$CMap@GGPAVCGlobalServerItem@@PAV1@@@QAE@H@Z DD 0ffffffffH
	DD	FLAT:__unwindfunclet$??0?$CMap@GGPAVCGlobalServerItem@@PAV1@@@QAE@H@Z$0
__ehfuncinfo$??0?$CMap@GGPAVCGlobalServerItem@@PAV1@@@QAE@H@Z DD 019930522H
	DD	01H
	DD	FLAT:__unwindtable$??0?$CMap@GGPAVCGlobalServerItem@@PAV1@@@QAE@H@Z
	DD	2 DUP(00H)
	DD	2 DUP(00H)
	DD	00H
	DD	01H
xdata$x	ENDS
;	COMDAT xdata$x
xdata$x	SEGMENT
__ehfuncinfo$??1?$CMap@GGPAVCGlobalPlazaItem@@PAV1@@@UAE@XZ DD 019930522H
	DD	00H
	DD	00H
	DD	2 DUP(00H)
	DD	2 DUP(00H)
	DD	00H
	DD	05H
xdata$x	ENDS
;	COMDAT xdata$x
xdata$x	SEGMENT
__unwindtable$??0?$CMap@GGPAVCGlobalPlazaItem@@PAV1@@@QAE@H@Z DD 0ffffffffH
	DD	FLAT:__unwindfunclet$??0?$CMap@GGPAVCGlobalPlazaItem@@PAV1@@@QAE@H@Z$0
__ehfuncinfo$??0?$CMap@GGPAVCGlobalPlazaItem@@PAV1@@@QAE@H@Z DD 019930522H
	DD	01H
	DD	FLAT:__unwindtable$??0?$CMap@GGPAVCGlobalPlazaItem@@PAV1@@@QAE@H@Z
	DD	2 DUP(00H)
	DD	2 DUP(00H)
	DD	00H
	DD	01H
xdata$x	ENDS
;	COMDAT xdata$x
xdata$x	SEGMENT
__unwindtable$??0CGlobalServerItem@@IAE@XZ DD 0ffffffffH
	DD	FLAT:__unwindfunclet$??0CGlobalServerItem@@IAE@XZ$0
__ehfuncinfo$??0CGlobalServerItem@@IAE@XZ DD 019930522H
	DD	01H
	DD	FLAT:__unwindtable$??0CGlobalServerItem@@IAE@XZ
	DD	2 DUP(00H)
	DD	2 DUP(00H)
	DD	00H
	DD	01H
xdata$x	ENDS
;	COMDAT xdata$x
xdata$x	SEGMENT
__ehfuncinfo$??1?$CMap@KKPAVCGlobalUserItem@@PAV1@@@UAE@XZ DD 019930522H
	DD	00H
	DD	00H
	DD	2 DUP(00H)
	DD	2 DUP(00H)
	DD	00H
	DD	05H
xdata$x	ENDS
;	COMDAT xdata$x
xdata$x	SEGMENT
__unwindtable$??0?$CMap@KKPAVCGlobalUserItem@@PAV1@@@QAE@H@Z DD 0ffffffffH
	DD	FLAT:__unwindfunclet$??0?$CMap@KKPAVCGlobalUserItem@@PAV1@@@QAE@H@Z$0
__ehfuncinfo$??0?$CMap@KKPAVCGlobalUserItem@@PAV1@@@QAE@H@Z DD 019930522H
	DD	01H
	DD	FLAT:__unwindtable$??0?$CMap@KKPAVCGlobalUserItem@@PAV1@@@QAE@H@Z
	DD	2 DUP(00H)
	DD	2 DUP(00H)
	DD	00H
	DD	01H
xdata$x	ENDS
;	COMDAT xdata$x
xdata$x	SEGMENT
__ehfuncinfo$?_Adopt@_Iterator_base12@std@@QAEXPBU_Container_base12@2@@Z DD 019930522H
	DD	00H
	DD	00H
	DD	2 DUP(00H)
	DD	2 DUP(00H)
	DD	00H
	DD	05H
xdata$x	ENDS
;	COMDAT xdata$x
xdata$x	SEGMENT
__ehfuncinfo$??1_Iterator_base12@std@@QAE@XZ DD 019930522H
	DD	00H
	DD	00H
	DD	2 DUP(00H)
	DD	2 DUP(00H)
	DD	00H
	DD	05H
xdata$x	ENDS
;	COMDAT xdata$x
xdata$x	SEGMENT
__ehfuncinfo$??4_Iterator_base12@std@@QAEAAU01@ABU01@@Z DD 019930522H
	DD	00H
	DD	00H
	DD	2 DUP(00H)
	DD	2 DUP(00H)
	DD	00H
	DD	05H
xdata$x	ENDS
;	COMDAT xdata$x
xdata$x	SEGMENT
__ehfuncinfo$?_Orphan_all@_Container_base12@std@@QAEXXZ DD 019930522H
	DD	00H
	DD	00H
	DD	2 DUP(00H)
	DD	2 DUP(00H)
	DD	00H
	DD	05H
xdata$x	ENDS
; Function compile flags: /Odtp /ZI
; File c:\program files (x86)\microsoft visual studio\2017\community\vc\tools\msvc\14.16.27023\include\xutility
;	COMDAT ??$_Copy_memmove@PAUCMD_CS_S_RegisterPersonal@@PAU1@@std@@YAPAUCMD_CS_S_RegisterPersonal@@PAU1@00@Z
_TEXT	SEGMENT
__Count$ = -16						; size = 4
__Dest_ch$ = -12					; size = 4
__Last_ch$ = -8						; size = 4
__First_ch$ = -4					; size = 4
__First$ = 8						; size = 4
__Last$ = 12						; size = 4
__Dest$ = 16						; size = 4
??$_Copy_memmove@PAUCMD_CS_S_RegisterPersonal@@PAU1@@std@@YAPAUCMD_CS_S_RegisterPersonal@@PAU1@00@Z PROC ; std::_Copy_memmove<CMD_CS_S_RegisterPersonal *,CMD_CS_S_RegisterPersonal *>, COMDAT

; 2398 : 	{	// implement copy-like function as memmove

  00000	55		 push	 ebp
  00001	8b ec		 mov	 ebp, esp
  00003	83 ec 50	 sub	 esp, 80			; 00000050H
  00006	53		 push	 ebx
  00007	56		 push	 esi
  00008	57		 push	 edi

; 2399 : 	const char * const _First_ch = const_cast<const char *>(reinterpret_cast<const volatile char *>(_First));

  00009	8b 45 08	 mov	 eax, DWORD PTR __First$[ebp]
  0000c	89 45 fc	 mov	 DWORD PTR __First_ch$[ebp], eax

; 2400 : 	const char * const _Last_ch = const_cast<const char *>(reinterpret_cast<const volatile char *>(_Last));

  0000f	8b 45 0c	 mov	 eax, DWORD PTR __Last$[ebp]
  00012	89 45 f8	 mov	 DWORD PTR __Last_ch$[ebp], eax

; 2401 : 	char * const _Dest_ch = const_cast<char *>(reinterpret_cast<volatile char *>(_Dest));

  00015	8b 45 10	 mov	 eax, DWORD PTR __Dest$[ebp]
  00018	89 45 f4	 mov	 DWORD PTR __Dest_ch$[ebp], eax

; 2402 : 	const auto _Count = static_cast<size_t>(_Last_ch - _First_ch);

  0001b	8b 45 f8	 mov	 eax, DWORD PTR __Last_ch$[ebp]
  0001e	2b 45 fc	 sub	 eax, DWORD PTR __First_ch$[ebp]
  00021	89 45 f0	 mov	 DWORD PTR __Count$[ebp], eax

; 2403 : 	_CSTD memmove(_Dest_ch, _First_ch, _Count);

  00024	8b 45 f0	 mov	 eax, DWORD PTR __Count$[ebp]
  00027	50		 push	 eax
  00028	8b 4d fc	 mov	 ecx, DWORD PTR __First_ch$[ebp]
  0002b	51		 push	 ecx
  0002c	8b 55 f4	 mov	 edx, DWORD PTR __Dest_ch$[ebp]
  0002f	52		 push	 edx
  00030	e8 00 00 00 00	 call	 _memmove
  00035	83 c4 0c	 add	 esp, 12			; 0000000cH

; 2404 : 	return (reinterpret_cast<_OutIt>(_Dest_ch + _Count));

  00038	8b 45 f4	 mov	 eax, DWORD PTR __Dest_ch$[ebp]
  0003b	03 45 f0	 add	 eax, DWORD PTR __Count$[ebp]

; 2405 : 	}

  0003e	5f		 pop	 edi
  0003f	5e		 pop	 esi
  00040	5b		 pop	 ebx
  00041	8b e5		 mov	 esp, ebp
  00043	5d		 pop	 ebp
  00044	c3		 ret	 0
??$_Copy_memmove@PAUCMD_CS_S_RegisterPersonal@@PAU1@@std@@YAPAUCMD_CS_S_RegisterPersonal@@PAU1@00@Z ENDP ; std::_Copy_memmove<CMD_CS_S_RegisterPersonal *,CMD_CS_S_RegisterPersonal *>
_TEXT	ENDS
; Function compile flags: /Odtp /ZI
; File c:\program files (x86)\microsoft visual studio\2017\community\vc\tools\msvc\14.16.27023\include\xutility
;	COMDAT ??$_Seek_wrapped@UtagPersonalTableInfo@@@std@@YAXAAPAUtagPersonalTableInfo@@QAU1@@Z
_TEXT	SEGMENT
__It$ = 8						; size = 4
__UIt$ = 12						; size = 4
??$_Seek_wrapped@UtagPersonalTableInfo@@@std@@YAXAAPAUtagPersonalTableInfo@@QAU1@@Z PROC ; std::_Seek_wrapped<tagPersonalTableInfo>, COMDAT

; 871  : 	{

  00000	55		 push	 ebp
  00001	8b ec		 mov	 ebp, esp
  00003	83 ec 40	 sub	 esp, 64			; 00000040H
  00006	53		 push	 ebx
  00007	56		 push	 esi
  00008	57		 push	 edi

; 872  : 	_It = _UIt;

  00009	8b 45 08	 mov	 eax, DWORD PTR __It$[ebp]
  0000c	8b 4d 0c	 mov	 ecx, DWORD PTR __UIt$[ebp]
  0000f	89 08		 mov	 DWORD PTR [eax], ecx

; 873  : 	}

  00011	5f		 pop	 edi
  00012	5e		 pop	 esi
  00013	5b		 pop	 ebx
  00014	8b e5		 mov	 esp, ebp
  00016	5d		 pop	 ebp
  00017	c3		 ret	 0
??$_Seek_wrapped@UtagPersonalTableInfo@@@std@@YAXAAPAUtagPersonalTableInfo@@QAU1@@Z ENDP ; std::_Seek_wrapped<tagPersonalTableInfo>
_TEXT	ENDS
; Function compile flags: /Odtp /ZI
; File c:\program files (x86)\microsoft visual studio\2017\community\vc\tools\msvc\14.16.27023\include\xmemory
;	COMDAT ??$_Uninitialized_move_al_unchecked@UtagPersonalTableInfo@@U1@V?$allocator@UtagPersonalTableInfo@@@std@@@std@@YAPAUtagPersonalTableInfo@@QAU1@00AAV?$allocator@UtagPersonalTableInfo@@@0@U_Really_trivial_ptr_iterator_tag@0@U?$integral_constant@_N$00@0@@Z
_TEXT	SEGMENT
__First$ = 8						; size = 4
__Last$ = 12						; size = 4
__Dest$ = 16						; size = 4
___formal$ = 20						; size = 4
___formal$ = 24						; size = 1
___formal$ = 28						; size = 1
??$_Uninitialized_move_al_unchecked@UtagPersonalTableInfo@@U1@V?$allocator@UtagPersonalTableInfo@@@std@@@std@@YAPAUtagPersonalTableInfo@@QAU1@00AAV?$allocator@UtagPersonalTableInfo@@@0@U_Really_trivial_ptr_iterator_tag@0@U?$integral_constant@_N$00@0@@Z PROC ; std::_Uninitialized_move_al_unchecked<tagPersonalTableInfo,tagPersonalTableInfo,std::allocator<tagPersonalTableInfo> >, COMDAT

; 243  : 	{	// move [_First, _Last) to raw _Dest, using default _Alloc construct, memmove optimization

  00000	55		 push	 ebp
  00001	8b ec		 mov	 ebp, esp
  00003	83 ec 40	 sub	 esp, 64			; 00000040H
  00006	53		 push	 ebx
  00007	56		 push	 esi
  00008	57		 push	 edi

; 244  : 	return (_Copy_memmove(_First, _Last, _Dest));

  00009	8b 45 10	 mov	 eax, DWORD PTR __Dest$[ebp]
  0000c	50		 push	 eax
  0000d	8b 4d 0c	 mov	 ecx, DWORD PTR __Last$[ebp]
  00010	51		 push	 ecx
  00011	8b 55 08	 mov	 edx, DWORD PTR __First$[ebp]
  00014	52		 push	 edx
  00015	e8 00 00 00 00	 call	 ??$_Copy_memmove@PAUtagPersonalTableInfo@@PAU1@@std@@YAPAUtagPersonalTableInfo@@PAU1@00@Z ; std::_Copy_memmove<tagPersonalTableInfo *,tagPersonalTableInfo *>
  0001a	83 c4 0c	 add	 esp, 12			; 0000000cH

; 245  : 	}

  0001d	5f		 pop	 edi
  0001e	5e		 pop	 esi
  0001f	5b		 pop	 ebx
  00020	8b e5		 mov	 esp, ebp
  00022	5d		 pop	 ebp
  00023	c3		 ret	 0
??$_Uninitialized_move_al_unchecked@UtagPersonalTableInfo@@U1@V?$allocator@UtagPersonalTableInfo@@@std@@@std@@YAPAUtagPersonalTableInfo@@QAU1@00AAV?$allocator@UtagPersonalTableInfo@@@0@U_Really_trivial_ptr_iterator_tag@0@U?$integral_constant@_N$00@0@@Z ENDP ; std::_Uninitialized_move_al_unchecked<tagPersonalTableInfo,tagPersonalTableInfo,std::allocator<tagPersonalTableInfo> >
_TEXT	ENDS
; Function compile flags: /Odtp /ZI
; File c:\program files (x86)\microsoft visual studio\2017\community\vc\tools\msvc\14.16.27023\include\xutility
;	COMDAT ??$_Get_unwrapped_n@UtagPersonalTableInfo@@H$0A@@std@@YAPAUtagPersonalTableInfo@@QAU1@H@Z
_TEXT	SEGMENT
__Src$ = 8						; size = 4
___formal$ = 12						; size = 4
??$_Get_unwrapped_n@UtagPersonalTableInfo@@H$0A@@std@@YAPAUtagPersonalTableInfo@@QAU1@H@Z PROC ; std::_Get_unwrapped_n<tagPersonalTableInfo,int,0>, COMDAT

; 808  : 	{

  00000	55		 push	 ebp
  00001	8b ec		 mov	 ebp, esp
  00003	83 ec 40	 sub	 esp, 64			; 00000040H
  00006	53		 push	 ebx
  00007	56		 push	 esi
  00008	57		 push	 edi

; 809  : 	return (_Src);

  00009	8b 45 08	 mov	 eax, DWORD PTR __Src$[ebp]

; 810  : 	}

  0000c	5f		 pop	 edi
  0000d	5e		 pop	 esi
  0000e	5b		 pop	 ebx
  0000f	8b e5		 mov	 esp, ebp
  00011	5d		 pop	 ebp
  00012	c3		 ret	 0
??$_Get_unwrapped_n@UtagPersonalTableInfo@@H$0A@@std@@YAPAUtagPersonalTableInfo@@QAU1@H@Z ENDP ; std::_Get_unwrapped_n<tagPersonalTableInfo,int,0>
_TEXT	ENDS
; Function compile flags: /Odtp /ZI
; File c:\program files (x86)\microsoft visual studio\2017\community\vc\tools\msvc\14.16.27023\include\xutility
;	COMDAT ??$_Idl_distance1@PAUtagPersonalTableInfo@@PAU1@@std@@YAHABQAUtagPersonalTableInfo@@0Urandom_access_iterator_tag@0@@Z
_TEXT	SEGMENT
__First$ = 8						; size = 4
__Last$ = 12						; size = 4
___formal$ = 16						; size = 1
??$_Idl_distance1@PAUtagPersonalTableInfo@@PAU1@@std@@YAHABQAUtagPersonalTableInfo@@0Urandom_access_iterator_tag@0@@Z PROC ; std::_Idl_distance1<tagPersonalTableInfo *,tagPersonalTableInfo *>, COMDAT

; 967  : 	{	// _Idl_distance for random-access iterators

  00000	55		 push	 ebp
  00001	8b ec		 mov	 ebp, esp
  00003	83 ec 40	 sub	 esp, 64			; 00000040H
  00006	53		 push	 ebx
  00007	56		 push	 esi
  00008	57		 push	 edi

; 968  : 	return (static_cast<_Iter_diff_t<_Checked>>(_Last - _First));

  00009	8b 45 0c	 mov	 eax, DWORD PTR __Last$[ebp]
  0000c	8b 4d 08	 mov	 ecx, DWORD PTR __First$[ebp]
  0000f	8b 00		 mov	 eax, DWORD PTR [eax]
  00011	2b 01		 sub	 eax, DWORD PTR [ecx]
  00013	99		 cdq
  00014	b9 d1 00 00 00	 mov	 ecx, 209		; 000000d1H
  00019	f7 f9		 idiv	 ecx

; 969  : 	}

  0001b	5f		 pop	 edi
  0001c	5e		 pop	 esi
  0001d	5b		 pop	 ebx
  0001e	8b e5		 mov	 esp, ebp
  00020	5d		 pop	 ebp
  00021	c3		 ret	 0
??$_Idl_distance1@PAUtagPersonalTableInfo@@PAU1@@std@@YAHABQAUtagPersonalTableInfo@@0Urandom_access_iterator_tag@0@@Z ENDP ; std::_Idl_distance1<tagPersonalTableInfo *,tagPersonalTableInfo *>
_TEXT	ENDS
; Function compile flags: /Odtp /ZI
; File c:\program files (x86)\microsoft visual studio\2017\community\vc\tools\msvc\14.16.27023\include\xutility
;	COMDAT ??$_Idl_distance@PAUtagPersonalTableInfo@@PAU1@@std@@YA@ABQAUtagPersonalTableInfo@@0@Z
_TEXT	SEGMENT
$T1 = -65						; size = 1
__First$ = 8						; size = 4
__Last$ = 12						; size = 4
??$_Idl_distance@PAUtagPersonalTableInfo@@PAU1@@std@@YA@ABQAUtagPersonalTableInfo@@0@Z PROC ; std::_Idl_distance<tagPersonalTableInfo *,tagPersonalTableInfo *>, COMDAT

; 974  : 	{	// tries to get the distance between _First and _Last if they are random-access iterators

  00000	55		 push	 ebp
  00001	8b ec		 mov	 ebp, esp
  00003	83 ec 44	 sub	 esp, 68			; 00000044H
  00006	53		 push	 ebx
  00007	56		 push	 esi
  00008	57		 push	 edi

; 975  : 	return (_Idl_distance1<_Checked>(_First, _Last, _Iter_cat_t<_Iter>()));

  00009	0f b6 45 bf	 movzx	 eax, BYTE PTR $T1[ebp]
  0000d	50		 push	 eax
  0000e	8b 4d 0c	 mov	 ecx, DWORD PTR __Last$[ebp]
  00011	51		 push	 ecx
  00012	8b 55 08	 mov	 edx, DWORD PTR __First$[ebp]
  00015	52		 push	 edx
  00016	e8 00 00 00 00	 call	 ??$_Idl_distance1@PAUtagPersonalTableInfo@@PAU1@@std@@YAHABQAUtagPersonalTableInfo@@0Urandom_access_iterator_tag@0@@Z ; std::_Idl_distance1<tagPersonalTableInfo *,tagPersonalTableInfo *>
  0001b	83 c4 0c	 add	 esp, 12			; 0000000cH

; 976  : 	}

  0001e	5f		 pop	 edi
  0001f	5e		 pop	 esi
  00020	5b		 pop	 ebx
  00021	8b e5		 mov	 esp, ebp
  00023	5d		 pop	 ebp
  00024	c3		 ret	 0
??$_Idl_distance@PAUtagPersonalTableInfo@@PAU1@@std@@YA@ABQAUtagPersonalTableInfo@@0@Z ENDP ; std::_Idl_distance<tagPersonalTableInfo *,tagPersonalTableInfo *>
_TEXT	ENDS
; Function compile flags: /Odtp /ZI
; File c:\program files (x86)\microsoft visual studio\2017\community\vc\tools\msvc\14.16.27023\include\xutility
;	COMDAT ??$_Get_unwrapped@UtagPersonalTableInfo@@@std@@YAPAUtagPersonalTableInfo@@QAU1@@Z
_TEXT	SEGMENT
__Ptr$ = 8						; size = 4
??$_Get_unwrapped@UtagPersonalTableInfo@@@std@@YAPAUtagPersonalTableInfo@@QAU1@@Z PROC ; std::_Get_unwrapped<tagPersonalTableInfo>, COMDAT

; 662  : 	{	// special case already-unwrapped pointers

  00000	55		 push	 ebp
  00001	8b ec		 mov	 ebp, esp
  00003	83 ec 40	 sub	 esp, 64			; 00000040H
  00006	53		 push	 ebx
  00007	56		 push	 esi
  00008	57		 push	 edi

; 663  : 	return (_Ptr);

  00009	8b 45 08	 mov	 eax, DWORD PTR __Ptr$[ebp]

; 664  : 	}

  0000c	5f		 pop	 edi
  0000d	5e		 pop	 esi
  0000e	5b		 pop	 ebx
  0000f	8b e5		 mov	 esp, ebp
  00011	5d		 pop	 ebp
  00012	c3		 ret	 0
??$_Get_unwrapped@UtagPersonalTableInfo@@@std@@YAPAUtagPersonalTableInfo@@QAU1@@Z ENDP ; std::_Get_unwrapped<tagPersonalTableInfo>
_TEXT	ENDS
; Function compile flags: /Odtp /ZI
; File c:\program files (x86)\microsoft visual studio\2017\community\vc\tools\msvc\14.16.27023\include\xutility
;	COMDAT ??$_Seek_wrapped@UCMD_CS_S_RegisterPersonal@@@std@@YAXAAPAUCMD_CS_S_RegisterPersonal@@QAU1@@Z
_TEXT	SEGMENT
__It$ = 8						; size = 4
__UIt$ = 12						; size = 4
??$_Seek_wrapped@UCMD_CS_S_RegisterPersonal@@@std@@YAXAAPAUCMD_CS_S_RegisterPersonal@@QAU1@@Z PROC ; std::_Seek_wrapped<CMD_CS_S_RegisterPersonal>, COMDAT

; 871  : 	{

  00000	55		 push	 ebp
  00001	8b ec		 mov	 ebp, esp
  00003	83 ec 40	 sub	 esp, 64			; 00000040H
  00006	53		 push	 ebx
  00007	56		 push	 esi
  00008	57		 push	 edi

; 872  : 	_It = _UIt;

  00009	8b 45 08	 mov	 eax, DWORD PTR __It$[ebp]
  0000c	8b 4d 0c	 mov	 ecx, DWORD PTR __UIt$[ebp]
  0000f	89 08		 mov	 DWORD PTR [eax], ecx

; 873  : 	}

  00011	5f		 pop	 edi
  00012	5e		 pop	 esi
  00013	5b		 pop	 ebx
  00014	8b e5		 mov	 esp, ebp
  00016	5d		 pop	 ebp
  00017	c3		 ret	 0
??$_Seek_wrapped@UCMD_CS_S_RegisterPersonal@@@std@@YAXAAPAUCMD_CS_S_RegisterPersonal@@QAU1@@Z ENDP ; std::_Seek_wrapped<CMD_CS_S_RegisterPersonal>
_TEXT	ENDS
; Function compile flags: /Odtp /ZI
; File c:\program files (x86)\microsoft visual studio\2017\community\vc\tools\msvc\14.16.27023\include\xmemory
;	COMDAT ??$_Uninitialized_move_al_unchecked@UCMD_CS_S_RegisterPersonal@@U1@V?$allocator@UCMD_CS_S_RegisterPersonal@@@std@@@std@@YAPAUCMD_CS_S_RegisterPersonal@@QAU1@00AAV?$allocator@UCMD_CS_S_RegisterPersonal@@@0@U_Really_trivial_ptr_iterator_tag@0@U?$integral_constant@_N$00@0@@Z
_TEXT	SEGMENT
__First$ = 8						; size = 4
__Last$ = 12						; size = 4
__Dest$ = 16						; size = 4
___formal$ = 20						; size = 4
___formal$ = 24						; size = 1
___formal$ = 28						; size = 1
??$_Uninitialized_move_al_unchecked@UCMD_CS_S_RegisterPersonal@@U1@V?$allocator@UCMD_CS_S_RegisterPersonal@@@std@@@std@@YAPAUCMD_CS_S_RegisterPersonal@@QAU1@00AAV?$allocator@UCMD_CS_S_RegisterPersonal@@@0@U_Really_trivial_ptr_iterator_tag@0@U?$integral_constant@_N$00@0@@Z PROC ; std::_Uninitialized_move_al_unchecked<CMD_CS_S_RegisterPersonal,CMD_CS_S_RegisterPersonal,std::allocator<CMD_CS_S_RegisterPersonal> >, COMDAT

; 243  : 	{	// move [_First, _Last) to raw _Dest, using default _Alloc construct, memmove optimization

  00000	55		 push	 ebp
  00001	8b ec		 mov	 ebp, esp
  00003	83 ec 40	 sub	 esp, 64			; 00000040H
  00006	53		 push	 ebx
  00007	56		 push	 esi
  00008	57		 push	 edi

; 244  : 	return (_Copy_memmove(_First, _Last, _Dest));

  00009	8b 45 10	 mov	 eax, DWORD PTR __Dest$[ebp]
  0000c	50		 push	 eax
  0000d	8b 4d 0c	 mov	 ecx, DWORD PTR __Last$[ebp]
  00010	51		 push	 ecx
  00011	8b 55 08	 mov	 edx, DWORD PTR __First$[ebp]
  00014	52		 push	 edx
  00015	e8 00 00 00 00	 call	 ??$_Copy_memmove@PAUCMD_CS_S_RegisterPersonal@@PAU1@@std@@YAPAUCMD_CS_S_RegisterPersonal@@PAU1@00@Z ; std::_Copy_memmove<CMD_CS_S_RegisterPersonal *,CMD_CS_S_RegisterPersonal *>
  0001a	83 c4 0c	 add	 esp, 12			; 0000000cH

; 245  : 	}

  0001d	5f		 pop	 edi
  0001e	5e		 pop	 esi
  0001f	5b		 pop	 ebx
  00020	8b e5		 mov	 esp, ebp
  00022	5d		 pop	 ebp
  00023	c3		 ret	 0
??$_Uninitialized_move_al_unchecked@UCMD_CS_S_RegisterPersonal@@U1@V?$allocator@UCMD_CS_S_RegisterPersonal@@@std@@@std@@YAPAUCMD_CS_S_RegisterPersonal@@QAU1@00AAV?$allocator@UCMD_CS_S_RegisterPersonal@@@0@U_Really_trivial_ptr_iterator_tag@0@U?$integral_constant@_N$00@0@@Z ENDP ; std::_Uninitialized_move_al_unchecked<CMD_CS_S_RegisterPersonal,CMD_CS_S_RegisterPersonal,std::allocator<CMD_CS_S_RegisterPersonal> >
_TEXT	ENDS
; Function compile flags: /Odtp /ZI
; File c:\program files (x86)\microsoft visual studio\2017\community\vc\tools\msvc\14.16.27023\include\xutility
;	COMDAT ??$_Ptr_move_cat@UCMD_CS_S_RegisterPersonal@@U1@@std@@YA?AU_Really_trivial_ptr_iterator_tag@0@ABQAUCMD_CS_S_RegisterPersonal@@0@Z
_TEXT	SEGMENT
___$ReturnUdt$ = 8					; size = 4
___formal$ = 12						; size = 4
___formal$ = 16						; size = 4
??$_Ptr_move_cat@UCMD_CS_S_RegisterPersonal@@U1@@std@@YA?AU_Really_trivial_ptr_iterator_tag@0@ABQAUCMD_CS_S_RegisterPersonal@@0@Z PROC ; std::_Ptr_move_cat<CMD_CS_S_RegisterPersonal,CMD_CS_S_RegisterPersonal>, COMDAT

; 1086 : 	{	// return pointer move optimization category for pointers

  00000	55		 push	 ebp
  00001	8b ec		 mov	 ebp, esp
  00003	83 ec 40	 sub	 esp, 64			; 00000040H
  00006	53		 push	 ebx
  00007	56		 push	 esi
  00008	57		 push	 edi

; 1087 : 	return {};

  00009	8b 45 08	 mov	 eax, DWORD PTR ___$ReturnUdt$[ebp]

; 1088 : 	}

  0000c	5f		 pop	 edi
  0000d	5e		 pop	 esi
  0000e	5b		 pop	 ebx
  0000f	8b e5		 mov	 esp, ebp
  00011	5d		 pop	 ebp
  00012	c3		 ret	 0
??$_Ptr_move_cat@UCMD_CS_S_RegisterPersonal@@U1@@std@@YA?AU_Really_trivial_ptr_iterator_tag@0@ABQAUCMD_CS_S_RegisterPersonal@@0@Z ENDP ; std::_Ptr_move_cat<CMD_CS_S_RegisterPersonal,CMD_CS_S_RegisterPersonal>
_TEXT	ENDS
; Function compile flags: /Odtp /ZI
; File c:\program files (x86)\microsoft visual studio\2017\community\vc\tools\msvc\14.16.27023\include\xutility
;	COMDAT ??$_Get_unwrapped_n@UCMD_CS_S_RegisterPersonal@@H$0A@@std@@YAPAUCMD_CS_S_RegisterPersonal@@QAU1@H@Z
_TEXT	SEGMENT
__Src$ = 8						; size = 4
___formal$ = 12						; size = 4
??$_Get_unwrapped_n@UCMD_CS_S_RegisterPersonal@@H$0A@@std@@YAPAUCMD_CS_S_RegisterPersonal@@QAU1@H@Z PROC ; std::_Get_unwrapped_n<CMD_CS_S_RegisterPersonal,int,0>, COMDAT

; 808  : 	{

  00000	55		 push	 ebp
  00001	8b ec		 mov	 ebp, esp
  00003	83 ec 40	 sub	 esp, 64			; 00000040H
  00006	53		 push	 ebx
  00007	56		 push	 esi
  00008	57		 push	 edi

; 809  : 	return (_Src);

  00009	8b 45 08	 mov	 eax, DWORD PTR __Src$[ebp]

; 810  : 	}

  0000c	5f		 pop	 edi
  0000d	5e		 pop	 esi
  0000e	5b		 pop	 ebx
  0000f	8b e5		 mov	 esp, ebp
  00011	5d		 pop	 ebp
  00012	c3		 ret	 0
??$_Get_unwrapped_n@UCMD_CS_S_RegisterPersonal@@H$0A@@std@@YAPAUCMD_CS_S_RegisterPersonal@@QAU1@H@Z ENDP ; std::_Get_unwrapped_n<CMD_CS_S_RegisterPersonal,int,0>
_TEXT	ENDS
; Function compile flags: /Odtp /ZI
; File c:\program files (x86)\microsoft visual studio\2017\community\vc\tools\msvc\14.16.27023\include\xutility
;	COMDAT ??$_Idl_distance1@PAUCMD_CS_S_RegisterPersonal@@PAU1@@std@@YAHABQAUCMD_CS_S_RegisterPersonal@@0Urandom_access_iterator_tag@0@@Z
_TEXT	SEGMENT
__First$ = 8						; size = 4
__Last$ = 12						; size = 4
___formal$ = 16						; size = 1
??$_Idl_distance1@PAUCMD_CS_S_RegisterPersonal@@PAU1@@std@@YAHABQAUCMD_CS_S_RegisterPersonal@@0Urandom_access_iterator_tag@0@@Z PROC ; std::_Idl_distance1<CMD_CS_S_RegisterPersonal *,CMD_CS_S_RegisterPersonal *>, COMDAT

; 967  : 	{	// _Idl_distance for random-access iterators

  00000	55		 push	 ebp
  00001	8b ec		 mov	 ebp, esp
  00003	83 ec 40	 sub	 esp, 64			; 00000040H
  00006	53		 push	 ebx
  00007	56		 push	 esi
  00008	57		 push	 edi

; 968  : 	return (static_cast<_Iter_diff_t<_Checked>>(_Last - _First));

  00009	8b 45 0c	 mov	 eax, DWORD PTR __Last$[ebp]
  0000c	8b 4d 08	 mov	 ecx, DWORD PTR __First$[ebp]
  0000f	8b 00		 mov	 eax, DWORD PTR [eax]
  00011	2b 01		 sub	 eax, DWORD PTR [ecx]
  00013	c1 f8 03	 sar	 eax, 3

; 969  : 	}

  00016	5f		 pop	 edi
  00017	5e		 pop	 esi
  00018	5b		 pop	 ebx
  00019	8b e5		 mov	 esp, ebp
  0001b	5d		 pop	 ebp
  0001c	c3		 ret	 0
??$_Idl_distance1@PAUCMD_CS_S_RegisterPersonal@@PAU1@@std@@YAHABQAUCMD_CS_S_RegisterPersonal@@0Urandom_access_iterator_tag@0@@Z ENDP ; std::_Idl_distance1<CMD_CS_S_RegisterPersonal *,CMD_CS_S_RegisterPersonal *>
_TEXT	ENDS
; Function compile flags: /Odtp /ZI
; File c:\program files (x86)\microsoft visual studio\2017\community\vc\tools\msvc\14.16.27023\include\xutility
;	COMDAT ??$_Idl_distance@PAUCMD_CS_S_RegisterPersonal@@PAU1@@std@@YA@ABQAUCMD_CS_S_RegisterPersonal@@0@Z
_TEXT	SEGMENT
$T1 = -65						; size = 1
__First$ = 8						; size = 4
__Last$ = 12						; size = 4
??$_Idl_distance@PAUCMD_CS_S_RegisterPersonal@@PAU1@@std@@YA@ABQAUCMD_CS_S_RegisterPersonal@@0@Z PROC ; std::_Idl_distance<CMD_CS_S_RegisterPersonal *,CMD_CS_S_RegisterPersonal *>, COMDAT

; 974  : 	{	// tries to get the distance between _First and _Last if they are random-access iterators

  00000	55		 push	 ebp
  00001	8b ec		 mov	 ebp, esp
  00003	83 ec 44	 sub	 esp, 68			; 00000044H
  00006	53		 push	 ebx
  00007	56		 push	 esi
  00008	57		 push	 edi

; 975  : 	return (_Idl_distance1<_Checked>(_First, _Last, _Iter_cat_t<_Iter>()));

  00009	0f b6 45 bf	 movzx	 eax, BYTE PTR $T1[ebp]
  0000d	50		 push	 eax
  0000e	8b 4d 0c	 mov	 ecx, DWORD PTR __Last$[ebp]
  00011	51		 push	 ecx
  00012	8b 55 08	 mov	 edx, DWORD PTR __First$[ebp]
  00015	52		 push	 edx
  00016	e8 00 00 00 00	 call	 ??$_Idl_distance1@PAUCMD_CS_S_RegisterPersonal@@PAU1@@std@@YAHABQAUCMD_CS_S_RegisterPersonal@@0Urandom_access_iterator_tag@0@@Z ; std::_Idl_distance1<CMD_CS_S_RegisterPersonal *,CMD_CS_S_RegisterPersonal *>
  0001b	83 c4 0c	 add	 esp, 12			; 0000000cH

; 976  : 	}

  0001e	5f		 pop	 edi
  0001f	5e		 pop	 esi
  00020	5b		 pop	 ebx
  00021	8b e5		 mov	 esp, ebp
  00023	5d		 pop	 ebp
  00024	c3		 ret	 0
??$_Idl_distance@PAUCMD_CS_S_RegisterPersonal@@PAU1@@std@@YA@ABQAUCMD_CS_S_RegisterPersonal@@0@Z ENDP ; std::_Idl_distance<CMD_CS_S_RegisterPersonal *,CMD_CS_S_RegisterPersonal *>
_TEXT	ENDS
; Function compile flags: /Odtp /ZI
; File c:\program files (x86)\microsoft visual studio\2017\community\vc\tools\msvc\14.16.27023\include\xutility
;	COMDAT ??$_Get_unwrapped@UCMD_CS_S_RegisterPersonal@@@std@@YAPAUCMD_CS_S_RegisterPersonal@@QAU1@@Z
_TEXT	SEGMENT
__Ptr$ = 8						; size = 4
??$_Get_unwrapped@UCMD_CS_S_RegisterPersonal@@@std@@YAPAUCMD_CS_S_RegisterPersonal@@QAU1@@Z PROC ; std::_Get_unwrapped<CMD_CS_S_RegisterPersonal>, COMDAT

; 662  : 	{	// special case already-unwrapped pointers

  00000	55		 push	 ebp
  00001	8b ec		 mov	 ebp, esp
  00003	83 ec 40	 sub	 esp, 64			; 00000040H
  00006	53		 push	 ebx
  00007	56		 push	 esi
  00008	57		 push	 edi

; 663  : 	return (_Ptr);

  00009	8b 45 08	 mov	 eax, DWORD PTR __Ptr$[ebp]

; 664  : 	}

  0000c	5f		 pop	 edi
  0000d	5e		 pop	 esi
  0000e	5b		 pop	 ebx
  0000f	8b e5		 mov	 esp, ebp
  00011	5d		 pop	 ebp
  00012	c3		 ret	 0
??$_Get_unwrapped@UCMD_CS_S_RegisterPersonal@@@std@@YAPAUCMD_CS_S_RegisterPersonal@@QAU1@@Z ENDP ; std::_Get_unwrapped<CMD_CS_S_RegisterPersonal>
_TEXT	ENDS
; Function compile flags: /Odtp /ZI
; File c:\program files (x86)\microsoft visual studio\2017\community\vc\tools\msvc\14.16.27023\include\xutility
;	COMDAT ??$_Copy_memmove@PAUtagPersonalTableInfo@@PAU1@@std@@YAPAUtagPersonalTableInfo@@PAU1@00@Z
_TEXT	SEGMENT
__Count$ = -16						; size = 4
__Dest_ch$ = -12					; size = 4
__Last_ch$ = -8						; size = 4
__First_ch$ = -4					; size = 4
__First$ = 8						; size = 4
__Last$ = 12						; size = 4
__Dest$ = 16						; size = 4
??$_Copy_memmove@PAUtagPersonalTableInfo@@PAU1@@std@@YAPAUtagPersonalTableInfo@@PAU1@00@Z PROC ; std::_Copy_memmove<tagPersonalTableInfo *,tagPersonalTableInfo *>, COMDAT

; 2398 : 	{	// implement copy-like function as memmove

  00000	55		 push	 ebp
  00001	8b ec		 mov	 ebp, esp
  00003	83 ec 50	 sub	 esp, 80			; 00000050H
  00006	53		 push	 ebx
  00007	56		 push	 esi
  00008	57		 push	 edi

; 2399 : 	const char * const _First_ch = const_cast<const char *>(reinterpret_cast<const volatile char *>(_First));

  00009	8b 45 08	 mov	 eax, DWORD PTR __First$[ebp]
  0000c	89 45 fc	 mov	 DWORD PTR __First_ch$[ebp], eax

; 2400 : 	const char * const _Last_ch = const_cast<const char *>(reinterpret_cast<const volatile char *>(_Last));

  0000f	8b 45 0c	 mov	 eax, DWORD PTR __Last$[ebp]
  00012	89 45 f8	 mov	 DWORD PTR __Last_ch$[ebp], eax

; 2401 : 	char * const _Dest_ch = const_cast<char *>(reinterpret_cast<volatile char *>(_Dest));

  00015	8b 45 10	 mov	 eax, DWORD PTR __Dest$[ebp]
  00018	89 45 f4	 mov	 DWORD PTR __Dest_ch$[ebp], eax

; 2402 : 	const auto _Count = static_cast<size_t>(_Last_ch - _First_ch);

  0001b	8b 45 f8	 mov	 eax, DWORD PTR __Last_ch$[ebp]
  0001e	2b 45 fc	 sub	 eax, DWORD PTR __First_ch$[ebp]
  00021	89 45 f0	 mov	 DWORD PTR __Count$[ebp], eax

; 2403 : 	_CSTD memmove(_Dest_ch, _First_ch, _Count);

  00024	8b 45 f0	 mov	 eax, DWORD PTR __Count$[ebp]
  00027	50		 push	 eax
  00028	8b 4d fc	 mov	 ecx, DWORD PTR __First_ch$[ebp]
  0002b	51		 push	 ecx
  0002c	8b 55 f4	 mov	 edx, DWORD PTR __Dest_ch$[ebp]
  0002f	52		 push	 edx
  00030	e8 00 00 00 00	 call	 _memmove
  00035	83 c4 0c	 add	 esp, 12			; 0000000cH

; 2404 : 	return (reinterpret_cast<_OutIt>(_Dest_ch + _Count));

  00038	8b 45 f4	 mov	 eax, DWORD PTR __Dest_ch$[ebp]
  0003b	03 45 f0	 add	 eax, DWORD PTR __Count$[ebp]

; 2405 : 	}

  0003e	5f		 pop	 edi
  0003f	5e		 pop	 esi
  00040	5b		 pop	 ebx
  00041	8b e5		 mov	 esp, ebp
  00043	5d		 pop	 ebp
  00044	c3		 ret	 0
??$_Copy_memmove@PAUtagPersonalTableInfo@@PAU1@@std@@YAPAUtagPersonalTableInfo@@PAU1@00@Z ENDP ; std::_Copy_memmove<tagPersonalTableInfo *,tagPersonalTableInfo *>
_TEXT	ENDS
; Function compile flags: /Odtp /ZI
; File c:\program files (x86)\microsoft visual studio\2017\community\vc\tools\msvc\14.16.27023\include\xmemory0
;	COMDAT ??$_Get_size_of_n@$0NB@@std@@YAII@Z
_TEXT	SEGMENT
__Result$ = -8						; size = 4
__Max_possible$ = -4					; size = 4
__Count$ = 8						; size = 4
??$_Get_size_of_n@$0NB@@std@@YAII@Z PROC		; std::_Get_size_of_n<209>, COMDAT

; 23   : 	{	// gets the size of _Count copies of a type sized _Ty_size

  00000	55		 push	 ebp
  00001	8b ec		 mov	 ebp, esp
  00003	83 ec 48	 sub	 esp, 72			; 00000048H
  00006	53		 push	 ebx
  00007	56		 push	 esi
  00008	57		 push	 edi

; 24   : 	constexpr size_t _Max_possible = static_cast<size_t>(-1) / _Ty_size;

  00009	c7 45 fc c2 91
	39 01		 mov	 DWORD PTR __Max_possible$[ebp], 20550082 ; 013991c2H

; 25   : 	size_t _Result = _Count * _Ty_size;

  00010	69 45 08 d1 00
	00 00		 imul	 eax, DWORD PTR __Count$[ebp], 209
  00017	89 45 f8	 mov	 DWORD PTR __Result$[ebp], eax

; 26   : 	if (_Max_possible < _Count)

  0001a	81 7d 08 c2 91
	39 01		 cmp	 DWORD PTR __Count$[ebp], 20550082 ; 013991c2H
  00021	76 07		 jbe	 SHORT $LN2@Get_size_o

; 27   : 		{	// multiply overflow, try allocating all of memory and assume the
; 28   : 			// allocation function will throw bad_alloc
; 29   : 		_Result = static_cast<size_t>(-1);

  00023	c7 45 f8 ff ff
	ff ff		 mov	 DWORD PTR __Result$[ebp], -1
$LN2@Get_size_o:

; 30   : 		}
; 31   : 
; 32   : 	return (_Result);

  0002a	8b 45 f8	 mov	 eax, DWORD PTR __Result$[ebp]

; 33   : 	}

  0002d	5f		 pop	 edi
  0002e	5e		 pop	 esi
  0002f	5b		 pop	 ebx
  00030	8b e5		 mov	 esp, ebp
  00032	5d		 pop	 ebp
  00033	c3		 ret	 0
??$_Get_size_of_n@$0NB@@std@@YAII@Z ENDP		; std::_Get_size_of_n<209>
_TEXT	ENDS
; Function compile flags: /Odtp /ZI
; File c:\program files (x86)\microsoft visual studio\2017\community\vc\tools\msvc\14.16.27023\include\xmemory
;	COMDAT ??$_Uninitialized_move@PAUtagPersonalTableInfo@@PAU1@V?$allocator@UtagPersonalTableInfo@@@std@@@std@@YAPAUtagPersonalTableInfo@@QAU1@0PAU1@AAV?$allocator@UtagPersonalTableInfo@@@0@@Z
_TEXT	SEGMENT
$T1 = -78						; size = 1
$T2 = -77						; size = 1
__UDest$ = -12						; size = 4
__ULast$ = -8						; size = 4
__UFirst$ = -4						; size = 4
__First$ = 8						; size = 4
__Last$ = 12						; size = 4
__Dest$ = 16						; size = 4
__Al$ = 20						; size = 4
??$_Uninitialized_move@PAUtagPersonalTableInfo@@PAU1@V?$allocator@UtagPersonalTableInfo@@@std@@@std@@YAPAUtagPersonalTableInfo@@QAU1@0PAU1@AAV?$allocator@UtagPersonalTableInfo@@@0@@Z PROC ; std::_Uninitialized_move<tagPersonalTableInfo *,tagPersonalTableInfo *,std::allocator<tagPersonalTableInfo> >, COMDAT

; 251  : 	{	// move [_First, _Last) to raw _Dest, using _Al

  00000	55		 push	 ebp
  00001	8b ec		 mov	 ebp, esp
  00003	83 ec 50	 sub	 esp, 80			; 00000050H
  00006	53		 push	 ebx
  00007	56		 push	 esi
  00008	57		 push	 edi

; 252  : 		// note: only called internally from elsewhere in the STL
; 253  : 	const auto _UFirst = _Get_unwrapped(_First);

  00009	8b 45 08	 mov	 eax, DWORD PTR __First$[ebp]
  0000c	50		 push	 eax
  0000d	e8 00 00 00 00	 call	 ??$_Get_unwrapped@UtagPersonalTableInfo@@@std@@YAPAUtagPersonalTableInfo@@QAU1@@Z ; std::_Get_unwrapped<tagPersonalTableInfo>
  00012	83 c4 04	 add	 esp, 4
  00015	89 45 fc	 mov	 DWORD PTR __UFirst$[ebp], eax

; 254  : 	const auto _ULast = _Get_unwrapped(_Last);

  00018	8b 45 0c	 mov	 eax, DWORD PTR __Last$[ebp]
  0001b	50		 push	 eax
  0001c	e8 00 00 00 00	 call	 ??$_Get_unwrapped@UtagPersonalTableInfo@@@std@@YAPAUtagPersonalTableInfo@@QAU1@@Z ; std::_Get_unwrapped<tagPersonalTableInfo>
  00021	83 c4 04	 add	 esp, 4
  00024	89 45 f8	 mov	 DWORD PTR __ULast$[ebp], eax

; 255  : 	const auto _UDest = _Get_unwrapped_n(_Dest, _Idl_distance<_InIt>(_UFirst, _ULast));

  00027	8d 45 f8	 lea	 eax, DWORD PTR __ULast$[ebp]
  0002a	50		 push	 eax
  0002b	8d 4d fc	 lea	 ecx, DWORD PTR __UFirst$[ebp]
  0002e	51		 push	 ecx
  0002f	e8 00 00 00 00	 call	 ??$_Idl_distance@PAUtagPersonalTableInfo@@PAU1@@std@@YA@ABQAUtagPersonalTableInfo@@0@Z ; std::_Idl_distance<tagPersonalTableInfo *,tagPersonalTableInfo *>
  00034	83 c4 08	 add	 esp, 8
  00037	50		 push	 eax
  00038	8b 55 10	 mov	 edx, DWORD PTR __Dest$[ebp]
  0003b	52		 push	 edx
  0003c	e8 00 00 00 00	 call	 ??$_Get_unwrapped_n@UtagPersonalTableInfo@@H$0A@@std@@YAPAUtagPersonalTableInfo@@QAU1@H@Z ; std::_Get_unwrapped_n<tagPersonalTableInfo,int,0>
  00041	83 c4 08	 add	 esp, 8
  00044	89 45 f4	 mov	 DWORD PTR __UDest$[ebp], eax

; 256  : 	_Seek_wrapped(_Dest,

  00047	0f b6 45 b3	 movzx	 eax, BYTE PTR $T2[ebp]
  0004b	50		 push	 eax
  0004c	8d 4d f4	 lea	 ecx, DWORD PTR __UDest$[ebp]
  0004f	51		 push	 ecx
  00050	8d 55 fc	 lea	 edx, DWORD PTR __UFirst$[ebp]
  00053	52		 push	 edx
  00054	8d 45 b2	 lea	 eax, DWORD PTR $T1[ebp]
  00057	50		 push	 eax
  00058	e8 00 00 00 00	 call	 ??$_Ptr_move_cat@UtagPersonalTableInfo@@U1@@std@@YA?AU_Really_trivial_ptr_iterator_tag@0@ABQAUtagPersonalTableInfo@@0@Z ; std::_Ptr_move_cat<tagPersonalTableInfo,tagPersonalTableInfo>
  0005d	83 c4 0c	 add	 esp, 12			; 0000000cH
  00060	8a 08		 mov	 cl, BYTE PTR [eax]
  00062	0f b6 d1	 movzx	 edx, cl
  00065	52		 push	 edx
  00066	8b 45 14	 mov	 eax, DWORD PTR __Al$[ebp]
  00069	50		 push	 eax
  0006a	8b 4d f4	 mov	 ecx, DWORD PTR __UDest$[ebp]
  0006d	51		 push	 ecx
  0006e	8b 55 f8	 mov	 edx, DWORD PTR __ULast$[ebp]
  00071	52		 push	 edx
  00072	8b 45 fc	 mov	 eax, DWORD PTR __UFirst$[ebp]
  00075	50		 push	 eax
  00076	e8 00 00 00 00	 call	 ??$_Uninitialized_move_al_unchecked@UtagPersonalTableInfo@@U1@V?$allocator@UtagPersonalTableInfo@@@std@@@std@@YAPAUtagPersonalTableInfo@@QAU1@00AAV?$allocator@UtagPersonalTableInfo@@@0@U_Really_trivial_ptr_iterator_tag@0@U?$integral_constant@_N$00@0@@Z ; std::_Uninitialized_move_al_unchecked<tagPersonalTableInfo,tagPersonalTableInfo,std::allocator<tagPersonalTableInfo> >
  0007b	83 c4 18	 add	 esp, 24			; 00000018H
  0007e	50		 push	 eax
  0007f	8d 4d 10	 lea	 ecx, DWORD PTR __Dest$[ebp]
  00082	51		 push	 ecx
  00083	e8 00 00 00 00	 call	 ??$_Seek_wrapped@UtagPersonalTableInfo@@@std@@YAXAAPAUtagPersonalTableInfo@@QAU1@@Z ; std::_Seek_wrapped<tagPersonalTableInfo>
  00088	83 c4 08	 add	 esp, 8

; 257  : 		_Uninitialized_move_al_unchecked(_UFirst, _ULast, _UDest, _Al,
; 258  : 			_Ptr_move_cat(_UFirst, _UDest),
; 259  : 			_Uses_default_construct_t<_Alloc, decltype(_Unfancy(_UDest)), decltype(_STD move(*_UFirst))>()));
; 260  : 	return (_Dest);

  0008b	8b 45 10	 mov	 eax, DWORD PTR __Dest$[ebp]

; 261  : 	}

  0008e	5f		 pop	 edi
  0008f	5e		 pop	 esi
  00090	5b		 pop	 ebx
  00091	8b e5		 mov	 esp, ebp
  00093	5d		 pop	 ebp
  00094	c3		 ret	 0
??$_Uninitialized_move@PAUtagPersonalTableInfo@@PAU1@V?$allocator@UtagPersonalTableInfo@@@std@@@std@@YAPAUtagPersonalTableInfo@@QAU1@0PAU1@AAV?$allocator@UtagPersonalTableInfo@@@0@@Z ENDP ; std::_Uninitialized_move<tagPersonalTableInfo *,tagPersonalTableInfo *,std::allocator<tagPersonalTableInfo> >
_TEXT	ENDS
; Function compile flags: /Odtp /ZI
; File c:\program files (x86)\microsoft visual studio\2017\community\vc\tools\msvc\14.16.27023\include\xmemory
;	COMDAT ??$_Uninitialized_move@PAUCMD_CS_S_RegisterPersonal@@PAU1@V?$allocator@UCMD_CS_S_RegisterPersonal@@@std@@@std@@YAPAUCMD_CS_S_RegisterPersonal@@QAU1@0PAU1@AAV?$allocator@UCMD_CS_S_RegisterPersonal@@@0@@Z
_TEXT	SEGMENT
$T1 = -78						; size = 1
$T2 = -77						; size = 1
__UDest$ = -12						; size = 4
__ULast$ = -8						; size = 4
__UFirst$ = -4						; size = 4
__First$ = 8						; size = 4
__Last$ = 12						; size = 4
__Dest$ = 16						; size = 4
__Al$ = 20						; size = 4
??$_Uninitialized_move@PAUCMD_CS_S_RegisterPersonal@@PAU1@V?$allocator@UCMD_CS_S_RegisterPersonal@@@std@@@std@@YAPAUCMD_CS_S_RegisterPersonal@@QAU1@0PAU1@AAV?$allocator@UCMD_CS_S_RegisterPersonal@@@0@@Z PROC ; std::_Uninitialized_move<CMD_CS_S_RegisterPersonal *,CMD_CS_S_RegisterPersonal *,std::allocator<CMD_CS_S_RegisterPersonal> >, COMDAT

; 251  : 	{	// move [_First, _Last) to raw _Dest, using _Al

  00000	55		 push	 ebp
  00001	8b ec		 mov	 ebp, esp
  00003	83 ec 50	 sub	 esp, 80			; 00000050H
  00006	53		 push	 ebx
  00007	56		 push	 esi
  00008	57		 push	 edi

; 252  : 		// note: only called internally from elsewhere in the STL
; 253  : 	const auto _UFirst = _Get_unwrapped(_First);

  00009	8b 45 08	 mov	 eax, DWORD PTR __First$[ebp]
  0000c	50		 push	 eax
  0000d	e8 00 00 00 00	 call	 ??$_Get_unwrapped@UCMD_CS_S_RegisterPersonal@@@std@@YAPAUCMD_CS_S_RegisterPersonal@@QAU1@@Z ; std::_Get_unwrapped<CMD_CS_S_RegisterPersonal>
  00012	83 c4 04	 add	 esp, 4
  00015	89 45 fc	 mov	 DWORD PTR __UFirst$[ebp], eax

; 254  : 	const auto _ULast = _Get_unwrapped(_Last);

  00018	8b 45 0c	 mov	 eax, DWORD PTR __Last$[ebp]
  0001b	50		 push	 eax
  0001c	e8 00 00 00 00	 call	 ??$_Get_unwrapped@UCMD_CS_S_RegisterPersonal@@@std@@YAPAUCMD_CS_S_RegisterPersonal@@QAU1@@Z ; std::_Get_unwrapped<CMD_CS_S_RegisterPersonal>
  00021	83 c4 04	 add	 esp, 4
  00024	89 45 f8	 mov	 DWORD PTR __ULast$[ebp], eax

; 255  : 	const auto _UDest = _Get_unwrapped_n(_Dest, _Idl_distance<_InIt>(_UFirst, _ULast));

  00027	8d 45 f8	 lea	 eax, DWORD PTR __ULast$[ebp]
  0002a	50		 push	 eax
  0002b	8d 4d fc	 lea	 ecx, DWORD PTR __UFirst$[ebp]
  0002e	51		 push	 ecx
  0002f	e8 00 00 00 00	 call	 ??$_Idl_distance@PAUCMD_CS_S_RegisterPersonal@@PAU1@@std@@YA@ABQAUCMD_CS_S_RegisterPersonal@@0@Z ; std::_Idl_distance<CMD_CS_S_RegisterPersonal *,CMD_CS_S_RegisterPersonal *>
  00034	83 c4 08	 add	 esp, 8
  00037	50		 push	 eax
  00038	8b 55 10	 mov	 edx, DWORD PTR __Dest$[ebp]
  0003b	52		 push	 edx
  0003c	e8 00 00 00 00	 call	 ??$_Get_unwrapped_n@UCMD_CS_S_RegisterPersonal@@H$0A@@std@@YAPAUCMD_CS_S_RegisterPersonal@@QAU1@H@Z ; std::_Get_unwrapped_n<CMD_CS_S_RegisterPersonal,int,0>
  00041	83 c4 08	 add	 esp, 8
  00044	89 45 f4	 mov	 DWORD PTR __UDest$[ebp], eax

; 256  : 	_Seek_wrapped(_Dest,

  00047	0f b6 45 b3	 movzx	 eax, BYTE PTR $T2[ebp]
  0004b	50		 push	 eax
  0004c	8d 4d f4	 lea	 ecx, DWORD PTR __UDest$[ebp]
  0004f	51		 push	 ecx
  00050	8d 55 fc	 lea	 edx, DWORD PTR __UFirst$[ebp]
  00053	52		 push	 edx
  00054	8d 45 b2	 lea	 eax, DWORD PTR $T1[ebp]
  00057	50		 push	 eax
  00058	e8 00 00 00 00	 call	 ??$_Ptr_move_cat@UCMD_CS_S_RegisterPersonal@@U1@@std@@YA?AU_Really_trivial_ptr_iterator_tag@0@ABQAUCMD_CS_S_RegisterPersonal@@0@Z ; std::_Ptr_move_cat<CMD_CS_S_RegisterPersonal,CMD_CS_S_RegisterPersonal>
  0005d	83 c4 0c	 add	 esp, 12			; 0000000cH
  00060	8a 08		 mov	 cl, BYTE PTR [eax]
  00062	0f b6 d1	 movzx	 edx, cl
  00065	52		 push	 edx
  00066	8b 45 14	 mov	 eax, DWORD PTR __Al$[ebp]
  00069	50		 push	 eax
  0006a	8b 4d f4	 mov	 ecx, DWORD PTR __UDest$[ebp]
  0006d	51		 push	 ecx
  0006e	8b 55 f8	 mov	 edx, DWORD PTR __ULast$[ebp]
  00071	52		 push	 edx
  00072	8b 45 fc	 mov	 eax, DWORD PTR __UFirst$[ebp]
  00075	50		 push	 eax
  00076	e8 00 00 00 00	 call	 ??$_Uninitialized_move_al_unchecked@UCMD_CS_S_RegisterPersonal@@U1@V?$allocator@UCMD_CS_S_RegisterPersonal@@@std@@@std@@YAPAUCMD_CS_S_RegisterPersonal@@QAU1@00AAV?$allocator@UCMD_CS_S_RegisterPersonal@@@0@U_Really_trivial_ptr_iterator_tag@0@U?$integral_constant@_N$00@0@@Z ; std::_Uninitialized_move_al_unchecked<CMD_CS_S_RegisterPersonal,CMD_CS_S_RegisterPersonal,std::allocator<CMD_CS_S_RegisterPersonal> >
  0007b	83 c4 18	 add	 esp, 24			; 00000018H
  0007e	50		 push	 eax
  0007f	8d 4d 10	 lea	 ecx, DWORD PTR __Dest$[ebp]
  00082	51		 push	 ecx
  00083	e8 00 00 00 00	 call	 ??$_Seek_wrapped@UCMD_CS_S_RegisterPersonal@@@std@@YAXAAPAUCMD_CS_S_RegisterPersonal@@QAU1@@Z ; std::_Seek_wrapped<CMD_CS_S_RegisterPersonal>
  00088	83 c4 08	 add	 esp, 8

; 257  : 		_Uninitialized_move_al_unchecked(_UFirst, _ULast, _UDest, _Al,
; 258  : 			_Ptr_move_cat(_UFirst, _UDest),
; 259  : 			_Uses_default_construct_t<_Alloc, decltype(_Unfancy(_UDest)), decltype(_STD move(*_UFirst))>()));
; 260  : 	return (_Dest);

  0008b	8b 45 10	 mov	 eax, DWORD PTR __Dest$[ebp]

; 261  : 	}

  0008e	5f		 pop	 edi
  0008f	5e		 pop	 esi
  00090	5b		 pop	 ebx
  00091	8b e5		 mov	 esp, ebp
  00093	5d		 pop	 ebp
  00094	c3		 ret	 0
??$_Uninitialized_move@PAUCMD_CS_S_RegisterPersonal@@PAU1@V?$allocator@UCMD_CS_S_RegisterPersonal@@@std@@@std@@YAPAUCMD_CS_S_RegisterPersonal@@QAU1@0PAU1@AAV?$allocator@UCMD_CS_S_RegisterPersonal@@@0@@Z ENDP ; std::_Uninitialized_move<CMD_CS_S_RegisterPersonal *,CMD_CS_S_RegisterPersonal *,std::allocator<CMD_CS_S_RegisterPersonal> >
_TEXT	ENDS
; Function compile flags: /Odtp /ZI
; File c:\program files (x86)\microsoft visual studio\2017\community\vc\tools\msvc\14.16.27023\include\xmemory0
;	COMDAT ??$_Destroy_range1@V?$allocator@UtagPersonalTableInfo@@@std@@@std@@YAXPAUtagPersonalTableInfo@@0AAV?$allocator@UtagPersonalTableInfo@@@0@U?$integral_constant@_N$00@0@@Z
_TEXT	SEGMENT
___formal$ = 8						; size = 4
___formal$ = 12						; size = 4
___formal$ = 16						; size = 4
___formal$ = 20						; size = 1
??$_Destroy_range1@V?$allocator@UtagPersonalTableInfo@@@std@@@std@@YAXPAUtagPersonalTableInfo@@0AAV?$allocator@UtagPersonalTableInfo@@@0@U?$integral_constant@_N$00@0@@Z PROC ; std::_Destroy_range1<std::allocator<tagPersonalTableInfo> >, COMDAT

; 1145 : 	{	// destroy [_First, _Last), trivially destructible and default destroy

  00000	55		 push	 ebp
  00001	8b ec		 mov	 ebp, esp
  00003	83 ec 40	 sub	 esp, 64			; 00000040H
  00006	53		 push	 ebx
  00007	56		 push	 esi
  00008	57		 push	 edi

; 1146 : 		// nothing to do
; 1147 : 	}

  00009	5f		 pop	 edi
  0000a	5e		 pop	 esi
  0000b	5b		 pop	 ebx
  0000c	8b e5		 mov	 esp, ebp
  0000e	5d		 pop	 ebp
  0000f	c3		 ret	 0
??$_Destroy_range1@V?$allocator@UtagPersonalTableInfo@@@std@@@std@@YAXPAUtagPersonalTableInfo@@0AAV?$allocator@UtagPersonalTableInfo@@@0@U?$integral_constant@_N$00@0@@Z ENDP ; std::_Destroy_range1<std::allocator<tagPersonalTableInfo> >
_TEXT	ENDS
; Function compile flags: /Odtp /ZI
; File c:\program files (x86)\microsoft visual studio\2017\community\vc\tools\msvc\14.16.27023\include\xmemory0
;	COMDAT ??$_Destroy_range1@V?$allocator@UCMD_CS_S_RegisterPersonal@@@std@@@std@@YAXPAUCMD_CS_S_RegisterPersonal@@0AAV?$allocator@UCMD_CS_S_RegisterPersonal@@@0@U?$integral_constant@_N$00@0@@Z
_TEXT	SEGMENT
___formal$ = 8						; size = 4
___formal$ = 12						; size = 4
___formal$ = 16						; size = 4
___formal$ = 20						; size = 1
??$_Destroy_range1@V?$allocator@UCMD_CS_S_RegisterPersonal@@@std@@@std@@YAXPAUCMD_CS_S_RegisterPersonal@@0AAV?$allocator@UCMD_CS_S_RegisterPersonal@@@0@U?$integral_constant@_N$00@0@@Z PROC ; std::_Destroy_range1<std::allocator<CMD_CS_S_RegisterPersonal> >, COMDAT

; 1145 : 	{	// destroy [_First, _Last), trivially destructible and default destroy

  00000	55		 push	 ebp
  00001	8b ec		 mov	 ebp, esp
  00003	83 ec 40	 sub	 esp, 64			; 00000040H
  00006	53		 push	 ebx
  00007	56		 push	 esi
  00008	57		 push	 edi

; 1146 : 		// nothing to do
; 1147 : 	}

  00009	5f		 pop	 edi
  0000a	5e		 pop	 esi
  0000b	5b		 pop	 ebx
  0000c	8b e5		 mov	 esp, ebp
  0000e	5d		 pop	 ebp
  0000f	c3		 ret	 0
??$_Destroy_range1@V?$allocator@UCMD_CS_S_RegisterPersonal@@@std@@@std@@YAXPAUCMD_CS_S_RegisterPersonal@@0AAV?$allocator@UCMD_CS_S_RegisterPersonal@@@0@U?$integral_constant@_N$00@0@@Z ENDP ; std::_Destroy_range1<std::allocator<CMD_CS_S_RegisterPersonal> >
_TEXT	ENDS
; Function compile flags: /Odtp /ZI
; File c:\program files (x86)\microsoft visual studio\2017\community\vc\tools\msvc\14.16.27023\include\xutility
;	COMDAT ??$_Move_unchecked1@PAUtagPersonalTableInfo@@PAU1@@std@@YAPAUtagPersonalTableInfo@@PAU1@00U_Trivially_copyable_ptr_iterator_tag@0@@Z
_TEXT	SEGMENT
__First$ = 8						; size = 4
__Last$ = 12						; size = 4
__Dest$ = 16						; size = 4
___formal$ = 20						; size = 1
??$_Move_unchecked1@PAUtagPersonalTableInfo@@PAU1@@std@@YAPAUtagPersonalTableInfo@@PAU1@00U_Trivially_copyable_ptr_iterator_tag@0@@Z PROC ; std::_Move_unchecked1<tagPersonalTableInfo *,tagPersonalTableInfo *>, COMDAT

; 2726 : 	{	// move [_First, _Last) to [_Dest, ...), memmove optimization

  00000	55		 push	 ebp
  00001	8b ec		 mov	 ebp, esp
  00003	83 ec 40	 sub	 esp, 64			; 00000040H
  00006	53		 push	 ebx
  00007	56		 push	 esi
  00008	57		 push	 edi

; 2727 : 	return (_Copy_memmove(_First, _Last, _Dest));

  00009	8b 45 10	 mov	 eax, DWORD PTR __Dest$[ebp]
  0000c	50		 push	 eax
  0000d	8b 4d 0c	 mov	 ecx, DWORD PTR __Last$[ebp]
  00010	51		 push	 ecx
  00011	8b 55 08	 mov	 edx, DWORD PTR __First$[ebp]
  00014	52		 push	 edx
  00015	e8 00 00 00 00	 call	 ??$_Copy_memmove@PAUtagPersonalTableInfo@@PAU1@@std@@YAPAUtagPersonalTableInfo@@PAU1@00@Z ; std::_Copy_memmove<tagPersonalTableInfo *,tagPersonalTableInfo *>
  0001a	83 c4 0c	 add	 esp, 12			; 0000000cH

; 2728 : 	}

  0001d	5f		 pop	 edi
  0001e	5e		 pop	 esi
  0001f	5b		 pop	 ebx
  00020	8b e5		 mov	 esp, ebp
  00022	5d		 pop	 ebp
  00023	c3		 ret	 0
??$_Move_unchecked1@PAUtagPersonalTableInfo@@PAU1@@std@@YAPAUtagPersonalTableInfo@@PAU1@00U_Trivially_copyable_ptr_iterator_tag@0@@Z ENDP ; std::_Move_unchecked1<tagPersonalTableInfo *,tagPersonalTableInfo *>
_TEXT	ENDS
; Function compile flags: /Odtp /ZI
; File c:\program files (x86)\microsoft visual studio\2017\community\vc\tools\msvc\14.16.27023\include\xutility
;	COMDAT ??$_Ptr_move_cat@UtagPersonalTableInfo@@U1@@std@@YA?AU_Really_trivial_ptr_iterator_tag@0@ABQAUtagPersonalTableInfo@@0@Z
_TEXT	SEGMENT
___$ReturnUdt$ = 8					; size = 4
___formal$ = 12						; size = 4
___formal$ = 16						; size = 4
??$_Ptr_move_cat@UtagPersonalTableInfo@@U1@@std@@YA?AU_Really_trivial_ptr_iterator_tag@0@ABQAUtagPersonalTableInfo@@0@Z PROC ; std::_Ptr_move_cat<tagPersonalTableInfo,tagPersonalTableInfo>, COMDAT

; 1086 : 	{	// return pointer move optimization category for pointers

  00000	55		 push	 ebp
  00001	8b ec		 mov	 ebp, esp
  00003	83 ec 40	 sub	 esp, 64			; 00000040H
  00006	53		 push	 ebx
  00007	56		 push	 esi
  00008	57		 push	 edi

; 1087 : 	return {};

  00009	8b 45 08	 mov	 eax, DWORD PTR ___$ReturnUdt$[ebp]

; 1088 : 	}

  0000c	5f		 pop	 edi
  0000d	5e		 pop	 esi
  0000e	5b		 pop	 ebx
  0000f	8b e5		 mov	 esp, ebp
  00011	5d		 pop	 ebp
  00012	c3		 ret	 0
??$_Ptr_move_cat@UtagPersonalTableInfo@@U1@@std@@YA?AU_Really_trivial_ptr_iterator_tag@0@ABQAUtagPersonalTableInfo@@0@Z ENDP ; std::_Ptr_move_cat<tagPersonalTableInfo,tagPersonalTableInfo>
_TEXT	ENDS
; Function compile flags: /Odtp /ZI
; File c:\program files (x86)\microsoft visual studio\2017\community\vc\tools\msvc\14.16.27023\atlmfc\include\afxtempl.h
;	COMDAT ??$DumpElements@PAUtagPersonalTableInfo@@@@YGXAAVCDumpContext@@PBQAUtagPersonalTableInfo@@H@Z
_TEXT	SEGMENT
tv66 = -72						; size = 4
___afx_condVal$1 = -4					; size = 4
_dc$ = 8						; size = 4
_pElements$ = 12					; size = 4
_nCount$ = 16						; size = 4
??$DumpElements@PAUtagPersonalTableInfo@@@@YGXAAVCDumpContext@@PBQAUtagPersonalTableInfo@@H@Z PROC ; DumpElements<tagPersonalTableInfo *>, COMDAT

; 137  : {

  00000	55		 push	 ebp
  00001	8b ec		 mov	 ebp, esp
  00003	83 ec 48	 sub	 esp, 72			; 00000048H
  00006	53		 push	 ebx
  00007	56		 push	 esi
  00008	57		 push	 edi
$LN4@DumpElemen:

; 138  : 	ENSURE(nCount == 0 || pElements != NULL);

  00009	83 7d 10 00	 cmp	 DWORD PTR _nCount$[ebp], 0
  0000d	74 0f		 je	 SHORT $LN7@DumpElemen
  0000f	83 7d 0c 00	 cmp	 DWORD PTR _pElements$[ebp], 0
  00013	75 09		 jne	 SHORT $LN7@DumpElemen
  00015	c7 45 b8 00 00
	00 00		 mov	 DWORD PTR tv66[ebp], 0
  0001c	eb 07		 jmp	 SHORT $LN8@DumpElemen
$LN7@DumpElemen:
  0001e	c7 45 b8 01 00
	00 00		 mov	 DWORD PTR tv66[ebp], 1
$LN8@DumpElemen:
  00025	8b 45 b8	 mov	 eax, DWORD PTR tv66[ebp]
  00028	89 45 fc	 mov	 DWORD PTR ___afx_condVal$1[ebp], eax
  0002b	83 7d fc 00	 cmp	 DWORD PTR ___afx_condVal$1[ebp], 0
  0002f	75 14		 jne	 SHORT $LN9@DumpElemen
  00031	68 8a 00 00 00	 push	 138			; 0000008aH
  00036	68 00 00 00 00	 push	 OFFSET ??_C@_0HC@HBCNBCLF@c?3?2program?5files?5?$CIx86?$CJ?2microsof@
  0003b	e8 00 00 00 00	 call	 ?AfxAssertFailedLine@@YGHPBDH@Z ; AfxAssertFailedLine
  00040	85 c0		 test	 eax, eax
  00042	74 01		 je	 SHORT $LN9@DumpElemen
  00044	cc		 int	 3
$LN9@DumpElemen:
  00045	83 7d fc 00	 cmp	 DWORD PTR ___afx_condVal$1[ebp], 0
  00049	75 05		 jne	 SHORT $LN2@DumpElemen
  0004b	e8 00 00 00 00	 call	 ?AfxThrowInvalidArgException@@YGXXZ ; AfxThrowInvalidArgException
$LN2@DumpElemen:
  00050	33 c0		 xor	 eax, eax
  00052	75 b5		 jne	 SHORT $LN4@DumpElemen

; 139  : 	ASSERT(nCount == 0 ||

  00054	83 7d 10 00	 cmp	 DWORD PTR _nCount$[ebp], 0
  00058	74 2a		 je	 SHORT $LN6@DumpElemen
  0005a	6a 00		 push	 0
  0005c	8b 45 10	 mov	 eax, DWORD PTR _nCount$[ebp]
  0005f	c1 e0 02	 shl	 eax, 2
  00062	50		 push	 eax
  00063	8b 4d 0c	 mov	 ecx, DWORD PTR _pElements$[ebp]
  00066	51		 push	 ecx
  00067	e8 00 00 00 00	 call	 ?AfxIsValidAddress@@YGHPBXIH@Z ; AfxIsValidAddress
  0006c	85 c0		 test	 eax, eax
  0006e	75 14		 jne	 SHORT $LN6@DumpElemen
  00070	68 8c 00 00 00	 push	 140			; 0000008cH
  00075	68 00 00 00 00	 push	 OFFSET ??_C@_0HC@HBCNBCLF@c?3?2program?5files?5?$CIx86?$CJ?2microsof@
  0007a	e8 00 00 00 00	 call	 ?AfxAssertFailedLine@@YGHPBDH@Z ; AfxAssertFailedLine
  0007f	85 c0		 test	 eax, eax
  00081	74 01		 je	 SHORT $LN6@DumpElemen
  00083	cc		 int	 3
$LN6@DumpElemen:

; 140  : 		AfxIsValidAddress(pElements, (size_t)nCount * sizeof(TYPE), FALSE));
; 141  : 	(dc); // not used
; 142  : 	(pElements);  // not used
; 143  : 	(nCount); // not used
; 144  : 
; 145  : 	// default does nothing
; 146  : }

  00084	5f		 pop	 edi
  00085	5e		 pop	 esi
  00086	5b		 pop	 ebx
  00087	8b e5		 mov	 esp, ebp
  00089	5d		 pop	 ebp
  0008a	c2 0c 00	 ret	 12			; 0000000cH
??$DumpElements@PAUtagPersonalTableInfo@@@@YGXAAVCDumpContext@@PBQAUtagPersonalTableInfo@@H@Z ENDP ; DumpElements<tagPersonalTableInfo *>
_TEXT	ENDS
; Function compile flags: /Odtp /ZI
; File c:\program files (x86)\microsoft visual studio\2017\community\vc\tools\msvc\14.16.27023\atlmfc\include\afxtempl.h
;	COMDAT ??$SerializeElements@PAUtagPersonalTableInfo@@@@YGXAAVCArchive@@PAPAUtagPersonalTableInfo@@H@Z
_TEXT	SEGMENT
tv134 = -96						; size = 4
tv92 = -96						; size = 4
tv66 = -96						; size = 4
_nElementsToRead$1 = -28				; size = 4
_nElementsLeft$2 = -24					; size = 4
_pData$3 = -20						; size = 4
_nElementsToWrite$4 = -16				; size = 4
_nElementsLeft$5 = -12					; size = 4
_pData$6 = -8						; size = 4
___afx_condVal$7 = -4					; size = 4
_ar$ = 8						; size = 4
_pElements$ = 12					; size = 4
_nCount$ = 16						; size = 4
??$SerializeElements@PAUtagPersonalTableInfo@@@@YGXAAVCArchive@@PAPAUtagPersonalTableInfo@@H@Z PROC ; SerializeElements<tagPersonalTableInfo *>, COMDAT

; 67   : {

  00000	55		 push	 ebp
  00001	8b ec		 mov	 ebp, esp
  00003	83 ec 60	 sub	 esp, 96			; 00000060H
  00006	53		 push	 ebx
  00007	56		 push	 esi
  00008	57		 push	 edi
$LN4@SerializeE:

; 68   : 	ENSURE(nCount == 0 || pElements != NULL);

  00009	83 7d 10 00	 cmp	 DWORD PTR _nCount$[ebp], 0
  0000d	74 0f		 je	 SHORT $LN13@SerializeE
  0000f	83 7d 0c 00	 cmp	 DWORD PTR _pElements$[ebp], 0
  00013	75 09		 jne	 SHORT $LN13@SerializeE
  00015	c7 45 a0 00 00
	00 00		 mov	 DWORD PTR tv66[ebp], 0
  0001c	eb 07		 jmp	 SHORT $LN14@SerializeE
$LN13@SerializeE:
  0001e	c7 45 a0 01 00
	00 00		 mov	 DWORD PTR tv66[ebp], 1
$LN14@SerializeE:
  00025	8b 45 a0	 mov	 eax, DWORD PTR tv66[ebp]
  00028	89 45 fc	 mov	 DWORD PTR ___afx_condVal$7[ebp], eax
  0002b	83 7d fc 00	 cmp	 DWORD PTR ___afx_condVal$7[ebp], 0
  0002f	75 11		 jne	 SHORT $LN15@SerializeE
  00031	6a 44		 push	 68			; 00000044H
  00033	68 00 00 00 00	 push	 OFFSET ??_C@_0HC@HBCNBCLF@c?3?2program?5files?5?$CIx86?$CJ?2microsof@
  00038	e8 00 00 00 00	 call	 ?AfxAssertFailedLine@@YGHPBDH@Z ; AfxAssertFailedLine
  0003d	85 c0		 test	 eax, eax
  0003f	74 01		 je	 SHORT $LN15@SerializeE
  00041	cc		 int	 3
$LN15@SerializeE:
  00042	83 7d fc 00	 cmp	 DWORD PTR ___afx_condVal$7[ebp], 0
  00046	75 05		 jne	 SHORT $LN2@SerializeE
  00048	e8 00 00 00 00	 call	 ?AfxThrowInvalidArgException@@YGXXZ ; AfxThrowInvalidArgException
$LN2@SerializeE:
  0004d	33 c0		 xor	 eax, eax
  0004f	75 b8		 jne	 SHORT $LN4@SerializeE

; 69   : 	ASSERT(nCount == 0 ||

  00051	83 7d 10 00	 cmp	 DWORD PTR _nCount$[ebp], 0
  00055	74 27		 je	 SHORT $LN16@SerializeE
  00057	6a 01		 push	 1
  00059	8b 45 10	 mov	 eax, DWORD PTR _nCount$[ebp]
  0005c	c1 e0 02	 shl	 eax, 2
  0005f	50		 push	 eax
  00060	8b 4d 0c	 mov	 ecx, DWORD PTR _pElements$[ebp]
  00063	51		 push	 ecx
  00064	e8 00 00 00 00	 call	 ?AfxIsValidAddress@@YGHPBXIH@Z ; AfxIsValidAddress
  00069	85 c0		 test	 eax, eax
  0006b	75 11		 jne	 SHORT $LN16@SerializeE
  0006d	6a 46		 push	 70			; 00000046H
  0006f	68 00 00 00 00	 push	 OFFSET ??_C@_0HC@HBCNBCLF@c?3?2program?5files?5?$CIx86?$CJ?2microsof@
  00074	e8 00 00 00 00	 call	 ?AfxAssertFailedLine@@YGHPBDH@Z ; AfxAssertFailedLine
  00079	85 c0		 test	 eax, eax
  0007b	74 01		 je	 SHORT $LN16@SerializeE
  0007d	cc		 int	 3
$LN16@SerializeE:

; 70   : 		AfxIsValidAddress(pElements, (size_t)nCount * sizeof(TYPE)));
; 71   : 
; 72   : 	// default is bit-wise read/write
; 73   : 	if (ar.IsStoring())

  0007e	8b 4d 08	 mov	 ecx, DWORD PTR _ar$[ebp]
  00081	e8 00 00 00 00	 call	 ?IsStoring@CArchive@@QBEHXZ ; CArchive::IsStoring
  00086	85 c0		 test	 eax, eax
  00088	74 5c		 je	 SHORT $LN10@SerializeE

; 74   : 	{
; 75   : 		TYPE* pData;
; 76   : 		UINT_PTR nElementsLeft;
; 77   : 
; 78   : 		nElementsLeft = nCount;

  0008a	8b 45 10	 mov	 eax, DWORD PTR _nCount$[ebp]
  0008d	89 45 f4	 mov	 DWORD PTR _nElementsLeft$5[ebp], eax

; 79   : 		pData = pElements;

  00090	8b 45 0c	 mov	 eax, DWORD PTR _pElements$[ebp]
  00093	89 45 f8	 mov	 DWORD PTR _pData$6[ebp], eax
$LN5@SerializeE:

; 80   : 		while( nElementsLeft > 0 )

  00096	83 7d f4 00	 cmp	 DWORD PTR _nElementsLeft$5[ebp], 0
  0009a	76 48		 jbe	 SHORT $LN6@SerializeE

; 81   : 		{
; 82   : 			UINT nElementsToWrite;
; 83   : 
; 84   : 			nElementsToWrite = UINT(__min(nElementsLeft, INT_MAX/sizeof(TYPE)));

  0009c	81 7d f4 ff ff
	ff 1f		 cmp	 DWORD PTR _nElementsLeft$5[ebp], 536870911 ; 1fffffffH
  000a3	73 08		 jae	 SHORT $LN17@SerializeE
  000a5	8b 45 f4	 mov	 eax, DWORD PTR _nElementsLeft$5[ebp]
  000a8	89 45 a0	 mov	 DWORD PTR tv92[ebp], eax
  000ab	eb 07		 jmp	 SHORT $LN18@SerializeE
$LN17@SerializeE:
  000ad	c7 45 a0 ff ff
	ff 1f		 mov	 DWORD PTR tv92[ebp], 536870911 ; 1fffffffH
$LN18@SerializeE:
  000b4	8b 4d a0	 mov	 ecx, DWORD PTR tv92[ebp]
  000b7	89 4d f0	 mov	 DWORD PTR _nElementsToWrite$4[ebp], ecx

; 85   : 			ar.Write(pData, nElementsToWrite*sizeof(TYPE));

  000ba	8b 45 f0	 mov	 eax, DWORD PTR _nElementsToWrite$4[ebp]
  000bd	c1 e0 02	 shl	 eax, 2
  000c0	50		 push	 eax
  000c1	8b 4d f8	 mov	 ecx, DWORD PTR _pData$6[ebp]
  000c4	51		 push	 ecx
  000c5	8b 4d 08	 mov	 ecx, DWORD PTR _ar$[ebp]
  000c8	e8 00 00 00 00	 call	 ?Write@CArchive@@QAEXPBXI@Z ; CArchive::Write

; 86   : 			nElementsLeft -= nElementsToWrite;

  000cd	8b 45 f4	 mov	 eax, DWORD PTR _nElementsLeft$5[ebp]
  000d0	2b 45 f0	 sub	 eax, DWORD PTR _nElementsToWrite$4[ebp]
  000d3	89 45 f4	 mov	 DWORD PTR _nElementsLeft$5[ebp], eax

; 87   : 			pData += nElementsToWrite;

  000d6	8b 45 f0	 mov	 eax, DWORD PTR _nElementsToWrite$4[ebp]
  000d9	8b 4d f8	 mov	 ecx, DWORD PTR _pData$6[ebp]
  000dc	8d 14 81	 lea	 edx, DWORD PTR [ecx+eax*4]
  000df	89 55 f8	 mov	 DWORD PTR _pData$6[ebp], edx

; 88   : 		}

  000e2	eb b2		 jmp	 SHORT $LN5@SerializeE
$LN6@SerializeE:

; 89   : 	}
; 90   : 	else

  000e4	eb 5a		 jmp	 SHORT $LN12@SerializeE
$LN10@SerializeE:

; 91   : 	{
; 92   : 		TYPE* pData;
; 93   : 		UINT_PTR nElementsLeft;
; 94   : 
; 95   : 		nElementsLeft = nCount;

  000e6	8b 45 10	 mov	 eax, DWORD PTR _nCount$[ebp]
  000e9	89 45 e8	 mov	 DWORD PTR _nElementsLeft$2[ebp], eax

; 96   : 		pData = pElements;

  000ec	8b 45 0c	 mov	 eax, DWORD PTR _pElements$[ebp]
  000ef	89 45 ec	 mov	 DWORD PTR _pData$3[ebp], eax
$LN7@SerializeE:

; 97   : 		while( nElementsLeft > 0 )

  000f2	83 7d e8 00	 cmp	 DWORD PTR _nElementsLeft$2[ebp], 0
  000f6	76 48		 jbe	 SHORT $LN12@SerializeE

; 98   : 		{
; 99   : 			UINT nElementsToRead;
; 100  : 
; 101  : 			nElementsToRead = UINT(__min(nElementsLeft, INT_MAX/sizeof(TYPE)));

  000f8	81 7d e8 ff ff
	ff 1f		 cmp	 DWORD PTR _nElementsLeft$2[ebp], 536870911 ; 1fffffffH
  000ff	73 08		 jae	 SHORT $LN19@SerializeE
  00101	8b 45 e8	 mov	 eax, DWORD PTR _nElementsLeft$2[ebp]
  00104	89 45 a0	 mov	 DWORD PTR tv134[ebp], eax
  00107	eb 07		 jmp	 SHORT $LN20@SerializeE
$LN19@SerializeE:
  00109	c7 45 a0 ff ff
	ff 1f		 mov	 DWORD PTR tv134[ebp], 536870911 ; 1fffffffH
$LN20@SerializeE:
  00110	8b 4d a0	 mov	 ecx, DWORD PTR tv134[ebp]
  00113	89 4d e4	 mov	 DWORD PTR _nElementsToRead$1[ebp], ecx

; 102  : 			ar.EnsureRead(pData, nElementsToRead*sizeof(TYPE));

  00116	8b 45 e4	 mov	 eax, DWORD PTR _nElementsToRead$1[ebp]
  00119	c1 e0 02	 shl	 eax, 2
  0011c	50		 push	 eax
  0011d	8b 4d ec	 mov	 ecx, DWORD PTR _pData$3[ebp]
  00120	51		 push	 ecx
  00121	8b 4d 08	 mov	 ecx, DWORD PTR _ar$[ebp]
  00124	e8 00 00 00 00	 call	 ?EnsureRead@CArchive@@QAEXPAXI@Z ; CArchive::EnsureRead

; 103  : 			nElementsLeft -= nElementsToRead;

  00129	8b 45 e8	 mov	 eax, DWORD PTR _nElementsLeft$2[ebp]
  0012c	2b 45 e4	 sub	 eax, DWORD PTR _nElementsToRead$1[ebp]
  0012f	89 45 e8	 mov	 DWORD PTR _nElementsLeft$2[ebp], eax

; 104  : 			pData += nElementsToRead;

  00132	8b 45 e4	 mov	 eax, DWORD PTR _nElementsToRead$1[ebp]
  00135	8b 4d ec	 mov	 ecx, DWORD PTR _pData$3[ebp]
  00138	8d 14 81	 lea	 edx, DWORD PTR [ecx+eax*4]
  0013b	89 55 ec	 mov	 DWORD PTR _pData$3[ebp], edx

; 105  : 		}

  0013e	eb b2		 jmp	 SHORT $LN7@SerializeE
$LN12@SerializeE:

; 106  : 	}
; 107  : }

  00140	5f		 pop	 edi
  00141	5e		 pop	 esi
  00142	5b		 pop	 ebx
  00143	8b e5		 mov	 esp, ebp
  00145	5d		 pop	 ebp
  00146	c2 0c 00	 ret	 12			; 0000000cH
??$SerializeElements@PAUtagPersonalTableInfo@@@@YGXAAVCArchive@@PAPAUtagPersonalTableInfo@@H@Z ENDP ; SerializeElements<tagPersonalTableInfo *>
_TEXT	ENDS
; Function compile flags: /Odtp /ZI
; File c:\program files (x86)\microsoft visual studio\2017\community\vc\tools\msvc\14.16.27023\atlmfc\include\afxtempl.h
;	COMDAT ??0CAssoc@?$CMap@KKPAUtagPersonalTableInfo@@AAPAU1@@@QAE@K@Z
_TEXT	SEGMENT
_this$ = -4						; size = 4
_key$ = 8						; size = 4
??0CAssoc@?$CMap@KKPAUtagPersonalTableInfo@@AAPAU1@@@QAE@K@Z PROC ; CMap<unsigned long,unsigned long,tagPersonalTableInfo *,tagPersonalTableInfo * &>::CAssoc::CAssoc, COMDAT
; _this$ = ecx

; 1267 : 		CAssoc( ARG_KEY key ) : CPair( key ) {}

  00000	55		 push	 ebp
  00001	8b ec		 mov	 ebp, esp
  00003	83 ec 44	 sub	 esp, 68			; 00000044H
  00006	53		 push	 ebx
  00007	56		 push	 esi
  00008	57		 push	 edi
  00009	89 4d fc	 mov	 DWORD PTR _this$[ebp], ecx
  0000c	8b 45 08	 mov	 eax, DWORD PTR _key$[ebp]
  0000f	50		 push	 eax
  00010	8b 4d fc	 mov	 ecx, DWORD PTR _this$[ebp]
  00013	e8 00 00 00 00	 call	 ??0CPair@?$CMap@KKPAUtagPersonalTableInfo@@AAPAU1@@@IAE@K@Z ; CMap<unsigned long,unsigned long,tagPersonalTableInfo *,tagPersonalTableInfo * &>::CPair::CPair
  00018	8b 45 fc	 mov	 eax, DWORD PTR _this$[ebp]
  0001b	5f		 pop	 edi
  0001c	5e		 pop	 esi
  0001d	5b		 pop	 ebx
  0001e	8b e5		 mov	 esp, ebp
  00020	5d		 pop	 ebp
  00021	c2 04 00	 ret	 4
??0CAssoc@?$CMap@KKPAUtagPersonalTableInfo@@AAPAU1@@@QAE@K@Z ENDP ; CMap<unsigned long,unsigned long,tagPersonalTableInfo *,tagPersonalTableInfo * &>::CAssoc::CAssoc
_TEXT	ENDS
; Function compile flags: /Odtp /ZI
; File c:\program files (x86)\microsoft visual studio\2017\community\vc\tools\msvc\14.16.27023\atlmfc\include\afxtempl.h
;	COMDAT ??0CPair@?$CMap@KKPAUtagPersonalTableInfo@@AAPAU1@@@IAE@K@Z
_TEXT	SEGMENT
_this$ = -4						; size = 4
_keyval$ = 8						; size = 4
??0CPair@?$CMap@KKPAUtagPersonalTableInfo@@AAPAU1@@@IAE@K@Z PROC ; CMap<unsigned long,unsigned long,tagPersonalTableInfo *,tagPersonalTableInfo * &>::CPair::CPair, COMDAT
; _this$ = ecx

; 1256 : 		CPair( ARG_KEY keyval ) : key( keyval )	{}

  00000	55		 push	 ebp
  00001	8b ec		 mov	 ebp, esp
  00003	83 ec 44	 sub	 esp, 68			; 00000044H
  00006	53		 push	 ebx
  00007	56		 push	 esi
  00008	57		 push	 edi
  00009	89 4d fc	 mov	 DWORD PTR _this$[ebp], ecx
  0000c	8b 45 fc	 mov	 eax, DWORD PTR _this$[ebp]
  0000f	8b 4d 08	 mov	 ecx, DWORD PTR _keyval$[ebp]
  00012	89 08		 mov	 DWORD PTR [eax], ecx
  00014	8b 45 fc	 mov	 eax, DWORD PTR _this$[ebp]
  00017	5f		 pop	 edi
  00018	5e		 pop	 esi
  00019	5b		 pop	 ebx
  0001a	8b e5		 mov	 esp, ebp
  0001c	5d		 pop	 ebp
  0001d	c2 04 00	 ret	 4
??0CPair@?$CMap@KKPAUtagPersonalTableInfo@@AAPAU1@@@IAE@K@Z ENDP ; CMap<unsigned long,unsigned long,tagPersonalTableInfo *,tagPersonalTableInfo * &>::CPair::CPair
_TEXT	ENDS
; Function compile flags: /Odtp /ZI
; File c:\program files (x86)\microsoft visual studio\2017\community\vc\tools\msvc\14.16.27023\atlmfc\include\afxtempl.h
;	COMDAT ??$DumpElements@PAVCGlobalChatItem@@@@YGXAAVCDumpContext@@PBQAVCGlobalChatItem@@H@Z
_TEXT	SEGMENT
tv66 = -72						; size = 4
___afx_condVal$1 = -4					; size = 4
_dc$ = 8						; size = 4
_pElements$ = 12					; size = 4
_nCount$ = 16						; size = 4
??$DumpElements@PAVCGlobalChatItem@@@@YGXAAVCDumpContext@@PBQAVCGlobalChatItem@@H@Z PROC ; DumpElements<CGlobalChatItem *>, COMDAT

; 137  : {

  00000	55		 push	 ebp
  00001	8b ec		 mov	 ebp, esp
  00003	83 ec 48	 sub	 esp, 72			; 00000048H
  00006	53		 push	 ebx
  00007	56		 push	 esi
  00008	57		 push	 edi
$LN4@DumpElemen:

; 138  : 	ENSURE(nCount == 0 || pElements != NULL);

  00009	83 7d 10 00	 cmp	 DWORD PTR _nCount$[ebp], 0
  0000d	74 0f		 je	 SHORT $LN7@DumpElemen
  0000f	83 7d 0c 00	 cmp	 DWORD PTR _pElements$[ebp], 0
  00013	75 09		 jne	 SHORT $LN7@DumpElemen
  00015	c7 45 b8 00 00
	00 00		 mov	 DWORD PTR tv66[ebp], 0
  0001c	eb 07		 jmp	 SHORT $LN8@DumpElemen
$LN7@DumpElemen:
  0001e	c7 45 b8 01 00
	00 00		 mov	 DWORD PTR tv66[ebp], 1
$LN8@DumpElemen:
  00025	8b 45 b8	 mov	 eax, DWORD PTR tv66[ebp]
  00028	89 45 fc	 mov	 DWORD PTR ___afx_condVal$1[ebp], eax
  0002b	83 7d fc 00	 cmp	 DWORD PTR ___afx_condVal$1[ebp], 0
  0002f	75 14		 jne	 SHORT $LN9@DumpElemen
  00031	68 8a 00 00 00	 push	 138			; 0000008aH
  00036	68 00 00 00 00	 push	 OFFSET ??_C@_0HC@HBCNBCLF@c?3?2program?5files?5?$CIx86?$CJ?2microsof@
  0003b	e8 00 00 00 00	 call	 ?AfxAssertFailedLine@@YGHPBDH@Z ; AfxAssertFailedLine
  00040	85 c0		 test	 eax, eax
  00042	74 01		 je	 SHORT $LN9@DumpElemen
  00044	cc		 int	 3
$LN9@DumpElemen:
  00045	83 7d fc 00	 cmp	 DWORD PTR ___afx_condVal$1[ebp], 0
  00049	75 05		 jne	 SHORT $LN2@DumpElemen
  0004b	e8 00 00 00 00	 call	 ?AfxThrowInvalidArgException@@YGXXZ ; AfxThrowInvalidArgException
$LN2@DumpElemen:
  00050	33 c0		 xor	 eax, eax
  00052	75 b5		 jne	 SHORT $LN4@DumpElemen

; 139  : 	ASSERT(nCount == 0 ||

  00054	83 7d 10 00	 cmp	 DWORD PTR _nCount$[ebp], 0
  00058	74 2a		 je	 SHORT $LN6@DumpElemen
  0005a	6a 00		 push	 0
  0005c	8b 45 10	 mov	 eax, DWORD PTR _nCount$[ebp]
  0005f	c1 e0 02	 shl	 eax, 2
  00062	50		 push	 eax
  00063	8b 4d 0c	 mov	 ecx, DWORD PTR _pElements$[ebp]
  00066	51		 push	 ecx
  00067	e8 00 00 00 00	 call	 ?AfxIsValidAddress@@YGHPBXIH@Z ; AfxIsValidAddress
  0006c	85 c0		 test	 eax, eax
  0006e	75 14		 jne	 SHORT $LN6@DumpElemen
  00070	68 8c 00 00 00	 push	 140			; 0000008cH
  00075	68 00 00 00 00	 push	 OFFSET ??_C@_0HC@HBCNBCLF@c?3?2program?5files?5?$CIx86?$CJ?2microsof@
  0007a	e8 00 00 00 00	 call	 ?AfxAssertFailedLine@@YGHPBDH@Z ; AfxAssertFailedLine
  0007f	85 c0		 test	 eax, eax
  00081	74 01		 je	 SHORT $LN6@DumpElemen
  00083	cc		 int	 3
$LN6@DumpElemen:

; 140  : 		AfxIsValidAddress(pElements, (size_t)nCount * sizeof(TYPE), FALSE));
; 141  : 	(dc); // not used
; 142  : 	(pElements);  // not used
; 143  : 	(nCount); // not used
; 144  : 
; 145  : 	// default does nothing
; 146  : }

  00084	5f		 pop	 edi
  00085	5e		 pop	 esi
  00086	5b		 pop	 ebx
  00087	8b e5		 mov	 esp, ebp
  00089	5d		 pop	 ebp
  0008a	c2 0c 00	 ret	 12			; 0000000cH
??$DumpElements@PAVCGlobalChatItem@@@@YGXAAVCDumpContext@@PBQAVCGlobalChatItem@@H@Z ENDP ; DumpElements<CGlobalChatItem *>
_TEXT	ENDS
; Function compile flags: /Odtp /ZI
; File c:\program files (x86)\microsoft visual studio\2017\community\vc\tools\msvc\14.16.27023\atlmfc\include\afxtempl.h
;	COMDAT ??$SerializeElements@PAVCGlobalChatItem@@@@YGXAAVCArchive@@PAPAVCGlobalChatItem@@H@Z
_TEXT	SEGMENT
tv134 = -96						; size = 4
tv92 = -96						; size = 4
tv66 = -96						; size = 4
_nElementsToRead$1 = -28				; size = 4
_nElementsLeft$2 = -24					; size = 4
_pData$3 = -20						; size = 4
_nElementsToWrite$4 = -16				; size = 4
_nElementsLeft$5 = -12					; size = 4
_pData$6 = -8						; size = 4
___afx_condVal$7 = -4					; size = 4
_ar$ = 8						; size = 4
_pElements$ = 12					; size = 4
_nCount$ = 16						; size = 4
??$SerializeElements@PAVCGlobalChatItem@@@@YGXAAVCArchive@@PAPAVCGlobalChatItem@@H@Z PROC ; SerializeElements<CGlobalChatItem *>, COMDAT

; 67   : {

  00000	55		 push	 ebp
  00001	8b ec		 mov	 ebp, esp
  00003	83 ec 60	 sub	 esp, 96			; 00000060H
  00006	53		 push	 ebx
  00007	56		 push	 esi
  00008	57		 push	 edi
$LN4@SerializeE:

; 68   : 	ENSURE(nCount == 0 || pElements != NULL);

  00009	83 7d 10 00	 cmp	 DWORD PTR _nCount$[ebp], 0
  0000d	74 0f		 je	 SHORT $LN13@SerializeE
  0000f	83 7d 0c 00	 cmp	 DWORD PTR _pElements$[ebp], 0
  00013	75 09		 jne	 SHORT $LN13@SerializeE
  00015	c7 45 a0 00 00
	00 00		 mov	 DWORD PTR tv66[ebp], 0
  0001c	eb 07		 jmp	 SHORT $LN14@SerializeE
$LN13@SerializeE:
  0001e	c7 45 a0 01 00
	00 00		 mov	 DWORD PTR tv66[ebp], 1
$LN14@SerializeE:
  00025	8b 45 a0	 mov	 eax, DWORD PTR tv66[ebp]
  00028	89 45 fc	 mov	 DWORD PTR ___afx_condVal$7[ebp], eax
  0002b	83 7d fc 00	 cmp	 DWORD PTR ___afx_condVal$7[ebp], 0
  0002f	75 11		 jne	 SHORT $LN15@SerializeE
  00031	6a 44		 push	 68			; 00000044H
  00033	68 00 00 00 00	 push	 OFFSET ??_C@_0HC@HBCNBCLF@c?3?2program?5files?5?$CIx86?$CJ?2microsof@
  00038	e8 00 00 00 00	 call	 ?AfxAssertFailedLine@@YGHPBDH@Z ; AfxAssertFailedLine
  0003d	85 c0		 test	 eax, eax
  0003f	74 01		 je	 SHORT $LN15@SerializeE
  00041	cc		 int	 3
$LN15@SerializeE:
  00042	83 7d fc 00	 cmp	 DWORD PTR ___afx_condVal$7[ebp], 0
  00046	75 05		 jne	 SHORT $LN2@SerializeE
  00048	e8 00 00 00 00	 call	 ?AfxThrowInvalidArgException@@YGXXZ ; AfxThrowInvalidArgException
$LN2@SerializeE:
  0004d	33 c0		 xor	 eax, eax
  0004f	75 b8		 jne	 SHORT $LN4@SerializeE

; 69   : 	ASSERT(nCount == 0 ||

  00051	83 7d 10 00	 cmp	 DWORD PTR _nCount$[ebp], 0
  00055	74 27		 je	 SHORT $LN16@SerializeE
  00057	6a 01		 push	 1
  00059	8b 45 10	 mov	 eax, DWORD PTR _nCount$[ebp]
  0005c	c1 e0 02	 shl	 eax, 2
  0005f	50		 push	 eax
  00060	8b 4d 0c	 mov	 ecx, DWORD PTR _pElements$[ebp]
  00063	51		 push	 ecx
  00064	e8 00 00 00 00	 call	 ?AfxIsValidAddress@@YGHPBXIH@Z ; AfxIsValidAddress
  00069	85 c0		 test	 eax, eax
  0006b	75 11		 jne	 SHORT $LN16@SerializeE
  0006d	6a 46		 push	 70			; 00000046H
  0006f	68 00 00 00 00	 push	 OFFSET ??_C@_0HC@HBCNBCLF@c?3?2program?5files?5?$CIx86?$CJ?2microsof@
  00074	e8 00 00 00 00	 call	 ?AfxAssertFailedLine@@YGHPBDH@Z ; AfxAssertFailedLine
  00079	85 c0		 test	 eax, eax
  0007b	74 01		 je	 SHORT $LN16@SerializeE
  0007d	cc		 int	 3
$LN16@SerializeE:

; 70   : 		AfxIsValidAddress(pElements, (size_t)nCount * sizeof(TYPE)));
; 71   : 
; 72   : 	// default is bit-wise read/write
; 73   : 	if (ar.IsStoring())

  0007e	8b 4d 08	 mov	 ecx, DWORD PTR _ar$[ebp]
  00081	e8 00 00 00 00	 call	 ?IsStoring@CArchive@@QBEHXZ ; CArchive::IsStoring
  00086	85 c0		 test	 eax, eax
  00088	74 5c		 je	 SHORT $LN10@SerializeE

; 74   : 	{
; 75   : 		TYPE* pData;
; 76   : 		UINT_PTR nElementsLeft;
; 77   : 
; 78   : 		nElementsLeft = nCount;

  0008a	8b 45 10	 mov	 eax, DWORD PTR _nCount$[ebp]
  0008d	89 45 f4	 mov	 DWORD PTR _nElementsLeft$5[ebp], eax

; 79   : 		pData = pElements;

  00090	8b 45 0c	 mov	 eax, DWORD PTR _pElements$[ebp]
  00093	89 45 f8	 mov	 DWORD PTR _pData$6[ebp], eax
$LN5@SerializeE:

; 80   : 		while( nElementsLeft > 0 )

  00096	83 7d f4 00	 cmp	 DWORD PTR _nElementsLeft$5[ebp], 0
  0009a	76 48		 jbe	 SHORT $LN6@SerializeE

; 81   : 		{
; 82   : 			UINT nElementsToWrite;
; 83   : 
; 84   : 			nElementsToWrite = UINT(__min(nElementsLeft, INT_MAX/sizeof(TYPE)));

  0009c	81 7d f4 ff ff
	ff 1f		 cmp	 DWORD PTR _nElementsLeft$5[ebp], 536870911 ; 1fffffffH
  000a3	73 08		 jae	 SHORT $LN17@SerializeE
  000a5	8b 45 f4	 mov	 eax, DWORD PTR _nElementsLeft$5[ebp]
  000a8	89 45 a0	 mov	 DWORD PTR tv92[ebp], eax
  000ab	eb 07		 jmp	 SHORT $LN18@SerializeE
$LN17@SerializeE:
  000ad	c7 45 a0 ff ff
	ff 1f		 mov	 DWORD PTR tv92[ebp], 536870911 ; 1fffffffH
$LN18@SerializeE:
  000b4	8b 4d a0	 mov	 ecx, DWORD PTR tv92[ebp]
  000b7	89 4d f0	 mov	 DWORD PTR _nElementsToWrite$4[ebp], ecx

; 85   : 			ar.Write(pData, nElementsToWrite*sizeof(TYPE));

  000ba	8b 45 f0	 mov	 eax, DWORD PTR _nElementsToWrite$4[ebp]
  000bd	c1 e0 02	 shl	 eax, 2
  000c0	50		 push	 eax
  000c1	8b 4d f8	 mov	 ecx, DWORD PTR _pData$6[ebp]
  000c4	51		 push	 ecx
  000c5	8b 4d 08	 mov	 ecx, DWORD PTR _ar$[ebp]
  000c8	e8 00 00 00 00	 call	 ?Write@CArchive@@QAEXPBXI@Z ; CArchive::Write

; 86   : 			nElementsLeft -= nElementsToWrite;

  000cd	8b 45 f4	 mov	 eax, DWORD PTR _nElementsLeft$5[ebp]
  000d0	2b 45 f0	 sub	 eax, DWORD PTR _nElementsToWrite$4[ebp]
  000d3	89 45 f4	 mov	 DWORD PTR _nElementsLeft$5[ebp], eax

; 87   : 			pData += nElementsToWrite;

  000d6	8b 45 f0	 mov	 eax, DWORD PTR _nElementsToWrite$4[ebp]
  000d9	8b 4d f8	 mov	 ecx, DWORD PTR _pData$6[ebp]
  000dc	8d 14 81	 lea	 edx, DWORD PTR [ecx+eax*4]
  000df	89 55 f8	 mov	 DWORD PTR _pData$6[ebp], edx

; 88   : 		}

  000e2	eb b2		 jmp	 SHORT $LN5@SerializeE
$LN6@SerializeE:

; 89   : 	}
; 90   : 	else

  000e4	eb 5a		 jmp	 SHORT $LN12@SerializeE
$LN10@SerializeE:

; 91   : 	{
; 92   : 		TYPE* pData;
; 93   : 		UINT_PTR nElementsLeft;
; 94   : 
; 95   : 		nElementsLeft = nCount;

  000e6	8b 45 10	 mov	 eax, DWORD PTR _nCount$[ebp]
  000e9	89 45 e8	 mov	 DWORD PTR _nElementsLeft$2[ebp], eax

; 96   : 		pData = pElements;

  000ec	8b 45 0c	 mov	 eax, DWORD PTR _pElements$[ebp]
  000ef	89 45 ec	 mov	 DWORD PTR _pData$3[ebp], eax
$LN7@SerializeE:

; 97   : 		while( nElementsLeft > 0 )

  000f2	83 7d e8 00	 cmp	 DWORD PTR _nElementsLeft$2[ebp], 0
  000f6	76 48		 jbe	 SHORT $LN12@SerializeE

; 98   : 		{
; 99   : 			UINT nElementsToRead;
; 100  : 
; 101  : 			nElementsToRead = UINT(__min(nElementsLeft, INT_MAX/sizeof(TYPE)));

  000f8	81 7d e8 ff ff
	ff 1f		 cmp	 DWORD PTR _nElementsLeft$2[ebp], 536870911 ; 1fffffffH
  000ff	73 08		 jae	 SHORT $LN19@SerializeE
  00101	8b 45 e8	 mov	 eax, DWORD PTR _nElementsLeft$2[ebp]
  00104	89 45 a0	 mov	 DWORD PTR tv134[ebp], eax
  00107	eb 07		 jmp	 SHORT $LN20@SerializeE
$LN19@SerializeE:
  00109	c7 45 a0 ff ff
	ff 1f		 mov	 DWORD PTR tv134[ebp], 536870911 ; 1fffffffH
$LN20@SerializeE:
  00110	8b 4d a0	 mov	 ecx, DWORD PTR tv134[ebp]
  00113	89 4d e4	 mov	 DWORD PTR _nElementsToRead$1[ebp], ecx

; 102  : 			ar.EnsureRead(pData, nElementsToRead*sizeof(TYPE));

  00116	8b 45 e4	 mov	 eax, DWORD PTR _nElementsToRead$1[ebp]
  00119	c1 e0 02	 shl	 eax, 2
  0011c	50		 push	 eax
  0011d	8b 4d ec	 mov	 ecx, DWORD PTR _pData$3[ebp]
  00120	51		 push	 ecx
  00121	8b 4d 08	 mov	 ecx, DWORD PTR _ar$[ebp]
  00124	e8 00 00 00 00	 call	 ?EnsureRead@CArchive@@QAEXPAXI@Z ; CArchive::EnsureRead

; 103  : 			nElementsLeft -= nElementsToRead;

  00129	8b 45 e8	 mov	 eax, DWORD PTR _nElementsLeft$2[ebp]
  0012c	2b 45 e4	 sub	 eax, DWORD PTR _nElementsToRead$1[ebp]
  0012f	89 45 e8	 mov	 DWORD PTR _nElementsLeft$2[ebp], eax

; 104  : 			pData += nElementsToRead;

  00132	8b 45 e4	 mov	 eax, DWORD PTR _nElementsToRead$1[ebp]
  00135	8b 4d ec	 mov	 ecx, DWORD PTR _pData$3[ebp]
  00138	8d 14 81	 lea	 edx, DWORD PTR [ecx+eax*4]
  0013b	89 55 ec	 mov	 DWORD PTR _pData$3[ebp], edx

; 105  : 		}

  0013e	eb b2		 jmp	 SHORT $LN7@SerializeE
$LN12@SerializeE:

; 106  : 	}
; 107  : }

  00140	5f		 pop	 edi
  00141	5e		 pop	 esi
  00142	5b		 pop	 ebx
  00143	8b e5		 mov	 esp, ebp
  00145	5d		 pop	 ebp
  00146	c2 0c 00	 ret	 12			; 0000000cH
??$SerializeElements@PAVCGlobalChatItem@@@@YGXAAVCArchive@@PAPAVCGlobalChatItem@@H@Z ENDP ; SerializeElements<CGlobalChatItem *>
_TEXT	ENDS
; Function compile flags: /Odtp /ZI
; File c:\program files (x86)\microsoft visual studio\2017\community\vc\tools\msvc\14.16.27023\atlmfc\include\afxtempl.h
;	COMDAT ??0CAssoc@?$CMap@GGPAVCGlobalChatItem@@PAV1@@@QAE@G@Z
_TEXT	SEGMENT
_this$ = -4						; size = 4
_key$ = 8						; size = 2
??0CAssoc@?$CMap@GGPAVCGlobalChatItem@@PAV1@@@QAE@G@Z PROC ; CMap<unsigned short,unsigned short,CGlobalChatItem *,CGlobalChatItem *>::CAssoc::CAssoc, COMDAT
; _this$ = ecx

; 1267 : 		CAssoc( ARG_KEY key ) : CPair( key ) {}

  00000	55		 push	 ebp
  00001	8b ec		 mov	 ebp, esp
  00003	83 ec 44	 sub	 esp, 68			; 00000044H
  00006	53		 push	 ebx
  00007	56		 push	 esi
  00008	57		 push	 edi
  00009	89 4d fc	 mov	 DWORD PTR _this$[ebp], ecx
  0000c	0f b7 45 08	 movzx	 eax, WORD PTR _key$[ebp]
  00010	50		 push	 eax
  00011	8b 4d fc	 mov	 ecx, DWORD PTR _this$[ebp]
  00014	e8 00 00 00 00	 call	 ??0CPair@?$CMap@GGPAVCGlobalChatItem@@PAV1@@@IAE@G@Z ; CMap<unsigned short,unsigned short,CGlobalChatItem *,CGlobalChatItem *>::CPair::CPair
  00019	8b 45 fc	 mov	 eax, DWORD PTR _this$[ebp]
  0001c	5f		 pop	 edi
  0001d	5e		 pop	 esi
  0001e	5b		 pop	 ebx
  0001f	8b e5		 mov	 esp, ebp
  00021	5d		 pop	 ebp
  00022	c2 04 00	 ret	 4
??0CAssoc@?$CMap@GGPAVCGlobalChatItem@@PAV1@@@QAE@G@Z ENDP ; CMap<unsigned short,unsigned short,CGlobalChatItem *,CGlobalChatItem *>::CAssoc::CAssoc
_TEXT	ENDS
; Function compile flags: /Odtp /ZI
; File c:\program files (x86)\microsoft visual studio\2017\community\vc\tools\msvc\14.16.27023\atlmfc\include\afxtempl.h
;	COMDAT ??0CPair@?$CMap@GGPAVCGlobalChatItem@@PAV1@@@IAE@G@Z
_TEXT	SEGMENT
_this$ = -4						; size = 4
_keyval$ = 8						; size = 2
??0CPair@?$CMap@GGPAVCGlobalChatItem@@PAV1@@@IAE@G@Z PROC ; CMap<unsigned short,unsigned short,CGlobalChatItem *,CGlobalChatItem *>::CPair::CPair, COMDAT
; _this$ = ecx

; 1256 : 		CPair( ARG_KEY keyval ) : key( keyval )	{}

  00000	55		 push	 ebp
  00001	8b ec		 mov	 ebp, esp
  00003	83 ec 44	 sub	 esp, 68			; 00000044H
  00006	53		 push	 ebx
  00007	56		 push	 esi
  00008	57		 push	 edi
  00009	89 4d fc	 mov	 DWORD PTR _this$[ebp], ecx
  0000c	8b 45 fc	 mov	 eax, DWORD PTR _this$[ebp]
  0000f	66 8b 4d 08	 mov	 cx, WORD PTR _keyval$[ebp]
  00013	66 89 08	 mov	 WORD PTR [eax], cx
  00016	8b 45 fc	 mov	 eax, DWORD PTR _this$[ebp]
  00019	5f		 pop	 edi
  0001a	5e		 pop	 esi
  0001b	5b		 pop	 ebx
  0001c	8b e5		 mov	 esp, ebp
  0001e	5d		 pop	 ebp
  0001f	c2 04 00	 ret	 4
??0CPair@?$CMap@GGPAVCGlobalChatItem@@PAV1@@@IAE@G@Z ENDP ; CMap<unsigned short,unsigned short,CGlobalChatItem *,CGlobalChatItem *>::CPair::CPair
_TEXT	ENDS
; Function compile flags: /Odtp /ZI
; File c:\program files (x86)\microsoft visual studio\2017\community\vc\tools\msvc\14.16.27023\atlmfc\include\afxtempl.h
;	COMDAT ??$DumpElements@PAVCGlobalServerItem@@@@YGXAAVCDumpContext@@PBQAVCGlobalServerItem@@H@Z
_TEXT	SEGMENT
tv66 = -72						; size = 4
___afx_condVal$1 = -4					; size = 4
_dc$ = 8						; size = 4
_pElements$ = 12					; size = 4
_nCount$ = 16						; size = 4
??$DumpElements@PAVCGlobalServerItem@@@@YGXAAVCDumpContext@@PBQAVCGlobalServerItem@@H@Z PROC ; DumpElements<CGlobalServerItem *>, COMDAT

; 137  : {

  00000	55		 push	 ebp
  00001	8b ec		 mov	 ebp, esp
  00003	83 ec 48	 sub	 esp, 72			; 00000048H
  00006	53		 push	 ebx
  00007	56		 push	 esi
  00008	57		 push	 edi
$LN4@DumpElemen:

; 138  : 	ENSURE(nCount == 0 || pElements != NULL);

  00009	83 7d 10 00	 cmp	 DWORD PTR _nCount$[ebp], 0
  0000d	74 0f		 je	 SHORT $LN7@DumpElemen
  0000f	83 7d 0c 00	 cmp	 DWORD PTR _pElements$[ebp], 0
  00013	75 09		 jne	 SHORT $LN7@DumpElemen
  00015	c7 45 b8 00 00
	00 00		 mov	 DWORD PTR tv66[ebp], 0
  0001c	eb 07		 jmp	 SHORT $LN8@DumpElemen
$LN7@DumpElemen:
  0001e	c7 45 b8 01 00
	00 00		 mov	 DWORD PTR tv66[ebp], 1
$LN8@DumpElemen:
  00025	8b 45 b8	 mov	 eax, DWORD PTR tv66[ebp]
  00028	89 45 fc	 mov	 DWORD PTR ___afx_condVal$1[ebp], eax
  0002b	83 7d fc 00	 cmp	 DWORD PTR ___afx_condVal$1[ebp], 0
  0002f	75 14		 jne	 SHORT $LN9@DumpElemen
  00031	68 8a 00 00 00	 push	 138			; 0000008aH
  00036	68 00 00 00 00	 push	 OFFSET ??_C@_0HC@HBCNBCLF@c?3?2program?5files?5?$CIx86?$CJ?2microsof@
  0003b	e8 00 00 00 00	 call	 ?AfxAssertFailedLine@@YGHPBDH@Z ; AfxAssertFailedLine
  00040	85 c0		 test	 eax, eax
  00042	74 01		 je	 SHORT $LN9@DumpElemen
  00044	cc		 int	 3
$LN9@DumpElemen:
  00045	83 7d fc 00	 cmp	 DWORD PTR ___afx_condVal$1[ebp], 0
  00049	75 05		 jne	 SHORT $LN2@DumpElemen
  0004b	e8 00 00 00 00	 call	 ?AfxThrowInvalidArgException@@YGXXZ ; AfxThrowInvalidArgException
$LN2@DumpElemen:
  00050	33 c0		 xor	 eax, eax
  00052	75 b5		 jne	 SHORT $LN4@DumpElemen

; 139  : 	ASSERT(nCount == 0 ||

  00054	83 7d 10 00	 cmp	 DWORD PTR _nCount$[ebp], 0
  00058	74 2a		 je	 SHORT $LN6@DumpElemen
  0005a	6a 00		 push	 0
  0005c	8b 45 10	 mov	 eax, DWORD PTR _nCount$[ebp]
  0005f	c1 e0 02	 shl	 eax, 2
  00062	50		 push	 eax
  00063	8b 4d 0c	 mov	 ecx, DWORD PTR _pElements$[ebp]
  00066	51		 push	 ecx
  00067	e8 00 00 00 00	 call	 ?AfxIsValidAddress@@YGHPBXIH@Z ; AfxIsValidAddress
  0006c	85 c0		 test	 eax, eax
  0006e	75 14		 jne	 SHORT $LN6@DumpElemen
  00070	68 8c 00 00 00	 push	 140			; 0000008cH
  00075	68 00 00 00 00	 push	 OFFSET ??_C@_0HC@HBCNBCLF@c?3?2program?5files?5?$CIx86?$CJ?2microsof@
  0007a	e8 00 00 00 00	 call	 ?AfxAssertFailedLine@@YGHPBDH@Z ; AfxAssertFailedLine
  0007f	85 c0		 test	 eax, eax
  00081	74 01		 je	 SHORT $LN6@DumpElemen
  00083	cc		 int	 3
$LN6@DumpElemen:

; 140  : 		AfxIsValidAddress(pElements, (size_t)nCount * sizeof(TYPE), FALSE));
; 141  : 	(dc); // not used
; 142  : 	(pElements);  // not used
; 143  : 	(nCount); // not used
; 144  : 
; 145  : 	// default does nothing
; 146  : }

  00084	5f		 pop	 edi
  00085	5e		 pop	 esi
  00086	5b		 pop	 ebx
  00087	8b e5		 mov	 esp, ebp
  00089	5d		 pop	 ebp
  0008a	c2 0c 00	 ret	 12			; 0000000cH
??$DumpElements@PAVCGlobalServerItem@@@@YGXAAVCDumpContext@@PBQAVCGlobalServerItem@@H@Z ENDP ; DumpElements<CGlobalServerItem *>
_TEXT	ENDS
; Function compile flags: /Odtp /ZI
; File c:\program files (x86)\microsoft visual studio\2017\community\vc\tools\msvc\14.16.27023\atlmfc\include\afxtempl.h
;	COMDAT ??$SerializeElements@PAVCGlobalServerItem@@@@YGXAAVCArchive@@PAPAVCGlobalServerItem@@H@Z
_TEXT	SEGMENT
tv134 = -96						; size = 4
tv92 = -96						; size = 4
tv66 = -96						; size = 4
_nElementsToRead$1 = -28				; size = 4
_nElementsLeft$2 = -24					; size = 4
_pData$3 = -20						; size = 4
_nElementsToWrite$4 = -16				; size = 4
_nElementsLeft$5 = -12					; size = 4
_pData$6 = -8						; size = 4
___afx_condVal$7 = -4					; size = 4
_ar$ = 8						; size = 4
_pElements$ = 12					; size = 4
_nCount$ = 16						; size = 4
??$SerializeElements@PAVCGlobalServerItem@@@@YGXAAVCArchive@@PAPAVCGlobalServerItem@@H@Z PROC ; SerializeElements<CGlobalServerItem *>, COMDAT

; 67   : {

  00000	55		 push	 ebp
  00001	8b ec		 mov	 ebp, esp
  00003	83 ec 60	 sub	 esp, 96			; 00000060H
  00006	53		 push	 ebx
  00007	56		 push	 esi
  00008	57		 push	 edi
$LN4@SerializeE:

; 68   : 	ENSURE(nCount == 0 || pElements != NULL);

  00009	83 7d 10 00	 cmp	 DWORD PTR _nCount$[ebp], 0
  0000d	74 0f		 je	 SHORT $LN13@SerializeE
  0000f	83 7d 0c 00	 cmp	 DWORD PTR _pElements$[ebp], 0
  00013	75 09		 jne	 SHORT $LN13@SerializeE
  00015	c7 45 a0 00 00
	00 00		 mov	 DWORD PTR tv66[ebp], 0
  0001c	eb 07		 jmp	 SHORT $LN14@SerializeE
$LN13@SerializeE:
  0001e	c7 45 a0 01 00
	00 00		 mov	 DWORD PTR tv66[ebp], 1
$LN14@SerializeE:
  00025	8b 45 a0	 mov	 eax, DWORD PTR tv66[ebp]
  00028	89 45 fc	 mov	 DWORD PTR ___afx_condVal$7[ebp], eax
  0002b	83 7d fc 00	 cmp	 DWORD PTR ___afx_condVal$7[ebp], 0
  0002f	75 11		 jne	 SHORT $LN15@SerializeE
  00031	6a 44		 push	 68			; 00000044H
  00033	68 00 00 00 00	 push	 OFFSET ??_C@_0HC@HBCNBCLF@c?3?2program?5files?5?$CIx86?$CJ?2microsof@
  00038	e8 00 00 00 00	 call	 ?AfxAssertFailedLine@@YGHPBDH@Z ; AfxAssertFailedLine
  0003d	85 c0		 test	 eax, eax
  0003f	74 01		 je	 SHORT $LN15@SerializeE
  00041	cc		 int	 3
$LN15@SerializeE:
  00042	83 7d fc 00	 cmp	 DWORD PTR ___afx_condVal$7[ebp], 0
  00046	75 05		 jne	 SHORT $LN2@SerializeE
  00048	e8 00 00 00 00	 call	 ?AfxThrowInvalidArgException@@YGXXZ ; AfxThrowInvalidArgException
$LN2@SerializeE:
  0004d	33 c0		 xor	 eax, eax
  0004f	75 b8		 jne	 SHORT $LN4@SerializeE

; 69   : 	ASSERT(nCount == 0 ||

  00051	83 7d 10 00	 cmp	 DWORD PTR _nCount$[ebp], 0
  00055	74 27		 je	 SHORT $LN16@SerializeE
  00057	6a 01		 push	 1
  00059	8b 45 10	 mov	 eax, DWORD PTR _nCount$[ebp]
  0005c	c1 e0 02	 shl	 eax, 2
  0005f	50		 push	 eax
  00060	8b 4d 0c	 mov	 ecx, DWORD PTR _pElements$[ebp]
  00063	51		 push	 ecx
  00064	e8 00 00 00 00	 call	 ?AfxIsValidAddress@@YGHPBXIH@Z ; AfxIsValidAddress
  00069	85 c0		 test	 eax, eax
  0006b	75 11		 jne	 SHORT $LN16@SerializeE
  0006d	6a 46		 push	 70			; 00000046H
  0006f	68 00 00 00 00	 push	 OFFSET ??_C@_0HC@HBCNBCLF@c?3?2program?5files?5?$CIx86?$CJ?2microsof@
  00074	e8 00 00 00 00	 call	 ?AfxAssertFailedLine@@YGHPBDH@Z ; AfxAssertFailedLine
  00079	85 c0		 test	 eax, eax
  0007b	74 01		 je	 SHORT $LN16@SerializeE
  0007d	cc		 int	 3
$LN16@SerializeE:

; 70   : 		AfxIsValidAddress(pElements, (size_t)nCount * sizeof(TYPE)));
; 71   : 
; 72   : 	// default is bit-wise read/write
; 73   : 	if (ar.IsStoring())

  0007e	8b 4d 08	 mov	 ecx, DWORD PTR _ar$[ebp]
  00081	e8 00 00 00 00	 call	 ?IsStoring@CArchive@@QBEHXZ ; CArchive::IsStoring
  00086	85 c0		 test	 eax, eax
  00088	74 5c		 je	 SHORT $LN10@SerializeE

; 74   : 	{
; 75   : 		TYPE* pData;
; 76   : 		UINT_PTR nElementsLeft;
; 77   : 
; 78   : 		nElementsLeft = nCount;

  0008a	8b 45 10	 mov	 eax, DWORD PTR _nCount$[ebp]
  0008d	89 45 f4	 mov	 DWORD PTR _nElementsLeft$5[ebp], eax

; 79   : 		pData = pElements;

  00090	8b 45 0c	 mov	 eax, DWORD PTR _pElements$[ebp]
  00093	89 45 f8	 mov	 DWORD PTR _pData$6[ebp], eax
$LN5@SerializeE:

; 80   : 		while( nElementsLeft > 0 )

  00096	83 7d f4 00	 cmp	 DWORD PTR _nElementsLeft$5[ebp], 0
  0009a	76 48		 jbe	 SHORT $LN6@SerializeE

; 81   : 		{
; 82   : 			UINT nElementsToWrite;
; 83   : 
; 84   : 			nElementsToWrite = UINT(__min(nElementsLeft, INT_MAX/sizeof(TYPE)));

  0009c	81 7d f4 ff ff
	ff 1f		 cmp	 DWORD PTR _nElementsLeft$5[ebp], 536870911 ; 1fffffffH
  000a3	73 08		 jae	 SHORT $LN17@SerializeE
  000a5	8b 45 f4	 mov	 eax, DWORD PTR _nElementsLeft$5[ebp]
  000a8	89 45 a0	 mov	 DWORD PTR tv92[ebp], eax
  000ab	eb 07		 jmp	 SHORT $LN18@SerializeE
$LN17@SerializeE:
  000ad	c7 45 a0 ff ff
	ff 1f		 mov	 DWORD PTR tv92[ebp], 536870911 ; 1fffffffH
$LN18@SerializeE:
  000b4	8b 4d a0	 mov	 ecx, DWORD PTR tv92[ebp]
  000b7	89 4d f0	 mov	 DWORD PTR _nElementsToWrite$4[ebp], ecx

; 85   : 			ar.Write(pData, nElementsToWrite*sizeof(TYPE));

  000ba	8b 45 f0	 mov	 eax, DWORD PTR _nElementsToWrite$4[ebp]
  000bd	c1 e0 02	 shl	 eax, 2
  000c0	50		 push	 eax
  000c1	8b 4d f8	 mov	 ecx, DWORD PTR _pData$6[ebp]
  000c4	51		 push	 ecx
  000c5	8b 4d 08	 mov	 ecx, DWORD PTR _ar$[ebp]
  000c8	e8 00 00 00 00	 call	 ?Write@CArchive@@QAEXPBXI@Z ; CArchive::Write

; 86   : 			nElementsLeft -= nElementsToWrite;

  000cd	8b 45 f4	 mov	 eax, DWORD PTR _nElementsLeft$5[ebp]
  000d0	2b 45 f0	 sub	 eax, DWORD PTR _nElementsToWrite$4[ebp]
  000d3	89 45 f4	 mov	 DWORD PTR _nElementsLeft$5[ebp], eax

; 87   : 			pData += nElementsToWrite;

  000d6	8b 45 f0	 mov	 eax, DWORD PTR _nElementsToWrite$4[ebp]
  000d9	8b 4d f8	 mov	 ecx, DWORD PTR _pData$6[ebp]
  000dc	8d 14 81	 lea	 edx, DWORD PTR [ecx+eax*4]
  000df	89 55 f8	 mov	 DWORD PTR _pData$6[ebp], edx

; 88   : 		}

  000e2	eb b2		 jmp	 SHORT $LN5@SerializeE
$LN6@SerializeE:

; 89   : 	}
; 90   : 	else

  000e4	eb 5a		 jmp	 SHORT $LN12@SerializeE
$LN10@SerializeE:

; 91   : 	{
; 92   : 		TYPE* pData;
; 93   : 		UINT_PTR nElementsLeft;
; 94   : 
; 95   : 		nElementsLeft = nCount;

  000e6	8b 45 10	 mov	 eax, DWORD PTR _nCount$[ebp]
  000e9	89 45 e8	 mov	 DWORD PTR _nElementsLeft$2[ebp], eax

; 96   : 		pData = pElements;

  000ec	8b 45 0c	 mov	 eax, DWORD PTR _pElements$[ebp]
  000ef	89 45 ec	 mov	 DWORD PTR _pData$3[ebp], eax
$LN7@SerializeE:

; 97   : 		while( nElementsLeft > 0 )

  000f2	83 7d e8 00	 cmp	 DWORD PTR _nElementsLeft$2[ebp], 0
  000f6	76 48		 jbe	 SHORT $LN12@SerializeE

; 98   : 		{
; 99   : 			UINT nElementsToRead;
; 100  : 
; 101  : 			nElementsToRead = UINT(__min(nElementsLeft, INT_MAX/sizeof(TYPE)));

  000f8	81 7d e8 ff ff
	ff 1f		 cmp	 DWORD PTR _nElementsLeft$2[ebp], 536870911 ; 1fffffffH
  000ff	73 08		 jae	 SHORT $LN19@SerializeE
  00101	8b 45 e8	 mov	 eax, DWORD PTR _nElementsLeft$2[ebp]
  00104	89 45 a0	 mov	 DWORD PTR tv134[ebp], eax
  00107	eb 07		 jmp	 SHORT $LN20@SerializeE
$LN19@SerializeE:
  00109	c7 45 a0 ff ff
	ff 1f		 mov	 DWORD PTR tv134[ebp], 536870911 ; 1fffffffH
$LN20@SerializeE:
  00110	8b 4d a0	 mov	 ecx, DWORD PTR tv134[ebp]
  00113	89 4d e4	 mov	 DWORD PTR _nElementsToRead$1[ebp], ecx

; 102  : 			ar.EnsureRead(pData, nElementsToRead*sizeof(TYPE));

  00116	8b 45 e4	 mov	 eax, DWORD PTR _nElementsToRead$1[ebp]
  00119	c1 e0 02	 shl	 eax, 2
  0011c	50		 push	 eax
  0011d	8b 4d ec	 mov	 ecx, DWORD PTR _pData$3[ebp]
  00120	51		 push	 ecx
  00121	8b 4d 08	 mov	 ecx, DWORD PTR _ar$[ebp]
  00124	e8 00 00 00 00	 call	 ?EnsureRead@CArchive@@QAEXPAXI@Z ; CArchive::EnsureRead

; 103  : 			nElementsLeft -= nElementsToRead;

  00129	8b 45 e8	 mov	 eax, DWORD PTR _nElementsLeft$2[ebp]
  0012c	2b 45 e4	 sub	 eax, DWORD PTR _nElementsToRead$1[ebp]
  0012f	89 45 e8	 mov	 DWORD PTR _nElementsLeft$2[ebp], eax

; 104  : 			pData += nElementsToRead;

  00132	8b 45 e4	 mov	 eax, DWORD PTR _nElementsToRead$1[ebp]
  00135	8b 4d ec	 mov	 ecx, DWORD PTR _pData$3[ebp]
  00138	8d 14 81	 lea	 edx, DWORD PTR [ecx+eax*4]
  0013b	89 55 ec	 mov	 DWORD PTR _pData$3[ebp], edx

; 105  : 		}

  0013e	eb b2		 jmp	 SHORT $LN7@SerializeE
$LN12@SerializeE:

; 106  : 	}
; 107  : }

  00140	5f		 pop	 edi
  00141	5e		 pop	 esi
  00142	5b		 pop	 ebx
  00143	8b e5		 mov	 esp, ebp
  00145	5d		 pop	 ebp
  00146	c2 0c 00	 ret	 12			; 0000000cH
??$SerializeElements@PAVCGlobalServerItem@@@@YGXAAVCArchive@@PAPAVCGlobalServerItem@@H@Z ENDP ; SerializeElements<CGlobalServerItem *>
_TEXT	ENDS
; Function compile flags: /Odtp /ZI
; File c:\program files (x86)\microsoft visual studio\2017\community\vc\tools\msvc\14.16.27023\atlmfc\include\afxtempl.h
;	COMDAT ??0CAssoc@?$CMap@GGPAVCGlobalServerItem@@PAV1@@@QAE@G@Z
_TEXT	SEGMENT
_this$ = -4						; size = 4
_key$ = 8						; size = 2
??0CAssoc@?$CMap@GGPAVCGlobalServerItem@@PAV1@@@QAE@G@Z PROC ; CMap<unsigned short,unsigned short,CGlobalServerItem *,CGlobalServerItem *>::CAssoc::CAssoc, COMDAT
; _this$ = ecx

; 1267 : 		CAssoc( ARG_KEY key ) : CPair( key ) {}

  00000	55		 push	 ebp
  00001	8b ec		 mov	 ebp, esp
  00003	83 ec 44	 sub	 esp, 68			; 00000044H
  00006	53		 push	 ebx
  00007	56		 push	 esi
  00008	57		 push	 edi
  00009	89 4d fc	 mov	 DWORD PTR _this$[ebp], ecx
  0000c	0f b7 45 08	 movzx	 eax, WORD PTR _key$[ebp]
  00010	50		 push	 eax
  00011	8b 4d fc	 mov	 ecx, DWORD PTR _this$[ebp]
  00014	e8 00 00 00 00	 call	 ??0CPair@?$CMap@GGPAVCGlobalServerItem@@PAV1@@@IAE@G@Z ; CMap<unsigned short,unsigned short,CGlobalServerItem *,CGlobalServerItem *>::CPair::CPair
  00019	8b 45 fc	 mov	 eax, DWORD PTR _this$[ebp]
  0001c	5f		 pop	 edi
  0001d	5e		 pop	 esi
  0001e	5b		 pop	 ebx
  0001f	8b e5		 mov	 esp, ebp
  00021	5d		 pop	 ebp
  00022	c2 04 00	 ret	 4
??0CAssoc@?$CMap@GGPAVCGlobalServerItem@@PAV1@@@QAE@G@Z ENDP ; CMap<unsigned short,unsigned short,CGlobalServerItem *,CGlobalServerItem *>::CAssoc::CAssoc
_TEXT	ENDS
; Function compile flags: /Odtp /ZI
; File c:\program files (x86)\microsoft visual studio\2017\community\vc\tools\msvc\14.16.27023\atlmfc\include\afxtempl.h
;	COMDAT ??0CPair@?$CMap@GGPAVCGlobalServerItem@@PAV1@@@IAE@G@Z
_TEXT	SEGMENT
_this$ = -4						; size = 4
_keyval$ = 8						; size = 2
??0CPair@?$CMap@GGPAVCGlobalServerItem@@PAV1@@@IAE@G@Z PROC ; CMap<unsigned short,unsigned short,CGlobalServerItem *,CGlobalServerItem *>::CPair::CPair, COMDAT
; _this$ = ecx

; 1256 : 		CPair( ARG_KEY keyval ) : key( keyval )	{}

  00000	55		 push	 ebp
  00001	8b ec		 mov	 ebp, esp
  00003	83 ec 44	 sub	 esp, 68			; 00000044H
  00006	53		 push	 ebx
  00007	56		 push	 esi
  00008	57		 push	 edi
  00009	89 4d fc	 mov	 DWORD PTR _this$[ebp], ecx
  0000c	8b 45 fc	 mov	 eax, DWORD PTR _this$[ebp]
  0000f	66 8b 4d 08	 mov	 cx, WORD PTR _keyval$[ebp]
  00013	66 89 08	 mov	 WORD PTR [eax], cx
  00016	8b 45 fc	 mov	 eax, DWORD PTR _this$[ebp]
  00019	5f		 pop	 edi
  0001a	5e		 pop	 esi
  0001b	5b		 pop	 ebx
  0001c	8b e5		 mov	 esp, ebp
  0001e	5d		 pop	 ebp
  0001f	c2 04 00	 ret	 4
??0CPair@?$CMap@GGPAVCGlobalServerItem@@PAV1@@@IAE@G@Z ENDP ; CMap<unsigned short,unsigned short,CGlobalServerItem *,CGlobalServerItem *>::CPair::CPair
_TEXT	ENDS
; Function compile flags: /Odtp /ZI
; File c:\program files (x86)\microsoft visual studio\2017\community\vc\tools\msvc\14.16.27023\atlmfc\include\afxtempl.h
;	COMDAT ??$DumpElements@PAVCGlobalPlazaItem@@@@YGXAAVCDumpContext@@PBQAVCGlobalPlazaItem@@H@Z
_TEXT	SEGMENT
tv66 = -72						; size = 4
___afx_condVal$1 = -4					; size = 4
_dc$ = 8						; size = 4
_pElements$ = 12					; size = 4
_nCount$ = 16						; size = 4
??$DumpElements@PAVCGlobalPlazaItem@@@@YGXAAVCDumpContext@@PBQAVCGlobalPlazaItem@@H@Z PROC ; DumpElements<CGlobalPlazaItem *>, COMDAT

; 137  : {

  00000	55		 push	 ebp
  00001	8b ec		 mov	 ebp, esp
  00003	83 ec 48	 sub	 esp, 72			; 00000048H
  00006	53		 push	 ebx
  00007	56		 push	 esi
  00008	57		 push	 edi
$LN4@DumpElemen:

; 138  : 	ENSURE(nCount == 0 || pElements != NULL);

  00009	83 7d 10 00	 cmp	 DWORD PTR _nCount$[ebp], 0
  0000d	74 0f		 je	 SHORT $LN7@DumpElemen
  0000f	83 7d 0c 00	 cmp	 DWORD PTR _pElements$[ebp], 0
  00013	75 09		 jne	 SHORT $LN7@DumpElemen
  00015	c7 45 b8 00 00
	00 00		 mov	 DWORD PTR tv66[ebp], 0
  0001c	eb 07		 jmp	 SHORT $LN8@DumpElemen
$LN7@DumpElemen:
  0001e	c7 45 b8 01 00
	00 00		 mov	 DWORD PTR tv66[ebp], 1
$LN8@DumpElemen:
  00025	8b 45 b8	 mov	 eax, DWORD PTR tv66[ebp]
  00028	89 45 fc	 mov	 DWORD PTR ___afx_condVal$1[ebp], eax
  0002b	83 7d fc 00	 cmp	 DWORD PTR ___afx_condVal$1[ebp], 0
  0002f	75 14		 jne	 SHORT $LN9@DumpElemen
  00031	68 8a 00 00 00	 push	 138			; 0000008aH
  00036	68 00 00 00 00	 push	 OFFSET ??_C@_0HC@HBCNBCLF@c?3?2program?5files?5?$CIx86?$CJ?2microsof@
  0003b	e8 00 00 00 00	 call	 ?AfxAssertFailedLine@@YGHPBDH@Z ; AfxAssertFailedLine
  00040	85 c0		 test	 eax, eax
  00042	74 01		 je	 SHORT $LN9@DumpElemen
  00044	cc		 int	 3
$LN9@DumpElemen:
  00045	83 7d fc 00	 cmp	 DWORD PTR ___afx_condVal$1[ebp], 0
  00049	75 05		 jne	 SHORT $LN2@DumpElemen
  0004b	e8 00 00 00 00	 call	 ?AfxThrowInvalidArgException@@YGXXZ ; AfxThrowInvalidArgException
$LN2@DumpElemen:
  00050	33 c0		 xor	 eax, eax
  00052	75 b5		 jne	 SHORT $LN4@DumpElemen

; 139  : 	ASSERT(nCount == 0 ||

  00054	83 7d 10 00	 cmp	 DWORD PTR _nCount$[ebp], 0
  00058	74 2a		 je	 SHORT $LN6@DumpElemen
  0005a	6a 00		 push	 0
  0005c	8b 45 10	 mov	 eax, DWORD PTR _nCount$[ebp]
  0005f	c1 e0 02	 shl	 eax, 2
  00062	50		 push	 eax
  00063	8b 4d 0c	 mov	 ecx, DWORD PTR _pElements$[ebp]
  00066	51		 push	 ecx
  00067	e8 00 00 00 00	 call	 ?AfxIsValidAddress@@YGHPBXIH@Z ; AfxIsValidAddress
  0006c	85 c0		 test	 eax, eax
  0006e	75 14		 jne	 SHORT $LN6@DumpElemen
  00070	68 8c 00 00 00	 push	 140			; 0000008cH
  00075	68 00 00 00 00	 push	 OFFSET ??_C@_0HC@HBCNBCLF@c?3?2program?5files?5?$CIx86?$CJ?2microsof@
  0007a	e8 00 00 00 00	 call	 ?AfxAssertFailedLine@@YGHPBDH@Z ; AfxAssertFailedLine
  0007f	85 c0		 test	 eax, eax
  00081	74 01		 je	 SHORT $LN6@DumpElemen
  00083	cc		 int	 3
$LN6@DumpElemen:

; 140  : 		AfxIsValidAddress(pElements, (size_t)nCount * sizeof(TYPE), FALSE));
; 141  : 	(dc); // not used
; 142  : 	(pElements);  // not used
; 143  : 	(nCount); // not used
; 144  : 
; 145  : 	// default does nothing
; 146  : }

  00084	5f		 pop	 edi
  00085	5e		 pop	 esi
  00086	5b		 pop	 ebx
  00087	8b e5		 mov	 esp, ebp
  00089	5d		 pop	 ebp
  0008a	c2 0c 00	 ret	 12			; 0000000cH
??$DumpElements@PAVCGlobalPlazaItem@@@@YGXAAVCDumpContext@@PBQAVCGlobalPlazaItem@@H@Z ENDP ; DumpElements<CGlobalPlazaItem *>
_TEXT	ENDS
; Function compile flags: /Odtp /ZI
; File c:\program files (x86)\microsoft visual studio\2017\community\vc\tools\msvc\14.16.27023\atlmfc\include\afxtempl.h
;	COMDAT ??$DumpElements@G@@YGXAAVCDumpContext@@PBGH@Z
_TEXT	SEGMENT
tv66 = -72						; size = 4
___afx_condVal$1 = -4					; size = 4
_dc$ = 8						; size = 4
_pElements$ = 12					; size = 4
_nCount$ = 16						; size = 4
??$DumpElements@G@@YGXAAVCDumpContext@@PBGH@Z PROC	; DumpElements<unsigned short>, COMDAT

; 137  : {

  00000	55		 push	 ebp
  00001	8b ec		 mov	 ebp, esp
  00003	83 ec 48	 sub	 esp, 72			; 00000048H
  00006	53		 push	 ebx
  00007	56		 push	 esi
  00008	57		 push	 edi
$LN4@DumpElemen:

; 138  : 	ENSURE(nCount == 0 || pElements != NULL);

  00009	83 7d 10 00	 cmp	 DWORD PTR _nCount$[ebp], 0
  0000d	74 0f		 je	 SHORT $LN7@DumpElemen
  0000f	83 7d 0c 00	 cmp	 DWORD PTR _pElements$[ebp], 0
  00013	75 09		 jne	 SHORT $LN7@DumpElemen
  00015	c7 45 b8 00 00
	00 00		 mov	 DWORD PTR tv66[ebp], 0
  0001c	eb 07		 jmp	 SHORT $LN8@DumpElemen
$LN7@DumpElemen:
  0001e	c7 45 b8 01 00
	00 00		 mov	 DWORD PTR tv66[ebp], 1
$LN8@DumpElemen:
  00025	8b 45 b8	 mov	 eax, DWORD PTR tv66[ebp]
  00028	89 45 fc	 mov	 DWORD PTR ___afx_condVal$1[ebp], eax
  0002b	83 7d fc 00	 cmp	 DWORD PTR ___afx_condVal$1[ebp], 0
  0002f	75 14		 jne	 SHORT $LN9@DumpElemen
  00031	68 8a 00 00 00	 push	 138			; 0000008aH
  00036	68 00 00 00 00	 push	 OFFSET ??_C@_0HC@HBCNBCLF@c?3?2program?5files?5?$CIx86?$CJ?2microsof@
  0003b	e8 00 00 00 00	 call	 ?AfxAssertFailedLine@@YGHPBDH@Z ; AfxAssertFailedLine
  00040	85 c0		 test	 eax, eax
  00042	74 01		 je	 SHORT $LN9@DumpElemen
  00044	cc		 int	 3
$LN9@DumpElemen:
  00045	83 7d fc 00	 cmp	 DWORD PTR ___afx_condVal$1[ebp], 0
  00049	75 05		 jne	 SHORT $LN2@DumpElemen
  0004b	e8 00 00 00 00	 call	 ?AfxThrowInvalidArgException@@YGXXZ ; AfxThrowInvalidArgException
$LN2@DumpElemen:
  00050	33 c0		 xor	 eax, eax
  00052	75 b5		 jne	 SHORT $LN4@DumpElemen

; 139  : 	ASSERT(nCount == 0 ||

  00054	83 7d 10 00	 cmp	 DWORD PTR _nCount$[ebp], 0
  00058	74 29		 je	 SHORT $LN6@DumpElemen
  0005a	6a 00		 push	 0
  0005c	8b 45 10	 mov	 eax, DWORD PTR _nCount$[ebp]
